 Xy6.0

 Timestamp is 5d6b66bb (Sun Sep 01 14:35:39 2019)

 Preferred load address is 00400000

 Start         Length     Name                   Class
 0001:00000000 001cef14H .text                   CODE
 0001:001cef14 0000160dH .text$AFX_AUX           CODE
 0001:001d0521 00001363H .text$AFX_CMNCTL        CODE
 0001:001d1884 0000076cH .text$AFX_COL1          CODE
 0001:001d1ff0 00000682H .text$AFX_COL2          CODE
 0001:001d2672 0000833bH .text$AFX_CORE1         CODE
 0001:001da9ad 00004c28H .text$AFX_CORE2         CODE
 0001:001df5d5 000064f8H .text$AFX_CORE3         CODE
 0001:001e5acd 000060bdH .text$AFX_CORE4         CODE
 0001:001ebb8a 0000159eH .text$AFX_INET          CODE
 0001:001ed128 00003ed0H .text$AFX_INIT          CODE
 0001:001f0ff8 0000061dH .text$AFX_OLE1          CODE
 0001:001f1615 00000222H .text$AFX_OLE2          CODE
 0001:001f1837 00000555H .text$AFX_OLE3          CODE
 0001:001f1d8c 00000ba6H .text$AFX_OLE4          CODE
 0001:001f2932 0000183bH .text$AFX_OLE5          CODE
 0001:001f416d 00000000H .text$AFX_PRNT          CODE
 0001:001f416d 00000266H .text$AFX_TERM          CODE
 0001:001f43e0 000199d2H .text$x                 CODE
 0002:00000000 00002e50H .rodata                 CODE
 0003:00000000 0001b257H .rotext                 CODE
 0004:00000000 00000b08H .idata$5                DATA
 0004:00000b10 0002fb28H .rdata                  DATA
 0004:00030638 000032ecH .rdata$r                DATA
 0004:00033928 0001f2c8H .xdata$x                DATA
 0004:00052bf0 000001a4H .idata$2                DATA
 0004:00052d94 00000014H .idata$3                DATA
 0004:00052da8 00000b08H .idata$4                DATA
 0004:000538b0 00002cf8H .idata$6                DATA
 0004:000565a8 00000000H .edata                  DATA
 0005:00000000 00000004H .CRT$XCA                DATA
 0005:00000004 00000030H .CRT$XCC                DATA
 0005:00000034 0000001cH .CRT$XCL                DATA
 0005:00000050 000008c0H .CRT$XCU                DATA
 0005:00000910 00000004H .CRT$XCZ                DATA
 0005:00000914 00000004H .CRT$XIA                DATA
 0005:00000918 0000000cH .CRT$XIC                DATA
 0005:00000924 00000004H .CRT$XIY                DATA
 0005:00000928 00000004H .CRT$XIZ                DATA
 0005:0000092c 00000004H .CRT$XPA                DATA
 0005:00000930 00000008H .CRT$XPX                DATA
 0005:00000938 00000004H .CRT$XPZ                DATA
 0005:0000093c 00000004H .CRT$XTA                DATA
 0005:00000940 00000004H .CRT$XTB                DATA
 0005:00000944 00000004H .CRT$XTZ                DATA
 0005:00000950 000a4fd0H .data                   DATA
 0005:000a5920 00075128H .bss                    DATA
 0006:00000000 0000bf48H .rsrc$01                DATA
 0006:0000bf50 00329368H .rsrc$02                DATA

  Address         Publics by Value              Rva+Base     Lib:Object

 0001:00000000       ??0CAudio@@QAE@XZ          00401000 f   Audio.obj
 0001:000000c0       ??_ECAudio@@UAEPAXI@Z      004010c0 f i Audio.obj
 0001:000000c0       ??_GCAudio@@UAEPAXI@Z      004010c0 f i Audio.obj
 0001:000000e0       ??1CAudio@@UAE@XZ          004010e0 f   Audio.obj
 0001:000001d0       ?getRecordBuffer@CAudio@@QAEPAEPAK@Z 004011d0 f   Audio.obj
 0001:00000230       ?playBuffer@CAudio@@QAE_NPAEK@Z 00401230 f   Audio.obj
 0001:000002b0       ?InitializeWaveIn@CAudio@@AAE_NXZ 004012b0 f   Audio.obj
 0001:00000390       ?SetDeviceType@CAudio@@QAEXPAUtWAVEFORMATEX@@@Z 00401390 f   Audio.obj
 0001:000003e0       ?InitializeWaveOut@CAudio@@AAE_NXZ 004013e0 f   Audio.obj
 0001:000004a0       ?waveInCallBack@CAudio@@CGKPAX@Z 004014a0 f   Audio.obj
 0001:00000560       ?Compress@CAudio@@QAEHPAD0H@Z 00401560 f   Audio.obj
 0001:000005b0       ?DeCompress@CAudio@@QAEHPAD0H@Z 004015b0 f   Audio.obj
 0001:00000700       ??0CAudioDlg@@QAE@PAVCWnd@@PAVCIOCPServer@@PAUClientContext@@@Z 00401700 f   AudioDlg.obj
 0001:00000880       ?BeginModalState@CWnd@@UAEXXZ 00401880 f i AudioDlg.obj
 0001:00000890       ?EndModalState@CWnd@@UAEXXZ 00401890 f i AudioDlg.obj
 0001:000008a0       ??_ECComboBox@@UAEPAXI@Z   004018a0 f i AudioDlg.obj
 0001:000008a0       ??_GCComboBox@@UAEPAXI@Z   004018a0 f i AudioDlg.obj
 0001:000008c0       ??_ECAudioDlg@@UAEPAXI@Z   004018c0 f i AudioDlg.obj
 0001:000008c0       ??_GCAudioDlg@@UAEPAXI@Z   004018c0 f i AudioDlg.obj
 0001:000008e0       ??1CAudioDlg@@UAE@XZ       004018e0 f i AudioDlg.obj
 0001:00000990       ?DoDataExchange@CAudioDlg@@MAEXPAVCDataExchange@@@Z 00401990 f   AudioDlg.obj
 0001:00000a00       ?GetMessageMap@CAudioDlg@@MBEPBUAFX_MSGMAP@@XZ 00401a00 f   AudioDlg.obj
 0001:00000a10       ?OnInitDialog@CAudioDlg@@MAEHXZ 00401a10 f   AudioDlg.obj
 0001:00000cf0       ?ShowLinesCombox@CAudioDlg@@QAEXVCString@@H@Z 00401cf0 f   AudioDlg.obj
 0001:00000e30       ?OnReceiveComplete@CAudioDlg@@QAEXXZ 00401e30 f   AudioDlg.obj
 0001:00000fb0       ?OnClose@CAudioDlg@@IAEXXZ 00401fb0 f   AudioDlg.obj
 0001:00001010       ?WorkThread@CAudioDlg@@KGKPAX@Z 00402010 f   AudioDlg.obj
 0001:00001160       ?OnCheckRec@CAudioDlg@@IAEXXZ 00402160 f   AudioDlg.obj
 0001:00001340       ??1CFileDialog@@UAE@XZ     00402340 f i AudioDlg.obj
 0001:00001390       ?OnSelchangeComboDriveIn@CAudioDlg@@IAEXXZ 00402390 f   AudioDlg.obj
 0001:00001450       ?OnSelchangeComboInputlines@CAudioDlg@@IAEXXZ 00402450 f   AudioDlg.obj
 0001:00001520       ?PostNcDestroy@CAudioDlg@@MAEXXZ 00402520 f   AudioDlg.obj
 0001:00001770       ??0CBmpToAvi@@QAE@XZ       00402770 f   BmpToAvi.obj
 0001:00001790       ??_ECBmpToAvi@@UAEPAXI@Z   00402790 f i BmpToAvi.obj
 0001:00001790       ??_GCBmpToAvi@@UAEPAXI@Z   00402790 f i BmpToAvi.obj
 0001:000017b0       ??1CBmpToAvi@@UAE@XZ       004027b0 f   BmpToAvi.obj
 0001:000017c0       ?Open@CBmpToAvi@@QAE_NPBDPAUtagBITMAPINFO@@@Z 004027c0 f   BmpToAvi.obj
 0001:00001880       ?Write@CBmpToAvi@@QAE_NPAX@Z 00402880 f   BmpToAvi.obj
 0001:000018d0       ?Close@CBmpToAvi@@QAEXXZ   004028d0 f   BmpToAvi.obj
 0001:000019f0       ??0CBuffer@@QAE@XZ         004029f0 f   Buffer.obj
 0001:00001a10       ??_ECBuffer@@UAEPAXI@Z     00402a10 f i Buffer.obj
 0001:00001a10       ??_GCBuffer@@UAEPAXI@Z     00402a10 f i Buffer.obj
 0001:00001a30       ??1CBuffer@@UAE@XZ         00402a30 f   Buffer.obj
 0001:00001a50       ?Write@CBuffer@@QAEHPAEI@Z 00402a50 f   Buffer.obj
 0001:00001aa0       ?Read@CBuffer@@QAEIPAEI@Z  00402aa0 f   Buffer.obj
 0001:00001b30       ?GetMemSize@CBuffer@@IAEIXZ 00402b30 f   Buffer.obj
 0001:00001b40       ?GetBufferLen@CBuffer@@QAEIXZ 00402b40 f   Buffer.obj
 0001:00001b50       ?ReAllocateBuffer@CBuffer@@IAEII@Z 00402b50 f   Buffer.obj
 0001:00001c20       ?DeAllocateBuffer@CBuffer@@IAEII@Z 00402c20 f   Buffer.obj
 0001:00001d00       ?ClearBuffer@CBuffer@@QAEXXZ 00402d00 f   Buffer.obj
 0001:00001d30       ?GetBuffer@CBuffer@@QAEPAEI@Z 00402d30 f   Buffer.obj
 0001:00001d40       ?Delete@CBuffer@@QAEII@Z   00402d40 f   Buffer.obj
 0001:00001ea0       ??0CBuild@@QAE@PAVCWnd@@@Z 00402ea0 f   Build.obj
 0001:00002850       ?AfxGetApp@@YGPAVCWinApp@@XZ 00403850 f i Build.obj
 0001:00002860       ??_ECStatic@@UAEPAXI@Z     00403860 f i Build.obj
 0001:00002860       ??_GCStatic@@UAEPAXI@Z     00403860 f i Build.obj
 0001:00002880       ??_ECButton@@UAEPAXI@Z     00403880 f i Build.obj
 0001:00002880       ??_GCButton@@UAEPAXI@Z     00403880 f i Build.obj
 0001:000028a0       ??_GCEdit@@UAEPAXI@Z       004038a0 f i Build.obj
 0001:000028a0       ??_ECEdit@@UAEPAXI@Z       004038a0 f i Build.obj
 0001:000028c0       ??_ECBuild@@UAEPAXI@Z      004038c0 f i Build.obj
 0001:000028c0       ??_GCBuild@@UAEPAXI@Z      004038c0 f i Build.obj
 0001:000028e0       ??1CBuild@@UAE@XZ          004038e0 f i Build.obj
 0001:00002ad0       ?DoDataExchange@CBuild@@MAEXPAVCDataExchange@@@Z 00403ad0 f   Build.obj
 0001:00002dc0       ?GetMessageMap@CBuild@@MBEPBUAFX_MSGMAP@@XZ 00403dc0 f   Build.obj
 0001:00002dd0       ??1CUpdateDlg@@UAE@XZ      00403dd0 f i Build.obj
 0001:00002eb0       ?OnInitDialog@CBuild@@MAEHXZ 00403eb0 f   Build.obj
 0001:00003610       ?OnTestMaster1@CBuild@@IAEXXZ 00404610 f   Build.obj
 0001:00003660       ?OnTestMaster2@CBuild@@IAEXXZ 00404660 f   Build.obj
 0001:000036b0       ?WipeFile@@YAHPBD0@Z       004046b0 f   Build.obj
 0001:00003800       ?EmptyDirectory@@YAHPBDHH@Z 00404800 f   Build.obj
 0001:00003a20       ?DeleteUrlCache@@YAHW4DEL_CACHE_TYPE@@@Z 00404a20 f   Build.obj
 0001:00003ae0       ?IPorUrl@@YAHPAD@Z         00404ae0 f   Build.obj
 0001:00003b60       ?UrlToIP@@YAPADPBD@Z       00404b60 f   Build.obj
 0001:00003d50       ?TestMaster1@CBuild@@IAEXXZ 00404d50 f   Build.obj
 0001:00003f20       ?qqonline@@YAHPBD@Z        00404f20 f   Build.obj
 0001:000049d0       ??0_bstr_t@@QAE@PBD@Z      004059d0 f i Build.obj
 0001:00004a70       ??1_bstr_t@@QAE@XZ         00405a70 f i Build.obj
 0001:00004a70       ?_Free@_bstr_t@@AAEXXZ     00405a70 f i Build.obj
 0001:00004ac0       ??1_variant_t@@QAE@XZ      00405ac0 f i Build.obj
 0001:00004ae0       ?TestMaster2@CBuild@@IAEXXZ 00405ae0 f   Build.obj
 0001:00004cc0       ?PreTranslateMessage@CBuild@@UAEHPAUtagMSG@@@Z 00405cc0 f   Build.obj
 0001:00004d10       ?OnzrppccAz@CBuild@@IAEXXZ 00405d10 f   Build.obj
 0001:00004e00       ?OnZraz1@CBuild@@IAEXXZ    00405e00 f   Build.obj
 0001:00004e00       ?OnZraz@CBuild@@IAEXXZ     00405e00 f   Build.obj
 0001:00004e00       ?OnZraz2@CBuild@@IAEXXZ    00405e00 f   Build.obj
 0001:00004e10       ?OnSelectIco@CBuild@@IAEXXZ 00405e10 f   Build.obj
 0001:00004fc0       ?CheckFileExist@@YAHPBD@Z  00405fc0 f   Build.obj
 0001:00004ff0       ?OpenFile@@YA_NPBDH@Z      00405ff0 f   Build.obj
 0001:000051d0       ?OnKbtest@CBuild@@IAEXXZ   004061d0 f   Build.obj
 0001:00005310       ?OnKbcheck@CBuild@@IAEXXZ  00406310 f   Build.obj
 0001:00005370       ?OnCtlColor@CBuild@@IAEPAUHBRUSH__@@PAVCDC@@PAVCWnd@@I@Z 00406370 f   Build.obj
 0001:000053d0       ?OnExit@CBuild@@IAEXXZ     004063d0 f   Build.obj
 0001:000053f0       ?StormRand@@YAHH@Z         004063f0 f   Build.obj
 0001:00005410       ?my_stormRands@@YAXHDQADDD@Z 00406410 f   Build.obj
 0001:00005490       ?OnRandom@CBuild@@IAEXXZ   00406490 f   Build.obj
 0001:00005780       ?DecryptData@@YAXPAEKK@Z   00406780 f   Build.obj
 0001:000057b0       ?OnBuild@CBuild@@IAEXXZ    004067b0 f   Build.obj
 0001:00007590       ??1CMyToolsKit@@UAE@XZ     00408590 f i Build.obj
 0001:00007630       ?IsFileExist@CBuild@@QAEHPBD@Z 00408630 f   Build.obj
 0001:00007660       ?CompressUpx@CBuild@@QAEHVCString@@@Z 00408660 f   Build.obj
 0001:00007850       ?basenew64_newdecode@@YAHPBDPAPAD@Z 00408850 f   Build.obj
 0001:000079d0       ?NewDecode@@YAPADPAD@Z     004089d0 f   Build.obj
 0001:00007ab0       ?OnHuoquZp@CBuild@@IAEXXZ  00408ab0 f   Build.obj
 0001:00008250       ?OnHuoquCp@CBuild@@IAEXXZ  00409250 f   Build.obj
 0001:00008890       ?randnum@@YAIXZ            00409890 f   Build.obj
 0001:00008910       ?OnZcBuild@CBuild@@IAEXXZ  00409910 f   Build.obj
 0001:0000a680       ?open@IXMLHTTPRequest@MSXML2@@QAEJV_bstr_t@@0ABV_variant_t@@11@Z 0040b680 f i Build.obj
 0001:0000a7d0       ?CreateInstance@?$_com_ptr_t@V?$_com_IIID@UIXMLHTTPRequest@MSXML2@@$1?_GUID_ed8c108d_4349_11d2_91a4_00c04f7969e8@@3U__s_GUID@@A@@@@QAEJABU_GUID@@PAUIUnknown@@K@Z 0040b7d0 f i Build.obj
 0001:0000a950       ??0CBulidServer@@QAE@XZ    0040b950 f   BulidServer.obj
 0001:0000a960       ??_ECBulidServer@@UAEPAXI@Z 0040b960 f i BulidServer.obj
 0001:0000a960       ??_GCBulidServer@@UAEPAXI@Z 0040b960 f i BulidServer.obj
 0001:0000a980       ??1CBulidServer@@UAE@XZ    0040b980 f   BulidServer.obj
 0001:0000a990       ?BulidServer@CBulidServer@@QAEHPAXHPBD1@Z 0040b990 f   BulidServer.obj
 0001:0000aa30       ?IsDatFile@CBulidServer@@AAEHPBD@Z 0040ba30 f   BulidServer.obj
 0001:0000aa70       ?ReadDatDataToBuffer@CBulidServer@@AAEHPBDAAPADAAK@Z 0040ba70 f   BulidServer.obj
 0001:0000ab30       ?CreateServer@CBulidServer@@AAEHPAXHPBDAAPADAAK@Z 0040bb30 f   BulidServer.obj
 0001:0000ac10       ?FindStructDataOffset@CBulidServer@@AAEIPAXHAAPADAAK@Z 0040bc10 f   BulidServer.obj
 0001:0000ad90       ??0CChangeGroupDlg@@QAE@PAVCWnd@@@Z 0040bd90 f   ChangeGroupDlg.obj
 0001:0000ae00       ??_ECChangeGroupDlg@@UAEPAXI@Z 0040be00 f i ChangeGroupDlg.obj
 0001:0000ae00       ??_GCChangeGroupDlg@@UAEPAXI@Z 0040be00 f i ChangeGroupDlg.obj
 0001:0000ae20       ??1CChangeGroupDlg@@UAE@XZ 0040be20 f i ChangeGroupDlg.obj
 0001:0000ae80       ?DoDataExchange@CChangeGroupDlg@@MAEXPAVCDataExchange@@@Z 0040be80 f   ChangeGroupDlg.obj
 0001:0000aea0       ?GetMessageMap@CChangeGroupDlg@@MBEPBUAFX_MSGMAP@@XZ 0040bea0 f   ChangeGroupDlg.obj
 0001:0000aeb0       ?OnInitDialog@CChangeGroupDlg@@MAEHXZ 0040beb0 f   ChangeGroupDlg.obj
 0001:0000b010       ?OnOK@CChangeGroupDlg@@MAEXXZ 0040c010 f   ChangeGroupDlg.obj
 0001:0000b350       ?CalcBezier@@YAXPBNHPAN@Z  0040c350 f   Curvefit.obj
 0001:0000bd70       ??0CDataStatus@@QAE@PAVCWnd@@@Z 0040cd70 f   DataStatus.obj
 0001:0000bed0       ??_ECDataStatus@@UAEPAXI@Z 0040ced0 f i DataStatus.obj
 0001:0000bed0       ??_GCDataStatus@@UAEPAXI@Z 0040ced0 f i DataStatus.obj
 0001:0000bef0       ??1CDataStatus@@UAE@XZ     0040cef0 f i DataStatus.obj
 0001:0000c050       ?DoDataExchange@CDataStatus@@MAEXPAVCDataExchange@@@Z 0040d050 f   DataStatus.obj
 0001:0000c0e0       ?GetMessageMap@CDataStatus@@MBEPBUAFX_MSGMAP@@XZ 0040d0e0 f   DataStatus.obj
 0001:0000c0f0       ?TransParentDC@@YAXVCRect@@PAVCDC@@@Z 0040d0f0 f   DataStatus.obj
 0001:0000c280       ??0CGdiObject@@QAE@XZ      0040d280 f i DataStatus.obj
 0001:0000c290       ??_GCGdiObject@@UAEPAXI@Z  0040d290 f i DataStatus.obj
 0001:0000c290       ??_ECGdiObject@@UAEPAXI@Z  0040d290 f i DataStatus.obj
 0001:0000c2b0       ??1CGdiObject@@UAE@XZ      0040d2b0 f i DataStatus.obj
 0001:0000c2f0       ??_ECBitmap@@UAEPAXI@Z     0040d2f0 f i DataStatus.obj
 0001:0000c2f0       ??_GCBitmap@@UAEPAXI@Z     0040d2f0 f i DataStatus.obj
 0001:0000c310       ??1CBitmap@@UAE@XZ         0040d310 f i DataStatus.obj
 0001:0000c350       ?LoadMyBitmap@CDataStatus@@QAE?AVCSize@@I@Z 0040d350 f   DataStatus.obj
 0001:0000c500       ?OnPaint@CDataStatus@@IAEXXZ 0040d500 f   DataStatus.obj
 0001:0000c5e0       ??_GCFont@@UAEPAXI@Z       0040d5e0 f i DataStatus.obj
 0001:0000c5e0       ??_ECFont@@UAEPAXI@Z       0040d5e0 f i DataStatus.obj
 0001:0000c600       ??1CFont@@UAE@XZ           0040d600 f i DataStatus.obj
 0001:0000c640       ?OnInitDialog@CDataStatus@@IAEJIJ@Z 0040d640 f   DataStatus.obj
 0001:0000c900       ?OnCtlColor@CDataStatus@@IAEPAUHBRUSH__@@PAVCDC@@PAVCWnd@@I@Z 0040d900 f   DataStatus.obj
 0001:0000c990       ?OnTimer@CDataStatus@@IAEXI@Z 0040d990 f   DataStatus.obj
 0001:0000cad0       ?URLEncode@@YAHPBDPADH@Z   0040dad0 f   DataStatus.obj
 0001:0000cc00       ?FindStr@CDataStatus@@IAE?AVCString@@AAV2@V2@1_N@Z 0040dc00 f   DataStatus.obj
 0001:0000cd50       ?GetWeather@CDataStatus@@IAEHXZ 0040dd50 f   DataStatus.obj
 0001:0000d6d0       ?FindDIBBits@CDib@@QAEPADPAD@Z 0040e6d0 f   Dib.obj
 0001:0000d6f0       ?DIBNumColors@CDib@@QAEGPAD@Z 0040e6f0 f   Dib.obj
 0001:0000d730       ?PaletteSize@CDib@@QAEGPAD@Z 0040e730 f   Dib.obj
 0001:0000d740       ?BytesPerLine@CDib@@QAEKPAUtagBITMAPINFOHEADER@@@Z 0040e740 f   Dib.obj
 0001:0000d770       ?WriteBMPFile@CDib@@QAEHPBDPAE@Z 0040e770 f   Dib.obj
 0001:0000e5c0       ?PointMirror@@YA?AVCPoint@@ABV1@0@Z 0040f5c0 f   Digistatic.obj
 0001:0000e5f0       ?LineMirrorX@@YA?AVCPoint@@ABV1@H@Z 0040f5f0 f   Digistatic.obj
 0001:0000e610       ?LineMirrorY@@YA?AVCPoint@@ABV1@H@Z 0040f610 f   Digistatic.obj
 0001:0000e630       ??0CDSegment@@QAE@XZ       0040f630 f   Digistatic.obj
 0001:0000e640       ??0CDSegment@@QAE@ABV0@@Z  0040f640 f   Digistatic.obj
 0001:0000e6c0       ??1CDSegment@@QAE@XZ       0040f6c0 f   Digistatic.obj
 0001:0000e6d0       ?DefPoints@CDSegment@@QAEXPBUtagPOINT@@PBEH@Z 0040f6d0 f   Digistatic.obj
 0001:0000e750       ??4CDSegment@@QAE?AV0@ABV0@@Z 0040f750 f   Digistatic.obj
 0001:0000e800       ?FreeSegment@CDSegment@@QAEXXZ 0040f800 f   Digistatic.obj
 0001:0000e820       ?Draw@CDSegment@@QBEXPAVCDC@@VCDoubleRect@@H@Z 0040f820 f   Digistatic.obj
 0001:0000ea60       ??0CDigiChar@@QAE@XZ       0040fa60 f   Digistatic.obj
 0001:0000ea90       ??0CDigiChar@@QAE@ABV0@@Z  0040fa90 f   Digistatic.obj
 0001:0000ecd0       ?Draw@CDigiChar@@QAEXPAVCDC@@VCDoubleRect@@PAVCPen@@2PAVCBrush@@3@Z 0040fcd0 f   Digistatic.obj
 0001:0000edb0       ?SetElementData@CDigiChar@@UAEXGH@Z 0040fdb0 f   Digistatic.obj
 0001:0000edc0       ??4CDigiChar@@QAE?AV0@ABV0@@Z 0040fdc0 f   Digistatic.obj
 0001:0000efe0       ??0CDigi7Segment@@QAE@XZ   0040ffe0 f   Digistatic.obj
 0001:0000f000       ?SetElementData@CDigi7Segment@@UAEXGH@Z 00410000 f   Digistatic.obj
 0001:0000f460       ??0CDigi14Segment@@QAE@XZ  00410460 f   Digistatic.obj
 0001:0000f480       ?SetElementData@CDigi14Segment@@UAEXGH@Z 00410480 f   Digistatic.obj
 0001:0000fb90       ??0CDigiColonDotChar@@QAE@XZ 00410b90 f   Digistatic.obj
 0001:0000fbb0       ?SetElementData@CDigiColonDotChar@@UAEXGH@Z 00410bb0 f   Digistatic.obj
 0001:0000fce0       ??0CDigiStatic@@QAE@XZ     00410ce0 f   Digistatic.obj
 0001:0000fd70       ??_ECDigiStatic@@UAEPAXI@Z 00410d70 f i Digistatic.obj
 0001:0000fd70       ??_GCDigiStatic@@UAEPAXI@Z 00410d70 f i Digistatic.obj
 0001:0000fd90       ??1CDigiStatic@@UAE@XZ     00410d90 f   Digistatic.obj
 0001:0000fea0       ?SetText@CDigiStatic@@QAEXPBD@Z 00410ea0 f   Digistatic.obj
 0001:0000ff00       ?SetColor@CDigiStatic@@QAEXKK@Z 00410f00 f   Digistatic.obj
 0001:0000ff30       ?SetBkColor@CDigiStatic@@QAEKK@Z 00410f30 f   Digistatic.obj
 0001:0000ff60       ?DefineChar@CDigiStatic@@IAEPAVCDigiChar@@D@Z 00410f60 f   Digistatic.obj
 0001:00010150       ?BuildString@CDigiStatic@@IAEXXZ 00411150 f   Digistatic.obj
 0001:00010280       ?GetMessageMap@CDigiStatic@@MBEPBUAFX_MSGMAP@@XZ 00411280 f   Digistatic.obj
 0001:00010290       ?OnPaint@CDigiStatic@@IAEXXZ 00411290 f   Digistatic.obj
 0001:00010a70       ??1CPen@@UAE@XZ            00411a70 f i Digistatic.obj
 0001:00010ab0       ??_ECBrush@@UAEPAXI@Z      00411ab0 f i Digistatic.obj
 0001:00010ab0       ??_GCBrush@@UAEPAXI@Z      00411ab0 f i Digistatic.obj
 0001:00010ad0       ??1CBrush@@UAE@XZ          00411ad0 f i Digistatic.obj
 0001:00010b10       ?CreateCompatibleBitmap@CBitmap@@QAEHPAVCDC@@HH@Z 00411b10 f i Digistatic.obj
 0001:00010b40       ?SelectObject@CDC@@QAEPAVCBitmap@@PAV2@@Z 00411b40 f i Digistatic.obj
 0001:00010b70       ?PtVisible@CDC@@UBEHHH@Z   00411b70 f i Digistatic.obj
 0001:00010b90       ?RectVisible@CDC@@UBEHPBUtagRECT@@@Z 00411b90 f i Digistatic.obj
 0001:00010bb0       ?TextOutA@CDC@@UAEHHHPBDH@Z 00411bb0 f i Digistatic.obj
 0001:00010be0       ?ExtTextOutA@CDC@@UAEHHHIPBUtagRECT@@PBDIPAH@Z 00411be0 f i Digistatic.obj
 0001:00010c10       ?TabbedTextOutA@CDC@@UAE?AVCSize@@HHPBDHHPAHH@Z 00411c10 f i Digistatic.obj
 0001:00010c60       ?DrawTextA@CDC@@UAEHPBDHPAUtagRECT@@I@Z 00411c60 f i Digistatic.obj
 0001:00010c90       ?GrayStringA@CDC@@UAEHPAVCBrush@@P6GHPAUHDC__@@JH@ZJHHHHH@Z 00411c90 f i Digistatic.obj
 0001:00010cd0       ?Escape@CDC@@UAEHHHPBDPAX@Z 00411cd0 f i Digistatic.obj
 0001:00010d00       ??1CMemDC@@UAE@XZ          00411d00 f i Digistatic.obj
 0001:00010dd0       ??_GCMemDC@@UAEPAXI@Z      00411dd0 f i Digistatic.obj
 0001:00010dd0       ??_ECMemDC@@UAEPAXI@Z      00411dd0 f i Digistatic.obj
 0001:00010df0       ?Add@?$CArray@VCDSegment@@V1@@@QAEHVCDSegment@@@Z 00411df0 f i Digistatic.obj
 0001:00010e60       ??1?$CArray@VCDSegment@@V1@@@UAE@XZ 00411e60 f i Digistatic.obj
 0001:00010ed0       ?Serialize@?$CArray@VCDSegment@@V1@@@UAEXAAVCArchive@@@Z 00411ed0 f i Digistatic.obj
 0001:000110b0       ?Add@?$CArray@VCDigiChar@@V1@@@QAEHVCDigiChar@@@Z 004120b0 f i Digistatic.obj
 0001:00011150       ??1CDigiChar@@QAE@XZ       00412150 f i Digistatic.obj
 0001:000111c0       ??1?$CArray@VCDigiChar@@V1@@@UAE@XZ 004121c0 f i Digistatic.obj
 0001:00011290       ?Serialize@?$CArray@VCDigiChar@@V1@@@UAEXAAVCArchive@@@Z 00412290 f i Digistatic.obj
 0001:00011490       ??_G?$CArray@VCDSegment@@V1@@@UAEPAXI@Z 00412490 f i Digistatic.obj
 0001:00011490       ??_E?$CArray@VCDSegment@@V1@@@UAEPAXI@Z 00412490 f i Digistatic.obj
 0001:000114b0       ??_E?$CArray@VCDigiChar@@V1@@@UAEPAXI@Z 004124b0 f i Digistatic.obj
 0001:000114b0       ??_G?$CArray@VCDigiChar@@V1@@@UAEPAXI@Z 004124b0 f i Digistatic.obj
 0001:000114d0       ?SetSize@?$CArray@VCDSegment@@V1@@@QAEXHH@Z 004124d0 f i Digistatic.obj
 0001:00011650       ?SetAtGrow@?$CArray@VCDSegment@@V1@@@QAEXHVCDSegment@@@Z 00412650 f i Digistatic.obj
 0001:000118b0       ?DestructElements@@YGXPAVCDSegment@@H@Z 004128b0 f i Digistatic.obj
 0001:000118e0       ?SetSize@?$CArray@VCDigiChar@@V1@@@QAEXHH@Z 004128e0 f i Digistatic.obj
 0001:00011a80       ?SetAtGrow@?$CArray@VCDigiChar@@V1@@@QAEXHVCDigiChar@@@Z 00412a80 f i Digistatic.obj
 0001:00011d00       ??_GCDigiChar@@QAEPAXI@Z   00412d00 f i Digistatic.obj
 0001:00011d20       ?DestructElements@@YGXPAVCDigiChar@@H@Z 00412d20 f i Digistatic.obj
 0001:00011d50       ??_GCDSegment@@QAEPAXI@Z   00412d50 f i Digistatic.obj
 0001:00011d70       ?ConstructElements@@YGXPAVCDSegment@@H@Z 00412d70 f i Digistatic.obj
 0001:00011dc0       ?ConstructElements@@YGXPAVCDigiChar@@H@Z 00412dc0 f i Digistatic.obj
 0001:00011f00       ??0CFileManagerDlg@@QAE@PAVCWnd@@PAVCIOCPServer@@PAUClientContext@@@Z 00412f00 f   FileManagerDlg.obj
 0001:000122a0       ??_ECFileManagerDlg@@UAEPAXI@Z 004132a0 f i FileManagerDlg.obj
 0001:000122a0       ??_GCFileManagerDlg@@UAEPAXI@Z 004132a0 f i FileManagerDlg.obj
 0001:000122c0       ??1CFileManagerDlg@@UAE@XZ 004132c0 f i FileManagerDlg.obj
 0001:00012550       ?DoDataExchange@CFileManagerDlg@@MAEXPAVCDataExchange@@@Z 00413550 f   FileManagerDlg.obj
 0001:000125c0       ?GetMessageMap@CFileManagerDlg@@MBEPBUAFX_MSGMAP@@XZ 004135c0 f   FileManagerDlg.obj
 0001:000125d0       ?OnReceiveComplete@CFileManagerDlg@@QAEXXZ 004135d0 f   FileManagerDlg.obj
 0001:00012710       ?OnInitDialog@CFileManagerDlg@@MAEHXZ 00413710 f   FileManagerDlg.obj
 0001:00012c40       ??3CObject@@SGXPAX@Z       00413c40 f i FileManagerDlg.obj
 0001:00012c50       ?GetIconIndex@@YAHPBDK@Z   00413c50 f   FileManagerDlg.obj
 0001:00012ca0       ?MoveToolBar@CFileManagerDlg@@AAEXXZ 00413ca0 f   FileManagerDlg.obj
 0001:00012d30       ?OnSize@CFileManagerDlg@@IAEXIHH@Z 00413d30 f   FileManagerDlg.obj
 0001:00012e90       ?FixedLocalDriveList@CFileManagerDlg@@QAEXXZ 00413e90 f   FileManagerDlg.obj
 0001:000131b0       ?OnDblclkListLocal@CFileManagerDlg@@IAEXPAUtagNMHDR@@PAJ@Z 004141b0 f   FileManagerDlg.obj
 0001:00013220       ?FixedLocalFileList@CFileManagerDlg@@QAEXVCString@@@Z 00414220 f   FileManagerDlg.obj
 0001:000137b0       ?DropItemOnList@CFileManagerDlg@@IAEXPAVCListCtrl@@0@Z 004147b0 f   FileManagerDlg.obj
 0001:00013820       ?OnQueryDragIcon@CFileManagerDlg@@IAEPAUHICON__@@XZ 00414820 f   FileManagerDlg.obj
 0001:00013830       ?OnBegindragListLocal@CFileManagerDlg@@IAEXPAUtagNMHDR@@PAJ@Z 00414830 f   FileManagerDlg.obj
 0001:00013910       ?OnBegindragListRemote@CFileManagerDlg@@IAEXPAUtagNMHDR@@PAJ@Z 00414910 f   FileManagerDlg.obj
 0001:000139f0       ?OnMouseMove@CFileManagerDlg@@IAEXIVCPoint@@@Z 004149f0 f   FileManagerDlg.obj
 0001:00013b80       ?OnLButtonUp@CFileManagerDlg@@IAEXIVCPoint@@@Z 00414b80 f   FileManagerDlg.obj
 0001:00013c10       ?PreTranslateMessage@CFileManagerDlg@@UAEHPAUtagMSG@@@Z 00414c10 f   FileManagerDlg.obj
 0001:00013d80       ?FixedRemoteDriveList@CFileManagerDlg@@QAEXXZ 00414d80 f   FileManagerDlg.obj
 0001:00014040       ?OnClose@CFileManagerDlg@@IAEXXZ 00415040 f   FileManagerDlg.obj
 0001:00014080       ?GetParentDirectory@CFileManagerDlg@@QAE?AVCString@@V2@@Z 00415080 f   FileManagerDlg.obj
 0001:000141e0       ?GetRemoteFileList@CFileManagerDlg@@QAEXVCString@@@Z 004151e0 f   FileManagerDlg.obj
 0001:00014420       ?OnDblclkListRemote@CFileManagerDlg@@IAEXPAUtagNMHDR@@PAJ@Z 00415420 f   FileManagerDlg.obj
 0001:00014490       ?FixedRemoteFileList@CFileManagerDlg@@QAEXPAEK@Z 00415490 f   FileManagerDlg.obj
 0001:000147f0       ?OnShowMessage@CFileManagerDlg@@IAEXIJ@Z 004157f0 f   FileManagerDlg.obj
 0001:00014810       ?OnShowDlg@CFileManagerDlg@@IAEXIJ@Z 00415810 f   FileManagerDlg.obj
 0001:00014910       ??1CFileTransferModeDlg@@UAE@XZ 00415910 f i FileManagerDlg.obj
 0001:00014960       ?OnLocalList@CFileManagerDlg@@IAEXXZ 00415960 f   FileManagerDlg.obj
 0001:00014980       ?OnLocalReport@CFileManagerDlg@@IAEXXZ 00415980 f   FileManagerDlg.obj
 0001:000149a0       ?OnLocalSmallicon@CFileManagerDlg@@IAEXXZ 004159a0 f   FileManagerDlg.obj
 0001:000149c0       ?OnRemoteList@CFileManagerDlg@@IAEXXZ 004159c0 f   FileManagerDlg.obj
 0001:000149f0       ?OnRemoteReport@CFileManagerDlg@@IAEXXZ 004159f0 f   FileManagerDlg.obj
 0001:00014a20       ?OnRemoteView@CFileManagerDlg@@IAEXXZ 00415a20 f   FileManagerDlg.obj
 0001:00014a20       ?OnRemoteBigicon@CFileManagerDlg@@IAEXXZ 00415a20 f   FileManagerDlg.obj
 0001:00014a50       ?OnRemoteSmallicon@CFileManagerDlg@@IAEXXZ 00415a50 f   FileManagerDlg.obj
 0001:00014a80       ?OnLocalPrev@CFileManagerDlg@@IAEXXZ 00415a80 f   FileManagerDlg.obj
 0001:00014aa0       ?OnRemotePrev@CFileManagerDlg@@IAEXXZ 00415aa0 f   FileManagerDlg.obj
 0001:00014ac0       ?OnLocalBigicon@CFileManagerDlg@@IAEXXZ 00415ac0 f   FileManagerDlg.obj
 0001:00014ac0       ?OnLocalView@CFileManagerDlg@@IAEXXZ 00415ac0 f   FileManagerDlg.obj
 0001:00014ae0       ?OnUpdateLocalDelete@CFileManagerDlg@@IAEXPAVCCmdUI@@@Z 00415ae0 f   FileManagerDlg.obj
 0001:00014b40       ?OnUpdateLocalPrev@CFileManagerDlg@@IAEXPAVCCmdUI@@@Z 00415b40 f   FileManagerDlg.obj
 0001:00014b40       ?OnUpdateLocalNewfolder@CFileManagerDlg@@IAEXPAVCCmdUI@@@Z 00415b40 f   FileManagerDlg.obj
 0001:00014b80       ?OnUpdateLocalCopy@CFileManagerDlg@@IAEXPAVCCmdUI@@@Z 00415b80 f   FileManagerDlg.obj
 0001:00014c20       ?OnUpdateLocalStop@CFileManagerDlg@@IAEXPAVCCmdUI@@@Z 00415c20 f   FileManagerDlg.obj
 0001:00014c60       ?OnUpdateRemoteCopy@CFileManagerDlg@@IAEXPAVCCmdUI@@@Z 00415c60 f   FileManagerDlg.obj
 0001:00014d50       ?OnUpdateRemoteDelete@CFileManagerDlg@@IAEXPAVCCmdUI@@@Z 00415d50 f   FileManagerDlg.obj
 0001:00014de0       ?OnUpdateRemotePrev@CFileManagerDlg@@IAEXPAVCCmdUI@@@Z 00415de0 f   FileManagerDlg.obj
 0001:00014de0       ?OnUpdateRemoteNewfolder@CFileManagerDlg@@IAEXPAVCCmdUI@@@Z 00415de0 f   FileManagerDlg.obj
 0001:00014e40       ?OnUpdateRemoteStop@CFileManagerDlg@@IAEXPAVCCmdUI@@@Z 00415e40 f   FileManagerDlg.obj
 0001:00014ea0       ?FixedUploadDirectory@CFileManagerDlg@@QAE_NPBD@Z 00415ea0 f   FileManagerDlg.obj
 0001:000150a0       ?EnableControl@CFileManagerDlg@@AAEXH@Z 004160a0 f   FileManagerDlg.obj
 0001:00015100       ?OnLocalCopy@CFileManagerDlg@@IAEXXZ 00416100 f   FileManagerDlg.obj
 0001:00015390       ?OnRemoteCopy@CFileManagerDlg@@IAEXXZ 00416390 f   FileManagerDlg.obj
 0001:00015660       ?SendDownloadJob@CFileManagerDlg@@QAEHXZ 00416660 f   FileManagerDlg.obj
 0001:00015760       ?SendUploadJob@CFileManagerDlg@@QAEHXZ 00416760 f   FileManagerDlg.obj
 0001:00015a60       ?SendDeleteJob@CFileManagerDlg@@QAEHXZ 00416a60 f   FileManagerDlg.obj
 0001:00015c80       ?CreateLocalRecvFile@CFileManagerDlg@@QAEXXZ 00416c80 f   FileManagerDlg.obj
 0001:00016090       ?WriteLocalRecvFile@CFileManagerDlg@@QAEXXZ 00417090 f   FileManagerDlg.obj
 0001:00016220       ?EndLocalRecvFile@CFileManagerDlg@@QAEXXZ 00417220 f   FileManagerDlg.obj
 0001:00016320       ?EndLocalUploadFile@CFileManagerDlg@@AAEXXZ 00417320 f   FileManagerDlg.obj
 0001:00016420       ?EndRemoteDeleteFile@CFileManagerDlg@@QAEXXZ 00417420 f   FileManagerDlg.obj
 0001:00016480       ?EndRemoteMoveFile@CFileManagerDlg@@QAEXXZ 00417480 f   FileManagerDlg.obj
 0001:000164e0       ?SendStop@CFileManagerDlg@@QAEXXZ 004174e0 f   FileManagerDlg.obj
 0001:00016510       ?ShowProgress@CFileManagerDlg@@QAEXXZ 00417510 f   FileManagerDlg.obj
 0001:00016620       ?OnLocalDelete@CFileManagerDlg@@IAEXXZ 00417620 f   FileManagerDlg.obj
 0001:00016840       ?OnRemoteDelete@CFileManagerDlg@@IAEXXZ 00417840 f   FileManagerDlg.obj
 0001:00016ce0       ?OnRemoteStop@CFileManagerDlg@@IAEXXZ 00417ce0 f   FileManagerDlg.obj
 0001:00016ce0       ?OnLocalStop@CFileManagerDlg@@IAEXXZ 00417ce0 f   FileManagerDlg.obj
 0001:00016cf0       ?SendTransferMode@CFileManagerDlg@@AAEXXZ 00417cf0 f   FileManagerDlg.obj
 0001:00016d60       ?SendFileData@CFileManagerDlg@@AAEXXZ 00417d60 f   FileManagerDlg.obj
 0001:00016ea0       ?DeleteDirectory@CFileManagerDlg@@AAE_NPBD@Z 00417ea0 f   FileManagerDlg.obj
 0001:00016f80       ?OnLocalNewfolder@CFileManagerDlg@@IAEXXZ 00417f80 f   FileManagerDlg.obj
 0001:00017120       ??1CInputDialog@@UAE@XZ    00418120 f i FileManagerDlg.obj
 0001:00017180       ?DoDataExchange@CInputDialog@@MAEXPAVCDataExchange@@@Z 00418180 f i FileManagerDlg.obj
 0001:000171a0       ??_ECInputDialog@@UAEPAXI@Z 004181a0 f i FileManagerDlg.obj
 0001:000171a0       ??_GCInputDialog@@UAEPAXI@Z 004181a0 f i FileManagerDlg.obj
 0001:000171c0       ?OnRemoteNewfolder@CFileManagerDlg@@IAEXXZ 004181c0 f   FileManagerDlg.obj
 0001:000173c0       ?OnTransfer@CFileManagerDlg@@IAEXXZ 004183c0 f   FileManagerDlg.obj
 0001:00017400       ?OnRename@CFileManagerDlg@@IAEXXZ 00418400 f   FileManagerDlg.obj
 0001:00017490       ?OnEndlabeleditListLocal@CFileManagerDlg@@IAEXPAUtagNMHDR@@PAJ@Z 00418490 f   FileManagerDlg.obj
 0001:000175e0       ?OnEndlabeleditListRemote@CFileManagerDlg@@IAEXPAUtagNMHDR@@PAJ@Z 004185e0 f   FileManagerDlg.obj
 0001:000177e0       ?OnDelete@CFileManagerDlg@@IAEXXZ 004187e0 f   FileManagerDlg.obj
 0001:00017820       ?OnNewfolder@CFileManagerDlg@@IAEXXZ 00418820 f   FileManagerDlg.obj
 0001:00017860       ?OnRefresh@CFileManagerDlg@@IAEXXZ 00418860 f   FileManagerDlg.obj
 0001:000178e0       ?OnLocalOpen@CFileManagerDlg@@IAEXXZ 004188e0 f   FileManagerDlg.obj
 0001:000179b0       ?OnRemoteOpenShow@CFileManagerDlg@@IAEXXZ 004189b0 f   FileManagerDlg.obj
 0001:00017c60       ?OnRemoteOpenHide@CFileManagerDlg@@IAEXXZ 00418c60 f   FileManagerDlg.obj
 0001:00017f10       ?OnRclickListLocal@CFileManagerDlg@@IAEXPAUtagNMHDR@@PAJ@Z 00418f10 f   FileManagerDlg.obj
 0001:00018130       ??_ECMenu@@UAEPAXI@Z       00419130 f i FileManagerDlg.obj
 0001:00018130       ??_GCMenu@@UAEPAXI@Z       00419130 f i FileManagerDlg.obj
 0001:00018150       ??1CMenu@@UAE@XZ           00419150 f i FileManagerDlg.obj
 0001:00018190       ?OnRclickListRemote@CFileManagerDlg@@IAEXPAUtagNMHDR@@PAJ@Z 00419190 f   FileManagerDlg.obj
 0001:00018380       ?OnRclickListRemoteSearch@CFileManagerDlg@@IAEXPAUtagNMHDR@@PAJ@Z 00419380 f   FileManagerDlg.obj
 0001:00018550       ?MakeSureDirectoryPathExists@CFileManagerDlg@@AAE_NPBD@Z 00419550 f   FileManagerDlg.obj
 0001:000186d0       ?OnCreateControl@CFileManagerDlg@@AAEHPAUXTP_COMMANDBARS_CREATECONTROL@@@Z 004196d0 f   FileManagerDlg.obj
 0001:000188a0       ?PostNcDestroy@CFileManagerDlg@@MAEXXZ 004198a0 f   FileManagerDlg.obj
 0001:000188d0       ?FixedRemoteSearchFileList@CFileManagerDlg@@QAEXPAEK@Z 004198d0 f   FileManagerDlg.obj
 0001:00018a80       ?OnSearchResult@CFileManagerDlg@@IAEXXZ 00419a80 f   FileManagerDlg.obj
 0001:00018b00       ?OnSearchStart@CFileManagerDlg@@IAEXXZ 00419b00 f   FileManagerDlg.obj
 0001:00018ce0       ?OnSearchStop@CFileManagerDlg@@IAEXXZ 00419ce0 f   FileManagerDlg.obj
 0001:00018d10       ?EnableSearchButtn@CFileManagerDlg@@AAEXH@Z 00419d10 f   FileManagerDlg.obj
 0001:00018d60       ?OnMenuitemOpenFilepath@CFileManagerDlg@@IAEXXZ 00419d60 f   FileManagerDlg.obj
 0001:00018e50       ?OnCheckSubfolder@CFileManagerDlg@@IAEXXZ 00419e50 f   FileManagerDlg.obj
 0001:00018ea0       ?OnMenuitemMove@CFileManagerDlg@@IAEXXZ 00419ea0 f   FileManagerDlg.obj
 0001:00019090       ?OnMenuitemCopy@CFileManagerDlg@@IAEXXZ 0041a090 f   FileManagerDlg.obj
 0001:00019280       ?OnMenuitemPaste@CFileManagerDlg@@IAEXXZ 0041a280 f   FileManagerDlg.obj
 0001:000192c0       ?SendMoveJob@CFileManagerDlg@@QAEHXZ 0041a2c0 f   FileManagerDlg.obj
 0001:00019580       ?RemoveHead@?$CList@VCString@@AAV1@@@QAE?AVCString@@XZ 0041a580 f i FileManagerDlg.obj
 0001:00019660       ??1?$CList@VCString@@AAV1@@@UAE@XZ 0041a660 f i FileManagerDlg.obj
 0001:000196d0       ?Serialize@?$CList@VCString@@AAV1@@@UAEXAAVCArchive@@@Z 0041a6d0 f i FileManagerDlg.obj
 0001:00019820       ??_G?$CList@VCString@@AAV1@@@UAEPAXI@Z 0041a820 f i FileManagerDlg.obj
 0001:00019820       ??_E?$CList@VCString@@AAV1@@@UAEPAXI@Z 0041a820 f i FileManagerDlg.obj
 0001:00019840       ?NewNode@?$CList@VCString@@AAV1@@@IAEPAUCNode@1@PAU21@0@Z 0041a840 f i FileManagerDlg.obj
 0001:000199a0       ??0CFileTransferModeDlg@@QAE@PAVCWnd@@@Z 0041a9a0 f   FileTransferModeDlg.obj
 0001:000199d0       ??_GCFileTransferModeDlg@@UAEPAXI@Z 0041a9d0 f i FileTransferModeDlg.obj
 0001:000199d0       ??_ECFileTransferModeDlg@@UAEPAXI@Z 0041a9d0 f i FileTransferModeDlg.obj
 0001:000199f0       ?GetMessageMap@CFileTransferModeDlg@@MBEPBUAFX_MSGMAP@@XZ 0041a9f0 f   FileTransferModeDlg.obj
 0001:00019a00       ?OnInitDialog@CFileTransferModeDlg@@MAEHXZ 0041aa00 f   FileTransferModeDlg.obj
 0001:00019b90       ?CreateDumpFile@@YAXPADPAU_EXCEPTION_POINTERS@@@Z 0041ab90 f   Gh0st.obj
 0001:00019c00       ?dbg_dump@@YAXPAU_EXCEPTION_POINTERS@@@Z 0041ac00 f   Gh0st.obj
 0001:00019c80       ?bad_exception@@YGJPAU_EXCEPTION_POINTERS@@@Z 0041ac80 f   Gh0st.obj
 0001:00019ca0       ?GetMessageMap@CGh0stApp@@MBEPBUAFX_MSGMAP@@XZ 0041aca0 f   Gh0st.obj
 0001:00019cb0       ??0CGh0stApp@@QAE@XZ       0041acb0 f   Gh0st.obj
 0001:00019e50       ??_GCGh0stApp@@UAEPAXI@Z   0041ae50 f i Gh0st.obj
 0001:00019e50       ??_ECGh0stApp@@UAEPAXI@Z   0041ae50 f i Gh0st.obj
 0001:00019e70       ??1CGh0stApp@@UAE@XZ       0041ae70 f i Gh0st.obj
 0001:00019f00       ?InitInstance@CGh0stApp@@UAEHXZ 0041af00 f   Gh0st.obj
 0001:0001a0f0       ??0CAboutDlg@@QAE@XZ       0041b0f0 f   Gh0st.obj
 0001:0001a170       ??_GCAboutDlg@@UAEPAXI@Z   0041b170 f i Gh0st.obj
 0001:0001a170       ??_ECAboutDlg@@UAEPAXI@Z   0041b170 f i Gh0st.obj
 0001:0001a190       ??1CAboutDlg@@UAE@XZ       0041b190 f i Gh0st.obj
 0001:0001a210       ?DoDataExchange@CAboutDlg@@MAEXPAVCDataExchange@@@Z 0041b210 f   Gh0st.obj
 0001:0001a520       ?ReplaceSel@CEdit@@QAEXPBDH@Z 0041b520 f i Gh0st.obj
 0001:0001a540       ?GetMessageMap@CAboutDlg@@MBEPBUAFX_MSGMAP@@XZ 0041b540 f   Gh0st.obj
 0001:0001a550       ?OnCtlColor@CAboutDlg@@IAEPAUHBRUSH__@@PAVCDC@@PAVCWnd@@I@Z 0041b550 f   Gh0st.obj
 0001:0001a590       ?InitInstance@CAboutDlg@@MAEHXZ 0041b590 f   Gh0st.obj
 0001:0001a5b0       ?OnAppAbout@CGh0stApp@@QAEXXZ 0041b5b0 f   Gh0st.obj
 0001:0001a760       ?CreateObject@CGh0stDoc@@SGPAVCObject@@XZ 0041b760 f   Gh0stDoc.obj
 0001:0001a7c0       ?GetRuntimeClass@CGh0stDoc@@UBEPAUCRuntimeClass@@XZ 0041b7c0 f   Gh0stDoc.obj
 0001:0001a7d0       ?GetMessageMap@CGh0stDoc@@MBEPBUAFX_MSGMAP@@XZ 0041b7d0 f   Gh0stDoc.obj
 0001:0001a7e0       ??0CGh0stDoc@@IAE@XZ       0041b7e0 f   Gh0stDoc.obj
 0001:0001a800       ?IsModified@CDocument@@UAEHXZ 0041b800 f i Gh0stDoc.obj
 0001:0001a810       ?SetModifiedFlag@CDocument@@UAEXH@Z 0041b810 f i Gh0stDoc.obj
 0001:0001a820       ??_ECGh0stDoc@@UAEPAXI@Z   0041b820 f i Gh0stDoc.obj
 0001:0001a820       ??_GCGh0stDoc@@UAEPAXI@Z   0041b820 f i Gh0stDoc.obj
 0001:0001a840       ??1CGh0stDoc@@UAE@XZ       0041b840 f   Gh0stDoc.obj
 0001:0001a850       ?OnNewDocument@CGh0stDoc@@UAEHXZ 0041b850 f   Gh0stDoc.obj
 0001:0001a950       ?CreateObject@CGh0stView@@SGPAVCObject@@XZ 0041b950 f   Gh0stView.obj
 0001:0001a9b0       ?GetRuntimeClass@CGh0stView@@UBEPAUCRuntimeClass@@XZ 0041b9b0 f   Gh0stView.obj
 0001:0001a9c0       ?GetMessageMap@CGh0stView@@MBEPBUAFX_MSGMAP@@XZ 0041b9c0 f   Gh0stView.obj
 0001:0001a9d0       ??0CGh0stView@@IAE@XZ      0041b9d0 f   Gh0stView.obj
 0001:0001aaa0       ?DisableColumnSizing@CXTPListBase@@UAEX_N@Z 0041baa0 f i Gh0stView.obj
 0001:0001aab0       ?GetExtendedStyle@CXTPListViewBase@@UAEKXZ 0041bab0 f i Gh0stView.obj
 0001:0001aab0       ?GetExtendedStyle@CXTPListCtrlBase@@UAEKXZ 0041bab0 f i Gh0stView.obj
 0001:0001aab0       ?GetExtendedStyle@CXTPListBase@@UAEKXZ 0041bab0 f i Gh0stView.obj
 0001:0001aad0       ?OnNotify@CXTPListViewBase@@MAEHIJPAJ@Z 0041bad0 f i Gh0stView.obj
 0001:0001aaf0       ?Init@CXTPListCtrlBase@@MAE_NXZ 0041baf0 f i Gh0stView.obj
 0001:0001aaf0       ?Init@CXTPListViewBase@@MAE_NXZ 0041baf0 f i Gh0stView.obj
 0001:0001ab00       ?PreSubclassWindow@CXTPListViewBase@@MAEXXZ 0041bb00 f i Gh0stView.obj
 0001:0001ab20       ??_ECGh0stView@@UAEPAXI@Z  0041bb20 f i Gh0stView.obj
 0001:0001ab20       ??_GCGh0stView@@UAEPAXI@Z  0041bb20 f i Gh0stView.obj
 0001:0001ab40       ??1CGh0stView@@UAE@XZ      0041bb40 f   Gh0stView.obj
 0001:0001abc0       ?PreCreateWindow@CGh0stView@@UAEHAAUtagCREATESTRUCTA@@@Z 0041bbc0 f   Gh0stView.obj
 0001:0001abe0       ?OnCreate@CGh0stView@@IAEHPAUtagCREATESTRUCTA@@@Z 0041bbe0 f   Gh0stView.obj
 0001:0001acb0       ?AddGroup@CGh0stView@@QAEHPBD@Z 0041bcb0 f   Gh0stView.obj
 0001:0001acd0       ?AddView@CGh0stView@@QAEHPAUCRuntimeClass@@PBD@Z 0041bcd0 f   Gh0stView.obj
 0001:0001ae20       ??1AFX_EXCEPTION_LINK@@QAE@XZ 0041be20 f i Gh0stView.obj
 0001:0001ae30       ?UpdateDocTitle@CGh0stView@@QAEXXZ 0041be30 f   Gh0stView.obj
 0001:0001ae40       ?OnSelectedChanged@CGh0stView@@IAEXPAUtagNMHDR@@PAJ@Z 0041be40 f   Gh0stView.obj
 0001:0001ae90       ?OnAddFindGroup@CGh0stView@@IAEJIJ@Z 0041be90 f   Gh0stView.obj
 0001:0001b0f0       ?UpDateNumber@CGh0stView@@QAEHXZ 0041c0f0 f   Gh0stView.obj
 0001:0001b2a0       ?OnContextMenu@CGh0stView@@IAEXPAVCWnd@@VCPoint@@@Z 0041c2a0 f   Gh0stView.obj
 0001:0001b410       ?OnSize@CGh0stView@@IAEXIHH@Z 0041c410 f   Gh0stView.obj
 0001:0001b450       ?OnMenuitemGroupAdd@CGh0stView@@IAEXXZ 0041c450 f   Gh0stView.obj
 0001:0001b7c0       ?OnMenuitemGroupDel@CGh0stView@@IAEXXZ 0041c7c0 f   Gh0stView.obj
 0001:0001b920       ?OnMenuitemChange@CGh0stView@@IAEXXZ 0041c920 f   Gh0stView.obj
 0001:0001bcd0       ?OnMenuitemSelectNum@CGh0stView@@IAEXXZ 0041ccd0 f   Gh0stView.obj
 0001:0001be70       ??_ECGh0stView@@WEI@AEPAXI@Z 0041ce70 f i Gh0stView.obj
 0001:0001be80       ?OnNotify@CXTPListViewBase@@OEI@AEHIJPAJ@Z 0041ce80 f i Gh0stView.obj
 0001:0001bf80       ?AdjustIconImagePointers@CIcons@@AAEHPAUICONIMAGE@@@Z 0041cf80 f   Icons.obj
 0001:0001bff0       ?GetIconFromInstance@CIcons@@QAEPAUHICON__@@PAUHINSTANCE__@@PAD@Z 0041cff0 f   Icons.obj
 0001:0001c0a0       ?ReadIconFromEXEFile@CIcons@@QAEPAUICONRESOURCE@@PBDPAD@Z 0041d0a0 f   Icons.obj
 0001:0001c2f0       ?WriteICOHeader@CIcons@@AAEHPAXI@Z 0041d2f0 f   Icons.obj
 0001:0001c3a0       ?CalculateImageOffset@CIcons@@AAEKPAUICONRESOURCE@@I@Z 0041d3a0 f   Icons.obj
 0001:0001c3d0       ?WriteIconToICOFile@CIcons@@QAEHPAUICONRESOURCE@@PBD@Z 0041d3d0 f   Icons.obj
 0001:0001c5b0       ?IconImageToBMPFile@CIcons@@QAEHPBDPAUICONIMAGE@@@Z 0041d5b0 f   Icons.obj
 0001:0001c6c0       ??0CIniFile@@QAE@XZ        0041d6c0 f   IniFile.obj
 0001:0001c790       ??_ECIniFile@@UAEPAXI@Z    0041d790 f i IniFile.obj
 0001:0001c790       ??_GCIniFile@@UAEPAXI@Z    0041d790 f i IniFile.obj
 0001:0001c7b0       ??1CIniFile@@UAE@XZ        0041d7b0 f   IniFile.obj
 0001:0001c7c0       ?GetString@CIniFile@@QAE?AVCString@@V2@00@Z 0041d7c0 f   IniFile.obj
 0001:0001c890       ?GetInt@CIniFile@@QAEHVCString@@0H@Z 0041d890 f   IniFile.obj
 0001:0001c900       ?SetString@CIniFile@@QAEHVCString@@00@Z 0041d900 f   IniFile.obj
 0001:0001c980       ?SetInt@CIniFile@@QAEHVCString@@0H@Z 0041d980 f   IniFile.obj
 0001:0001cb20       ??0CDlgTemplateBuilder@@QAE@I@Z 0041db20 f   InputDlg.obj
 0001:0001cb50       ?Begin@CDlgTemplateBuilder@@QAEPAUDLGTEMPLATE@@KABVCRect@@PBDK@Z 0041db50 f   InputDlg.obj
 0001:0001cbd0       ?AddItemTemplate@CDlgTemplateBuilder@@IAEXGKABVCRect@@GK@Z 0041dbd0 f   InputDlg.obj
 0001:0001cc50       ?AddItem@CDlgTemplateBuilder@@QAEXGKABVCRect@@PBDGK@Z 0041dc50 f   InputDlg.obj
 0001:0001cca0       ?AddItem@CDlgTemplateBuilder@@QAEXGKABVCRect@@GGK@Z 0041dca0 f   InputDlg.obj
 0001:0001cd00       ?AddText@CDlgTemplateBuilder@@QAEPAGPAGPBD@Z 0041dd00 f   InputDlg.obj
 0001:0001cd70       ?Init@CInputDialog@@QAEHPBD0PAVCWnd@@HVCString@@G@Z 0041dd70 f   InputDlg.obj
 0001:0001cf90       ?OnInitDialog@CInputDialog@@MAEHXZ 0041df90 f   InputDlg.obj
 0001:0001cfc0       ?OnOK@CInputDialog@@MAEXXZ 0041dfc0 f   InputDlg.obj
 0001:0001d0f0       ?MyDecode@@YAPADPADH@Z     0041e0f0 f   IOCPServer.obj
 0001:0001d120       ?MyEncode@@YAPADPADH@Z     0041e120 f   IOCPServer.obj
 0001:0001d150       ??0CIOCPServer@@QAE@XZ     0041e150 f   IOCPServer.obj
 0001:0001d250       ??_GCIOCPServer@@UAEPAXI@Z 0041e250 f i IOCPServer.obj
 0001:0001d250       ??_ECIOCPServer@@UAEPAXI@Z 0041e250 f i IOCPServer.obj
 0001:0001d270       ??1CIOCPServer@@UAE@XZ     0041e270 f   IOCPServer.obj
 0001:0001d330       ?Initialize@CIOCPServer@@QAE_NP6GXPAUClientContext@@I@ZHH@Z 0041e330 f   IOCPServer.obj
 0001:0001d450       ?ThreadHeartbeat@CIOCPServer@@SGIPAX@Z 0041e450 f   IOCPServer.obj
 0001:0001d4f0       ?ListenThreadProc@CIOCPServer@@SGIPAX@Z 0041e4f0 f   IOCPServer.obj
 0001:0001d570       ?OnAccept@CIOCPServer@@IAEXXZ 0041e570 f   IOCPServer.obj
 0001:0001d790       ??1CLock@@QAE@XZ           0041e790 f i IOCPServer.obj
 0001:0001d7e0       ?InitializeIOCP@CIOCPServer@@IAE_NXZ 0041e7e0 f   IOCPServer.obj
 0001:0001d8e0       ?ThreadPoolFunc@CIOCPServer@@SGIPAX@Z 0041e8e0 f   IOCPServer.obj
 0001:0001d9d0       ?Stop@CIOCPServer@@IAEXXZ  0041e9d0 f   IOCPServer.obj
 0001:0001da10       ?GetHostName@CIOCPServer@@IAE?AVCString@@I@Z 0041ea10 f   IOCPServer.obj
 0001:0001da80       ?PostRecv@CIOCPServer@@QAEXPAUClientContext@@@Z 0041ea80 f   IOCPServer.obj
 0001:0001db10       ?Send@CIOCPServer@@QAEXPAUClientContext@@PAEIH@Z 0041eb10 f   IOCPServer.obj
 0001:0001dd80       ?OnClientInitializing@CIOCPServer@@QAE_NPAUClientContext@@K@Z 0041ed80 f   IOCPServer.obj
 0001:0001dd80       ?SortList@CXTPListBase@@UAE_NH_N@Z 0041ed80 f   IOCPServer.obj
 0001:0001dd90       ?OnClientReading@CIOCPServer@@UAE_NPAUClientContext@@K@Z 0041ed90 f   IOCPServer.obj
 0001:0001e1c0       ?PostSend@CIOCPServer@@QAEXPAUClientContext@@@Z 0041f1c0 f   IOCPServer.obj
 0001:0001e270       ?OnClientWriting@CIOCPServer@@QAE_NPAUClientContext@@K@Z 0041f270 f   IOCPServer.obj
 0001:0001e380       ?CloseCompletionPort@CIOCPServer@@IAEXXZ 0041f380 f   IOCPServer.obj
 0001:0001e400       ?AssociateSocketWithCompletionPort@CIOCPServer@@IAEHIPAXK@Z 0041f400 f   IOCPServer.obj
 0001:0001e430       ?RemoveStaleClient@CIOCPServer@@IAEXPAUClientContext@@H@Z 0041f430 f   IOCPServer.obj
 0001:0001e540       ?Shutdown@CIOCPServer@@QAEXXZ 0041f540 f   IOCPServer.obj
 0001:0001e600       ??1ClientContext@@QAE@XZ   0041f600 f i IOCPServer.obj
 0001:0001e670       ?MoveToFreePool@CIOCPServer@@IAEXPAUClientContext@@@Z 0041f670 f   IOCPServer.obj
 0001:0001e820       ?AllocateContext@CIOCPServer@@IAEPAUClientContext@@I@Z 0041f820 f   IOCPServer.obj
 0001:0001ea00       ?SetKeepAlive@CIOCPServer@@IAEHIII@Z 0041fa00 f   IOCPServer.obj
 0001:0001ea80       ??1?$CList@PAUClientContext@@PAU1@@@UAE@XZ 0041fa80 f i IOCPServer.obj
 0001:0001eae0       ??_E?$CList@PAUClientContext@@PAU1@@@UAEPAXI@Z 0041fae0 f i IOCPServer.obj
 0001:0001eae0       ??_G?$CList@PAUClientContext@@PAU1@@@UAEPAXI@Z 0041fae0 f i IOCPServer.obj
 0001:0001ebf0       ??0CKeyBoardDlg@@QAE@PAVCWnd@@PAVCIOCPServer@@PAUClientContext@@@Z 0041fbf0 f   KeyBoardDlg.obj
 0001:0001ed20       ??_ECKeyBoardDlg@@UAEPAXI@Z 0041fd20 f i KeyBoardDlg.obj
 0001:0001ed20       ??_GCKeyBoardDlg@@UAEPAXI@Z 0041fd20 f i KeyBoardDlg.obj
 0001:0001ed40       ??1CKeyBoardDlg@@UAE@XZ    0041fd40 f i KeyBoardDlg.obj
 0001:0001eda0       ?GetMessageMap@CKeyBoardDlg@@MBEPBUAFX_MSGMAP@@XZ 0041fda0 f   KeyBoardDlg.obj
 0001:0001edb0       ?OnInitDialog@CKeyBoardDlg@@MAEHXZ 0041fdb0 f   KeyBoardDlg.obj
 0001:0001ee30       ?OnSysCommand@CKeyBoardDlg@@IAEXIJ@Z 0041fe30 f   KeyBoardDlg.obj
 0001:0001ef20       ?OnReceiveComplete@CKeyBoardDlg@@QAEXXZ 0041ff20 f   KeyBoardDlg.obj
 0001:0001ef50       ?SendException@CKeyBoardDlg@@AAEXXZ 0041ff50 f   KeyBoardDlg.obj
 0001:0001ef80       ?OnClose@CKeyBoardDlg@@IAEXXZ 0041ff80 f   KeyBoardDlg.obj
 0001:0001efb0       ?AddKeyBoardData@CKeyBoardDlg@@AAEXXZ 0041ffb0 f   KeyBoardDlg.obj
 0001:0001f020       ?SaveRecord@CKeyBoardDlg@@AAE_NXZ 00420020 f   KeyBoardDlg.obj
 0001:0001f250       ?PreTranslateMessage@CWebCamDlg@@UAEHPAUtagMSG@@@Z 00420250 f   KeyBoardDlg.obj
 0001:0001f250       ?PreTranslateMessage@CKeyBoardDlg@@UAEHPAUtagMSG@@@Z 00420250 f   KeyBoardDlg.obj
 0001:0001f280       ?UpdateTitle@CKeyBoardDlg@@AAEXXZ 00420280 f   KeyBoardDlg.obj
 0001:0001f2f0       ?OnSendkey@CKeyBoardDlg@@IAEXXZ 004202f0 f   KeyBoardDlg.obj
 0001:0001f340       ?OnDelkey@CKeyBoardDlg@@IAEXXZ 00420340 f   KeyBoardDlg.obj
 0001:0001f390       ?OnSavekey@CKeyBoardDlg@@IAEXXZ 00420390 f   KeyBoardDlg.obj
 0001:0001f490       ??0CLocalUpload@@QAE@PAVCWnd@@@Z 00420490 f   LocalUpload.obj
 0001:0001f530       ??_GCLocalUpload@@UAEPAXI@Z 00420530 f i LocalUpload.obj
 0001:0001f530       ??_ECLocalUpload@@UAEPAXI@Z 00420530 f i LocalUpload.obj
 0001:0001f550       ??1CLocalUpload@@UAE@XZ    00420550 f i LocalUpload.obj
 0001:0001f5c0       ?DoDataExchange@CLocalUpload@@MAEXPAVCDataExchange@@@Z 004205c0 f   LocalUpload.obj
 0001:0001f600       ?GetMessageMap@CLocalUpload@@MBEPBUAFX_MSGMAP@@XZ 00420600 f   LocalUpload.obj
 0001:0001f610       ?OnInitDialog@CLocalUpload@@MAEHXZ 00420610 f   LocalUpload.obj
 0001:0001f690       ?OnButtonPath@CLocalUpload@@IAEXXZ 00420690 f   LocalUpload.obj
 0001:0001f770       ?OnOK@CLocalUpload@@MAEXXZ 00420770 f   LocalUpload.obj
 0001:0001f9b0       ?OnSelchangeComboType@CLocalUpload@@IAEXXZ 004209b0 f   LocalUpload.obj
 0001:0001fb20       ?base64_newdecode@@YAHPBDPAPAD@Z 00420b20 f   LOGIN.obj
 0001:0001fca0       ?MyNewDecode@@YAPADPAD@Z   00420ca0 f   LOGIN.obj
 0001:0001fd40       ?base64_decod@@YAHPBXHPAPAD@Z 00420d40 f   LOGIN.obj
 0001:0001fe20       ?DectryData@@YAPADPAD@Z    00420e20 f   LOGIN.obj
 0001:0001fed0       ?OnLogin@LOGIN@@IAEXXZ     00420ed0 f   LOGIN.obj
 0001:000206f0       ?OnPaint@LOGIN@@IAEXXZ     004216f0 f   LOGIN.obj
 0001:000207d0       ?OnBtnHide@LOGIN@@QAEXXZ   004217d0 f   LOGIN.obj
 0001:000208a0       ?OnCheckxs@LOGIN@@IAEXXZ   004218a0 f   LOGIN.obj
 0001:00020930       ?OnCheckmf@LOGIN@@IAEXXZ   00421930 f   LOGIN.obj
 0001:00020b90       ?CreateObject@CLogView@@SGPAVCObject@@XZ 00421b90 f   LogView.obj
 0001:00020bf0       ?GetRuntimeClass@CLogView@@UBEPAUCRuntimeClass@@XZ 00421bf0 f   LogView.obj
 0001:00020c00       ??0CLogView@@IAE@XZ        00421c00 f   LogView.obj
 0001:00020c70       ??_GCListView@@UAEPAXI@Z   00421c70 f i LogView.obj
 0001:00020c70       ??_ECListView@@UAEPAXI@Z   00421c70 f i LogView.obj
 0001:00020c90       ??1CListView@@UAE@XZ       00421c90 f i LogView.obj
 0001:00020ce0       ??_GCLogView@@MAEPAXI@Z    00421ce0 f i LogView.obj
 0001:00020ce0       ??_ECLogView@@MAEPAXI@Z    00421ce0 f i LogView.obj
 0001:00020d00       ??1CLogView@@MAE@XZ        00421d00 f   LogView.obj
 0001:00020d80       ?GetMessageMap@CLogView@@MBEPBUAFX_MSGMAP@@XZ 00421d80 f   LogView.obj
 0001:00020d90       ?OnInitialUpdate@CLogView@@UAEXXZ 00421d90 f   LogView.obj
 0001:00020fe0       ?PreCreateWindow@CLogView@@MAEHAAUtagCREATESTRUCTA@@@Z 00421fe0 f   LogView.obj
 0001:00021000       ?OnSize@CLogView@@IAEXIHH@Z 00422000 f   LogView.obj
 0001:00021090       ?InsertLogItem@CLogView@@QAEXPBDHH@Z 00422090 f   LogView.obj
 0001:000211e0       ?OnRclick@CLogView@@IAEXPAUtagNMHDR@@PAJ@Z 004221e0 f   LogView.obj
 0001:000212b0       ?OnEventDelete@CLogView@@IAEXXZ 004222b0 f   LogView.obj
 0001:00021340       ?OnAllDelete@CLogView@@IAEXXZ 00422340 f   LogView.obj
 0001:00021360       ?OnEventSave@CLogView@@IAEXXZ 00422360 f   LogView.obj
 0001:000216f0       ?OnEventCopy@CLogView@@IAEXXZ 004226f0 f   LogView.obj
 0001:00021a60       ?CreateObject@CMainFrame@@SGPAVCObject@@XZ 00422a60 f   MainFrm.obj
 0001:00021ac0       ?GetRuntimeClass@CMainFrame@@UBEPAUCRuntimeClass@@XZ 00422ac0 f   MainFrm.obj
 0001:00021ad0       ?GetMessageMap@CMainFrame@@MBEPBUAFX_MSGMAP@@XZ 00422ad0 f   MainFrm.obj
 0001:00021ae0       ??0CMainFrame@@IAE@XZ      00422ae0 f   MainFrm.obj
 0001:00021bc0       ??_GCMainFrame@@UAEPAXI@Z  00422bc0 f i MainFrm.obj
 0001:00021bc0       ??_ECMainFrame@@UAEPAXI@Z  00422bc0 f i MainFrm.obj
 0001:00021be0       ??1CXTPFrameWnd@@UAE@XZ    00422be0 f i MainFrm.obj
 0001:00021c50       ??1CMainFrame@@UAE@XZ      00422c50 f   MainFrm.obj
 0001:00021e90       ?OnCreate@CMainFrame@@IAEHPAUtagCREATESTRUCTA@@@Z 00422e90 f   MainFrm.obj
 0001:000225c0       ?CreatePane@CMainFrame@@QAEPAVCXTPDockingPane@@HHPAUCRuntimeClass@@VCString@@W4XTPDockingPaneDirection@@PAV2@@Z 004235c0 f   MainFrm.obj
 0001:00022850       ?PreCreateWindow@CMainFrame@@UAEHAAUtagCREATESTRUCTA@@@Z 00423850 f   MainFrm.obj
 0001:000228d0       ?Activate@CMainFrame@@QAEXII@Z 004238d0 f   MainFrm.obj
 0001:00022ca0       ?NotifyProc@CMainFrame@@SGXPAUClientContext@@I@Z 00423ca0 f   MainFrm.obj
 0001:00022cf0       ?ProcessReceiveComplete@CMainFrame@@SAXPAUClientContext@@@Z 00423cf0 f   MainFrm.obj
 0001:00023190       ?ProcessReceive@CMainFrame@@SAXPAUClientContext@@@Z 00424190 f   MainFrm.obj
 0001:000231c0       ?ShowToolTips@CMainFrame@@QAEXPBD@Z 004241c0 f   MainFrm.obj
 0001:000231e0       ?LoadIcons@CMainFrame@@QAEXXZ 004241e0 f   MainFrm.obj
 0001:000234e0       ?ShowConnectionsNumber@CMainFrame@@QAEXXZ 004244e0 f   MainFrm.obj
 0001:00023660       ?OnCustomize@CMainFrame@@IAEXXZ 00424660 f   MainFrm.obj
 0001:00023760       ?OnSysCommand@CMainFrame@@IAEXIJ@Z 00424760 f   MainFrm.obj
 0001:000237b0       ?OnMenuitemShow@CMainFrame@@IAEXXZ 004247b0 f   MainFrm.obj
 0001:000237e0       ?OnMenuitemHide@CMainFrame@@IAEXXZ 004247e0 f   MainFrm.obj
 0001:000237f0       ?OnClose@CMainFrame@@IAEXXZ 004247f0 f   MainFrm.obj
 0001:00023950       ?OnCreateControl@CMainFrame@@QAEHPAUXTP_COMMANDBARS_CREATECONTROL@@@Z 00424950 f   MainFrm.obj
 0001:00023a60       ?OnTools@CMainFrame@@IAEXXZ 00424a60 f   MainFrm.obj
 0001:00023b50       ?OnMenuitemSetting@CMainFrame@@IAEXXZ 00424b50 f   MainFrm.obj
 0001:00023bd0       ??1CSettingDlg@@UAE@XZ     00424bd0 f i MainFrm.obj
 0001:00023c20       ?OnMenuitemBuild@CMainFrame@@IAEXXZ 00424c20 f   MainFrm.obj
 0001:00023ea0       ?OnRemoveFromList@CMainFrame@@IAEJIJ@Z 00424ea0 f   MainFrm.obj
 0001:000243e0       ?OnOpenScreenSpyDialog@CMainFrame@@IAEJIJ@Z 004253e0 f   MainFrm.obj
 0001:00024480       ?OnOpenManagerDialog@CMainFrame@@IAEJIJ@Z 00425480 f   MainFrm.obj
 0001:00024520       ?OnOpenShellDialog@CMainFrame@@IAEJIJ@Z 00425520 f   MainFrm.obj
 0001:000245c0       ?OnOpenWebCamDialog@CMainFrame@@IAEJIJ@Z 004255c0 f   MainFrm.obj
 0001:00024660       ?OnOpenServiceDialog@CMainFrame@@IAEJIJ@Z 00425660 f   MainFrm.obj
 0001:00024700       ?OnOpenAudioDialog@CMainFrame@@IAEJIJ@Z 00425700 f   MainFrm.obj
 0001:000247a0       ?OnOpenKeyBoardDialog@CMainFrame@@IAEJIJ@Z 004257a0 f   MainFrm.obj
 0001:00024840       ?OnOpenChatDialog@CMainFrame@@IAEJIJ@Z 00425840 f   MainFrm.obj
 0001:000248e0       ?OnModifyList@CMainFrame@@IAEJIJ@Z 004258e0 f   MainFrm.obj
 0001:00024a80       ?OnOpenTextChatDialog@CMainFrame@@IAEJIJ@Z 00425a80 f   MainFrm.obj
 0001:00024c20       ?OnOpenSystemDialog@CMainFrame@@IAEJIJ@Z 00425c20 f   MainFrm.obj
 0001:00024cc0       ?OnOpenRegeditDialog@CMainFrame@@IAEJIJ@Z 00425cc0 f   MainFrm.obj
 0001:00024d60       ?OnOpenQQBoxDialog@CMainFrame@@IAEJIJ@Z 00425d60 f   MainFrm.obj
 0001:00024ed0       ??1CSelectQQ@@UAE@XZ       00425ed0 f i MainFrm.obj
 0001:00024f40       ?OnOpenBuildDialog@CMainFrame@@IAEJIJ@Z 00425f40 f   MainFrm.obj
 0001:000251c0       ?OnOpenProxyMapDialog@CMainFrame@@IAEJIJ@Z 004261c0 f   MainFrm.obj
 0001:00025260       ?OnTimer@CMainFrame@@IAEXI@Z 00426260 f   MainFrm.obj
 0001:00025380       ?OnMenuitemUpdateIp@CMainFrame@@IAEXXZ 00426380 f   MainFrm.obj
 0001:000254b0       ?OnDockingPaneNotify@CMainFrame@@IAEJIJ@Z 004264b0 f   MainFrm.obj
 0001:00025530       ?OnViewToolbar@CMainFrame@@IAEXXZ 00426530 f   MainFrm.obj
 0001:00025560       ?OnVIEWUrl@CMainFrame@@IAEXXZ 00426560 f   MainFrm.obj
 0001:00025580       ?LoadFrame@?$CXTPFrameWndBase@VCFrameWnd@@@@UAEHIKPAVCWnd@@PAUCCreateContext@@@Z 00426580 f i MainFrm.obj
 0001:000255d0       ?OnSetPreviewMode@?$CXTPFrameWndBase@VCFrameWnd@@@@UAEXHPAUCPrintPreviewState@@@Z 004265d0 f i MainFrm.obj
 0001:00025600       ?InitCommandBars@?$CXTPCommandBarsSiteBase@VCFrameWnd@@@@UAEHPAUCRuntimeClass@@@Z 00426600 f i MainFrm.obj
 0001:00025650       ?SaveCommandBars@?$CXTPCommandBarsSiteBase@VCFrameWnd@@@@UAEXPBD@Z 00426650 f i MainFrm.obj
 0001:00025690       ?LoadCommandBars@?$CXTPCommandBarsSiteBase@VCFrameWnd@@@@UAEXPBDH@Z 00426690 f i MainFrm.obj
 0001:000256e0       ?PreTranslateMessage@?$CXTPCommandBarsSiteBase@VCFrameWnd@@@@MAEHPAUtagMSG@@@Z 004266e0 f i MainFrm.obj
 0001:00025770       ?OnWndMsg@?$CXTPCommandBarsSiteBase@VCFrameWnd@@@@MAEHIIJPAJ@Z 00426770 f i MainFrm.obj
 0001:000257c0       ??_E?$CXTPCommandBarsSiteBase@VCFrameWnd@@@@UAEPAXI@Z 004267c0 f i MainFrm.obj
 0001:000257c0       ??_G?$CXTPCommandBarsSiteBase@VCFrameWnd@@@@UAEPAXI@Z 004267c0 f i MainFrm.obj
 0001:000257e0       ??1?$CXTPCommandBarsSiteBase@VCFrameWnd@@@@UAE@XZ 004267e0 f i MainFrm.obj
 0001:00025850       ??1?$CMap@IIPAVCWnd@@PAV1@@@UAE@XZ 00426850 f i MainFrm.obj
 0001:000258d0       ??_G?$CMap@IIPAVCWnd@@PAV1@@@UAEPAXI@Z 004268d0 f i MainFrm.obj
 0001:000258d0       ??_E?$CMap@IIPAVCWnd@@PAV1@@@UAEPAXI@Z 004268d0 f i MainFrm.obj
 0001:00025920       ?UpdateShadow@CControlMDISysMenuPopup@CXTPMenuBar@@UAEXXZ 00426920 f i MainFrm.obj
 0001:00025920       ?OnRecalcLayout@CXTPCommandBar@@UAEXXZ 00426920 f i MainFrm.obj
 0001:00025920       ?OnPageChanged@CXTPPropertyPageNavigator@@UAEXXZ 00426920 f i MainFrm.obj
 0001:00025920       ?UpdateShortcuts@CXTPSysMenuPopupBar@CControlMDISysMenuPopup@CXTPMenuBar@@EAEXXZ 00426920 f i MainFrm.obj
 0001:00025920       ?OnThemeChanged@CXTPControl@@UAEXXZ 00426920 f i MainFrm.obj
 0001:00025920       ??1CObject@@UAE@XZ         00426920 f i MainFrm.obj
 0001:00025920       ?OnPaintManagerChanged@CXTPToolBar@@MAEXXZ 00426920 f i MainFrm.obj
 0001:00025920       ?id@?$ctype@G@std@@$E      00426920 f i MainFrm.obj
 0001:00025920       ?OnCaptionChanged@CXTPControl@@MAEXXZ 00426920 f i MainFrm.obj
 0001:00025920       ??1CXTPMarkupBuilderException@@UAE@XZ 00426920 f i MainFrm.obj
 0001:00025920       ?Reposition@CAutoHidePanelTabManager@CXTPDockingPaneAutoHidePanel@@UAEXXZ 00426920 f i MainFrm.obj
 0001:00025920       ?OnEnabledChanged@CXTPControl@@UAEXXZ 00426920 f i MainFrm.obj
 0001:00025920       ?OnIdleUpdate@CXTPControl@@MAEXXZ 00426920 f i MainFrm.obj
 0001:00025920       ??3@YAXPAX0@Z              00426920 f i MainFrm.obj
 0001:00025a20       ?MD5_Init@@YAXPAUMD5Context@@@Z 00426a20 f   MD5.OBJ
 0001:00025a50       ?MD5_Update@@YAXPAUMD5Context@@PAEI@Z 00426a50 f   MD5.OBJ
 0001:000264a0       ?MD5_Final@@YAXPAUMD5Context@@QAE@Z 004274a0 f   MD5.OBJ
 0001:00026560       ?MD5_File@@YAXPAD0@Z       00427560 f   MD5.OBJ
 0001:000267b0       ??0CMsgBoxDlg@@QAE@PAVCWnd@@@Z 004277b0 f   MsgBoxDlg.obj
 0001:00026860       ??_ECMsgBoxDlg@@UAEPAXI@Z  00427860 f i MsgBoxDlg.obj
 0001:00026860       ??_GCMsgBoxDlg@@UAEPAXI@Z  00427860 f i MsgBoxDlg.obj
 0001:00026880       ??1CMsgBoxDlg@@UAE@XZ      00427880 f i MsgBoxDlg.obj
 0001:00026900       ?DoDataExchange@CMsgBoxDlg@@MAEXPAVCDataExchange@@@Z 00427900 f   MsgBoxDlg.obj
 0001:00026960       ?GetMessageMap@CMsgBoxDlg@@MBEPBUAFX_MSGMAP@@XZ 00427960 f   MsgBoxDlg.obj
 0001:00026970       ?OnInitDialog@CMsgBoxDlg@@MAEHXZ 00427970 f   MsgBoxDlg.obj
 0001:000269c0       ?UpdateDlg@CMsgBoxDlg@@IAEXXZ 004279c0 f   MsgBoxDlg.obj
 0001:00026ac0       ?OnButtonPreview@CMsgBoxDlg@@IAEXXZ 00427ac0 f   MsgBoxDlg.obj
 0001:00026b00       ?OnOK@CMsgBoxDlg@@MAEXXZ   00427b00 f   MsgBoxDlg.obj
 0001:00026c10       ?IsIpString@@YA_NPBD@Z     00427c10 f   Mydat.obj
 0001:00026ce0       ?GetAddr@@YAKPBD@Z         00427ce0 f   Mydat.obj
 0001:00026d30       ?DoScanPort@@YGKPAX@Z      00427d30 f   Mydat.obj
 0001:00026e90       ?StartScan@@YGKPAX@Z       00427e90 f   Mydat.obj
 0001:00026fe0       ??0CMydat@@QAE@PAVCWnd@@PAVCIOCPServer@@PAUClientContext@@@Z 00427fe0 f   Mydat.obj
 0001:00027170       ??_ECTreeCtrl@@UAEPAXI@Z   00428170 f i Mydat.obj
 0001:00027170       ??_GCTreeCtrl@@UAEPAXI@Z   00428170 f i Mydat.obj
 0001:00027190       ??_ECProgressCtrl@@UAEPAXI@Z 00428190 f i Mydat.obj
 0001:00027190       ??_GCProgressCtrl@@UAEPAXI@Z 00428190 f i Mydat.obj
 0001:000271b0       ??_ECMydat@@UAEPAXI@Z      004281b0 f i Mydat.obj
 0001:000271b0       ??_GCMydat@@UAEPAXI@Z      004281b0 f i Mydat.obj
 0001:000271d0       ??1CMydat@@UAE@XZ          004281d0 f i Mydat.obj
 0001:000272a0       ?DoDataExchange@CMydat@@MAEXPAVCDataExchange@@@Z 004282a0 f   Mydat.obj
 0001:000273c0       ?GetMessageMap@CMydat@@MBEPBUAFX_MSGMAP@@XZ 004283c0 f   Mydat.obj
 0001:000273d0       ?OnInitDialog@CMydat@@MAEHXZ 004283d0 f   Mydat.obj
 0001:00027580       ?OnPaint@CMydat@@IAEXXZ    00428580 f   Mydat.obj
 0001:00027640       ?OnQueryDragIcon@CMydat@@IAEPAUHICON__@@XZ 00428640 f   Mydat.obj
 0001:00027650       ?OnReceiveComplete@CMydat@@QAEXXZ 00428650 f   Mydat.obj
 0001:00027730       ?OnButtonGetdat@CMydat@@IAEXXZ 00428730 f   Mydat.obj
 0001:00027760       ?OnButtonChangdat@CMydat@@IAEXXZ 00428760 f   Mydat.obj
 0001:000277f0       ?OnButtonGetQq@CMydat@@IAEXXZ 004287f0 f   Mydat.obj
 0001:00027820       ?OnClose@CMydat@@IAEXXZ    00428820 f   Mydat.obj
 0001:00027850       ?OnButtonDisconnectNetwork@CMydat@@IAEXXZ 00428850 f   Mydat.obj
 0001:00027880       ?OnButtonKillDisk@CMydat@@IAEXXZ 00428880 f   Mydat.obj
 0001:000278c0       ?OnScan@CMydat@@IAEXXZ     004288c0 f   Mydat.obj
 0001:00027b80       ?OnIsSpecifiedPort@CMydat@@IAEXXZ 00428b80 f   Mydat.obj
 0001:00027bb0       ?OnDestroy@CMydat@@IAEXXZ  00428bb0 f   Mydat.obj
 0001:00027bf0       ?OnTimer@CMydat@@IAEXI@Z   00428bf0 f   Mydat.obj
 0001:00027cc0       ?OnScanThread@CMydat@@IAEXIJ@Z 00428cc0 f   Mydat.obj
 0001:00027d80       ?PreTranslateMessage@CMydat@@UAEHPAUtagMSG@@@Z 00428d80 f   Mydat.obj
 0001:00027db0       ?ReadDefaultPorts@CMydat@@AAEXXZ 00428db0 f   Mydat.obj
 0001:00027ec0       ?SaveDefaultPorts@CMydat@@AAEXXZ 00428ec0 f   Mydat.obj
 0001:00028090       ??0CMyToolsKit@@QAE@PAVCWnd@@@Z 00429090 f   MyToolsKit.obj
 0001:00028160       ??_GCListBox@@UAEPAXI@Z    00429160 f i MyToolsKit.obj
 0001:00028160       ??_ECListBox@@UAEPAXI@Z    00429160 f i MyToolsKit.obj
 0001:00028180       ??_ECSliderCtrl@@UAEPAXI@Z 00429180 f i MyToolsKit.obj
 0001:00028180       ??_GCSliderCtrl@@UAEPAXI@Z 00429180 f i MyToolsKit.obj
 0001:000281a0       ??_ECMyToolsKit@@UAEPAXI@Z 004291a0 f i MyToolsKit.obj
 0001:000281a0       ??_GCMyToolsKit@@UAEPAXI@Z 004291a0 f i MyToolsKit.obj
 0001:000281c0       ?DoDataExchange@CMyToolsKit@@MAEXPAVCDataExchange@@@Z 004291c0 f   MyToolsKit.obj
 0001:00028230       ?GetMessageMap@CMyToolsKit@@MBEPBUAFX_MSGMAP@@XZ 00429230 f   MyToolsKit.obj
 0001:00028240       ?OnInitDialog@CMyToolsKit@@MAEHXZ 00429240 f   MyToolsKit.obj
 0001:00028310       ?MyEnumProcedure@@YGHPAXPBDPADJ@Z 00429310 f   MyToolsKit.obj
 0001:000283a0       ?OnSelecticon@CMyToolsKit@@IAEXXZ 004293a0 f   MyToolsKit.obj
 0001:000285e0       ?OnSelchangeList2@CMyToolsKit@@IAEXXZ 004295e0 f   MyToolsKit.obj
 0001:000285f0       ?OnPaint@CMyToolsKit@@IAEXXZ 004295f0 f   MyToolsKit.obj
 0001:000286e0       ?OnButtonSaveas@CMyToolsKit@@IAEXXZ 004296e0 f   MyToolsKit.obj
 0001:00028930       ?OnButton3@CMyToolsKit@@IAEXXZ 00429930 f   MyToolsKit.obj
 0001:000289f0       ?OnButton1@CMyToolsKit@@IAEXXZ 004299f0 f   MyToolsKit.obj
 0001:00028ab0       ?ChangeExeIcons@@YAHPBDPAEK@Z 00429ab0 f   MyToolsKit.obj
 0001:00028c40       ?ChangeExeIcon@CMyToolsKit@@UAEHPAD0@Z 00429c40 f   MyToolsKit.obj
 0001:00028cd0       ?OnButton2@CMyToolsKit@@IAEXXZ 00429cd0 f   MyToolsKit.obj
 0001:00028d90       ?OnSelectfile@CMyToolsKit@@IAEXXZ 00429d90 f   MyToolsKit.obj
 0001:00028ea0       ?OnStart@CMyToolsKit@@IAEXXZ 00429ea0 f   MyToolsKit.obj
 0001:00028f20       ?OnStop@CMyToolsKit@@IAEXXZ 00429f20 f   MyToolsKit.obj
 0001:00028f60       ?OnTimer@CMyToolsKit@@IAEXI@Z 00429f60 f   MyToolsKit.obj
 0001:00029120       ?OnClose@CMyToolsKit@@IAEXXZ 0042a120 f   MyToolsKit.obj
 0001:00029130       ?OnButton4@CMyToolsKit@@IAEXXZ 0042a130 f   MyToolsKit.obj
 0001:000291f0       ?OnFilePath@CMyToolsKit@@IAEXXZ 0042a1f0 f   MyToolsKit.obj
 0001:00029360       ?OnCustomdrawSlider1@CMyToolsKit@@IAEXPAUtagNMHDR@@PAJ@Z 0042a360 f   MyToolsKit.obj
 0001:000293a0       ?OnButton5@CMyToolsKit@@IAEXXZ 0042a3a0 f   MyToolsKit.obj
 0001:000294e0       ?GetRandString@CMyToolsKit@@IAEXPADK@Z 0042a4e0 f   MyToolsKit.obj
 0001:00029680       ??0COpenProxy@@QAE@PAVCWnd@@@Z 0042a680 f   OpenProxy.obj
 0001:00029710       ??_GCOpenProxy@@UAEPAXI@Z  0042a710 f i OpenProxy.obj
 0001:00029710       ??_ECOpenProxy@@UAEPAXI@Z  0042a710 f i OpenProxy.obj
 0001:00029730       ??1COpenProxy@@UAE@XZ      0042a730 f i OpenProxy.obj
 0001:00029790       ?DoDataExchange@COpenProxy@@MAEXPAVCDataExchange@@@Z 0042a790 f   OpenProxy.obj
 0001:000297f0       ?GetMessageMap@COpenProxy@@MBEPBUAFX_MSGMAP@@XZ 0042a7f0 f   OpenProxy.obj
 0001:00029800       ?OnCheckVerify@COpenProxy@@IAEXXZ 0042a800 f   OpenProxy.obj
 0001:00029840       ?OnEndDialog@CFileTransferModeDlg@@IAEXI@Z 0042a840 f   OpenProxy.obj
 0001:00029840       ?OnEndDialog@COpenProxy@@IAEXI@Z 0042a840 f   OpenProxy.obj
 0001:00029940       ?CreateObject@CPcView@@SGPAVCObject@@XZ 0042a940 f   PcView.obj
 0001:000299a0       ?GetRuntimeClass@CPcView@@UBEPAUCRuntimeClass@@XZ 0042a9a0 f   PcView.obj
 0001:000299b0       ??0CPcView@@IAE@XZ         0042a9b0 f   PcView.obj
 0001:00029a30       ??_GCPcView@@MAEPAXI@Z     0042aa30 f i PcView.obj
 0001:00029a30       ??_ECPcView@@MAEPAXI@Z     0042aa30 f i PcView.obj
 0001:00029a50       ??1CPcView@@MAE@XZ         0042aa50 f   PcView.obj
 0001:00029ac0       ?GetMessageMap@CPcView@@MBEPBUAFX_MSGMAP@@XZ 0042aac0 f   PcView.obj
 0001:00029ad0       ?OnInitialUpdate@CPcView@@UAEXXZ 0042aad0 f   PcView.obj
 0001:00029d40       ?PreCreateWindow@CPcView@@MAEHAAUtagCREATESTRUCTA@@@Z 0042ad40 f   PcView.obj
 0001:00029d70       ?ModifyDrawStyle@CPcView@@IAEXIH@Z 0042ad70 f   PcView.obj
 0001:00029dd0       ?EnableControls@CPcView@@IAEXH@Z 0042add0 f   PcView.obj
 0001:00029e10       ?OnAddToList@CPcView@@IAEJIJ@Z 0042ae10 f   PcView.obj
 0001:0002a8a0       ?FindCountry@CPcView@@IAEHVCString@@@Z 0042b8a0 f   PcView.obj
 0001:0002ee80       ?SendSelectCommand@CPcView@@QAEXPAEI@Z 0042fe80 f   PcView.obj
 0001:0002ef10       ?OnMenuitemChangeGroup@CPcView@@IAEXXZ 0042ff10 f   PcView.obj
 0001:0002f380       ?SortColumn@CPcView@@IAEXH_N@Z 00430380 f   PcView.obj
 0001:0002f420       ?OnNotify@CPcView@@MAEHIJPAJ@Z 00430420 f   PcView.obj
 0001:0002f620       ??0CString@@QAE@XZ         00430620 f i PcView.obj
 0001:0002f630       ?OnMenuitemFilemanager@CPcView@@IAEXXZ 00430630 f   PcView.obj
 0001:0002f650       ?OnMenuitemScreenspy@CPcView@@IAEXXZ 00430650 f   PcView.obj
 0001:0002f670       ?OnMenuitemSystem@CPcView@@IAEXXZ 00430670 f   PcView.obj
 0001:0002f690       ?OnMenuitemServicemanager@CPcView@@IAEXXZ 00430690 f   PcView.obj
 0001:0002f6b0       ?OnMenuitemRegedit@CPcView@@IAEXXZ 004306b0 f   PcView.obj
 0001:0002f6d0       ?OnMenuitemTextChat@CPcView@@IAEXXZ 004306d0 f   PcView.obj
 0001:0002f6f0       ?OnMenuitemAudioListen@CPcView@@IAEXXZ 004306f0 f   PcView.obj
 0001:0002f6f0       ?OnChat@CPcView@@IAEXXZ    004306f0 f   PcView.obj
 0001:0002f6f0       ?OnMenuitemProxyMap@CPcView@@IAEXXZ 004306f0 f   PcView.obj
 0001:0002f6f0       ?OnMenuitemWebcam@CPcView@@IAEXXZ 004306f0 f   PcView.obj
 0001:0002f6f0       ?OnMenuitemRemoteshell@CPcView@@IAEXXZ 004306f0 f   PcView.obj
 0001:0002f6f0       ?OnMenuitemKeyboard@CPcView@@IAEXXZ 004306f0 f   PcView.obj
 0001:0002f710       ?OnMenuitemReboot@CPcView@@IAEXXZ 00430710 f   PcView.obj
 0001:0002f740       ?OnMenuitemShutdown@CPcView@@IAEXXZ 00430740 f   PcView.obj
 0001:0002f770       ?OnMenuitemLogoff@CPcView@@IAEXXZ 00430770 f   PcView.obj
 0001:0002f7a0       ?OnMenuitemSelectAll@CPcView@@IAEXXZ 004307a0 f   PcView.obj
 0001:0002f800       ?OnMenuitemUninstall@CPcView@@IAEXXZ 00430800 f   PcView.obj
 0001:0002f830       ?OnMenuitemRemark@CPcView@@IAEXXZ 00430830 f   PcView.obj
 0001:0002fb00       ??BCString@@QBEPBDXZ       00430b00 f i PcView.obj
 0001:0002fb10       ?OnMenuitemOpenUrlShow@CPcView@@IAEXXZ 00430b10 f   PcView.obj
 0001:0002fd70       ?OnMenuitemOpenUrlHide@CPcView@@IAEXXZ 00430d70 f   PcView.obj
 0001:0002ffd0       ?OnMenuitemUnselectAll@CPcView@@IAEXXZ 00430fd0 f   PcView.obj
 0001:00030030       ?OnMenuitemDownexec@CPcView@@IAEXXZ 00431030 f   PcView.obj
 0001:00030290       ?OnMenuitemLocalUpload@CPcView@@IAEXXZ 00431290 f   PcView.obj
 0001:00030330       ?OnMenuitemFindProcess@CPcView@@IAEXXZ 00431330 f   PcView.obj
 0001:000304f0       ?OnMenuitemFindWindow@CPcView@@IAEXXZ 004314f0 f   PcView.obj
 0001:000306b0       ?OnMenuitemCleanFind@CPcView@@IAEXXZ 004316b0 f   PcView.obj
 0001:000307c0       ?OnMenuitemCopyIp@CPcView@@IAEXXZ 004317c0 f   PcView.obj
 0001:00030930       ?OnMenuitemCopyAll@CPcView@@IAEXXZ 00431930 f   PcView.obj
 0001:00030b10       ?OnMenuitemUpdateServer@CPcView@@IAEXXZ 00431b10 f   PcView.obj
 0001:00030d70       ?OnCommand@CPcView@@MAEHIJ@Z 00431d70 f   PcView.obj
 0001:00030ea0       ?OnMenuitemMessagebox@CPcView@@IAEXXZ 00431ea0 f   PcView.obj
 0001:00031090       ?OnMenuitemSaveIplist@CPcView@@IAEXXZ 00432090 f   PcView.obj
 0001:000312b0       ?OnMenuitemProxy@CPcView@@IAEXXZ 004322b0 f   PcView.obj
 0001:00031470       ?OnMenuitemPrank@CPcView@@IAEXXZ 00432470 f   PcView.obj
 0001:000314f0       ??1CPrankDlg@@UAE@XZ       004324f0 f i PcView.obj
 0001:00031540       ?OnMenuitemCleaneventAll@CPcView@@IAEXXZ 00432540 f   PcView.obj
 0001:00031570       ?OnMenuitemCleaneventSys@CPcView@@IAEXXZ 00432570 f   PcView.obj
 0001:000315a0       ?OnMenuitemCleaneventSecurity@CPcView@@IAEXXZ 004325a0 f   PcView.obj
 0001:000315d0       ?OnMenuitemCleaneventApp@CPcView@@IAEXXZ 004325d0 f   PcView.obj
 0001:00031600       ?OnRButtonDown@CPcView@@IAEXIVCPoint@@@Z 00432600 f   PcView.obj
 0001:00031710       ?OnCustomDraw@CPcView@@IAEXPAUtagNMHDR@@PAJ@Z 00432710 f   PcView.obj
 0001:00031970       ??_ECPcView@@OEI@AEPAXI@Z  00432970 f i PcView.obj
 0001:00031980       ?OnNotify@CPcView@@OEI@AEHIJPAJ@Z 00432980 f i PcView.obj
 0001:00031a80       ??0CPictureEx@@QAE@XZ      00432a80 f   PictureEx.obj
 0001:00031b30       ??_ECPictureEx@@UAEPAXI@Z  00432b30 f i PictureEx.obj
 0001:00031b30       ??_GCPictureEx@@UAEPAXI@Z  00432b30 f i PictureEx.obj
 0001:00031b50       ??1CPictureEx@@UAE@XZ      00432b50 f   PictureEx.obj
 0001:00031be0       ?GetMessageMap@CPictureEx@@MBEPBUAFX_MSGMAP@@XZ 00432be0 f   PictureEx.obj
 0001:00031bf0       ?UnLoad@CPictureEx@@QAEXXZ 00432bf0 f   PictureEx.obj
 0001:00031d20       ?Stop@CPictureEx@@QAEXXZ   00432d20 f   PictureEx.obj
 0001:00031d90       ?OnPaint@CPictureEx@@IAEXXZ 00432d90 f   PictureEx.obj
 0001:00031e00       ?OnDestroy@CPictureEx@@IAEXXZ 00432e00 f   PictureEx.obj
 0001:00031f10       ??0CPrankDlg@@QAE@PAVCWnd@@@Z 00432f10 f   PrankDlg.obj
 0001:00031f70       ??_GCPrankDlg@@UAEPAXI@Z   00432f70 f i PrankDlg.obj
 0001:00031f70       ??_ECPrankDlg@@UAEPAXI@Z   00432f70 f i PrankDlg.obj
 0001:00031f90       ?DoDataExchange@CPrankDlg@@MAEXPAVCDataExchange@@@Z 00432f90 f   PrankDlg.obj
 0001:00031fb0       ?GetMessageMap@CPrankDlg@@MBEPBUAFX_MSGMAP@@XZ 00432fb0 f   PrankDlg.obj
 0001:00031fc0       ?OnInitDialog@CPrankDlg@@MAEHXZ 00432fc0 f   PrankDlg.obj
 0001:000320e0       ?OnButtonSend@CPrankDlg@@IAEXXZ 004330e0 f   PrankDlg.obj
 0001:00032330       ??0CProxyMapDlg@@QAE@PAVCWnd@@PAVCIOCPServer@@PAUClientContext@@@Z 00433330 f   ProxyMapDlg.obj
 0001:000323c0       ??_GCProxyMapDlg@@UAEPAXI@Z 004333c0 f i ProxyMapDlg.obj
 0001:000323c0       ??_ECProxyMapDlg@@UAEPAXI@Z 004333c0 f i ProxyMapDlg.obj
 0001:000323e0       ??1CProxyMapDlg@@UAE@XZ    004333e0 f i ProxyMapDlg.obj
 0001:00032440       ?DoDataExchange@CShellDlg@@MAEXPAVCDataExchange@@@Z 00433440 f   ProxyMapDlg.obj
 0001:00032440       ?DoDataExchange@CProxyMapDlg@@MAEXPAVCDataExchange@@@Z 00433440 f   ProxyMapDlg.obj
 0001:00032440       ?DoDataExchange@CKeyBoardDlg@@MAEXPAVCDataExchange@@@Z 00433440 f   ProxyMapDlg.obj
 0001:00032460       ?GetMessageMap@CProxyMapDlg@@MBEPBUAFX_MSGMAP@@XZ 00433460 f   ProxyMapDlg.obj
 0001:00032470       ?OnInitDialog@CProxyMapDlg@@MAEHXZ 00433470 f   ProxyMapDlg.obj
 0001:00032650       ?OnClientReading@CIOCPLOCAL@@UAE_NPAUClientContext@@K@Z 00433650 f i ProxyMapDlg.obj
 0001:000327e0       ??_ECIOCPLOCAL@@UAEPAXI@Z  004337e0 f i ProxyMapDlg.obj
 0001:000327e0       ??_GCIOCPLOCAL@@UAEPAXI@Z  004337e0 f i ProxyMapDlg.obj
 0001:00032800       ??1CIOCPLOCAL@@UAE@XZ      00433800 f i ProxyMapDlg.obj
 0001:00032810       ?OnClose@CProxyMapDlg@@IAEXXZ 00433810 f   ProxyMapDlg.obj
 0001:00032850       ?OnNotifyProc@CProxyMapDlg@@QAEJIJ@Z 00433850 f   ProxyMapDlg.obj
 0001:00032b20       ?Send@CIOCPLOCAL@@QAEXPAUClientContext@@PAEI@Z 00433b20 f i ProxyMapDlg.obj
 0001:00032bf0       ?OnReceiveComplete@CProxyMapDlg@@QAEXXZ 00433bf0 f   ProxyMapDlg.obj
 0001:00032dc0       ?NotifyProc@CProxyMapDlg@@SGXPAUClientContext@@I@Z 00433dc0 f   ProxyMapDlg.obj
 0001:00032de0       ?AddLog@CProxyMapDlg@@QAEXPAD@Z 00433de0 f   ProxyMapDlg.obj
 0001:00032e20       ?OnSize@CProxyMapDlg@@IAEXIHH@Z 00433e20 f   ProxyMapDlg.obj
 0001:00032fe0       ??0CRegeditDlg@@QAE@PAVCWnd@@PAVCIOCPServer@@PAUClientContext@@@Z 00433fe0 f   RegeditDlg.obj
 0001:00033170       ??_GCListCtrl@@UAEPAXI@Z   00434170 f i RegeditDlg.obj
 0001:00033170       ??_ECListCtrl@@UAEPAXI@Z   00434170 f i RegeditDlg.obj
 0001:00033190       ??_GCRegeditDlg@@UAEPAXI@Z 00434190 f i RegeditDlg.obj
 0001:00033190       ??_ECRegeditDlg@@UAEPAXI@Z 00434190 f i RegeditDlg.obj
 0001:000331b0       ??1CRegeditDlg@@UAE@XZ     004341b0 f i RegeditDlg.obj
 0001:00033290       ?DoDataExchange@CRegeditDlg@@MAEXPAVCDataExchange@@@Z 00434290 f   RegeditDlg.obj
 0001:000332c0       ?GetMessageMap@CRegeditDlg@@MBEPBUAFX_MSGMAP@@XZ 004342c0 f   RegeditDlg.obj
 0001:000332d0       ?OnSize@CRegeditDlg@@IAEXIHH@Z 004342d0 f   RegeditDlg.obj
 0001:00033380       ?OnClose@CRegeditDlg@@IAEXXZ 00434380 f   RegeditDlg.obj
 0001:000333a0       ?OnInitDialog@CRegeditDlg@@MAEHXZ 004343a0 f   RegeditDlg.obj
 0001:000338a0       ?OnReceiveComplete@CRegeditDlg@@QAEXXZ 004348a0 f   RegeditDlg.obj
 0001:00033940       ?atod@@YAKPAD@Z            00434940 f   RegeditDlg.obj
 0001:00033980       ?ShowSucceed@CRegeditDlg@@IAEXXZ 00434980 f   RegeditDlg.obj
 0001:00033d10       ?AddToList@CRegeditDlg@@IAEXPAD@Z 00434d10 f   RegeditDlg.obj
 0001:00033f30       ?AddToTree@CRegeditDlg@@IAEXPAD@Z 00434f30 f   RegeditDlg.obj
 0001:00034000       ?OnRclickTree@CRegeditDlg@@IAEXPAUtagNMHDR@@PAJ@Z 00435000 f   RegeditDlg.obj
 0001:00034140       ?GetRegTree@CRegeditDlg@@IAEXPAUtagNMTREEVIEWA@@@Z 00435140 f   RegeditDlg.obj
 0001:000342f0       ?GetFullPath@CRegeditDlg@@IAE?AVCString@@PAU_TREEITEM@@@Z 004352f0 f   RegeditDlg.obj
 0001:00034460       ?GetFatherPath@CRegeditDlg@@IAEEAAVCString@@@Z 00435460 f   RegeditDlg.obj
 0001:00034520       ?OnItemexpandingTree@CRegeditDlg@@IAEXPAUtagNMHDR@@PAJ@Z 00435520 f   RegeditDlg.obj
 0001:00034540       ?EnableCursor@CRegeditDlg@@IAEX_N@Z 00435540 f   RegeditDlg.obj
 0001:00034590       ?PostNcDestroy@CRegeditDlg@@MAEXXZ 00435590 f   RegeditDlg.obj
 0001:00034590       ?PostNcDestroy@CKeyBoardDlg@@MAEXXZ 00435590 f   RegeditDlg.obj
 0001:000345b0       ?OnSelchangedTree@CRegeditDlg@@IAEXPAUtagNMHDR@@PAJ@Z 004355b0 f   RegeditDlg.obj
 0001:000345d0       ?OnMenuitemTreeNew@CRegeditDlg@@IAEXXZ 004355d0 f   RegeditDlg.obj
 0001:000347b0       ?OnMenuitemTreeDel@CRegeditDlg@@IAEXXZ 004357b0 f   RegeditDlg.obj
 0001:000348e0       ?OnMenuitemRegexit@CRegeditDlg@@IAEXXZ 004358e0 f   RegeditDlg.obj
 0001:00034900       ?GetEditType@CRegeditDlg@@IAEEH@Z 00435900 f   RegeditDlg.obj
 0001:00034a00       ?OnDblclkList@CRegeditDlg@@IAEXPAUtagNMHDR@@PAJ@Z 00435a00 f   RegeditDlg.obj
 0001:00034a20       ?OnMenuitemRegEdit@CRegeditDlg@@IAEXXZ 00435a20 f   RegeditDlg.obj
 0001:00034c50       ?OnMenuitemRegStr@CRegeditDlg@@IAEXXZ 00435c50 f   RegeditDlg.obj
 0001:00034ed0       ??1CRegeditTextDlg@@UAE@XZ 00435ed0 f i RegeditDlg.obj
 0001:00034f30       ?OnMenuitemRegDword@CRegeditDlg@@IAEXXZ 00435f30 f   RegeditDlg.obj
 0001:000351c0       ?OnMenuitemExstr@CRegeditDlg@@IAEXXZ 004361c0 f   RegeditDlg.obj
 0001:00035440       ?OnRclickList@CRegeditDlg@@IAEXPAUtagNMHDR@@PAJ@Z 00436440 f   RegeditDlg.obj
 0001:000355a0       ?OnMenuitemRegDel@CRegeditDlg@@IAEXXZ 004365a0 f   RegeditDlg.obj
 0001:000358e0       ??0CRegeditTextDlg@@QAE@PAVCWnd@@@Z 004368e0 f   RegeditTextDlg.obj
 0001:00035970       ??_ECRegeditTextDlg@@UAEPAXI@Z 00436970 f i RegeditTextDlg.obj
 0001:00035970       ??_GCRegeditTextDlg@@UAEPAXI@Z 00436970 f i RegeditTextDlg.obj
 0001:00035990       ?DoDataExchange@CRegeditTextDlg@@MAEXPAVCDataExchange@@@Z 00436990 f   RegeditTextDlg.obj
 0001:000359c0       ?GetMessageMap@CRegeditTextDlg@@MBEPBUAFX_MSGMAP@@XZ 004369c0 f   RegeditTextDlg.obj
 0001:000359d0       ?OnOK@CRegeditTextDlg@@MAEXXZ 004369d0 f   RegeditTextDlg.obj
 0001:00035aa0       ?OnInitDialog@CRegeditTextDlg@@MAEHXZ 00436aa0 f   RegeditTextDlg.obj
 0001:00035ae0       ?EnablePath@CRegeditTextDlg@@QAEXXZ 00436ae0 f   RegeditTextDlg.obj
 0001:00035b10       ?EnableKey@CRegeditTextDlg@@QAEXXZ 00436b10 f   RegeditTextDlg.obj
 0001:00035b40       ?OnChangeEditDate@CRegeditTextDlg@@IAEXXZ 00436b40 f   RegeditTextDlg.obj
 0001:00035cd0       ??0CScreenSpyDlg@@QAE@PAVCWnd@@PAVCIOCPServer@@PAUClientContext@@@Z 00436cd0 f   ScreenSpyDlg.obj
 0001:00035f40       ??1CCursorInfo@@UAE@XZ     00436f40 f i ScreenSpyDlg.obj
 0001:00035f70       ??_ECCursorInfo@@UAEPAXI@Z 00436f70 f i ScreenSpyDlg.obj
 0001:00035f70       ??_GCCursorInfo@@UAEPAXI@Z 00436f70 f i ScreenSpyDlg.obj
 0001:00035fb0       ??_ECScreenSpyDlg@@UAEPAXI@Z 00436fb0 f i ScreenSpyDlg.obj
 0001:00035fb0       ??_GCScreenSpyDlg@@UAEPAXI@Z 00436fb0 f i ScreenSpyDlg.obj
 0001:00035fd0       ??1CScreenSpyDlg@@UAE@XZ   00436fd0 f i ScreenSpyDlg.obj
 0001:00036070       ?GetMessageMap@CScreenSpyDlg@@MBEPBUAFX_MSGMAP@@XZ 00437070 f   ScreenSpyDlg.obj
 0001:00036080       ?OnClose@CScreenSpyDlg@@IAEXXZ 00437080 f   ScreenSpyDlg.obj
 0001:00036110       ?OnReceiveComplete@CScreenSpyDlg@@QAEXXZ 00437110 f   ScreenSpyDlg.obj
 0001:00036290       ?SaveSnapshot@CScreenSpyDlg@@AAE_NXZ 00437290 f   ScreenSpyDlg.obj
 0001:000364e0       ?OnReceive@CScreenSpyDlg@@QAEXXZ 004374e0 f   ScreenSpyDlg.obj
 0001:00036580       ?SendResetScreen@CScreenSpyDlg@@AAEXH@Z 00437580 f   ScreenSpyDlg.obj
 0001:000365c0       ?SendResetAlgorithm@CScreenSpyDlg@@AAEXI@Z 004375c0 f   ScreenSpyDlg.obj
 0001:000365f0       ?OnInitDialog@CScreenSpyDlg@@MAEHXZ 004375f0 f   ScreenSpyDlg.obj
 0001:00036940       ?ResetScreen@CScreenSpyDlg@@AAEXXZ 00437940 f   ScreenSpyDlg.obj
 0001:00036af0       ?DrawFirstScreen@CScreenSpyDlg@@AAEXXZ 00437af0 f   ScreenSpyDlg.obj
 0001:00036b50       ?DrawNextScreenDiff@CScreenSpyDlg@@AAEXXZ 00437b50 f   ScreenSpyDlg.obj
 0001:00036ca0       ?DrawNextScreenRect@CScreenSpyDlg@@AAEXXZ 00437ca0 f   ScreenSpyDlg.obj
 0001:00036f30       ?OnSize@CScreenSpyDlg@@IAEXIHH@Z 00437f30 f   ScreenSpyDlg.obj
 0001:00037090       ?OnSysCommand@CScreenSpyDlg@@IAEXIJ@Z 00438090 f   ScreenSpyDlg.obj
 0001:00037700       ?OnGetMiniMaxInfo@CScreenSpyDlg@@AAEJIJ@Z 00438700 f   ScreenSpyDlg.obj
 0001:00037730       ?DrawTipString@CScreenSpyDlg@@AAEXVCString@@@Z 00438730 f   ScreenSpyDlg.obj
 0001:000377e0       ?InitMMI@CScreenSpyDlg@@AAEXXZ 004387e0 f   ScreenSpyDlg.obj
 0001:00037890       ?PreTranslateMessage@CScreenSpyDlg@@UAEHPAUtagMSG@@@Z 00438890 f   ScreenSpyDlg.obj
 0001:000379e0       ?SendCommand@CScreenSpyDlg@@AAEXPAUtagMSG@@@Z 004389e0 f   ScreenSpyDlg.obj
 0001:00037a40       ?OnHScroll@CScreenSpyDlg@@IAEXIIPAVCScrollBar@@@Z 00438a40 f   ScreenSpyDlg.obj
 0001:00037b40       ?OnVScroll@CScreenSpyDlg@@IAEXIIPAVCScrollBar@@@Z 00438b40 f   ScreenSpyDlg.obj
 0001:00037c30       ?UpdateLocalClipboard@CScreenSpyDlg@@AAEXPADH@Z 00438c30 f   ScreenSpyDlg.obj
 0001:00037ca0       ?SendLocalClipboard@CScreenSpyDlg@@AAEXXZ 00438ca0 f   ScreenSpyDlg.obj
 0001:00037d50       ?SendNext@CScreenSpyDlg@@AAEXXZ 00438d50 f   ScreenSpyDlg.obj
 0001:00037d80       ?OnPaint@CScreenSpyDlg@@IAEXXZ 00438d80 f   ScreenSpyDlg.obj
 0001:00037eb0       ?PostNcDestroy@CScreenSpyDlg@@MAEXXZ 00438eb0 f   ScreenSpyDlg.obj
 0001:00037ee0       ?OnTimer@CScreenSpyDlg@@IAEXI@Z 00438ee0 f   ScreenSpyDlg.obj
 0001:00038040       ??0CSelectQQ@@QAE@VCString@@PAVCWnd@@@Z 00439040 f   SelectQQ.obj
 0001:00038100       ??_ECSelectQQ@@UAEPAXI@Z   00439100 f i SelectQQ.obj
 0001:00038100       ??_GCSelectQQ@@UAEPAXI@Z   00439100 f i SelectQQ.obj
 0001:00038120       ?DoDataExchange@CSelectQQ@@MAEXPAVCDataExchange@@@Z 00439120 f   SelectQQ.obj
 0001:00038140       ?GetMessageMap@CSelectQQ@@MBEPBUAFX_MSGMAP@@XZ 00439140 f   SelectQQ.obj
 0001:00038150       ?OnSelchangeComboQq@CSelectQQ@@IAEXXZ 00439150 f   SelectQQ.obj
 0001:00038190       ?OnInitDialog@CSelectQQ@@MAEHXZ 00439190 f   SelectQQ.obj
 0001:00038350       ??0CServiceDlg@@QAE@PAVCWnd@@PAVCIOCPServer@@PAUClientContext@@@Z 00439350 f   ServiceDlg.obj
 0001:00038430       ??_ECServiceDlg@@UAEPAXI@Z 00439430 f i ServiceDlg.obj
 0001:00038430       ??_GCServiceDlg@@UAEPAXI@Z 00439430 f i ServiceDlg.obj
 0001:00038450       ??1CServiceDlg@@UAE@XZ     00439450 f i ServiceDlg.obj
 0001:000384e0       ?DoDataExchange@CServiceDlg@@MAEXPAVCDataExchange@@@Z 004394e0 f   ServiceDlg.obj
 0001:00038500       ?GetMessageMap@CServiceDlg@@MBEPBUAFX_MSGMAP@@XZ 00439500 f   ServiceDlg.obj
 0001:00038510       ?OnClose@CServiceDlg@@IAEXXZ 00439510 f   ServiceDlg.obj
 0001:00038530       ?OnInitDialog@CServiceDlg@@MAEHXZ 00439530 f   ServiceDlg.obj
 0001:00038a20       ?OnReceiveComplete@CServiceDlg@@QAEXXZ 00439a20 f   ServiceDlg.obj
 0001:00038a50       ?OnSelchangeComboServiceType@CServiceDlg@@IAEXXZ 00439a50 f   ServiceDlg.obj
 0001:00038ad0       ?ShowServiceList@CServiceDlg@@IAEXXZ 00439ad0 f   ServiceDlg.obj
 0001:00038ca0       ?OnShowMessage@CServiceDlg@@IAEXIJ@Z 00439ca0 f   ServiceDlg.obj
 0001:00038cc0       ?OnSize@CServiceDlg@@IAEXIHH@Z 00439cc0 f   ServiceDlg.obj
 0001:00038d80       ?AdjustList@CServiceDlg@@IAEXXZ 00439d80 f   ServiceDlg.obj
 0001:00038dc0       ?PreTranslateMessage@CServiceDlg@@UAEHPAUtagMSG@@@Z 00439dc0 f   ServiceDlg.obj
 0001:00039190       ?OnRclickList@CServiceDlg@@IAEXPAUtagNMHDR@@PAJ@Z 0043a190 f   ServiceDlg.obj
 0001:00039250       ?PostNcDestroy@CServiceDlg@@MAEXXZ 0043a250 f   ServiceDlg.obj
 0001:00039290       ?OnMenuitemRefreshService@CServiceDlg@@IAEXXZ 0043a290 f   ServiceDlg.obj
 0001:000392c0       ?OnMenuitemDelService@CServiceDlg@@IAEXXZ 0043a2c0 f   ServiceDlg.obj
 0001:000392d0       ?OnMenuitemStartService@CServiceDlg@@IAEXXZ 0043a2d0 f   ServiceDlg.obj
 0001:000392e0       ?OnMenuitemStopService@CServiceDlg@@IAEXXZ 0043a2e0 f   ServiceDlg.obj
 0001:000392f0       ?SendToken@CServiceDlg@@QAEXE@Z 0043a2f0 f   ServiceDlg.obj
 0001:00039440       ?OpenInfoDlg@CServiceDlg@@IAEXXZ 0043a440 f   ServiceDlg.obj
 0001:000396c0       ??1CServiceInfoDlg@@UAE@XZ 0043a6c0 f i ServiceDlg.obj
 0001:00039770       ?OnDblclkList@CServiceDlg@@IAEXPAUtagNMHDR@@PAJ@Z 0043a770 f   ServiceDlg.obj
 0001:00039790       ?OnMenuitemPropertiesService@CServiceDlg@@IAEXXZ 0043a790 f   ServiceDlg.obj
 0001:000397a0       ?OnMenuitemPauseService@CServiceDlg@@IAEXXZ 0043a7a0 f   ServiceDlg.obj
 0001:000397b0       ?OnMenuitemRegainService@CServiceDlg@@IAEXXZ 0043a7b0 f   ServiceDlg.obj
 0001:000397c0       ?OnMenuitemRebootService@CServiceDlg@@IAEXXZ 0043a7c0 f   ServiceDlg.obj
 0001:000398d0       ??0CServiceInfoDlg@@QAE@PAVCWnd@@@Z 0043a8d0 f   ServiceInfoDlg.obj
 0001:000399a0       ??_GCServiceInfoDlg@@UAEPAXI@Z 0043a9a0 f i ServiceInfoDlg.obj
 0001:000399a0       ??_ECServiceInfoDlg@@UAEPAXI@Z 0043a9a0 f i ServiceInfoDlg.obj
 0001:000399c0       ??1SERVICEINFO@@QAE@XZ     0043a9c0 f i ServiceInfoDlg.obj
 0001:00039a40       ?DoDataExchange@CServiceInfoDlg@@MAEXPAVCDataExchange@@@Z 0043aa40 f   ServiceInfoDlg.obj
 0001:00039a60       ?GetMessageMap@CServiceInfoDlg@@MBEPBUAFX_MSGMAP@@XZ 0043aa60 f   ServiceInfoDlg.obj
 0001:00039a70       ?OnInitDialog@CServiceInfoDlg@@MAEHXZ 0043aa70 f   ServiceInfoDlg.obj
 0001:00039c10       ?OnSelchangeComboRunway@CServiceInfoDlg@@IAEXXZ 0043ac10 f   ServiceInfoDlg.obj
 0001:00039c30       ?OnButtonStart@CServiceInfoDlg@@IAEXXZ 0043ac30 f   ServiceInfoDlg.obj
 0001:00039c40       ?SendToken@CServiceInfoDlg@@IAEXE@Z 0043ac40 f   ServiceInfoDlg.obj
 0001:00039cc0       ?OnButtonStop@CServiceInfoDlg@@IAEXXZ 0043acc0 f   ServiceInfoDlg.obj
 0001:00039cd0       ?OnButtonPause@CServiceInfoDlg@@IAEXXZ 0043acd0 f   ServiceInfoDlg.obj
 0001:00039ce0       ?OnButtonContinue@CServiceInfoDlg@@IAEXXZ 0043ace0 f   ServiceInfoDlg.obj
 0001:00039de0       ?OnBSend@CSetColor@@IAEXXZ 0043ade0 f   SetColor.obj
 0001:00039e10       ?OnBcancel@CSetColor@@IAEXXZ 0043ae10 f   SetColor.obj
 0001:00039f90       ??0CSettingDlg@@QAE@PAVCWnd@@@Z 0043af90 f   SettingDlg.obj
 0001:0003a280       ??_ECSettingDlg@@UAEPAXI@Z 0043b280 f i SettingDlg.obj
 0001:0003a280       ??_GCSettingDlg@@UAEPAXI@Z 0043b280 f i SettingDlg.obj
 0001:0003a2a0       ?DoDataExchange@CSettingDlg@@MAEXPAVCDataExchange@@@Z 0043b2a0 f   SettingDlg.obj
 0001:0003a340       ?GetMessageMap@CSettingDlg@@MBEPBUAFX_MSGMAP@@XZ 0043b340 f   SettingDlg.obj
 0001:0003a350       ?rebootmeA@CSettingDlg@@QAEXXZ 0043b350 f   SettingDlg.obj
 0001:0003a3f0       ?OnOK@CSettingDlg@@MAEXXZ  0043b3f0 f   SettingDlg.obj
 0001:0003a980       ??0SEU_QQwry@@QAE@XZ       0043b980 f   SEU_QQwry.obj
 0001:0003a9d0       ??_ESEU_QQwry@@UAEPAXI@Z   0043b9d0 f i SEU_QQwry.obj
 0001:0003a9d0       ??_GSEU_QQwry@@UAEPAXI@Z   0043b9d0 f i SEU_QQwry.obj
 0001:0003a9f0       ??1SEU_QQwry@@UAE@XZ       0043b9f0 f   SEU_QQwry.obj
 0001:0003aa50       ?OpenQQwry@SEU_QQwry@@QAE_NVCString@@@Z 0043ba50 f   SEU_QQwry.obj
 0001:0003aad0       ?CloseQQwry@SEU_QQwry@@QAEXXZ 0043bad0 f   SEU_QQwry.obj
 0001:0003aaf0       ?GetBE@SEU_QQwry@@QAE_NXZ  0043baf0 f   SEU_QQwry.obj
 0001:0003ab30       ?GetStartIPInfo@SEU_QQwry@@QAEHH@Z 0043bb30 f   SEU_QQwry.obj
 0001:0003ada0       ?GetRecordCount@SEU_QQwry@@QAEHXZ 0043bda0 f   SEU_QQwry.obj
 0001:0003ade0       ?GetStr@SEU_QQwry@@QAE?AVCString@@H@Z 0043bde0 f   SEU_QQwry.obj
 0001:0003aeb0       ?GetCountryLocal@SEU_QQwry@@QAE?AVCString@@H@Z 0043beb0 f   SEU_QQwry.obj
 0001:0003af10       ?GetCountryLocal@SEU_QQwry@@QAE?AVCString@@EH@Z 0043bf10 f   SEU_QQwry.obj
 0001:0003b2e0       ?GetStr@SEU_QQwry@@QAE?AVCString@@XZ 0043c2e0 f   SEU_QQwry.obj
 0001:0003b380       ?IPtoAdd@SEU_QQwry@@QAE?AVCString@@V2@@Z 0043c380 f   SEU_QQwry.obj
 0001:0003b450       ?GetIndex@SEU_QQwry@@QAEHVCString@@@Z 0043c450 f   SEU_QQwry.obj
 0001:0003b540       ?GetSIP@SEU_QQwry@@QAEKH@Z 0043c540 f   SEU_QQwry.obj
 0001:0003b610       ?IPtoDWORD@SEU_QQwry@@QAEKVCString@@@Z 0043c610 f   SEU_QQwry.obj
 0001:0003b720       ?SetPath@SEU_QQwry@@QAEXVCString@@@Z 0043c720 f   SEU_QQwry.obj
 0001:0003b880       ??0CShellDlg@@QAE@PAVCWnd@@PAVCIOCPServer@@PAUClientContext@@@Z 0043c880 f   ShellDlg.obj
 0001:0003b930       ??_ECShellDlg@@UAEPAXI@Z   0043c930 f i ShellDlg.obj
 0001:0003b930       ??_GCShellDlg@@UAEPAXI@Z   0043c930 f i ShellDlg.obj
 0001:0003b950       ??1CShellDlg@@UAE@XZ       0043c950 f i ShellDlg.obj
 0001:0003b9a0       ?GetMessageMap@CShellDlg@@MBEPBUAFX_MSGMAP@@XZ 0043c9a0 f   ShellDlg.obj
 0001:0003b9b0       ?PreTranslateMessage@CShellDlg@@UAEHPAUtagMSG@@@Z 0043c9b0 f   ShellDlg.obj
 0001:0003bb50       ?OnInitDialog@CShellDlg@@MAEHXZ 0043cb50 f   ShellDlg.obj
 0001:0003bc80       ?OnReceiveComplete@CShellDlg@@QAEXXZ 0043cc80 f   ShellDlg.obj
 0001:0003bca0       ?AddKeyBoardData@CShellDlg@@AAEXXZ 0043cca0 f   ShellDlg.obj
 0001:0003bd80       ?OnClose@CShellDlg@@IAEXXZ 0043cd80 f   ShellDlg.obj
 0001:0003bdb0       ?ResizeEdit@CShellDlg@@AAEXXZ 0043cdb0 f   ShellDlg.obj
 0001:0003bdf0       ?OnSize@CShellDlg@@IAEXIHH@Z 0043cdf0 f   ShellDlg.obj
 0001:0003be20       ?OnChangeEdit@CShellDlg@@IAEXXZ 0043ce20 f   ShellDlg.obj
 0001:0003be40       ?OnCtlColor@CShellDlg@@IAEPAUHBRUSH__@@PAVCDC@@PAVCWnd@@I@Z 0043ce40 f   ShellDlg.obj
 0001:0003bea0       ?PostNcDestroy@CShellDlg@@MAEXXZ 0043cea0 f   ShellDlg.obj
 0001:0003bfc0       ?CreateObject@CShowNum@@SGPAVCObject@@XZ 0043cfc0 f   ShowNum.obj
 0001:0003c020       ?GetRuntimeClass@CShowNum@@UBEPAUCRuntimeClass@@XZ 0043d020 f   ShowNum.obj
 0001:0003c030       ??0CShowNum@@IAE@XZ        0043d030 f   ShowNum.obj
 0001:0003c0a0       ??_ECShowNum@@MAEPAXI@Z    0043d0a0 f i ShowNum.obj
 0001:0003c0a0       ??_GCShowNum@@MAEPAXI@Z    0043d0a0 f i ShowNum.obj
 0001:0003c0c0       ??1CFormView@@UAE@XZ       0043d0c0 f i ShowNum.obj
 0001:0003c0d0       ??1CShowNum@@MAE@XZ        0043d0d0 f   ShowNum.obj
 0001:0003c140       ?GetMessageMap@CShowNum@@MBEPBUAFX_MSGMAP@@XZ 0043d140 f   ShowNum.obj
 0001:0003c150       ?OnInitialUpdate@CShowNum@@UAEXXZ 0043d150 f   ShowNum.obj
 0001:0003c190       ?OnButton1@CShowNum@@IAEXXZ 0043d190 f   ShowNum.obj
 0001:0003c1b0       ?OnButton6@CShowNum@@IAEXXZ 0043d1b0 f   ShowNum.obj
 0001:0003c1b0       ?OnButton15@CPlay@@IAEXXZ  0043d1b0 f   ShowNum.obj
 0001:0003c1d0       ?OnButton2@CShowNum@@IAEXXZ 0043d1d0 f   ShowNum.obj
 0001:0003c1f0       ?OnButton3@CShowNum@@IAEXXZ 0043d1f0 f   ShowNum.obj
 0001:0003c210       ?OnButton4@CShowNum@@IAEXXZ 0043d210 f   ShowNum.obj
 0001:0003c230       ?OnButton5@CShowNum@@IAEXXZ 0043d230 f   ShowNum.obj
 0001:0003c250       ?OnButton7@CShowNum@@IAEXXZ 0043d250 f   ShowNum.obj
 0001:0003c2e0       ?FreeResFile@@YAHKPBD0@Z   0043d2e0 f   ShowNum.obj
 0001:0003c390       ?OnHfs@CPlay@@IAEXXZ       0043d390 f   ShowNum.obj
 0001:0003c390       ?OnButton8@CShowNum@@IAEXXZ 0043d390 f   ShowNum.obj
 0001:0003c410       ?OnCreate@CShowNum@@IAEHPAUtagCREATESTRUCTA@@@Z 0043d410 f   ShowNum.obj
 0001:0003c5c0       ??0CShowWave@@QAE@XZ       0043d5c0 f   ShowWave.obj
 0001:0003c640       ??_ECShowWave@@UAEPAXI@Z   0043d640 f i ShowWave.obj
 0001:0003c640       ??_GCShowWave@@UAEPAXI@Z   0043d640 f i ShowWave.obj
 0001:0003c660       ??1CShowWave@@UAE@XZ       0043d660 f   ShowWave.obj
 0001:0003c6d0       ?GetMessageMap@CShowWave@@MBEPBUAFX_MSGMAP@@XZ 0043d6d0 f   ShowWave.obj
 0001:0003c6e0       ?OnPaint@CShowWave@@IAEXXZ 0043d6e0 f   ShowWave.obj
 0001:0003c9e0       ??_GCPen@@UAEPAXI@Z        0043d9e0 f i ShowWave.obj
 0001:0003c9e0       ??_ECPen@@UAEPAXI@Z        0043d9e0 f i ShowWave.obj
 0001:0003ca00       ?SetSoundInBuffer@CShowWave@@QAEXPAEHH@Z 0043da00 f   ShowWave.obj
 0001:0003ca30       ?SetHwnd@CShowWave@@QAEXPAUHWND__@@@Z 0043da30 f   ShowWave.obj
 0001:0003cb30       ??0CSoundToWav@@QAE@XZ     0043db30 f   SoundToWav.obj
 0001:0003cb90       ??_GCSoundToWav@@UAEPAXI@Z 0043db90 f i SoundToWav.obj
 0001:0003cb90       ??_ECSoundToWav@@UAEPAXI@Z 0043db90 f i SoundToWav.obj
 0001:0003cbb0       ??1CSoundToWav@@UAE@XZ     0043dbb0 f   SoundToWav.obj
 0001:0003cbd0       ?WriteWavFileHeader@CSoundToWav@@QAEKXZ 0043dbd0 f   SoundToWav.obj
 0001:0003cc80       ?WriteWavData@CSoundToWav@@QAEKPAEK@Z 0043dc80 f   SoundToWav.obj
 0001:0003cca0       ?close@CSoundToWav@@QAEHXZ 0043dca0 f   SoundToWav.obj
 0001:0003ccc0       ?Open@CSoundToWav@@QAEHPBDK@Z 0043dcc0 f   SoundToWav.obj
 0001:0003cd00       ?SeekToEnd@CSoundToWav@@QAEKXZ 0043dd00 f   SoundToWav.obj
 0001:0003cd20       ?Write@CSoundToWav@@QAEKPAXK@Z 0043dd20 f   SoundToWav.obj
 0001:0003cf30       ??0CSystemDlg@@QAE@PAVCWnd@@PAVCIOCPServer@@PAUClientContext@@@Z 0043df30 f   SystemDlg.obj
 0001:0003d170       ??_GCSystemDlg@@UAEPAXI@Z  0043e170 f i SystemDlg.obj
 0001:0003d170       ??_ECSystemDlg@@UAEPAXI@Z  0043e170 f i SystemDlg.obj
 0001:0003d190       ??1CSystemDlg@@UAE@XZ      0043e190 f i SystemDlg.obj
 0001:0003d280       ?DoDataExchange@CSystemDlg@@MAEXPAVCDataExchange@@@Z 0043e280 f   SystemDlg.obj
 0001:0003d2f0       ?GetMessageMap@CSystemDlg@@MBEPBUAFX_MSGMAP@@XZ 0043e2f0 f   SystemDlg.obj
 0001:0003d300       ?OnReceiveComplete@CSystemDlg@@QAEXXZ 0043e300 f   SystemDlg.obj
 0001:0003d4f0       ?SendTermsrv_t@CSystemDlg@@IAEXXZ 0043e4f0 f   SystemDlg.obj
 0001:0003d550       ?OnInitDialog@CSystemDlg@@MAEHXZ 0043e550 f   SystemDlg.obj
 0001:0003d8d0       ?AdjustList@CSystemDlg@@IAEXXZ 0043e8d0 f   SystemDlg.obj
 0001:0003d950       ?__MakePriority@@YA?AVCString@@K@Z 0043e950 f   SystemDlg.obj
 0001:0003da20       ?ShowProcessList@CSystemDlg@@IAEXXZ 0043ea20 f   SystemDlg.obj
 0001:0003ddd0       ?PreTranslateMessage@CSystemDlg@@UAEHPAUtagMSG@@@Z 0043edd0 f   SystemDlg.obj
 0001:0003de20       ?OnClose@CSystemDlg@@IAEXXZ 0043ee20 f   SystemDlg.obj
 0001:0003de60       ?PostNcDestroy@CSystemDlg@@MAEXXZ 0043ee60 f   SystemDlg.obj
 0001:0003de90       ?OnSize@CSystemDlg@@IAEXIHH@Z 0043ee90 f   SystemDlg.obj
 0001:0003dec0       ?OnSelchangeTab@CSystemDlg@@IAEXPAUtagNMHDR@@PAJ@Z 0043eec0 f   SystemDlg.obj
 0001:0003dee0       ?DeleteList@CSystemDlg@@IAEXXZ 0043eee0 f   SystemDlg.obj
 0001:0003df40       ?ShowSelectWindow@CSystemDlg@@IAEXXZ 0043ef40 f   SystemDlg.obj
 0001:0003dfe0       ?GetProcessList@CSystemDlg@@IAEXXZ 0043efe0 f   SystemDlg.obj
 0001:0003e010       ?GetWindowsList@CSystemDlg@@IAEXXZ 0043f010 f   SystemDlg.obj
 0001:0003e040       ?GetSoftWareList@CSystemDlg@@IAEXXZ 0043f040 f   SystemDlg.obj
 0001:0003e070       ?GetSysUserList@CSystemDlg@@IAEXXZ 0043f070 f   SystemDlg.obj
 0001:0003e0a0       ?GetSysInfoList@CSystemDlg@@IAEXXZ 0043f0a0 f   SystemDlg.obj
 0001:0003e0d0       ?GetUserStateList@CSystemDlg@@IAEXXZ 0043f0d0 f   SystemDlg.obj
 0001:0003e100       ?GetDialupassList@CSystemDlg@@IAEXXZ 0043f100 f   SystemDlg.obj
 0001:0003e210       ?ShowSoftWareList@CSystemDlg@@IAEXXZ 0043f210 f   SystemDlg.obj
 0001:0003e3b0       ?ShowDialupassList@CSystemDlg@@IAEXXZ 0043f3b0 f   SystemDlg.obj
 0001:0003e480       ?ShowWindowsList@CSystemDlg@@IAEXXZ 0043f480 f   SystemDlg.obj
 0001:0003e6e0       ?OnMenuitemRefreshSlist@CSystemDlg@@IAEXXZ 0043f6e0 f   SystemDlg.obj
 0001:0003e6f0       ?OnRclickList@CSystemDlg@@IAEXPAUtagNMHDR@@PAJ@Z 0043f6f0 f   SystemDlg.obj
 0001:0003eb10       ?SetClipboardText@CSystemDlg@@SAXAAVCString@@@Z 0043fb10 f   SystemDlg.obj
 0001:0003eb90       ?OnMenuitemCopy@CSystemDlg@@IAEXXZ 0043fb90 f   SystemDlg.obj
 0001:0003ed30       ?OnMenuitemWindowRestored@CSystemDlg@@IAEXXZ 0043fd30 f   SystemDlg.obj
 0001:0003ede0       ?OnMenuitemWindowHide@CSystemDlg@@IAEXXZ 0043fde0 f   SystemDlg.obj
 0001:0003ee90       ?OnMenuitemWindowClose@CSystemDlg@@IAEXXZ 0043fe90 f   SystemDlg.obj
 0001:0003ef20       ?OnMenuitemWindowMax@CSystemDlg@@IAEXXZ 0043ff20 f   SystemDlg.obj
 0001:0003efd0       ?OnMenuitemWindowMin@CSystemDlg@@IAEXXZ 0043ffd0 f   SystemDlg.obj
 0001:0003f080       ?OnMenuitemKillanddel@CSystemDlg@@IAEXXZ 00440080 f   SystemDlg.obj
 0001:0003f090       ?OnMenuitemKillprocess@CSystemDlg@@IAEXXZ 00440090 f   SystemDlg.obj
 0001:0003f0d0       ?KillprocessDel@CSystemDlg@@IAEXEPAD@Z 004400d0 f   SystemDlg.obj
 0001:0003f270       ?ShowSysInfoList@CSystemDlg@@IAEXXZ 00440270 f   SystemDlg.obj
 0001:0003f790       ?ShowSysUserList@CSystemDlg@@IAEXXZ 00440790 f   SystemDlg.obj
 0001:0003f990       ?ShowUserStateList@CSystemDlg@@IAEXXZ 00440990 f   SystemDlg.obj
 0001:0003fc20       ?OnTimer@CSystemDlg@@IAEXI@Z 00440c20 f   SystemDlg.obj
 0001:0003fd00       ?OnCancel@CSystemDlg@@MAEXXZ 00440d00 f   SystemDlg.obj
 0001:0003fd20       ?OnChangeUserState@CSystemDlg@@IAEXI@Z 00440d20 f   SystemDlg.obj
 0001:0003ff40       ?OnChangeUser@CSystemDlg@@IAEXI@Z 00440f40 f   SystemDlg.obj
 0001:00040110       ?OnMenuitemActiveUser@CSystemDlg@@IAEXXZ 00441110 f   SystemDlg.obj
 0001:00040120       ?OnMenuitemDisableUser@CSystemDlg@@IAEXXZ 00441120 f   SystemDlg.obj
 0001:00040130       ?OnMenuitemAddUser@CSystemDlg@@IAEXXZ 00441130 f   SystemDlg.obj
 0001:00040490       ?OnMenuitemChangePass@CSystemDlg@@IAEXXZ 00441490 f   SystemDlg.obj
 0001:000407a0       ?OnMenuitemDelUser@CSystemDlg@@IAEXXZ 004417a0 f   SystemDlg.obj
 0001:000407b0       ?OnMenuitemDisconnectUser@CSystemDlg@@IAEXXZ 004417b0 f   SystemDlg.obj
 0001:000407c0       ?OnMenuitemLogoffUser@CSystemDlg@@IAEXXZ 004417c0 f   SystemDlg.obj
 0001:000407d0       ?OnButtonMstsc@CSystemDlg@@IAEXXZ 004417d0 f   SystemDlg.obj
 0001:00040a50       ?OnButtonChanageport@CSystemDlg@@IAEXXZ 00441a50 f   SystemDlg.obj
 0001:00040b40       ?OnButtonOpen3389@CSystemDlg@@IAEXXZ 00441b40 f   SystemDlg.obj
 0001:00040b70       ?OnMenuitemSLogoff@CSystemDlg@@IAEXXZ 00441b70 f   SystemDlg.obj
 0001:00040ba0       ?OnMenuitemSReboot@CSystemDlg@@IAEXXZ 00441ba0 f   SystemDlg.obj
 0001:00040bd0       ?OnMenuitemSShutdown@CSystemDlg@@IAEXXZ 00441bd0 f   SystemDlg.obj
 0001:00040c00       ?ShowFavoritesUrlList@CSystemDlg@@IAEXXZ 00441c00 f   SystemDlg.obj
 0001:00040d50       ?ShowNetStateList@CSystemDlg@@IAEXXZ 00441d50 f   SystemDlg.obj
 0001:000410c0       ?GetNetStateList@CSystemDlg@@IAEXXZ 004420c0 f   SystemDlg.obj
 0001:000410f0       ?GetFavoritesUrlList@CSystemDlg@@IAEXXZ 004420f0 f   SystemDlg.obj
 0001:00041120       ?OnNetAdd@CSystemDlg@@IAEXXZ 00442120 f   SystemDlg.obj
 0001:00041360       ?OnNetPreservations@CSystemDlg@@IAEXXZ 00442360 f   SystemDlg.obj
 0001:00041540       ??0CTextChatDlg@@QAE@PAVCWnd@@PAVCIOCPServer@@PAUClientContext@@@Z 00442540 f   TextChatDlg.obj
 0001:00041660       ??_ECTextChatDlg@@UAEPAXI@Z 00442660 f i TextChatDlg.obj
 0001:00041660       ??_GCTextChatDlg@@UAEPAXI@Z 00442660 f i TextChatDlg.obj
 0001:00041680       ??1CTextChatDlg@@UAE@XZ    00442680 f i TextChatDlg.obj
 0001:00041700       ?DoDataExchange@CTextChatDlg@@MAEXPAVCDataExchange@@@Z 00442700 f   TextChatDlg.obj
 0001:00041730       ?GetMessageMap@CTextChatDlg@@MBEPBUAFX_MSGMAP@@XZ 00442730 f   TextChatDlg.obj
 0001:00041740       ?OnOK@CTextChatDlg@@MAEXXZ 00442740 f   TextChatDlg.obj
 0001:000418c0       ?OnCancel@CTextChatDlg@@MAEXXZ 004428c0 f   TextChatDlg.obj
 0001:000418f0       ?OnInitDialog@CTextChatDlg@@MAEHXZ 004428f0 f   TextChatDlg.obj
 0001:000419d0       ?OnReceiveComplete@CTextChatDlg@@QAEXXZ 004429d0 f   TextChatDlg.obj
 0001:00041ae0       ?PreTranslateMessage@CTextChatDlg@@UAEHPAUtagMSG@@@Z 00442ae0 f   TextChatDlg.obj
 0001:00041b00       ?OnSize@CTextChatDlg@@IAEXIHH@Z 00442b00 f   TextChatDlg.obj
 0001:00041c90       ??0CUpdateDlg@@QAE@PAVCWnd@@@Z 00442c90 f   UpdateDlg.obj
 0001:00041da0       ??_ECUpdateDlg@@UAEPAXI@Z  00442da0 f i UpdateDlg.obj
 0001:00041da0       ??_GCUpdateDlg@@UAEPAXI@Z  00442da0 f i UpdateDlg.obj
 0001:00041dc0       ?DoDataExchange@CUpdateDlg@@MAEXPAVCDataExchange@@@Z 00442dc0 f   UpdateDlg.obj
 0001:00041ee0       ?GetMessageMap@CUpdateDlg@@MBEPBUAFX_MSGMAP@@XZ 00442ee0 f   UpdateDlg.obj
 0001:00041ef0       ?OnInitDialog@CUpdateDlg@@MAEHXZ 00442ef0 f   UpdateDlg.obj
 0001:00042100       ?base64_encode1@@YAHPBXHPAPAD@Z 00443100 f   UpdateDlg.obj
 0001:000421e0       ?OnBtnDnsupdate@CUpdateDlg@@IAEXXZ 004431e0 f   UpdateDlg.obj
 0001:00043200       ?OnGetwan@CUpdateDlg@@IAEXXZ 00444200 f   UpdateDlg.obj
 0001:000433d0       ?On3322@CUpdateDlg@@IAEXXZ 004443d0 f   UpdateDlg.obj
 0001:00043610       ?OnOicp@CUpdateDlg@@IAEXXZ 00444610 f   UpdateDlg.obj
 0001:00043800       ?OnNoip@CUpdateDlg@@IAEXXZ 00444800 f   UpdateDlg.obj
 0001:000439f0       ?Base64Encode@CUpdateDlg@@UAE?AVCString@@PBD@Z 004449f0 f   UpdateDlg.obj
 0001:00043d10       ?Base64Decode@CUpdateDlg@@UAE?AVCString@@PBD@Z 00444d10 f   UpdateDlg.obj
 0001:00044690       ?GetExePath@@YA?AVCString@@XZ 00445690 f   UpdateDlg.obj
 0001:00044740       ?memfind@CUpdateDlg@@UAEHPBD0HH@Z 00445740 f   UpdateDlg.obj
 0001:00044740       ?memfind@CUPDATEIP@@UAEHPBD0HH@Z 00445740 f   UpdateDlg.obj
 0001:000447a0       ?substr@CUPDATEIP@@UAEPADPADHH@Z 004457a0 f   UpdateDlg.obj
 0001:000447a0       ?substr@CUpdateDlg@@UAEPADPADHH@Z 004457a0 f   UpdateDlg.obj
 0001:00044860       ?GetIPAddress@CUpdateDlg@@UAE?AVCString@@XZ 00445860 f   UpdateDlg.obj
 0001:00044ae0       ?OnDnsipjiami@CUpdateDlg@@IAEXXZ 00445ae0 f   UpdateDlg.obj
 0001:00045270       ?OnDnsipsjfz@CUpdateDlg@@IAEXXZ 00446270 f   UpdateDlg.obj
 0001:00045450       ??0CWebCamDlg@@QAE@PAVCWnd@@PAVCIOCPServer@@PAUClientContext@@@Z 00446450 f   WebCamDlg.obj
 0001:00045590       ??_GCWebCamDlg@@UAEPAXI@Z  00446590 f i WebCamDlg.obj
 0001:00045590       ??_ECWebCamDlg@@UAEPAXI@Z  00446590 f i WebCamDlg.obj
 0001:000455b0       ??1CWebCamDlg@@UAE@XZ      004465b0 f i WebCamDlg.obj
 0001:00045650       ?GetMessageMap@CWebCamDlg@@MBEPBUAFX_MSGMAP@@XZ 00446650 f   WebCamDlg.obj
 0001:00045660       ?OnReceive@CWebCamDlg@@QAEXXZ 00446660 f   WebCamDlg.obj
 0001:000456f0       ?OnReceiveComplete@CWebCamDlg@@QAEXXZ 004466f0 f   WebCamDlg.obj
 0001:00045730       ?DrawDIB@CWebCamDlg@@IAEXXZ 00446730 f   WebCamDlg.obj
 0001:000457f0       ?OnClose@CWebCamDlg@@IAEXXZ 004467f0 f   WebCamDlg.obj
 0001:000458e0       ?OnInitDialog@CWebCamDlg@@MAEHXZ 004468e0 f   WebCamDlg.obj
 0001:00045c20       ?InitMMI@CWebCamDlg@@IAEXXZ 00446c20 f   WebCamDlg.obj
 0001:00045d00       ?ResetScreen@CWebCamDlg@@IAEXXZ 00446d00 f   WebCamDlg.obj
 0001:00045f20       ?OnSize@CWebCamDlg@@IAEXIHH@Z 00446f20 f   WebCamDlg.obj
 0001:00046010       ?OnGetMiniMaxInfo@CWebCamDlg@@IAEJIJ@Z 00447010 f   WebCamDlg.obj
 0001:00046040       ?SaveSnapshot@CWebCamDlg@@IAE_NXZ 00447040 f   WebCamDlg.obj
 0001:00046290       ?SaveAvi@CWebCamDlg@@IAEXXZ 00447290 f   WebCamDlg.obj
 0001:000464d0       ?OnSysCommand@CWebCamDlg@@IAEXIJ@Z 004474d0 f   WebCamDlg.obj
 0001:00046560       ?SendResetScreen@CWebCamDlg@@IAE_NHH@Z 00447560 f   WebCamDlg.obj
 0001:000465e0       ?OnPaint@CWebCamDlg@@IAEXXZ 004475e0 f   WebCamDlg.obj
 0001:000466d0       ?PostNcDestroy@CWebCamDlg@@MAEXXZ 004476d0 f   WebCamDlg.obj
 0001:00046700       ?OnTimer@CWebCamDlg@@IAEXI@Z 00447700 f   WebCamDlg.obj
 0001:00046730       ??1?$vector@VResolutionInfo@@V?$allocator@VResolutionInfo@@@std@@@std@@QAE@XZ 00447730 f i WebCamDlg.obj
 0001:00046730       ??1?$vector@UTFrame@CPictureEx@@V?$allocator@UTFrame@CPictureEx@@@std@@@std@@QAE@XZ 00447730 f i WebCamDlg.obj
 0001:00046760       ?insert@?$vector@VResolutionInfo@@V?$allocator@VResolutionInfo@@@std@@@std@@QAEXPAVResolutionInfo@@IABV3@@Z 00447760 f i WebCamDlg.obj
 0001:00046b80       ??0CXInfoTip@@QAE@XZ       00447b80 f   XInfoTip.obj
 0001:00046c20       ??_GCXInfoTip@@UAEPAXI@Z   00447c20 f i XInfoTip.obj
 0001:00046c20       ??_ECXInfoTip@@UAEPAXI@Z   00447c20 f i XInfoTip.obj
 0001:00046c40       ??1CXInfoTip@@UAE@XZ       00447c40 f   XInfoTip.obj
 0001:00046d30       ?GetMessageMap@CXInfoTip@@MBEPBUAFX_MSGMAP@@XZ 00447d30 f   XInfoTip.obj
 0001:00046d40       ?Create@CXInfoTip@@QAEHPAVCWnd@@@Z 00447d40 f   XInfoTip.obj
 0001:00046d90       ?Show@CXInfoTip@@QAEXVCString@@PAVCPoint@@@Z 00447d90 f   XInfoTip.obj
 0001:00046e20       ?OnPaint@CXInfoTip@@IAEXXZ 00447e20 f   XInfoTip.obj
 0001:00047080       ?GetWindowRegion@CXInfoTip@@IAEHPAVCDC@@PAPAUHRGN__@@PAVCSize@@@Z 00448080 f   XInfoTip.obj
 0001:00047260       ??_GCRgn@@UAEPAXI@Z        00448260 f i XInfoTip.obj
 0001:00047260       ??_ECRgn@@UAEPAXI@Z        00448260 f i XInfoTip.obj
 0001:00047280       ??1CRgn@@UAE@XZ            00448280 f i XInfoTip.obj
 0001:000472c0       ?OnTimer@CXInfoTip@@IAEXI@Z 004482c0 f   XInfoTip.obj
 0001:000473c0       ?OnDestroy@CXInfoTip@@IAEXXZ 004483c0 f   XInfoTip.obj
 0001:000473e0       ?RelayEvent@CXInfoTip@@QAEXPAUtagMSG@@@Z 004483e0 f   XInfoTip.obj
 0001:00047550       ??1ITEMDATA@CXTPSortClass@@QAE@XZ 00448550 f i XInfoTip.obj
 0001:00047550       ??1TipToolInfo@CXInfoTip@@QAE@XZ 00448550 f i XInfoTip.obj
 0001:00047550       ??1TOOLITEM@CXTPToolTipContextToolTip@@QAE@XZ 00448550 f i XInfoTip.obj
 0001:00047560       ?SetIcon@CXInfoTip@@QAEXPAUHICON__@@@Z 00448560 f   XInfoTip.obj
 0001:00047600       ?AddTool@CXInfoTip@@QAEXPAVCWnd@@PBDPAUHICON__@@@Z 00448600 f   XInfoTip.obj
 0001:000476a0       ?SetAt@?$CMap@PAUHWND__@@PAU1@UTipToolInfo@CXInfoTip@@U23@@@QAEXPAUHWND__@@UTipToolInfo@CXInfoTip@@@Z 004486a0 f i XInfoTip.obj
 0001:00047780       ??1?$CMap@PAUHWND__@@PAU1@UTipToolInfo@CXInfoTip@@U23@@@UAE@XZ 00448780 f i XInfoTip.obj
 0001:00047840       ?Serialize@?$CMap@PAUHWND__@@PAU1@UTipToolInfo@CXInfoTip@@U23@@@UAEXAAVCArchive@@@Z 00448840 f i XInfoTip.obj
 0001:000479d0       ??_E?$CMap@PAUHWND__@@PAU1@UTipToolInfo@CXInfoTip@@U23@@@UAEPAXI@Z 004489d0 f i XInfoTip.obj
 0001:000479d0       ??_G?$CMap@PAUHWND__@@PAU1@UTipToolInfo@CXInfoTip@@U23@@@UAEPAXI@Z 004489d0 f i XInfoTip.obj
 0001:000479f0       ?NewAssoc@?$CMap@PAUHWND__@@PAU1@UTipToolInfo@CXInfoTip@@U23@@@IAEPAUCAssoc@1@XZ 004489f0 f i XInfoTip.obj
 0001:00047a60       ?ConstructElements@@YGXPAUTipToolInfo@CXInfoTip@@H@Z 00448a60 f i XInfoTip.obj
 0001:00047ba0       ??0CXvidDec@@QAE@XZ        00448ba0 f   XvidDec.obj
 0001:00047bb0       ??1CXvidDec@@QAE@XZ        00448bb0 f   XvidDec.obj
 0001:00047bd0       ?AttachCaller@CXvidDec@@QAEXHH@Z 00448bd0 f   XvidDec.obj
 0001:00047c20       ?Close@CXvidDec@@QAE_NXZ   00448c20 f   XvidDec.obj
 0001:00047c40       ?XVID_GLOBAL_INIT@CXvidDec@@SAXXZ 00448c40 f   XvidDec.obj
 0001:00047c70       ?Open@CXvidDec@@QAE_NXZ    00448c70 f   XvidDec.obj
 0001:00047cc0       ?Decode@CXvidDec@@QAEPAEPAEHAAK@Z 00448cc0 f   XvidDec.obj
 0001:00047cf0       ?dec_core@CXvidDec@@IAEHPAE0H@Z 00448cf0 f   XvidDec.obj
 0001:00047e50       ?CreateObject@CPlay@@SGPAVCObject@@XZ 00448e50 f   Play.obj
 0001:00047eb0       ?GetRuntimeClass@CPlay@@UBEPAUCRuntimeClass@@XZ 00448eb0 f   Play.obj
 0001:00047ec0       ??0CPlay@@IAE@XZ           00448ec0 f   Play.obj
 0001:00047fd0       ??_ECIPAddressCtrl@@UAEPAXI@Z 00448fd0 f i Play.obj
 0001:00047fd0       ??_GCIPAddressCtrl@@UAEPAXI@Z 00448fd0 f i Play.obj
 0001:00047ff0       ??_GCPlay@@MAEPAXI@Z       00448ff0 f i Play.obj
 0001:00047ff0       ??_ECPlay@@MAEPAXI@Z       00448ff0 f i Play.obj
 0001:00048010       ??1CPlay@@MAE@XZ           00449010 f   Play.obj
 0001:000480c0       ?DoDataExchange@CPlay@@MAEXPAVCDataExchange@@@Z 004490c0 f   Play.obj
 0001:00048190       ?GetMessageMap@CPlay@@MBEPBUAFX_MSGMAP@@XZ 00449190 f   Play.obj
 0001:000481a0       ?OnButton9@CPlay@@IAEXXZ   004491a0 f   Play.obj
 0001:000481c0       ?OnButton9@CShowNum@@IAEXXZ 004491c0 f   Play.obj
 0001:000481c0       ?OnFTPServer@CPlay@@IAEXXZ 004491c0 f   Play.obj
 0001:00048240       ?OnLock@CPlay@@IAEXXZ      00449240 f   Play.obj
 0001:00048760       ?OnView@CPlay@@IAEXXZ      00449760 f   Play.obj
 0001:00048840       ?IsDir@CPlay@@QAE_NPAD@Z   00449840 f   Play.obj
 0001:00048970       ?DisplayMessage@CPlay@@QAEXPAD0@Z 00449970 f   Play.obj
 0001:00048ae0       ?DisplayMessage@CPlay@@QAEXPADVCString@@@Z 00449ae0 f   Play.obj
 0001:00048bf0       ?DisplayMessage@CPlay@@QAEXVCString@@PAD@Z 00449bf0 f   Play.obj
 0001:00048cd0       ?GetShortName@CPlay@@QAEXPAD0@Z 00449cd0 f   Play.obj
 0001:00049000       ?GetDispName@CPlay@@QAEXPAD0@Z 0044a000 f   Play.obj
 0001:00049090       ?GetDispName@CPlay@@QAEXAAVCString@@V2@@Z 0044a090 f   Play.obj
 0001:00049140       ?OnChanged@CPlay@@IAEXXZ   0044a140 f   Play.obj
 0001:000491b0       ?LockFile@CPlay@@QAEXVCString@@00@Z 0044a1b0 f   Play.obj
 0001:00049990       ?PassData@@YAXPADKVCString@@@Z 0044a990 f   Play.obj
 0001:00049a30       ?OnConvert@CPlay@@IAEXXZ   0044aa30 f   Play.obj
 0001:00049ad0       ?AddTail@?$CList@VCString@@V1@@@QAEPAU__POSITION@@VCString@@@Z 0044aad0 f i Play.obj
 0001:00049b90       ??1?$CList@VCString@@V1@@@UAE@XZ 0044ab90 f i Play.obj
 0001:00049c00       ?Serialize@?$CList@VCString@@V1@@@UAEXAAVCArchive@@@Z 0044ac00 f i Play.obj
 0001:00049ce0       ??_E?$CList@VCString@@V1@@@UAEPAXI@Z 0044ace0 f i Play.obj
 0001:00049ce0       ??_G?$CList@VCString@@V1@@@UAEPAXI@Z 0044ace0 f i Play.obj
 0001:00049df0       ?CreateObject@CProxy@@SGPAVCObject@@XZ 0044adf0 f   Proxy.obj
 0001:00049e50       ?GetRuntimeClass@CProxy@@UBEPAUCRuntimeClass@@XZ 0044ae50 f   Proxy.obj
 0001:00049e60       ?ftpnets@CProxy@@MAEXXZ    0044ae60 f   Proxy.obj
 0001:00049fe0       ??0CProxy@@IAE@XZ          0044afe0 f   Proxy.obj
 0001:0004a380       ??_GCProxy@@MAEPAXI@Z      0044b380 f i Proxy.obj
 0001:0004a380       ??_ECProxy@@MAEPAXI@Z      0044b380 f i Proxy.obj
 0001:0004a3a0       ??1CProxy@@MAE@XZ          0044b3a0 f   Proxy.obj
 0001:0004a480       ?DoDataExchange@CProxy@@MAEXPAVCDataExchange@@@Z 0044b480 f   Proxy.obj
 0001:0004a530       ?GetMessageMap@CProxy@@MBEPBUAFX_MSGMAP@@XZ 0044b530 f   Proxy.obj
 0001:0004a540       ?CreateObject@Cproxy@@SGPAVCObject@@XZ 0044b540 f   Proxy.obj
 0001:0004a5a0       ?GetRuntimeClass@Cproxy@@UBEPAUCRuntimeClass@@XZ 0044b5a0 f   Proxy.obj
 0001:0004a5b0       ??0Cproxy@@IAE@XZ          0044b5b0 f   Proxy.obj
 0001:0004a5d0       ??_ECproxy@@MAEPAXI@Z      0044b5d0 f i Proxy.obj
 0001:0004a5d0       ??_GCproxy@@MAEPAXI@Z      0044b5d0 f i Proxy.obj
 0001:0004a5f0       ??1Cproxy@@MAE@XZ          0044b5f0 f   Proxy.obj
 0001:0004a600       ?GetMessageMap@Cproxy@@MBEPBUAFX_MSGMAP@@XZ 0044b600 f   Proxy.obj
 0001:0004a610       ?OnFTPPrese@CProxy@@IAEXXZ 0044b610 f   Proxy.obj
 0001:0004a710       ?OnFTPFilecopy@CProxy@@IAEXXZ 0044b710 f   Proxy.obj
 0001:0004a7b0       ?OnGdtj@CBuild@@IAEXXZ     0044b7b0 f   Proxy.obj
 0001:0004a7b0       ?OnLongnect@CProxy@@IAEXXZ 0044b7b0 f   Proxy.obj
 0001:0004a7b0       ?OnChangeFtpSet@CProxy@@IAEXXZ 0044b7b0 f   Proxy.obj
 0001:0004a7b0       ?OnZsBuild@CBuild@@IAEXXZ  0044b7b0 f   Proxy.obj
 0001:0004a7b0       ?OnMeux@CBuild@@IAEXXZ     0044b7b0 f   Proxy.obj
 0001:0004a7b0       ?OnChangeFtpNema@CProxy@@IAEXXZ 0044b7b0 f   Proxy.obj
 0001:0004a7b0       ?OnSendLocalaudio@CAudioDlg@@IAEXXZ 0044b7b0 f   Proxy.obj
 0001:0004a7c0       ?OnFtpIp@CProxy@@IAEXXZ    0044b7c0 f   Proxy.obj
 0001:0004a9b0       ??1CUPDATEIP@@UAE@XZ       0044b9b0 f i Proxy.obj
 0001:0004abb0       ??0CSBDestination@@QAE@QAUHWND__@@H@Z 0044bbb0 f   SBDESTINATION.OBJ
 0001:0004abe0       ??_ECSBDestination@@UAEPAXI@Z 0044bbe0 f i SBDESTINATION.OBJ
 0001:0004abe0       ??_GCSBDestination@@UAEPAXI@Z 0044bbe0 f i SBDESTINATION.OBJ
 0001:0004ac00       ??1CSBDestination@@UAE@XZ  0044bc00 f   SBDESTINATION.OBJ
 0001:0004ac60       ?SetInitialSelection@CSBDestination@@QAEXABVCString@@@Z 0044bc60 f   SBDESTINATION.OBJ
 0001:0004ac80       ?OnInit@CSBDestination@@UBEXXZ 0044bc80 f   SBDESTINATION.OBJ
 0001:0004aca0       ?OnSelChanged@CSBDestination@@UBEXQAU_ITEMIDLIST@@@Z 0044bca0 f   SBDESTINATION.OBJ
 0001:0004ae20       ??0CBrowseForFolder@@QAE@QAUHWND__@@QAU_ITEMIDLIST@@H@Z 0044be20 f   BROWSEFORFOLDER.OBJ
 0001:0004aeb0       ??1CBrowseForFolder@@UAE@XZ 0044beb0 f   BROWSEFORFOLDER.OBJ
 0001:0004af10       ?SetOwner@CBrowseForFolder@@QAEXQAUHWND__@@@Z 0044bf10 f   BROWSEFORFOLDER.OBJ
 0001:0004af30       ?SetRoot@CBrowseForFolder@@QAEXQAU_ITEMIDLIST@@@Z 0044bf30 f   BROWSEFORFOLDER.OBJ
 0001:0004af50       ?SetTitle@CBrowseForFolder@@QAEXABVCString@@@Z 0044bf50 f   BROWSEFORFOLDER.OBJ
 0001:0004b000       ?SetTitle@CBrowseForFolder@@QAE_NH@Z 0044c000 f   BROWSEFORFOLDER.OBJ
 0001:0004b0b0       ?SetFlags@CBrowseForFolder@@QAEXI@Z 0044c0b0 f   BROWSEFORFOLDER.OBJ
 0001:0004b0d0       ?GetSelectedFolder@CBrowseForFolder@@QBE?AVCString@@XZ 0044c0d0 f   BROWSEFORFOLDER.OBJ
 0001:0004b0f0       ?SelectFolder@CBrowseForFolder@@QAE_NXZ 0044c0f0 f   BROWSEFORFOLDER.OBJ
 0001:0004b170       ?SetSelection@CBrowseForFolder@@IBEXABVCString@@@Z 0044c170 f   BROWSEFORFOLDER.OBJ
 0001:0004b1a0       ?SetStatusText@CBrowseForFolder@@IBEXABVCString@@@Z 0044c1a0 f   BROWSEFORFOLDER.OBJ
 0001:0004b1d0       ?BrowseCallbackProc@CBrowseForFolder@@CGHPAUHWND__@@IJJ@Z 0044c1d0 f   BROWSEFORFOLDER.OBJ
 0001:0004b210       ??1?$auto_ptr@D@std@@QAE@XZ 0044c210 f i BROWSEFORFOLDER.OBJ
 0001:0004b310       ?CreateObject@CSignature@@SGPAVCObject@@XZ 0044c310 f   Signature.obj
 0001:0004b370       ?GetRuntimeClass@CSignature@@UBEPAUCRuntimeClass@@XZ 0044c370 f   Signature.obj
 0001:0004b380       ??0CSignature@@IAE@XZ      0044c380 f   Signature.obj
 0001:0004b400       ??_ECSignature@@MAEPAXI@Z  0044c400 f i Signature.obj
 0001:0004b400       ??_GCSignature@@MAEPAXI@Z  0044c400 f i Signature.obj
 0001:0004b420       ??1CSignature@@MAE@XZ      0044c420 f   Signature.obj
 0001:0004b4a0       ?DoDataExchange@CSignature@@MAEXPAVCDataExchange@@@Z 0044c4a0 f   Signature.obj
 0001:0004b500       ?GetMessageMap@CSignature@@MBEPBUAFX_MSGMAP@@XZ 0044c500 f   Signature.obj
 0001:0004b510       ?OnInitialUpdate@CSignature@@UAEXXZ 0044c510 f   Signature.obj
 0001:0004b570       ?OnCtlColor@CSignature@@IAEPAUHBRUSH__@@PAVCDC@@PAVCWnd@@I@Z 0044c570 f   Signature.obj
 0001:0004b5d0       ?OnDropFiles@CSignature@@IAEXPAUHDROP__@@@Z 0044c5d0 f   Signature.obj
 0001:0004b690       ?SafeCloseHandle@@YAXPAU_iobuf@@@Z 0044c690 f   Signature.obj
 0001:0004b6a0       ?GetFileSizeAndName@@YAXPBDPADPAK@Z 0044c6a0 f   Signature.obj
 0001:0004b6e0       ?AttachFile@@YAXPBD0@Z     0044c6e0 f   Signature.obj
 0001:0004b770       ?GetMemoryFilePoint@@YAPAXPBD@Z 0044c770 f   Signature.obj
 0001:0004b810       ?CreateSingedFile@@YAXQADPAXK@Z 0044c810 f   Signature.obj
 0001:0004b880       ?Onxuanwu@CSignature@@IAEXXZ 0044c880 f   Signature.obj
 0001:0004b900       ?Onweishi@CSignature@@IAEXXZ 0044c900 f   Signature.obj
 0001:0004b980       ?Onkugou@CSignature@@IAEXXZ 0044c980 f   Signature.obj
 0001:0004ba00       ?Onliulanqi@CSignature@@IAEXXZ 0044ca00 f   Signature.obj
 0001:0004ba80       ?Onxunlei@CSignature@@IAEXXZ 0044ca80 f   Signature.obj
 0001:0004bb00       ?Ontengxun@CSignature@@IAEXXZ 0044cb00 f   Signature.obj
 0001:0004bb80       ?OnButton1@CSignature@@IAEXXZ 0044cb80 f   Signature.obj
 0001:0004bd90       ?AddSection1@CSignature@@QAE_NXZ 0044cd90 f   Signature.obj
 0001:0004bff0       ?AsmCode@CSignature@@QAEXPADPAK@Z 0044cff0 f   Signature.obj
 0001:0004c0c0       ?CheckSec@CSignature@@QAE_NPAU_IMAGE_SECTION_HEADER@@PAU_IMAGE_NT_HEADERS@@H@Z 0044d0c0 f   Signature.obj
 0001:0004c100       ?OnButton2@CSignature@@IAEXXZ 0044d100 f   Signature.obj
 0001:0004c6c0       ??_ECString@@QAEPAXI@Z     0044d6c0 f i Player.obj
 0001:0004c720       ?CreateObject@CPlayer@@SGPAVCObject@@XZ 0044d720 f   Player.obj
 0001:0004c780       ?GetRuntimeClass@CPlayer@@UBEPAUCRuntimeClass@@XZ 0044d780 f   Player.obj
 0001:0004c790       ??0CPlayer@@IAE@XZ         0044d790 f   Player.obj
 0001:0004c920       ??_ECPlayer@@UAEPAXI@Z     0044d920 f i Player.obj
 0001:0004c920       ??_GCPlayer@@UAEPAXI@Z     0044d920 f i Player.obj
 0001:0004c940       ??1CPlayer@@UAE@XZ         0044d940 f i Player.obj
 0001:0004ca60       ?DoDataExchange@CPlayer@@MAEXPAVCDataExchange@@@Z 0044da60 f   Player.obj
 0001:0004cae0       ?GetMessageMap@CPlayer@@MBEPBUAFX_MSGMAP@@XZ 0044dae0 f   Player.obj
 0001:0004caf0       ?AddSong@CPlayer@@IAEXXZ   0044daf0 f   Player.obj
 0001:0004cc50       ?OnButtonPause@CPlayer@@IAEXXZ 0044dc50 f   Player.obj
 0001:0004cd00       ?DelSong@CPlayer@@IAEXXZ   0044dd00 f   Player.obj
 0001:0004cda0       ?deltSong@CPlayer@@IAEXXZ  0044dda0 f   Player.obj
 0001:0004ce50       ?songListDBClk@CPlayer@@IAEXXZ 0044de50 f   Player.obj
 0001:0004cf60       ?stopPlay@CPlayer@@IAEXXZ  0044df60 f   Player.obj
 0001:0004cfb0       ?playSong@CPlayer@@IAEXVCString@@@Z 0044dfb0 f   Player.obj
 0001:0004d160       ?NextSong@CPlayer@@IAEXXZ  0044e160 f   Player.obj
 0001:0004d210       ?preSong@CPlayer@@IAEXXZ   0044e210 f   Player.obj
 0001:0004d2c0       ?setvolume@CPlayer@@IAEKK@Z 0044e2c0 f   Player.obj
 0001:0004d300       ?Onsetvoices@CPlayer@@IAEXPAUtagNMHDR@@PAJ@Z 0044e300 f   Player.obj
 0001:0004d330       ?OnTimer@CPlayer@@IAEXI@Z  0044e330 f   Player.obj
 0001:0004d460       ?getinfo@CPlayer@@IAEKK@Z  0044e460 f   Player.obj
 0001:0004d4b0       ?OnPrevis@CPlayer@@IAEXXZ  0044e4b0 f   Player.obj
 0001:0004d570       ?OnNexts@CPlayer@@IAEXXZ   0044e570 f   Player.obj
 0001:0004d720       ??0CDropEdit@@QAE@XZ       0044e720 f   DropEdit.obj
 0001:0004d740       ??_ECDropEdit@@UAEPAXI@Z   0044e740 f i DropEdit.obj
 0001:0004d740       ??_GCDropEdit@@UAEPAXI@Z   0044e740 f i DropEdit.obj
 0001:0004d760       ??1CDropEdit@@UAE@XZ       0044e760 f   DropEdit.obj
 0001:0004d770       ?GetMessageMap@CDropEdit@@MBEPBUAFX_MSGMAP@@XZ 0044e770 f   DropEdit.obj
 0001:0004d780       ?OnCreate@CDropEdit@@IAEHPAUtagCREATESTRUCTA@@@Z 0044e780 f   DropEdit.obj
 0001:0004d7b0       ?OnDropFiles@CDropEdit@@IAEXPAUHDROP__@@@Z 0044e7b0 f   DropEdit.obj
 0001:0004d940       ?ExpandShortcut@CDropEdit@@IAE?AVCString@@AAV2@@Z 0044e940 f   DropEdit.obj
 0001:0004db90       ?CreateObject@CUPDATEIP@@SGPAVCObject@@XZ 0044eb90 f   UPDATEIP.obj
 0001:0004dbf0       ?GetRuntimeClass@CUPDATEIP@@UBEPAUCRuntimeClass@@XZ 0044ebf0 f   UPDATEIP.obj
 0001:0004dc00       ??0CUPDATEIP@@QAE@XZ       0044ec00 f   UPDATEIP.obj
 0001:0004e070       ??_GCUPDATEIP@@UAEPAXI@Z   0044f070 f i UPDATEIP.obj
 0001:0004e070       ??_ECUPDATEIP@@UAEPAXI@Z   0044f070 f i UPDATEIP.obj
 0001:0004e090       ?DoDataExchange@CUPDATEIP@@MAEXPAVCDataExchange@@@Z 0044f090 f   UPDATEIP.obj
 0001:0004e1a0       ?GetMessageMap@CUPDATEIP@@MBEPBUAFX_MSGMAP@@XZ 0044f1a0 f   UPDATEIP.obj
 0001:0004e1b0       ?OnInitialUpdate@CUPDATEIP@@UAEXXZ 0044f1b0 f   UPDATEIP.obj
 0001:0004e1d0       ?OnBtnDnsupdate@CUPDATEIP@@MAEXXZ 0044f1d0 f   UPDATEIP.obj
 0001:0004e790       ?OnBtnFtpupdate@CUPDATEIP@@IAEXXZ 0044f790 f   UPDATEIP.obj
 0001:0004ed70       ?OnB_IP@CUPDATEIP@@IAEXXZ  0044fd70 f   UPDATEIP.obj
 0001:0004ee10       ?Base64Encode@CUPDATEIP@@UAE?AVCString@@PBD@Z 0044fe10 f   UPDATEIP.obj
 0001:0004f130       ?Base64Decode@CUPDATEIP@@UAE?AVCString@@PBD@Z 00450130 f   UPDATEIP.obj
 0001:0004fab0       ?ReplaceStr@CUpdateDlg@@QAEHPAD00@Z 00450ab0 f   UPDATEIP.obj
 0001:0004fab0       ?ReplaceStr@CUPDATEIP@@UAEHPAD00@Z 00450ab0 f   UPDATEIP.obj
 0001:0004fbc0       ?GetIPAddress@CUPDATEIP@@UAE?AVCString@@XZ 00450bc0 f   UPDATEIP.obj
 0001:0004fe60       ?MyEncryptFunctionForServer@CUPDATEIP@@UAEXPADG@Z 00450e60 f   UPDATEIP.obj
 0001:00050220       ?OnFTPServer2@CUPDATEIP@@IAEXXZ 00451220 f   UPDATEIP.obj
 0001:000502f0       ??_9@$BBCE@AE              004512f0 f i UPDATEIP.obj
 0001:000503f0       ??0CMemUsgesCtl@@QAE@XZ    004513f0 f   MemUsgesCtl.obj
 0001:00050450       ??_GCMemUsgesCtl@@UAEPAXI@Z 00451450 f i MemUsgesCtl.obj
 0001:00050450       ??_ECMemUsgesCtl@@UAEPAXI@Z 00451450 f i MemUsgesCtl.obj
 0001:00050470       ??1CMemUsgesCtl@@UAE@XZ    00451470 f   MemUsgesCtl.obj
 0001:00050480       ?GetMessageMap@CMemUsgesCtl@@MBEPBUAFX_MSGMAP@@XZ 00451480 f   MemUsgesCtl.obj
 0001:00050490       ?OnPaint@CMemUsgesCtl@@IAEXXZ 00451490 f   MemUsgesCtl.obj
 0001:000504a0       ?getCpuUsgae@@YAKXZ        004514a0 f   MemUsgesCtl.obj
 0001:000504c0       ?GetMemUsgesNt@CMemUsgesCtl@@AAEXXZ 004514c0 f   MemUsgesCtl.obj
 0001:000504e0       ?SetRefreshInterval@CMemUsgesCtl@@QAEXH@Z 004514e0 f   MemUsgesCtl.obj
 0001:000504e0       ?SetRefreshInterval@CCpuUsgesCtl@@QAEXH@Z 004514e0 f   MemUsgesCtl.obj
 0001:00050500       ?OnTimer@CMemUsgesCtl@@IAEXI@Z 00451500 f   MemUsgesCtl.obj
 0001:00050520       ?DrawMemUsges@CMemUsgesCtl@@AAEXXZ 00451520 f   MemUsgesCtl.obj
 0001:00050900       ?Create@CCpuUsgesCtl@@QAEHKABUtagRECT@@PAVCWnd@@I@Z 00451900 f   MemUsgesCtl.obj
 0001:00050900       ?Create@CMemUsgesCtl@@QAEHKABUtagRECT@@PAVCWnd@@I@Z 00451900 f   MemUsgesCtl.obj
 0001:00050a20       ??0CCpuUsgesCtl@@QAE@XZ    00451a20 f   CpuUsgesCtl.obj
 0001:00050a80       ??_GCCpuUsgesCtl@@UAEPAXI@Z 00451a80 f i CpuUsgesCtl.obj
 0001:00050a80       ??_ECCpuUsgesCtl@@UAEPAXI@Z 00451a80 f i CpuUsgesCtl.obj
 0001:00050aa0       ??1CCpuUsgesCtl@@UAE@XZ    00451aa0 f   CpuUsgesCtl.obj
 0001:00050ab0       ?GetMessageMap@CCpuUsgesCtl@@MBEPBUAFX_MSGMAP@@XZ 00451ab0 f   CpuUsgesCtl.obj
 0001:00050ac0       ?OnPaint@CCpuUsgesCtl@@IAEXXZ 00451ac0 f   CpuUsgesCtl.obj
 0001:00050af0       ?OnCreate@CMemUsgesCtl@@IAEHPAUtagCREATESTRUCTA@@@Z 00451af0 f   CpuUsgesCtl.obj
 0001:00050af0       ?OnCreate@CCpuUsgesCtl@@IAEHPAUtagCREATESTRUCTA@@@Z 00451af0 f   CpuUsgesCtl.obj
 0001:00050af0       ?OnCreate@CXInfoTip@@IAEHPAUtagCREATESTRUCTA@@@Z 00451af0 f   CpuUsgesCtl.obj
 0001:00050b00       ?GetCpuUsgesNt@CCpuUsgesCtl@@AAEXXZ 00451b00 f   CpuUsgesCtl.obj
 0001:00050c40       ?OnTimer@CCpuUsgesCtl@@IAEXI@Z 00451c40 f   CpuUsgesCtl.obj
 0001:00050c80       ?OnSize@CKeyBoardDlg@@IAEXIHH@Z 00451c80 f   CpuUsgesCtl.obj
 0001:00050c80       ?OnSize@CMemUsgesCtl@@IAEXIHH@Z 00451c80 f   CpuUsgesCtl.obj
 0001:00050c80       ?OnSize@CXTPTabClientWnd@@IAEXIHH@Z 00451c80 f   CpuUsgesCtl.obj
 0001:00050c80       ?OnSysKeyDown@CXTPCustomizeSheet@@IAEXIII@Z 00451c80 f   CpuUsgesCtl.obj
 0001:00050c80       ?OnRButtonDown@CXTPTabClientWnd@@IAEXIVCPoint@@@Z 00451c80 f   CpuUsgesCtl.obj
 0001:00050c80       ?OnSize@CCpuUsgesCtl@@IAEXIHH@Z 00451c80 f   CpuUsgesCtl.obj
 0001:00050c80       ?OnChar@CXTPDockingPaneWindowSelect@@QAEXIII@Z 00451c80 f   CpuUsgesCtl.obj
 0001:00050c90       ?OnShowWindow@CCpuUsgesCtl@@IAEXHI@Z 00451c90 f   CpuUsgesCtl.obj
 0001:00050c90       ?OnSysCommand@CMydat@@IAEXIJ@Z 00451c90 f   CpuUsgesCtl.obj
 0001:00050c90       ?OnShowWindow@CMemUsgesCtl@@IAEXHI@Z 00451c90 f   CpuUsgesCtl.obj
 0001:00050ca0       ?GetCpuUsges9X@CCpuUsgesCtl@@AAEXXZ 00451ca0 f   CpuUsgesCtl.obj
 0001:00050db0       ?IsNt@CCpuUsgesCtl@@AAEHXZ 00451db0 f   CpuUsgesCtl.obj
 0001:00050dc0       ?DrawCpuUsges@CCpuUsgesCtl@@AAEXXZ 00451dc0 f   CpuUsgesCtl.obj
 0001:000511b0       _xvid_global               004521b0 f   libxvidcore:xvid.obj
 0001:00051dc0       _xvid_decore               00452dc0 f   libxvidcore:xvid.obj
 0001:0005c2c0       _xvid_Init_QP              0045d2c0 f   libxvidcore:qpel.obj
 0001:0005c490       _init_GMC                  0045d490 f   libxvidcore:gmc.obj
 0001:0005d0d0       _generate_GMCparameters    0045e0d0 f   libxvidcore:gmc.obj
 0001:0005d890       _sad16_c                   0045e890 f   libxvidcore:sad.obj
 0001:0005da10       _sad16bi_c                 0045ea10 f   libxvidcore:sad.obj
 0001:0005daa0       _sad8bi_c                  0045eaa0 f   libxvidcore:sad.obj
 0001:0005db30       _sad8_c                    0045eb30 f   libxvidcore:sad.obj
 0001:0005dc20       _dev16_c                   0045ec20 f   libxvidcore:sad.obj
 0001:0005dc80       _sad16v_c                  0045ec80 f   libxvidcore:sad.obj
 0001:0005dcf0       _sse8_16bit_c              0045ecf0 f   libxvidcore:sad.obj
 0001:0005ddf0       _sse8_8bit_c               0045edf0 f   libxvidcore:sad.obj
 0001:0005df00       _coeff8_energy_c           0045ef00 f   libxvidcore:sad.obj
 0001:0005e000       _sseh8_16bit_c             0045f000 f   libxvidcore:sad.obj
 0001:0005e0f0       _blocksum8_c               0045f0f0 f   libxvidcore:sad.obj
 0001:0005e1a0       _calc_cbp_c                0045f1a0 f   libxvidcore:cbp.obj
 0001:0005e270       _rgb555_to_yv12_c          0045f270 f   libxvidcore:colorspace.obj
 0001:0005e610       _rgb565_to_yv12_c          0045f610 f   libxvidcore:colorspace.obj
 0001:0005e9b0       _bgr_to_yv12_c             0045f9b0 f   libxvidcore:colorspace.obj
 0001:0005ecf0       _bgra_to_yv12_c            0045fcf0 f   libxvidcore:colorspace.obj
 0001:0005f040       _rgb_to_yv12_c             00460040 f   libxvidcore:colorspace.obj
 0001:0005f380       _abgr_to_yv12_c            00460380 f   libxvidcore:colorspace.obj
 0001:0005f6d0       _rgba_to_yv12_c            004606d0 f   libxvidcore:colorspace.obj
 0001:0005fa20       _argb_to_yv12_c            00460a20 f   libxvidcore:colorspace.obj
 0001:0005fd70       _yuyv_to_yv12_c            00460d70 f   libxvidcore:colorspace.obj
 0001:0005ff00       _uyvy_to_yv12_c            00460f00 f   libxvidcore:colorspace.obj
 0001:00060050       _rgb555i_to_yv12_c         00461050 f   libxvidcore:colorspace.obj
 0001:000606d0       _rgb565i_to_yv12_c         004616d0 f   libxvidcore:colorspace.obj
 0001:00060d50       _bgri_to_yv12_c            00461d50 f   libxvidcore:colorspace.obj
 0001:00061380       _bgrai_to_yv12_c           00462380 f   libxvidcore:colorspace.obj
 0001:000619c0       _abgri_to_yv12_c           004629c0 f   libxvidcore:colorspace.obj
 0001:00062000       _rgbai_to_yv12_c           00463000 f   libxvidcore:colorspace.obj
 0001:00062650       _argbi_to_yv12_c           00463650 f   libxvidcore:colorspace.obj
 0001:00062ca0       _yuyvi_to_yv12_c           00463ca0 f   libxvidcore:colorspace.obj
 0001:00062f00       _uyvyi_to_yv12_c           00463f00 f   libxvidcore:colorspace.obj
 0001:00063110       _yv12_to_rgb555_c          00464110 f   libxvidcore:colorspace.obj
 0001:000635a0       _yv12_to_rgb565_c          004645a0 f   libxvidcore:colorspace.obj
 0001:00063a30       _yv12_to_bgr_c             00464a30 f   libxvidcore:colorspace.obj
 0001:00063d90       _yv12_to_bgra_c            00464d90 f   libxvidcore:colorspace.obj
 0001:00064120       _yv12_to_abgr_c            00465120 f   libxvidcore:colorspace.obj
 0001:000644b0       _yv12_to_rgb_c             004654b0 f   libxvidcore:colorspace.obj
 0001:00064810       _yv12_to_rgba_c            00465810 f   libxvidcore:colorspace.obj
 0001:00064ba0       _yv12_to_argb_c            00465ba0 f   libxvidcore:colorspace.obj
 0001:00064f30       _yv12_to_yuyv_c            00465f30 f   libxvidcore:colorspace.obj
 0001:00065050       _yv12_to_uyvy_c            00466050 f   libxvidcore:colorspace.obj
 0001:00065170       _yv12_to_rgb555i_c         00466170 f   libxvidcore:colorspace.obj
 0001:000659d0       _yv12_to_rgb565i_c         004669d0 f   libxvidcore:colorspace.obj
 0001:00066270       _yv12_to_bgri_c            00467270 f   libxvidcore:colorspace.obj
 0001:00066860       _yv12_to_bgrai_c           00467860 f   libxvidcore:colorspace.obj
 0001:00066ea0       _yv12_to_abgri_c           00467ea0 f   libxvidcore:colorspace.obj
 0001:000674e0       _yv12_to_rgbi_c            004684e0 f   libxvidcore:colorspace.obj
 0001:00067ad0       _yv12_to_rgbai_c           00468ad0 f   libxvidcore:colorspace.obj
 0001:00068110       _yv12_to_argbi_c           00469110 f   libxvidcore:colorspace.obj
 0001:00068750       _yv12_to_yuyvi_c           00469750 f   libxvidcore:colorspace.obj
 0001:00068940       _yv12_to_uyvyi_c           00469940 f   libxvidcore:colorspace.obj
 0001:00068b20       _yv12_to_yv12_c            00469b20 f   libxvidcore:colorspace.obj
 0001:00068cc0       _colorspace_init           00469cc0 f   libxvidcore:colorspace.obj
 0001:00068d30       _init_postproc             00469d30 f   libxvidcore:postprocessing.obj
 0001:00068d50       _stripe_deblock_h          00469d50 f   libxvidcore:postprocessing.obj
 0001:00068f20       _stripe_deblock_v          00469f20 f   libxvidcore:postprocessing.obj
 0001:00069100       _image_postproc            0046a100 f   libxvidcore:postprocessing.obj
 0001:00069240       _init_deblock              0046a240 f   libxvidcore:postprocessing.obj
 0001:00069290       _deblock8x8_h              0046a290 f   libxvidcore:postprocessing.obj
 0001:0006dba0       _deblock8x8_v              0046eba0 f   libxvidcore:postprocessing.obj
 0001:00072080       _init_noise                00473080 f   libxvidcore:postprocessing.obj
 0001:000722d0       _add_noise                 004732d0 f   libxvidcore:postprocessing.obj
 0001:000723d0       _image_brightness_c        004733d0 f   libxvidcore:postprocessing.obj
 0001:00072430       _interpolate8x8_avg2_c     00473430 f   libxvidcore:interpolate8x8.obj
 0001:00072520       _interpolate8x8_halfpel_add_c 00473520 f   libxvidcore:interpolate8x8.obj
 0001:00072540       _interpolate8x8_avg4_c     00473540 f   libxvidcore:interpolate8x8.obj
 0001:00072730       _interpolate8x8_halfpel_h_c 00473730 f   libxvidcore:interpolate8x8.obj
 0001:000728f0       _interpolate8x4_halfpel_h_c 004738f0 f   libxvidcore:interpolate8x8.obj
 0001:00072ab0       _interpolate8x8_halfpel_h_add_c 00473ab0 f   libxvidcore:interpolate8x8.obj
 0001:00072d10       _interpolate8x8_halfpel_v_c 00473d10 f   libxvidcore:interpolate8x8.obj
 0001:00072ee0       _interpolate8x4_halfpel_v_c 00473ee0 f   libxvidcore:interpolate8x8.obj
 0001:000730b0       _interpolate8x8_halfpel_v_add_c 004740b0 f   libxvidcore:interpolate8x8.obj
 0001:00073340       _interpolate8x8_halfpel_hv_c 00474340 f   libxvidcore:interpolate8x8.obj
 0001:00073610       _interpolate8x4_halfpel_hv_c 00474610 f   libxvidcore:interpolate8x8.obj
 0001:000738e0       _interpolate8x8_halfpel_hv_add_c 004748e0 f   libxvidcore:interpolate8x8.obj
 0001:00073c60       _interpolate8x8_6tap_lowpass_h_c 00474c60 f   libxvidcore:interpolate8x8.obj
 0001:00073f10       _interpolate16x16_lowpass_h_c 00474f10 f   libxvidcore:interpolate8x8.obj
 0001:000744f0       _interpolate8x8_lowpass_h_c 004754f0 f   libxvidcore:interpolate8x8.obj
 0001:000747f0       _interpolate8x8_6tap_lowpass_v_c 004757f0 f   libxvidcore:interpolate8x8.obj
 0001:00074b20       _interpolate16x16_lowpass_v_c 00475b20 f   libxvidcore:interpolate8x8.obj
 0001:000751e0       _interpolate8x8_lowpass_v_c 004761e0 f   libxvidcore:interpolate8x8.obj
 0001:00075520       _interpolate16x16_lowpass_hv_c 00476520 f   libxvidcore:interpolate8x8.obj
 0001:00075b10       _interpolate8x8_lowpass_hv_c 00476b10 f   libxvidcore:interpolate8x8.obj
 0001:00075e20       _MBFieldTest_c             00476e20 f   libxvidcore:mbtransquant.obj
 0001:00075fb0       _transfer_8to16copy_c      00476fb0 f   libxvidcore:mem_transfer.obj
 0001:00075fe0       _transfer_16to8copy_c      00476fe0 f   libxvidcore:mem_transfer.obj
 0001:00076030       _transfer_8to16sub_c       00477030 f   libxvidcore:mem_transfer.obj
 0001:00076090       _transfer_8to16subro_c     00477090 f   libxvidcore:mem_transfer.obj
 0001:000760e0       _transfer_8to16sub2_c      004770e0 f   libxvidcore:mem_transfer.obj
 0001:00076170       _transfer_8to16sub2ro_c    00477170 f   libxvidcore:mem_transfer.obj
 0001:000761e0       _transfer_16to8add_c       004771e0 f   libxvidcore:mem_transfer.obj
 0001:00076230       _transfer8x8_copy_c        00477230 f   libxvidcore:mem_transfer.obj
 0001:00076270       _transfer8x4_copy_c        00477270 f   libxvidcore:mem_transfer.obj
 0001:000762a0       _quant_mpeg_intra_c        004772a0 f   libxvidcore:quant_mpeg.obj
 0001:00076310       _quant_mpeg_inter_c        00477310 f   libxvidcore:quant_mpeg.obj
 0001:000763c0       _dequant_mpeg_intra_c      004773c0 f   libxvidcore:quant_mpeg.obj
 0001:00076480       _dequant_mpeg_inter_c      00477480 f   libxvidcore:quant_mpeg.obj
 0001:00076540       _quant_h263_intra_c        00477540 f   libxvidcore:quant_h263.obj
 0001:000765e0       _quant_h263_inter_c        004775e0 f   libxvidcore:quant_h263.obj
 0001:00076680       _dequant_h263_intra_c      00477680 f   libxvidcore:quant_h263.obj
 0001:00076720       _dequant_h263_inter_c      00477720 f   libxvidcore:quant_h263.obj
 0001:00076790       _idct_int32                00477790 f   libxvidcore:idct.obj
 0001:00077010       _fdct_int32                00478010 f   libxvidcore:fdct.obj
 0001:00077390       _bs_get_spritetrajectory   00478390 f   libxvidcore:mbcoding.obj
 0001:00077450       _init_vlc_tables           00478450 f   libxvidcore:mbcoding.obj
 0001:00077940       _check_resync_marker       00478940 f   libxvidcore:mbcoding.obj
 0001:00077a60       _get_mcbpc_intra           00478a60 f   libxvidcore:mbcoding.obj
 0001:00077b00       _get_mcbpc_inter           00478b00 f   libxvidcore:mbcoding.obj
 0001:00077bd0       _get_cbpy                  00478bd0 f   libxvidcore:mbcoding.obj
 0001:00077c80       _get_mv                    00478c80 f   libxvidcore:mbcoding.obj
 0001:00077f80       _get_dc_dif                00478f80 f   libxvidcore:mbcoding.obj
 0001:00078040       _get_dc_size_lum           00479040 f   libxvidcore:mbcoding.obj
 0001:00078140       _get_dc_size_chrom         00479140 f   libxvidcore:mbcoding.obj
 0001:00078260       _get_intra_block           00479260 f   libxvidcore:mbcoding.obj
 0001:000784f0       _get_inter_block_h263      004794f0 f   libxvidcore:mbcoding.obj
 0001:000787d0       _get_inter_block_mpeg      004797d0 f   libxvidcore:mbcoding.obj
 0001:00078ae0       _image_create              00479ae0 f   libxvidcore:image.obj
 0001:00078bf0       _image_destroy             00479bf0 f   libxvidcore:image.obj
 0001:00078c60       _image_swap                00479c60 f   libxvidcore:image.obj
 0001:00078c90       _image_copy                00479c90 f   libxvidcore:image.obj
 0001:00078cf0       _image_setedges            00479cf0 f   libxvidcore:image.obj
 0001:000792e0       _image_output              0047a2e0 f   libxvidcore:image.obj
 0001:00079790       _output_slice              0047a790 f   libxvidcore:image.obj
 0001:00079900       _image_clear               0047a900 f   libxvidcore:image.obj
 0001:00079a30       _decoder_create            0047aa30 f   libxvidcore:decoder.obj
 0001:00079fd0       _decoder_destroy           0047afd0 f   libxvidcore:decoder.obj
 0001:0007a0b0       _decoder_decode            0047b0b0 f   libxvidcore:decoder.obj
 0001:0007ff10       _get_intra_matrix          00480f10 f   libxvidcore:quant_matrix.obj
 0001:0007ff20       _get_inter_matrix          00480f20 f   libxvidcore:quant_matrix.obj
 0001:0007ff30       _get_default_intra_matrix  00480f30 f   libxvidcore:quant_matrix.obj
 0001:0007ff40       _get_default_inter_matrix  00480f40 f   libxvidcore:quant_matrix.obj
 0001:0007ff50       _set_intra_matrix          00480f50 f   libxvidcore:quant_matrix.obj
 0001:0007ff80       _set_inter_matrix          00480f80 f   libxvidcore:quant_matrix.obj
 0001:00080030       _init_mpeg_matrix          00481030 f   libxvidcore:quant_matrix.obj
 0001:00080050       _xvid_malloc               00481050 f   libxvidcore:mem_align.obj
 0001:000800b0       _xvid_free                 004810b0 f   libxvidcore:mem_align.obj
 0001:000800d0       _image_printf              004810d0 f   libxvidcore:font.obj
 0001:00080290       _read_video_packet_header  00481290 f   libxvidcore:bitstream.obj
 0001:00080a20       _BitstreamReadHeaders      00481a20 f   libxvidcore:bitstream.obj
 0001:00084040       _predict_acdc              00485040 f   libxvidcore:mbprediction.obj
 0001:000843a0       _add_acdc                  004853a0 f   libxvidcore:mbprediction.obj
 0001:00084520       _get_pmv2                  00485520 f   libxvidcore:mbprediction.obj
 0001:00084790       _get_pmv2_interlaced       00485790 f   libxvidcore:mbprediction.obj
 0001:000849d0       _getParmFromBits           004859d0 f   va_g729a:intf_g729a.obj
 0001:00084a60       _newCopyBits               00485a60 f   va_g729a:intf_g729a.obj
 0001:00084af0       _va_g729a_init_encoder     00485af0 f   va_g729a:intf_g729a.obj
 0001:00084b00       _va_g729a_encoder          00485b00 f   va_g729a:intf_g729a.obj
 0001:00084b60       _va_g729a_init_decoder     00485b60 f   va_g729a:intf_g729a.obj
 0001:00084b90       _va_g729a_decoder          00485b90 f   va_g729a:intf_g729a.obj
 0001:00084c80       _bin2prm_ld8k              00485c80 f   va_g729a:intf_g729a.obj
 0001:00084cd0       _prm2bin_ld8k              00485cd0 f   va_g729a:intf_g729a.obj
 0001:00084d10       _init_coder_ld8a           00485d10 f   va_g729a:COD_LD8A.OBJ
 0001:00084dd0       _coder_ld8a                00485dd0 f   va_g729a:COD_LD8A.OBJ
 0001:00085380       _init_pre_process          00486380 f   va_g729a:PRE_PROC.OBJ
 0001:000853e0       _pre_process               004863e0 f   va_g729a:PRE_PROC.OBJ
 0001:00085490       _init_post_process         00486490 f   va_g729a:POST_PRO.OBJ
 0001:000854f0       _post_process              004864f0 f   va_g729a:POST_PRO.OBJ
 0001:000855a0       _init_post_filter          004865a0 f   va_g729a:POSTFILA.OBJ
 0001:000855d0       _post_filter               004865d0 f   va_g729a:POSTFILA.OBJ
 0001:00085ad0       _init_decod_ld8a           00486ad0 f   va_g729a:DEC_LD8A.OBJ
 0001:00085b50       _decod_ld8a                00486b50 f   va_g729a:DEC_LD8A.OBJ
 0001:00085e20       _parity_pitch              00486e20 f   va_g729a:P_PARITY.OBJ
 0001:00085e50       _check_parity_pitch        00486e50 f   va_g729a:P_PARITY.OBJ
 0001:00085e80       _init_exc_err              00486e80 f   va_g729a:TAMING.OBJ
 0001:00085eb0       _test_err                  00486eb0 f   va_g729a:TAMING.OBJ
 0001:00085f50       _update_exc_err            00486f50 f   va_g729a:TAMING.OBJ
 0001:00086040       _qua_lsp                   00487040 f   va_g729a:QUA_LSP.OBJ
 0001:000860b0       _lsp_encw_reset            004870b0 f   va_g729a:QUA_LSP.OBJ
 0001:00086730       _set_zero                  00487730 f   va_g729a:UTIL.OBJ
 0001:00086750       _copy                      00487750 f   va_g729a:UTIL.OBJ
 0001:00086780       _random_g729               00487780 f   va_g729a:UTIL.OBJ
 0001:000867b0       _qua_gain                  004877b0 f   va_g729a:QUA_GAIN.OBJ
 0001:00086b20       _corr_xy2                  00487b20 f   va_g729a:COR_FUNC.OBJ
 0001:00086ba0       _cor_h_x                   00487ba0 f   va_g729a:COR_FUNC.OBJ
 0001:00086bf0       _ACELP_code_A              00487bf0 f   va_g729a:ACELP_CA.OBJ
 0001:00087f20       _pitch_ol_fast             00488f20 f   va_g729a:PITCH_A.OBJ
 0001:00088240       _pitch_fr3_fast            00489240 f   va_g729a:PITCH_A.OBJ
 0001:000883f0       _g_pitch                   004893f0 f   va_g729a:PITCH_A.OBJ
 0001:00088480       _enc_lag3                  00489480 f   va_g729a:PITCH_A.OBJ
 0001:000884f0       _syn_filt                  004894f0 f   va_g729a:FILTER.OBJ
 0001:00088590       _residu                    00489590 f   va_g729a:FILTER.OBJ
 0001:000885e0       _weight_az                 004895e0 f   va_g729a:LPCFUNCA.OBJ
 0001:00088630       _int_qlpc                  00489630 f   va_g729a:LPCFUNCA.OBJ
 0001:000887c0       _autocorr                  004897c0 f   va_g729a:LPCA.OBJ
 0001:00088870       _lag_window                00489870 f   va_g729a:LPCA.OBJ
 0001:000888a0       _levinson                  004898a0 f   va_g729a:LPCA.OBJ
 0001:000889a0       _az_lsp                    004899a0 f   va_g729a:LPCA.OBJ
 0001:00088c50       _lsp_decw_reset            00489c50 f   va_g729a:LSPDEC.OBJ
 0001:00088ca0       _d_lsp                     00489ca0 f   va_g729a:LSPDEC.OBJ
 0001:00088db0       _dec_gain                  00489db0 f   va_g729a:DEC_GAIN.OBJ
 0001:00088ea0       _decod_ACELP               00489ea0 f   va_g729a:DE_ACELP.OBJ
 0001:00088f40       _pred_lt_3                 00489f40 f   va_g729a:PRED_LT3.OBJ
 0001:00088fe0       _dec_lag3                  00489fe0 f   va_g729a:DEC_LAG3.OBJ
 0001:00089080       _lsp_get_quant             0048a080 f   va_g729a:LSPGETQ.OBJ
 0001:00089150       _lsp_expand_1              0048a150 f   va_g729a:LSPGETQ.OBJ
 0001:00089190       _lsp_expand_2              0048a190 f   va_g729a:LSPGETQ.OBJ
 0001:000891d0       _lsp_expand_1_2            0048a1d0 f   va_g729a:LSPGETQ.OBJ
 0001:00089270       _lsp_prev_extract          0048a270 f   va_g729a:LSPGETQ.OBJ
 0001:000892f0       _lsp_prev_update           0048a2f0 f   va_g729a:LSPGETQ.OBJ
 0001:000893f0       _gain_predict              0048a3f0 f   va_g729a:GAINPRED.OBJ
 0001:00089470       _gain_update               0048a470 f   va_g729a:GAINPRED.OBJ
 0001:000894a0       _gain_update_erasure       0048a4a0 f   va_g729a:GAINPRED.OBJ
 0001:00089500       _AVIFileInit@0             0048a500 f   vfw32:AVIFIL32.dll
 0001:00089506       _AVIFileExit@0             0048a506 f   vfw32:AVIFIL32.dll
 0001:0008950c       _AVIStreamSetFormat@16     0048a50c f   vfw32:AVIFIL32.dll
 0001:00089512       _AVIFileCreateStreamA@12   0048a512 f   vfw32:AVIFIL32.dll
 0001:00089518       _AVIFileOpenA@16           0048a518 f   vfw32:AVIFIL32.dll
 0001:0008951e       _AVIStreamWrite@32         0048a51e f   vfw32:AVIFIL32.dll
 0001:00089524       _AVIFileRelease@4          0048a524 f   vfw32:AVIFIL32.dll
 0001:0008952a       _AVIStreamRelease@4        0048a52a f   vfw32:AVIFIL32.dll
 0001:00089530       _DrawDibClose@4            0048a530 f   vfw32:MSVFW32.dll
 0001:00089536       _DrawDibOpen@0             0048a536 f   vfw32:MSVFW32.dll
 0001:0008953c       _DrawDibDraw@52            0048a53c f   vfw32:MSVFW32.dll
 0001:00089542       ?AfxGetMainWnd@@YGPAVCWnd@@XZ 0048a542 f i nafxcw:dlgcore.obj
 0001:00089556       ??_9@$BME@AE               0048a556 f i nafxcw:dlgcore.obj
 0001:0008955e       ??_9@$BMI@AE               0048a55e f i nafxcw:dlgcore.obj
 0001:00089566       ?AfxCheckError@@YGXJ@Z     0048a566 f   nafxcw:olevar.obj
 0001:00089585       ?_AfxCompareSafeArrays@@YGHPAUtagSAFEARRAY@@0@Z 0048a585 f   nafxcw:olevar.obj
 0001:000897f1       ??0COleVariant@@QAE@ABUtagVARIANT@@@Z 0048a7f1 f   nafxcw:olevar.obj
 0001:000897f1       ??0COleVariant@@QAE@ABV0@@Z 0048a7f1 f   nafxcw:olevar.obj
 0001:000897f1       ??0COleVariant@@QAE@PBUtagVARIANT@@@Z 0048a7f1 f   nafxcw:olevar.obj
 0001:00089811       ??0COleVariant@@QAE@PBDG@Z 0048a811 f   nafxcw:olevar.obj
 0001:0008988c       ??0COleVariant@@QAE@FG@Z   0048a88c f   nafxcw:olevar.obj
 0001:000898c2       ??0COleVariant@@QAE@JG@Z   0048a8c2 f   nafxcw:olevar.obj
 0001:00089904       ?ChangeType@COleVariant@@QAEXGPAUtagVARIANT@@@Z 0048a904 f   nafxcw:olevar.obj
 0001:0008992f       ??8COleVariant@@QBEHABUtagVARIANT@@@Z 0048a92f f   nafxcw:olevar.obj
 0001:00089a4b       ??4COleVariant@@QAEABV0@ABUtagVARIANT@@@Z 0048aa4b f   nafxcw:olevar.obj
 0001:00089a4b       ??4COleVariant@@QAEABV0@ABV0@@Z 0048aa4b f   nafxcw:olevar.obj
 0001:00089a65       ??4COleVariant@@QAEABV0@ABVCString@@@Z 0048aa65 f   nafxcw:olevar.obj
 0001:00089ad7       ??4COleVariant@@QAEABV0@ABVCOleDateTime@@@Z 0048aad7 f   nafxcw:olevar.obj
 0001:00089afb       ?AfxVariantInit@@YGXPAUtagVARIANT@@@Z 0048aafb f   nafxcw:olevar.obj
 0001:00089b0e       ??6@YGAAVCArchive@@AAV0@VCOleVariant@@@Z 0048ab0e f   nafxcw:olevar.obj
 0001:00089cd8       ??5@YGAAVCArchive@@AAV0@AAVCOleVariant@@@Z 0048acd8 f   nafxcw:olevar.obj
 0001:00089f09       ?_AfxOleDateFromTm@@YGHGGGGGGAAN@Z 0048af09 f   nafxcw:olevar.obj
 0001:0008a046       ?_AfxTmFromOleDate@@YGHNAAUtm@@@Z 0048b046 f   nafxcw:olevar.obj
 0001:0008a221       ??6CArchive@@QAEAAV0@E@Z   0048b221 f i nafxcw:olevar.obj
 0001:0008a244       ??6CArchive@@QAEAAV0@G@Z   0048b244 f i nafxcw:olevar.obj
 0001:0008a26b       ??6CArchive@@QAEAAV0@J@Z   0048b26b f i nafxcw:olevar.obj
 0001:0008a26b       ??6CArchive@@QAEAAV0@K@Z   0048b26b f i nafxcw:olevar.obj
 0001:0008a26b       ??6CArchive@@QAEAAV0@M@Z   0048b26b f i nafxcw:olevar.obj
 0001:0008a291       ??6CArchive@@QAEAAV0@N@Z   0048b291 f i nafxcw:olevar.obj
 0001:0008a2be       ?_AfxTmConvertToStandardFormat@@YGXAAUtm@@@Z 0048b2be f   nafxcw:olevar.obj
 0001:0008a2d5       ?_AfxDoubleFromDate@@YGNN@Z 0048b2d5 f   nafxcw:olevar.obj
 0001:0008a2fb       ??5CArchive@@QAEAAV0@AAE@Z 0048b2fb f i nafxcw:olevar.obj
 0001:0008a32a       ??5CArchive@@QAEAAV0@AAG@Z 0048b32a f i nafxcw:olevar.obj
 0001:0008a35d       ??5CArchive@@QAEAAV0@AAJ@Z 0048b35d f i nafxcw:olevar.obj
 0001:0008a35d       ??5CArchive@@QAEAAV0@AAM@Z 0048b35d f i nafxcw:olevar.obj
 0001:0008a35d       ??5CArchive@@QAEAAV0@AAK@Z 0048b35d f i nafxcw:olevar.obj
 0001:0008a38f       ??5CArchive@@QAEAAV0@AAN@Z 0048b38f f i nafxcw:olevar.obj
 0001:0008a3c7       ??4COleDateTime@@QAEABV0@N@Z 0048b3c7 f   nafxcw:olevar.obj
 0001:0008a3d6       ??4COleDateTime@@QAEABV0@ABU_SYSTEMTIME@@@Z 0048b3d6 f   nafxcw:olevar.obj
 0001:0008a40e       ??MCOleDateTime@@QBEHABV0@@Z 0048b40e f   nafxcw:olevar.obj
 0001:0008a444       ?SetDateTime@COleDateTime@@QAEHHHHHHH@Z 0048b444 f   nafxcw:olevar.obj
 0001:0008a46f       ?ParseDateTime@COleDateTime@@QAEHPBDKK@Z 0048b46f f   nafxcw:olevar.obj
 0001:0008a539       ?Format@COleDateTime@@QBE?AVCString@@KK@Z 0048b539 f   nafxcw:olevar.obj
 0001:0008a644       ?Format@COleDateTime@@QBE?AVCString@@PBD@Z 0048b644 f   nafxcw:olevar.obj
 0001:0008a708       ??6@YGAAVCArchive@@AAV0@VCOleDateTime@@@Z 0048b708 f   nafxcw:olevar.obj
 0001:0008a72a       ??5@YGAAVCArchive@@AAV0@AAVCOleDateTime@@@Z 0048b72a f   nafxcw:olevar.obj
 0001:0008a74a       ??1COleVariant@@QAE@XZ     0048b74a f i nafxcw:olevar.obj
 0001:0008a752       _InitMultipleMonitorStubs  0048b752 f   nafxcw:wincore.obj
 0001:0008a82a       _xMonitorFromRect@8        0048b82a f   nafxcw:wincore.obj
 0001:0008a880       _xMonitorFromWindow@8      0048b880 f   nafxcw:wincore.obj
 0001:0008a8eb       _xGetMonitorInfo@8         0048b8eb f   nafxcw:wincore.obj
 0001:0008a97e       ?GetOwner@CWnd@@QBEPAV1@XZ 0048b97e f i nafxcw:wincore.obj
 0001:0008a995       ??1CWaitCursor@@QAE@XZ     0048b995 f i nafxcw:wincore.obj
 0001:0008a9a2       ??_GCScrollBar@@UAEPAXI@Z  0048b9a2 f i nafxcw:winctrl1.obj
 0001:0008a9a2       ??_ECScrollBar@@UAEPAXI@Z  0048b9a2 f i nafxcw:winctrl1.obj
 0001:0008a9be       ??1CNoTrackObject@@UAE@XZ  0048b9be f i nafxcw:filecore.obj
 0001:0008a9be       ??1CException@@UAE@XZ      0048b9be f i nafxcw:filecore.obj
 0001:0008a9be       ??1COccManager@@UAE@XZ     0048b9be f i nafxcw:filecore.obj
 0001:0008a9be       ?id@?$collate@D@std@@$E    0048b9be f i nafxcw:filecore.obj
 0001:0008a9bf       ??_ECFileException@@UAEPAXI@Z 0048b9bf f i nafxcw:filecore.obj
 0001:0008a9bf       ??_GCFileException@@UAEPAXI@Z 0048b9bf f i nafxcw:filecore.obj
 0001:0008a9db       ??1CFileException@@UAE@XZ  0048b9db f i nafxcw:filecore.obj
 0001:0008aa07       ?SetFilePath@CFile@@UAEXPBD@Z 0048ba07 f i nafxcw:filecore.obj
 0001:0008aa16       ??_ECHeaderCtrl@@UAEPAXI@Z 0048ba16 f i nafxcw:winctrl2.obj
 0001:0008aa16       ??_GCHeaderCtrl@@UAEPAXI@Z 0048ba16 f i nafxcw:winctrl2.obj
 0001:0008aa32       ??_GCTabCtrl@@UAEPAXI@Z    0048ba32 f i nafxcw:winctrl2.obj
 0001:0008aa32       ??_ECTabCtrl@@UAEPAXI@Z    0048ba32 f i nafxcw:winctrl2.obj
 0001:0008aa4e       ??0CPoint@@QAE@K@Z         0048ba4e f i nafxcw:barcore.obj
 0001:0008aa65       ?OnCancelMode@CWnd@@IAEXXZ 0048ba65 f i nafxcw:barcore.obj
 0001:0008aa6a       ?OnEraseBkgnd@CWnd@@IAEHPAVCDC@@@Z 0048ba6a f i nafxcw:barcore.obj
 0001:0008aa72       ?OnShowWindow@CWnd@@IAEXHI@Z 0048ba72 f i nafxcw:barcore.obj
 0001:0008aa7a       ??0CResourceException@@QAE@HI@Z 0048ba7a f i nafxcw:wingdi.obj
 0001:0008aaa4       ??_GCResourceException@@UAEPAXI@Z 0048baa4 f i nafxcw:wingdi.obj
 0001:0008aaa4       ??_ECResourceException@@UAEPAXI@Z 0048baa4 f i nafxcw:wingdi.obj
 0001:0008aac0       ??1CResourceException@@UAE@XZ 0048bac0 f i nafxcw:wingdi.obj
 0001:0008aac7       ??0CUserException@@QAE@HI@Z 0048bac7 f i nafxcw:wingdi.obj
 0001:0008aaf1       ??_ECUserException@@UAEPAXI@Z 0048baf1 f i nafxcw:wingdi.obj
 0001:0008aaf1       ??_GCUserException@@UAEPAXI@Z 0048baf1 f i nafxcw:wingdi.obj
 0001:0008ab0d       ??1CUserException@@UAE@XZ  0048bb0d f i nafxcw:wingdi.obj
 0001:0008ab14       ?Unlock@CSyncObject@@UAEHJPAJ@Z 0048bb14 f i nafxcw:inet.obj
 0001:0008ab1a       ??_GCCriticalSection@@UAEPAXI@Z 0048bb1a f i nafxcw:inet.obj
 0001:0008ab1a       ??_ECCriticalSection@@UAEPAXI@Z 0048bb1a f i nafxcw:inet.obj
 0001:0008ab36       ??1CCriticalSection@@UAE@XZ 0048bb36 f i nafxcw:inet.obj
 0001:0008ab52       ?Lock@CCriticalSection@@UAEHK@Z 0048bb52 f i nafxcw:inet.obj
 0001:0008ab62       ?Unlock@CCriticalSection@@UAEHXZ 0048bb62 f i nafxcw:inet.obj
 0001:0008ab70       ?GetServerName@CInternetConnection@@QBE?AVCString@@XZ 0048bb70 f i nafxcw:inet.obj
 0001:0008ab8b       ??_ECGopherLocator@@UAEPAXI@Z 0048bb8b f i nafxcw:inet.obj
 0001:0008ab8b       ??_GCGopherLocator@@UAEPAXI@Z 0048bb8b f i nafxcw:inet.obj
 0001:0008aba7       ??0CMemoryException@@QAE@HI@Z 0048bba7 f i nafxcw:except.obj
 0001:0008abd1       ??_GCMemoryException@@UAEPAXI@Z 0048bbd1 f i nafxcw:except.obj
 0001:0008abd1       ??_ECMemoryException@@UAEPAXI@Z 0048bbd1 f i nafxcw:except.obj
 0001:0008abed       ??1CMemoryException@@UAE@XZ 0048bbed f i nafxcw:except.obj
 0001:0008abf4       ??0CNotSupportedException@@QAE@HI@Z 0048bbf4 f i nafxcw:except.obj
 0001:0008ac1e       ??_ECNotSupportedException@@UAEPAXI@Z 0048bc1e f i nafxcw:except.obj
 0001:0008ac1e       ??_GCNotSupportedException@@UAEPAXI@Z 0048bc1e f i nafxcw:except.obj
 0001:0008ac3a       ??1CNotSupportedException@@UAE@XZ 0048bc3a f i nafxcw:except.obj
 0001:0008ac41       ??0CFileFind@@QAE@XZ       0048bc41 f   nafxcw:filefind.obj
 0001:0008ac62       ??_ECFileFind@@UAEPAXI@Z   0048bc62 f i nafxcw:filefind.obj
 0001:0008ac62       ??_GCFileFind@@UAEPAXI@Z   0048bc62 f i nafxcw:filefind.obj
 0001:0008ac7e       ??1CFileFind@@UAE@XZ       0048bc7e f   nafxcw:filefind.obj
 0001:0008acba       ?Close@CFileFind@@QAEXXZ   0048bcba f   nafxcw:filefind.obj
 0001:0008acfa       ?CloseContext@CFileFind@@MAEXXZ 0048bcfa f   nafxcw:filefind.obj
 0001:0008ad04       ?FindFile@CFileFind@@UAEHPBDK@Z 0048bd04 f   nafxcw:filefind.obj
 0001:0008ade4       ?MatchesMask@CFileFind@@UBEHK@Z 0048bde4 f   nafxcw:filefind.obj
 0001:0008adfe       ?GetLastAccessTime@CFileFind@@UBEHPAU_FILETIME@@@Z 0048bdfe f   nafxcw:filefind.obj
 0001:0008ae22       ?GetLastWriteTime@CFileFind@@UBEHPAU_FILETIME@@@Z 0048be22 f   nafxcw:filefind.obj
 0001:0008ae46       ?GetCreationTime@CFileFind@@UBEHPAU_FILETIME@@@Z 0048be46 f   nafxcw:filefind.obj
 0001:0008ae6a       ?GetLastAccessTime@CFileFind@@UBEHAAVCTime@@@Z 0048be6a f   nafxcw:filefind.obj
 0001:0008ae95       ?GetLastWriteTime@CFileFind@@UBEHAAVCTime@@@Z 0048be95 f   nafxcw:filefind.obj
 0001:0008aec0       ?GetCreationTime@CFileFind@@UBEHAAVCTime@@@Z 0048bec0 f   nafxcw:filefind.obj
 0001:0008aeeb       ?IsDots@CFileFind@@UBEHXZ  0048beeb f   nafxcw:filefind.obj
 0001:0008af24       ?FindNextFileA@CFileFind@@UAEHXZ 0048bf24 f   nafxcw:filefind.obj
 0001:0008af5f       ?GetFileURL@CFileFind@@UBE?AVCString@@XZ 0048bf5f f   nafxcw:filefind.obj
 0001:0008afd8       ?GetRoot@CFileFind@@UBE?AVCString@@XZ 0048bfd8 f   nafxcw:filefind.obj
 0001:0008aff3       ?GetFilePath@CFileFind@@UBE?AVCString@@XZ 0048bff3 f   nafxcw:filefind.obj
 0001:0008b08b       ?GetFileTitle@CFileFind@@UBE?AVCString@@XZ 0048c08b f   nafxcw:filefind.obj
 0001:0008b11c       ?GetFileName@CFileFind@@UBE?AVCString@@XZ 0048c11c f   nafxcw:filefind.obj
 0001:0008b17b       ?GetLength@CFileFind@@QBEKXZ 0048c17b f   nafxcw:filefind.obj
 0001:0008b1aa       ??1?$CProcessLocal@VCOccManager@@@@QAE@XZ 0048c1aa f i nafxcw:occmgr.obj
 0001:0008b1af       ?AfxEnableControlContainer@@YAXPAVCOccManager@@@Z 0048c1af f   nafxcw:occmgr.obj
 0001:0008b1d6       ?_AfxFindFirstDlgItem@@YGPAUDLGITEMTEMPLATE@@PBUDLGTEMPLATE@@@Z 0048c1d6 f   nafxcw:occmgr.obj
 0001:0008b25c       ?_AfxFindNextDlgItem@@YGPAUDLGITEMTEMPLATE@@PAU1@H@Z 0048c25c f   nafxcw:occmgr.obj
 0001:0008b2b0       ?OnEvent@COccManager@@UAEHPAVCCmdTarget@@IPAUAFX_EVENT@@PAUAFX_CMDHANDLERINFO@@@Z 0048c2b0 f   nafxcw:occmgr.obj
 0001:0008b2c8       ?CreateContainer@COccManager@@UAEPAVCOleControlContainer@@PAVCWnd@@@Z 0048c2c8 f   nafxcw:occmgr.obj
 0001:0008b2ff       ?CreateSite@COccManager@@UAEPAVCOleControlSite@@PAVCOleControlContainer@@@Z 0048c2ff f   nafxcw:occmgr.obj
 0001:0008b339       ?PreCreateDialog@COccManager@@UAEPBUDLGTEMPLATE@@PAU_AFX_OCC_DIALOG_INFO@@PBU2@@Z 0048c339 f   nafxcw:occmgr.obj
 0001:0008b383       ?PostCreateDialog@COccManager@@UAEXPAU_AFX_OCC_DIALOG_INFO@@@Z 0048c383 f   nafxcw:occmgr.obj
 0001:0008b3a7       ?SplitDialogTemplate@COccManager@@UAEPAUDLGTEMPLATE@@PBU2@PAPAUDLGITEMTEMPLATE@@@Z 0048c3a7 f   nafxcw:occmgr.obj
 0001:0008b4e6       ?CreateDlgControls@COccManager@@UAEHPAVCWnd@@PBDPAU_AFX_OCC_DIALOG_INFO@@@Z 0048c4e6 f   nafxcw:occmgr.obj
 0001:0008b541       ?CreateDlgControls@COccManager@@UAEHPAVCWnd@@PAXPAU_AFX_OCC_DIALOG_INFO@@@Z 0048c541 f   nafxcw:occmgr.obj
 0001:0008b69c       ?BindControls@COccManager@@IAEXPAVCWnd@@@Z 0048c69c f   nafxcw:occmgr.obj
 0001:0008b7b7       ?CreateDlgControl@COccManager@@IAEPAUHWND__@@PAVCWnd@@PAU2@HPAUDLGITEMTEMPLATE@@GPAEK@Z 0048c7b7 f   nafxcw:occmgr.obj
 0001:0008ba82       ?CreateObject@?$CProcessLocal@VCOccManager@@@@SGPAVCNoTrackObject@@XZ 0048ca82 f i nafxcw:occmgr.obj
 0001:0008ba97       ??_ECOccManager@@UAEPAXI@Z 0048ca97 f i nafxcw:occmgr.obj
 0001:0008ba97       ??_GCOccManager@@UAEPAXI@Z 0048ca97 f i nafxcw:occmgr.obj
 0001:0008bab2       ??_9@$BOA@AE               0048cab2 f i nafxcw:viewcore.obj
 0001:0008baba       ??1CPushRoutingView@@QAE@XZ 0048caba f i nafxcw:viewcore.obj
 0001:0008bac6       ??1CPushRoutingFrame@@QAE@XZ 0048cac6 f i nafxcw:winfrm.obj
 0001:0008bad2       ??_GCOleException@@UAEPAXI@Z 0048cad2 f i nafxcw:olemisc.obj
 0001:0008bad2       ??_ECOleException@@UAEPAXI@Z 0048cad2 f i nafxcw:olemisc.obj
 0001:0008baee       ??1COleException@@UAE@XZ   0048caee f i nafxcw:olemisc.obj
 0001:0008baf5       ??_GCHandleMap@@UAEPAXI@Z  0048caf5 f i nafxcw:winhand.obj
 0001:0008baf5       ??_ECHandleMap@@UAEPAXI@Z  0048caf5 f i nafxcw:winhand.obj
 0001:0008bb11       ??1CHandleMap@@UAE@XZ      0048cb11 f i nafxcw:winhand.obj
 0001:0008bb59       ??0CFixedAlloc@@QAE@II@Z   0048cb59 f   nafxcw:fixalloc.obj
 0001:0008bb81       ??1CFixedAlloc@@QAE@XZ     0048cb81 f   nafxcw:fixalloc.obj
 0001:0008bb95       ?FreeAll@CFixedAlloc@@QAEXXZ 0048cb95 f   nafxcw:fixalloc.obj
 0001:0008bbbd       ?Alloc@CFixedAlloc@@QAEPAXXZ 0048cbbd f   nafxcw:fixalloc.obj
 0001:0008bc4c       ?Free@CFixedAlloc@@QAEXPAX@Z 0048cc4c f   nafxcw:fixalloc.obj
 0001:0008bc78       ??0CSyncObject@@QAE@PBD@Z  0048cc78 f   nafxcw:mtcore.obj
 0001:0008bc87       ??_GCSyncObject@@UAEPAXI@Z 0048cc87 f i nafxcw:mtcore.obj
 0001:0008bc87       ??_ECSyncObject@@UAEPAXI@Z 0048cc87 f i nafxcw:mtcore.obj
 0001:0008bca3       ??1CSyncObject@@UAE@XZ     0048cca3 f   nafxcw:mtcore.obj
 0001:0008bcc0       ?Lock@CSyncObject@@UAEHK@Z 0048ccc0 f   nafxcw:mtcore.obj
 0001:0008bcd5       ??_GCArchiveException@@UAEPAXI@Z 0048ccd5 f i nafxcw:arcex.obj
 0001:0008bcd5       ??_ECArchiveException@@UAEPAXI@Z 0048ccd5 f i nafxcw:arcex.obj
 0001:0008bcf1       ??1CArchiveException@@UAE@XZ 0048ccf1 f i nafxcw:arcex.obj
 0001:0008bd1d       ?GetMenuStringA@CMenu@@QBEHIAAVCString@@I@Z 0048cd1d f i nafxcw:filelist.obj
 0001:0008bd7a       ?OnEvent@CCmdTarget@@QAEHIPAUAFX_EVENT@@PAUAFX_CMDHANDLERINFO@@@Z 0048cd7a f   nafxcw:occevent.obj
 0001:0008bf8c       ?GetEventSinkEntry@CCmdTarget@@IAGPBUAFX_EVENTSINKMAP_ENTRY@@IPAUAFX_EVENT@@@Z 0048cf8c f   nafxcw:occevent.obj
 0001:0008c001       ?CreateControl@CWnd@@QAEHABU_GUID@@PBDKABUtagRECT@@PAV1@IPAVCFile@@HPAG@Z 0048d001 f   nafxcw:occcont.obj
 0001:0008c05f       ?CreateControl@CWnd@@QAEHABU_GUID@@PBDKPBUtagPOINT@@PBUtagSIZE@@PAV1@IPAVCFile@@HPAG@Z 0048d05f f   nafxcw:occcont.obj
 0001:0008c0a8       ?InitControlContainer@CWnd@@IAEHXZ 0048d0a8 f   nafxcw:occcont.obj
 0001:0008c151       ?GetInterfaceMap@COleControlContainer@@MBEPBUAFX_INTERFACEMAP@@XZ 0048d151 f   nafxcw:occcont.obj
 0001:0008c157       ?GetDispatchMap@COleControlContainer@@MBEPBUAFX_DISPMAP@@XZ 0048d157 f   nafxcw:occcont.obj
 0001:0008c15d       ??0COleControlContainer@@QAE@PAVCWnd@@@Z 0048d15d f   nafxcw:occcont.obj
 0001:0008c1bc       ??_ECOleControlContainer@@UAEPAXI@Z 0048d1bc f i nafxcw:occcont.obj
 0001:0008c1bc       ??_GCOleControlContainer@@UAEPAXI@Z 0048d1bc f i nafxcw:occcont.obj
 0001:0008c1d8       ??1COleControlContainer@@UAE@XZ 0048d1d8 f   nafxcw:occcont.obj
 0001:0008c2b6       ?CreateControl@COleControlContainer@@QAEHPAVCWnd@@ABU_GUID@@PBDKABUtagRECT@@IPAVCFile@@HPAGPAPAVCOleControlSite@@@Z 0048d2b6 f   nafxcw:occcont.obj
 0001:0008c317       ?CreateControl@COleControlContainer@@QAEHPAVCWnd@@ABU_GUID@@PBDKPBUtagPOINT@@PBUtagSIZE@@IPAVCFile@@HPAGPAPAVCOleControlSite@@@Z 0048d317 f   nafxcw:occcont.obj
 0001:0008c3d2       ?FindItem@COleControlContainer@@UBEPAVCOleControlSite@@I@Z 0048d3d2 f   nafxcw:occcont.obj
 0001:0008c41c       ?GetAmbientProp@COleControlContainer@@UAEHPAVCOleControlSite@@JPAUtagVARIANT@@@Z 0048d41c f   nafxcw:occcont.obj
 0001:0008c624       ?CreateOleFont@COleControlContainer@@QAEXPAVCFont@@@Z 0048d624 f   nafxcw:occcont.obj
 0001:0008c79d       ?FreezeAllEvents@COleControlContainer@@QAEXH@Z 0048d79d f   nafxcw:occcont.obj
 0001:0008c7de       ?ScrollChildren@COleControlContainer@@UAEXHH@Z 0048d7de f   nafxcw:occcont.obj
 0001:0008c838       ?OnUIActivate@COleControlContainer@@UAEXPAVCOleControlSite@@@Z 0048d838 f   nafxcw:occcont.obj
 0001:0008c856       ?OnUIDeactivate@COleControlContainer@@UAEXPAVCOleControlSite@@@Z 0048d856 f   nafxcw:occcont.obj
 0001:0008c866       ?CheckDlgButton@COleControlContainer@@UAEXHI@Z 0048d866 f   nafxcw:occcont.obj
 0001:0008c8a3       ?CheckRadioButton@COleControlContainer@@UAEXHHH@Z 0048d8a3 f   nafxcw:occcont.obj
 0001:0008c8cb       ?GetDlgItem@COleControlContainer@@UBEPAVCWnd@@H@Z 0048d8cb f   nafxcw:occcont.obj
 0001:0008c8e6       ?GetDlgItem@COleControlContainer@@UBEXHPAPAUHWND__@@@Z 0048d8e6 f   nafxcw:occcont.obj
 0001:0008c922       ?GetDlgItemInt@COleControlContainer@@UBEIHPAHH@Z 0048d922 f   nafxcw:occcont.obj
 0001:0008c9d0       ?GetDlgItemTextA@COleControlContainer@@UBEHHPADH@Z 0048d9d0 f   nafxcw:occcont.obj
 0001:0008c9ef       ?SendDlgItemMessageA@COleControlContainer@@UAEJHIIJ@Z 0048d9ef f   nafxcw:occcont.obj
 0001:0008ca14       ?SetDlgItemInt@COleControlContainer@@UAEXHIH@Z 0048da14 f   nafxcw:occcont.obj
 0001:0008ca51       ?SetDlgItemTextA@COleControlContainer@@UAEXHPBD@Z 0048da51 f   nafxcw:occcont.obj
 0001:0008ca6c       ?IsDlgButtonChecked@COleControlContainer@@UBEIH@Z 0048da6c f   nafxcw:occcont.obj
 0001:0008cae8       ?QueryInterface@XOleIPFrame@COleControlContainer@@UAGJABU_GUID@@PAPAX@Z 0048dae8 f   nafxcw:occcont.obj
 0001:0008caff       ?AddRef@XOleIPFrame@COleControlContainer@@UAGKXZ 0048daff f   nafxcw:occcont.obj
 0001:0008cb10       ?Release@XOleIPFrame@COleControlContainer@@UAGKXZ 0048db10 f   nafxcw:occcont.obj
 0001:0008cb1f       ?GetWindow@XOleIPFrame@COleControlContainer@@UAGJPAPAUHWND__@@@Z 0048db1f f   nafxcw:occcont.obj
 0001:0008cb34       ?SetActiveObject@XOleIPFrame@COleControlContainer@@UAGJPAUIOleInPlaceActiveObject@@PBG@Z 0048db34 f   nafxcw:occcont.obj
 0001:0008cb6b       ?InsertMenus@XOleIPFrame@COleControlContainer@@UAGJPAUHMENU__@@PAUtagOleMenuGroupWidths@@@Z 0048db6b f   nafxcw:occcont.obj
 0001:0008cb6b       ?TranslateAcceleratorA@XOleIPFrame@COleControlContainer@@UAGJPAUtagMSG@@G@Z 0048db6b f   nafxcw:occcont.obj
 0001:0008cb6b       ?TranslateAcceleratorA@XOleControlSite@COleControlSite@@UAGJPAUtagMSG@@K@Z 0048db6b f   nafxcw:occcont.obj
 0001:0008cb73       ?GetInterfaceMap@CEnumUnknown@@MBEPBUAFX_INTERFACEMAP@@XZ 0048db73 f   nafxcw:occcont.obj
 0001:0008cb79       ??1CEnumUnknown@@UAE@XZ    0048db79 f   nafxcw:occcont.obj
 0001:0008cbcf       ??_ECEnumUnknown@@UAEPAXI@Z 0048dbcf f i nafxcw:occcont.obj
 0001:0008cbcf       ??_GCEnumUnknown@@UAEPAXI@Z 0048dbcf f i nafxcw:occcont.obj
 0001:0008cbeb       ?OnNext@CEnumUnknown@@MAEHPAX@Z 0048dbeb f   nafxcw:occcont.obj
 0001:0008cc09       ?QueryInterface@XOleContainer@COleControlContainer@@UAGJABU_GUID@@PAPAX@Z 0048dc09 f   nafxcw:occcont.obj
 0001:0008cc20       ?Release@XOleContainer@COleControlContainer@@UAGKXZ 0048dc20 f   nafxcw:occcont.obj
 0001:0008cc2f       ?AddRef@XOleContainer@COleControlContainer@@UAGKXZ 0048dc2f f   nafxcw:occcont.obj
 0001:0008cc40       ?ParseDisplayName@XOleContainer@COleControlContainer@@UAGJPAUIBindCtx@@PAGPAKPAPAUIMoniker@@@Z 0048dc40 f   nafxcw:occcont.obj
 0001:0008cc48       ?EnumObjects@XOleContainer@COleControlContainer@@UAGJKPAPAUIEnumUnknown@@@Z 0048dc48 f   nafxcw:occcont.obj
 0001:0008cd56       ?GetFont@CWnd@@QBEPAVCFont@@XZ 0048dd56 f i nafxcw:occcont.obj
 0001:0008cd6c       ?GetInterfaceMap@COleControlSite@@MBEPBUAFX_INTERFACEMAP@@XZ 0048dd6c f   nafxcw:occsite.obj
 0001:0008cd72       ??0COleControlSite@@QAE@PAVCOleControlContainer@@@Z 0048dd72 f   nafxcw:occsite.obj
 0001:0008ce79       ??_GCOleControlSite@@UAEPAXI@Z 0048de79 f i nafxcw:occsite.obj
 0001:0008ce79       ??_ECOleControlSite@@UAEPAXI@Z 0048de79 f i nafxcw:occsite.obj
 0001:0008ce95       ??1COleControlSite@@UAE@XZ 0048de95 f   nafxcw:occsite.obj
 0001:0008cfc1       ?SetExtent@COleControlSite@@IAEHXZ 0048dfc1 f   nafxcw:occsite.obj
 0001:0008d069       ?CreateControl@COleControlSite@@QAEJPAVCWnd@@ABU_GUID@@PBDKPBUtagPOINT@@PBUtagSIZE@@IPAVCFile@@HPAG@Z 0048e069 f   nafxcw:occsite.obj
 0001:0008d306       ?DestroyControl@COleControlSite@@UAEHXZ 0048e306 f   nafxcw:occsite.obj
 0001:0008d335       ?_AfxCoCreateInstanceLic@@YGJABU_GUID@@PAUIUnknown@@K0PAPAXPAG@Z 0048e335 f   nafxcw:occsite.obj
 0001:0008d3c2       ?QuickActivate@COleControlSite@@UAEHXZ 0048e3c2 f   nafxcw:occsite.obj
 0001:0008d563       ?CreateOrLoad@COleControlSite@@IAEJABU_GUID@@PAVCFile@@HPAG@Z 0048e563 f   nafxcw:occsite.obj
 0001:0008d86d       ?GetID@COleControlSite@@QAEIXZ 0048e86d f   nafxcw:occsite.obj
 0001:0008d86d       ?GetDlgCtrlID@COleControlSite@@UBEHXZ 0048e86d f   nafxcw:occsite.obj
 0001:0008d871       ?DoVerb@COleControlSite@@UAEJJPAUtagMSG@@@Z 0048e871 f   nafxcw:occsite.obj
 0001:0008d89d       ?IsDefaultButton@COleControlSite@@QAEHXZ 0048e89d f   nafxcw:occsite.obj
 0001:0008d8ae       ?GetDefBtnCode@COleControlSite@@QAEKXZ 0048e8ae f   nafxcw:occsite.obj
 0001:0008d8c6       ?SetDefaultButton@COleControlSite@@QAEXH@Z 0048e8c6 f   nafxcw:occsite.obj
 0001:0008d916       ?ConnectSink@COleControlSite@@IAEKABU_GUID@@PAUIUnknown@@@Z 0048e916 f   nafxcw:occsite.obj
 0001:0008d97e       ?DisconnectSink@COleControlSite@@IAEXABU_GUID@@K@Z 0048e97e f   nafxcw:occsite.obj
 0001:0008d9dc       ?GetEventIID@COleControlSite@@QAEHPAU_GUID@@@Z 0048e9dc f   nafxcw:occsite.obj
 0001:0008db56       ?GetControlInfo@COleControlSite@@QAEXXZ 0048eb56 f   nafxcw:occsite.obj
 0001:0008dba4       ?IsMatchingMnemonic@COleControlSite@@QAEHPAUtagMSG@@@Z 0048eba4 f   nafxcw:occsite.obj
 0001:0008dc47       ?SendMnemonic@COleControlSite@@QAEXPAUtagMSG@@@Z 0048ec47 f   nafxcw:occsite.obj
 0001:0008dc8f       ?FreezeEvents@COleControlSite@@QAEXH@Z 0048ec8f f   nafxcw:occsite.obj
 0001:0008dcc5       ?AttachWindow@COleControlSite@@IAEXXZ 0048ecc5 f   nafxcw:occsite.obj
 0001:0008dd02       ?DetachWindow@COleControlSite@@IAEXXZ 0048ed02 f   nafxcw:occsite.obj
 0001:0008dd50       ?OnEvent@COleControlSite@@IAEHPAUAFX_EVENT@@@Z 0048ed50 f   nafxcw:occsite.obj
 0001:0008dd8d       ?InvokeHelperV@COleControlSite@@UAEXJGGPAXPBEPAD@Z 0048ed8d f   nafxcw:occsite.obj
 0001:0008dde3       ?SetPropertyV@COleControlSite@@UAEXJGPAD@Z 0048ede3 f   nafxcw:occsite.obj
 0001:0008de3e       ?InvokeHelper@COleControlSite@@UAAXJGGPAXPBEZZ 0048ee3e f   nafxcw:occsite.obj
 0001:0008de5e       ?GetProperty@COleControlSite@@UBEXJGPAX@Z 0048ee5e f   nafxcw:occsite.obj
 0001:0008de7a       ?SetProperty@COleControlSite@@UAAXJGZZ 0048ee7a f   nafxcw:occsite.obj
 0001:0008de91       ?SafeSetProperty@COleControlSite@@UAAHJGZZ 0048ee91 f   nafxcw:occsite.obj
 0001:0008dee4       ?GetStyle@COleControlSite@@UBEKXZ 0048eee4 f   nafxcw:occsite.obj
 0001:0008df9a       ?GetExStyle@COleControlSite@@UBEKXZ 0048ef9a f   nafxcw:occsite.obj
 0001:0008e002       ?ModifyStyle@COleControlSite@@UAEHKKI@Z 0048f002 f   nafxcw:occsite.obj
 0001:0008e092       ?ModifyStyleEx@COleControlSite@@UAEHKKI@Z 0048f092 f   nafxcw:occsite.obj
 0001:0008e0e2       ?SetWindowTextA@COleControlSite@@UAEXPBD@Z 0048f0e2 f   nafxcw:occsite.obj
 0001:0008e115       ?GetWindowTextA@COleControlSite@@UBEXAAVCString@@@Z 0048f115 f   nafxcw:occsite.obj
 0001:0008e184       ?GetWindowTextA@COleControlSite@@UBEHPADH@Z 0048f184 f   nafxcw:occsite.obj
 0001:0008e1df       ?GetWindowTextLengthA@COleControlSite@@UBEHXZ 0048f1df f   nafxcw:occsite.obj
 0001:0008e224       ?SetDlgCtrlID@COleControlSite@@UAEHH@Z 0048f224 f   nafxcw:occsite.obj
 0001:0008e231       ?MoveWindow@COleControlSite@@UAEXHHHHH@Z 0048f231 f   nafxcw:occsite.obj
 0001:0008e2ab       ?SetWindowPos@COleControlSite@@UAEHPBVCWnd@@HHHHI@Z 0048f2ab f   nafxcw:occsite.obj
 0001:0008e360       ?ShowWindow@COleControlSite@@UAEHH@Z 0048f360 f   nafxcw:occsite.obj
 0001:0008e39f       ?IsWindowEnabled@COleControlSite@@UBEHXZ 0048f39f f   nafxcw:occsite.obj
 0001:0008e3ed       ?EnableWindow@COleControlSite@@UAEHH@Z 0048f3ed f   nafxcw:occsite.obj
 0001:0008e456       ?SetFocus@COleControlSite@@UAEPAVCWnd@@XZ 0048f456 f   nafxcw:occsite.obj
 0001:0008e48f       ?EnableDSC@COleControlSite@@UAEXXZ 0048f48f f   nafxcw:occsite.obj
 0001:0008e4e3       ?BindDefaultProperty@COleControlSite@@UAEXJGPBDPAVCWnd@@@Z 0048f4e3 f   nafxcw:occsite.obj
 0001:0008e585       ?BindProperty@COleControlSite@@UAEXJPAVCWnd@@@Z 0048f585 f   nafxcw:occsite.obj
 0001:0008e69b       ?AddRef@XOleClientSite@COleControlSite@@UAGKXZ 0048f69b f   nafxcw:occsite.obj
 0001:0008e6ae       ?Release@XOleClientSite@COleControlSite@@UAGKXZ 0048f6ae f   nafxcw:occsite.obj
 0001:0008e6c0       ?QueryInterface@XOleClientSite@COleControlSite@@UAGJABU_GUID@@PAPAX@Z 0048f6c0 f   nafxcw:occsite.obj
 0001:0008e6da       ?GetContainer@XOleClientSite@COleControlSite@@UAGJPAPAUIOleContainer@@@Z 0048f6da f   nafxcw:occsite.obj
 0001:0008e6f5       ?ShowObject@XOleClientSite@COleControlSite@@UAGJXZ 0048f6f5 f   nafxcw:occsite.obj
 0001:0008e709       ?OnShowWindow@XOleClientSite@COleControlSite@@UAGJH@Z 0048f709 f   nafxcw:occsite.obj
 0001:0008e709       ?OnFocus@XOleControlSite@COleControlSite@@UAGJH@Z 0048f709 f   nafxcw:occsite.obj
 0001:0008e709       ?EnableModeless@XOleIPFrame@COleControlContainer@@UAGJH@Z 0048f709 f   nafxcw:occsite.obj
 0001:0008e70e       ?AddRef@XOleIPSite@COleControlSite@@UAGKXZ 0048f70e f   nafxcw:occsite.obj
 0001:0008e721       ?Release@XOleIPSite@COleControlSite@@UAGKXZ 0048f721 f   nafxcw:occsite.obj
 0001:0008e733       ?QueryInterface@XOleIPSite@COleControlSite@@UAGJABU_GUID@@PAPAX@Z 0048f733 f   nafxcw:occsite.obj
 0001:0008e74d       ?GetWindow@XOleIPSite@COleControlSite@@UAGJPAPAUHWND__@@@Z 0048f74d f   nafxcw:occsite.obj
 0001:0008e778       ?OnUIActivate@XOleIPSite@COleControlSite@@UAGJXZ 0048f778 f   nafxcw:occsite.obj
 0001:0008e78f       ?GetWindowContext@XOleIPSite@COleControlSite@@UAGJPAPAUIOleInPlaceFrame@@PAPAUIOleInPlaceUIWindow@@PAUtagRECT@@2PAUtagOIFI@@@Z 0048f78f f   nafxcw:occsite.obj
 0001:0008e807       ?Scroll@XOleIPSite@COleControlSite@@UAGJUtagSIZE@@@Z 0048f807 f   nafxcw:occsite.obj
 0001:0008e80d       ?OnUIDeactivate@XOleIPSite@COleControlSite@@UAGJH@Z 0048f80d f   nafxcw:occsite.obj
 0001:0008e824       ?OnInPlaceDeactivate@XOleIPSite@COleControlSite@@UAGJXZ 0048f824 f   nafxcw:occsite.obj
 0001:0008e838       ?CanInPlaceActivate@XOleIPSite@COleControlSite@@UAGJXZ 0048f838 f   nafxcw:occsite.obj
 0001:0008e838       ?Release@XEventSink@COleControlSite@@UAGKXZ 0048f838 f   nafxcw:occsite.obj
 0001:0008e838       ?DiscardUndoState@XOleIPSite@COleControlSite@@UAGJXZ 0048f838 f   nafxcw:occsite.obj
 0001:0008e838       ?Release@XNotifyDBEvents@COleControlSite@@UAGKXZ 0048f838 f   nafxcw:occsite.obj
 0001:0008e838       ?OnInPlaceActivate@XOleIPSite@COleControlSite@@UAGJXZ 0048f838 f   nafxcw:occsite.obj
 0001:0008e838       ?Release@XRowsetNotify@COleControlSite@@UAGKXZ 0048f838 f   nafxcw:occsite.obj
 0001:0008e838       ?Release@XPropertyNotifySink@COleControlSite@@UAGKXZ 0048f838 f   nafxcw:occsite.obj
 0001:0008e83d       ?DeactivateAndUndo@XOleIPSite@COleControlSite@@UAGJXZ 0048f83d f   nafxcw:occsite.obj
 0001:0008e84f       ?OnPosRectChange@XOleIPSite@COleControlSite@@UAGJPBUtagRECT@@@Z 0048f84f f   nafxcw:occsite.obj
 0001:0008e8a2       ?AddRef@XOleControlSite@COleControlSite@@UAGKXZ 0048f8a2 f   nafxcw:occsite.obj
 0001:0008e8b5       ?Release@XOleControlSite@COleControlSite@@UAGKXZ 0048f8b5 f   nafxcw:occsite.obj
 0001:0008e8c7       ?QueryInterface@XOleControlSite@COleControlSite@@UAGJABU_GUID@@PAPAX@Z 0048f8c7 f   nafxcw:occsite.obj
 0001:0008e8e1       ?OnControlInfoChanged@XOleControlSite@COleControlSite@@UAGJXZ 0048f8e1 f   nafxcw:occsite.obj
 0001:0008e8f5       ?GetExtendedControl@XOleControlSite@COleControlSite@@UAGJPAPAUIDispatch@@@Z 0048f8f5 f   nafxcw:occsite.obj
 0001:0008e8f5       ?ContextSensitiveHelp@XOleIPFrame@COleControlContainer@@UAGJH@Z 0048f8f5 f   nafxcw:occsite.obj
 0001:0008e8f5       ?GetTypeInfoCount@XEventSink@COleControlSite@@UAGJPAI@Z 0048f8f5 f   nafxcw:occsite.obj
 0001:0008e8f5       ?LockContainer@XOleContainer@COleControlContainer@@UAGJH@Z 0048f8f5 f   nafxcw:occsite.obj
 0001:0008e8f5       ?LockInPlaceActive@XOleControlSite@COleControlSite@@UAGJH@Z 0048f8f5 f   nafxcw:occsite.obj
 0001:0008e8f5       ?GetBorder@XOleIPFrame@COleControlContainer@@UAGJPAUtagRECT@@@Z 0048f8f5 f   nafxcw:occsite.obj
 0001:0008e8f5       ?ContextSensitiveHelp@XOleIPSite@COleControlSite@@UAGJH@Z 0048f8f5 f   nafxcw:occsite.obj
 0001:0008e8f5       ?SetBorderSpace@XOleIPFrame@COleControlContainer@@UAGJPBUtagRECT@@@Z 0048f8f5 f   nafxcw:occsite.obj
 0001:0008e8f5       ?GetTypeInfoCount@XAmbientProps@COleControlSite@@UAGJPAI@Z 0048f8f5 f   nafxcw:occsite.obj
 0001:0008e8f5       ?RemoveMenus@XOleIPFrame@COleControlContainer@@UAGJPAUHMENU__@@@Z 0048f8f5 f   nafxcw:occsite.obj
 0001:0008e8f5       ?SetStatusText@XOleIPFrame@COleControlContainer@@UAGJPBG@Z 0048f8f5 f   nafxcw:occsite.obj
 0001:0008e8f5       ?RequestBorderSpace@XOleIPFrame@COleControlContainer@@UAGJPBUtagRECT@@@Z 0048f8f5 f   nafxcw:occsite.obj
 0001:0008e8fd       ?TransformCoords@XOleControlSite@COleControlSite@@UAGJPAU_POINTL@@PAUtagPOINTF@@K@Z 0048f8fd f   nafxcw:occsite.obj
 0001:0008e9ff       ?ShowPropertyFrame@XOleControlSite@COleControlSite@@UAGJXZ 0048f9ff f   nafxcw:occsite.obj
 0001:0008e9ff       ?SaveObject@XOleClientSite@COleControlSite@@UAGJXZ 0048f9ff f   nafxcw:occsite.obj
 0001:0008e9ff       ?RequestNewObjectLayout@XOleClientSite@COleControlSite@@UAGJXZ 0048f9ff f   nafxcw:occsite.obj
 0001:0008ea07       ?AddRef@XAmbientProps@COleControlSite@@UAGKXZ 0048fa07 f   nafxcw:occsite.obj
 0001:0008ea1a       ?Release@XAmbientProps@COleControlSite@@UAGKXZ 0048fa1a f   nafxcw:occsite.obj
 0001:0008ea2c       ?QueryInterface@XAmbientProps@COleControlSite@@UAGJABU_GUID@@PAPAX@Z 0048fa2c f   nafxcw:occsite.obj
 0001:0008ea46       ?SetMenu@XOleIPFrame@COleControlContainer@@UAGJPAUHMENU__@@PAXPAUHWND__@@@Z 0048fa46 f   nafxcw:occsite.obj
 0001:0008ea46       ?GetMoniker@XOleClientSite@COleControlSite@@UAGJKKPAPAUIMoniker@@@Z 0048fa46 f   nafxcw:occsite.obj
 0001:0008ea46       ?GetTypeInfo@XEventSink@COleControlSite@@UAGJIKPAPAUITypeInfo@@@Z 0048fa46 f   nafxcw:occsite.obj
 0001:0008ea46       ?GetTypeInfo@XAmbientProps@COleControlSite@@UAGJIKPAPAUITypeInfo@@@Z 0048fa46 f   nafxcw:occsite.obj
 0001:0008ea4e       ?GetIDsOfNames@XEventSink@COleControlSite@@UAGJABU_GUID@@PAPAGIKPAJ@Z 0048fa4e f   nafxcw:occsite.obj
 0001:0008ea4e       ?GetIDsOfNames@XAmbientProps@COleControlSite@@UAGJABU_GUID@@PAPAGIKPAJ@Z 0048fa4e f   nafxcw:occsite.obj
 0001:0008ea56       ?Invoke@XAmbientProps@COleControlSite@@UAGJJABU_GUID@@KGPAUtagDISPPARAMS@@PAUtagVARIANT@@PAUtagEXCEPINFO@@PAI@Z 0048fa56 f   nafxcw:occsite.obj
 0001:0008ea87       ?QueryInterface@XPropertyNotifySink@COleControlSite@@UAGJABU_GUID@@PAPAX@Z 0048fa87 f   nafxcw:occsite.obj
 0001:0008ead1       ?OnChanged@XPropertyNotifySink@COleControlSite@@UAGJJ@Z 0048fad1 f   nafxcw:occsite.obj
 0001:0008ebe7       ?OnRequestEdit@XPropertyNotifySink@COleControlSite@@UAGJJ@Z 0048fbe7 f   nafxcw:occsite.obj
 0001:0008ec3c       ?QueryInterface@XEventSink@COleControlSite@@UAGJABU_GUID@@PAPAX@Z 0048fc3c f   nafxcw:occsite.obj
 0001:0008eca0       ?Invoke@XEventSink@COleControlSite@@UAGJJABU_GUID@@KGPAUtagDISPPARAMS@@PAUtagVARIANT@@PAUtagEXCEPINFO@@PAI@Z 0048fca0 f   nafxcw:occsite.obj
 0001:0008ecf5       ??0CDataSourceControl@@QAE@PAVCOleControlSite@@@Z 0048fcf5 f   nafxcw:occsite.obj
 0001:0008ed43       ??1CDataSourceControl@@QAE@XZ 0048fd43 f   nafxcw:occsite.obj
 0001:0008ef23       ?ReleaseAccessors@CAccessorBase@ATL@@QAEJPAUIUnknown@@@Z 0048ff23 f i nafxcw:occsite.obj
 0001:0008efaa       ??1CRowset@ATL@@QAE@XZ     0048ffaa f i nafxcw:occsite.obj
 0001:0008eff5       ?Close@CRowset@ATL@@QAEXXZ 0048fff5 f i nafxcw:occsite.obj
 0001:0008f024       ?ReleaseRows@CRowset@ATL@@QAEJXZ 00490024 f i nafxcw:occsite.obj
 0001:0008f044       ?Close@CDynamicAccessor@ATL@@QAEXXZ 00490044 f i nafxcw:occsite.obj
 0001:0008f07e       ?Initialize@CDataSourceControl@@QAEJXZ 0049007e f   nafxcw:occsite.obj
 0001:0008f220       ?GetCursor@CDataSourceControl@@UAEPAUIUnknown@@XZ 00490220 f   nafxcw:occsite.obj
 0001:0008f289       ?GetMetaData@CDataSourceControl@@QAEJXZ 00490289 f   nafxcw:occsite.obj
 0001:0008f5a9       ??0CRowset@ATL@@QAE@PAUIRowset@@@Z 004905a9 f i nafxcw:occsite.obj
 0001:0008f5fa       ?MoveFirst@CRowset@ATL@@QAEJXZ 004905fa f i nafxcw:occsite.obj
 0001:0008f61d       ?MoveNext@CRowset@ATL@@QAEJJ_N@Z 0049061d f i nafxcw:occsite.obj
 0001:0008f676       ?GetData@CRowset@ATL@@QAEJXZ 00490676 f i nafxcw:occsite.obj
 0001:0008f6aa       ?GetData@CRowset@ATL@@QAEJH@Z 004906aa f i nafxcw:occsite.obj
 0001:0008f6cd       ?SetupOptionalRowsetInterfaces@CRowset@ATL@@QAEXXZ 004906cd f i nafxcw:occsite.obj
 0001:0008f6e2       ?BindColumns@CDynamicAccessor@ATL@@QAEJPAUIUnknown@@@Z 004906e2 f i nafxcw:occsite.obj
 0001:0008f993       ?AllocateAccessorMemory@CAccessorBase@ATL@@QAEJH@Z 00490993 f i nafxcw:occsite.obj
 0001:0008f9ef       ?BindEntries@CAccessorBase@ATL@@SAJPAUtagDBBINDING@@HPAKKPAUIAccessor@@@Z 004909ef f i nafxcw:occsite.obj
 0001:0008fa39       ?Bind@CAccessorBase@ATL@@SAXPAUtagDBBINDING@@KGKEEKKKKPAUtagDBOBJECT@@@Z 00490a39 f i nafxcw:occsite.obj
 0001:0008fab8       ?CopyColumnID@CDataSourceControl@@QAEHPAUtagDBCOLUMNID@@PBU2@@Z 00490ab8 f   nafxcw:occsite.obj
 0001:0008fb24       ?BindProp@CDataSourceControl@@UAEXPAVCOleControlSite@@H@Z 00490b24 f   nafxcw:occsite.obj
 0001:0008fc60       ?TranslateColumnNo@CDynamicAccessor@ATL@@QBE_NAAK@Z 00490c60 f i nafxcw:occsite.obj
 0001:0008fcb3       ?BindProp@CDataSourceControl@@UAEXPAVCDataBoundProperty@@H@Z 00490cb3 f   nafxcw:occsite.obj
 0001:0008fcfb       ?BindColumns@CDataSourceControl@@UAEXXZ 00490cfb f   nafxcw:occsite.obj
 0001:0008fea5       ?GetBoundClientRow@CDataSourceControl@@QAEJXZ 00490ea5 f   nafxcw:occsite.obj
 0001:0008ff02       ?ToVariant@CDataSourceControl@@QAE?AVCOleVariant@@H@Z 00490f02 f   nafxcw:occsite.obj
 0001:0009067e       ?GetStatus@CDynamicAccessor@ATL@@QBE_NKPAK@Z 0049167e f i nafxcw:occsite.obj
 0001:000906c2       ?_GetDataPtr@CDynamicAccessor@ATL@@QBEPAXK@Z 004916c2 f i nafxcw:occsite.obj
 0001:000906d9       ?UpdateControls@CDataSourceControl@@UAEJXZ 004916d9 f   nafxcw:occsite.obj
 0001:0009086e       ?UpdateCursor@CDataSourceControl@@UAEJXZ 0049186e f   nafxcw:occsite.obj
 0001:000911b1       ?SetData@CRowset@ATL@@QBEJXZ 004921b1 f i nafxcw:occsite.obj
 0001:000911d9       ?SetData@CRowset@ATL@@QBEJH@Z 004921d9 f i nafxcw:occsite.obj
 0001:00091208       ??1CManualAccessor@ATL@@QAE@XZ 00492208 f i nafxcw:occsite.obj
 0001:0009121f       ?CreateAccessor@CManualAccessor@ATL@@QAEJHPAXK@Z 0049221f f i nafxcw:occsite.obj
 0001:00091296       ?AddBindEntry@CManualAccessor@ATL@@QAEXKGKPAX00@Z 00492296 f i nafxcw:occsite.obj
 0001:000912ea       ?BindColumns@CManualAccessor@ATL@@QAEJPAUIUnknown@@@Z 004922ea f i nafxcw:occsite.obj
 0001:00091382       ??0CDataBoundProperty@@QAE@PAV0@JG@Z 00492382 f   nafxcw:occsite.obj
 0001:000913a8       ?SetClientSite@CDataBoundProperty@@QAEXPAVCOleControlSite@@@Z 004923a8 f   nafxcw:occsite.obj
 0001:000913b1       ?SetDSCSite@CDataBoundProperty@@QAEXPAVCOleControlSite@@@Z 004923b1 f   nafxcw:occsite.obj
 0001:000913c5       ?GetNext@CDataBoundProperty@@QAEPAV1@XZ 004923c5 f   nafxcw:occsite.obj
 0001:000913c9       ?Notify@CDataBoundProperty@@QAEXXZ 004923c9 f   nafxcw:occsite.obj
 0001:0009144c       ?GetCursor@CDataBoundProperty@@QAEPAUIUnknown@@XZ 0049244c f   nafxcw:occsite.obj
 0001:00091482       ?GetCursor@COleControlSite@@IAEJJPAPAUIUnknown@@PAPAX@Z 00492482 f   nafxcw:occsite.obj
 0001:000914b9       ?AddRef@XBoundObjectSite@COleControlSite@@UAGKXZ 004924b9 f   nafxcw:occsite.obj
 0001:000914cb       ?Release@XBoundObjectSite@COleControlSite@@UAGKXZ 004924cb f   nafxcw:occsite.obj
 0001:000914dd       ?QueryInterface@XBoundObjectSite@COleControlSite@@UAGJABU_GUID@@PAPAX@Z 004924dd f   nafxcw:occsite.obj
 0001:000914f7       ?GetCursor@XBoundObjectSite@COleControlSite@@UAGJJPAPAUICursor@@PAPAX@Z 004924f7 f   nafxcw:occsite.obj
 0001:00091515       ?AddRef@XRowsetNotify@COleControlSite@@UAGKXZ 00492515 f   nafxcw:occsite.obj
 0001:00091515       ?AddRef@XPropertyNotifySink@COleControlSite@@UAGKXZ 00492515 f   nafxcw:occsite.obj
 0001:00091515       ?AddRef@XNotifyDBEvents@COleControlSite@@UAGKXZ 00492515 f   nafxcw:occsite.obj
 0001:00091515       ?AddRef@XEventSink@COleControlSite@@UAGKXZ 00492515 f   nafxcw:occsite.obj
 0001:0009151b       ?QueryInterface@XNotifyDBEvents@COleControlSite@@UAGJABU_GUID@@PAPAX@Z 0049251b f   nafxcw:occsite.obj
 0001:00091565       ?OKToDo@XNotifyDBEvents@COleControlSite@@UAGJKKQAUtagDBNOTIFYREASON@@@Z 00492565 f   nafxcw:occsite.obj
 0001:000915c1       ?Cancelled@XNotifyDBEvents@COleControlSite@@UAGJKKQAUtagDBNOTIFYREASON@@@Z 004925c1 f   nafxcw:occsite.obj
 0001:000915e1       ?SyncBefore@XNotifyDBEvents@COleControlSite@@UAGJKKQAUtagDBNOTIFYREASON@@@Z 004925e1 f   nafxcw:occsite.obj
 0001:0009162b       ?AboutToDo@XNotifyDBEvents@COleControlSite@@UAGJKKQAUtagDBNOTIFYREASON@@@Z 0049262b f   nafxcw:occsite.obj
 0001:0009164b       ?FailedToDo@XNotifyDBEvents@COleControlSite@@UAGJKKQAUtagDBNOTIFYREASON@@@Z 0049264b f   nafxcw:occsite.obj
 0001:0009166b       ?SyncAfter@XNotifyDBEvents@COleControlSite@@UAGJKKQAUtagDBNOTIFYREASON@@@Z 0049266b f   nafxcw:occsite.obj
 0001:000916d4       ?DidEvent@XNotifyDBEvents@COleControlSite@@UAGJKKQAUtagDBNOTIFYREASON@@@Z 004926d4 f   nafxcw:occsite.obj
 0001:00091722       ?FireEvent@XNotifyDBEvents@COleControlSite@@QAEJKKQAUtagDBNOTIFYREASON@@W4DSCSTATE@@@Z 00492722 f   nafxcw:occsite.obj
 0001:000917e6       ?QueryInterface@XRowsetNotify@COleControlSite@@UAGJABU_GUID@@PAPAX@Z 004927e6 f   nafxcw:occsite.obj
 0001:00091830       ?OnFieldChange@XRowsetNotify@COleControlSite@@UAGJPAUIRowset@@KKQAKKKH@Z 00492830 f   nafxcw:occsite.obj
 0001:000918c1       ?OnRowChange@XRowsetNotify@COleControlSite@@UAGJPAUIRowset@@KQBKKKH@Z 004928c1 f   nafxcw:occsite.obj
 0001:000919d6       ?OnRowsetChange@XRowsetNotify@COleControlSite@@UAGJPAUIRowset@@KKH@Z 004929d6 f   nafxcw:occsite.obj
 0001:00091a50       ??1?$CComPtr@UIRowset@@@ATL@@QAE@XZ 00492a50 f i nafxcw:occsite.obj
 0001:00091a50       ??1?$CComPtr@UIAccessor@@@ATL@@QAE@XZ 00492a50 f i nafxcw:occsite.obj
 0001:00091a50       ??1?$CComPtr@UIRowsetChange@@@ATL@@QAE@XZ 00492a50 f i nafxcw:occsite.obj
 0001:00091a50       ??1?$CComPtr@UIColumnsInfo@@@ATL@@QAE@XZ 00492a50 f i nafxcw:occsite.obj
 0001:00091a5d       ?AtlComPtrAssign@ATL@@YGPAUIUnknown@@PAPAU2@PAU2@@Z 00492a5d f i nafxcw:occsite.obj
 0001:00091a86       ??1COleDispatchDriver@@QAE@XZ 00492a86 f i nafxcw:occsite.obj
 0001:00091a8b       ??0AFX_EVENT@@QAE@H@Z      00492a8b f i nafxcw:occsite.obj
 0001:00091aae       ?_AfxGetDlgCode@@YGKPAVCWnd@@PAUtagMSG@@@Z 00492aae f   nafxcw:occdlg.obj
 0001:00091adc       ?_AfxDlgSetFocus@@YGXPAVCWnd@@@Z 00492adc f   nafxcw:occdlg.obj
 0001:00091b0a       ?_AfxGetChildControl@@YGPAVCWnd@@PAV1@0@Z 00492b0a f   nafxcw:occdlg.obj
 0001:00091b63       ?_AfxNextControl@@YGPAVCWnd@@PAV1@0I@Z 00492b63 f   nafxcw:occdlg.obj
 0001:00091c3f       ?IsMatchingMnemonic@COccManager@@SAHPAVCWnd@@PAUtagMSG@@@Z 00492c3f f   nafxcw:occdlg.obj
 0001:00091c5e       ?_AfxFindNextMnem@@YGPAVCWnd@@PAV1@0PAUtagMSG@@@Z 00492c5e f   nafxcw:occdlg.obj
 0001:00091ce3       ?IsLabelControl@COccManager@@SAHPAVCWnd@@@Z 00492ce3 f   nafxcw:occdlg.obj
 0001:00091d09       ?_AfxGetNextMnem@@YGPAVCWnd@@PAV1@0PAUtagMSG@@@Z 00492d09 f   nafxcw:occdlg.obj
 0001:00091d7e       ?UIActivateControl@COccManager@@KAXPAVCWnd@@@Z 00492d7e f   nafxcw:occdlg.obj
 0001:00091ddb       ?UIDeactivateIfNecessary@COccManager@@KAXPAVCWnd@@0@Z 00492ddb f   nafxcw:occdlg.obj
 0001:00091e4e       ?_AfxFindDlgItem@@YGPAVCWnd@@PAV1@K@Z 00492e4e f   nafxcw:occdlg.obj
 0001:00091ea5       ?SetDefaultButton@COccManager@@SAXPAVCWnd@@H@Z 00492ea5 f   nafxcw:occdlg.obj
 0001:00091ef2       ?GetDefBtnCode@COccManager@@SAKPAVCWnd@@@Z 00492ef2 f   nafxcw:occdlg.obj
 0001:00091f13       ?_AfxRemoveDefaultButton@@YGXPAVCWnd@@0@Z 00492f13 f   nafxcw:occdlg.obj
 0001:00091f75       ?_AfxOriginalDefButton@@YGHPAVCWnd@@@Z 00492f75 f   nafxcw:occdlg.obj
 0001:00091fa2       ?_AfxCheckDefPushButton@@YGXPAVCWnd@@00@Z 00492fa2 f   nafxcw:occdlg.obj
 0001:0009208f       ?IsDialogMessageA@COccManager@@UAEHPAVCWnd@@PAUtagMSG@@@Z 0049308f f   nafxcw:occdlg.obj
 0001:0009247a       ?GetTypeInfoOfGuid@CCmdTarget@@QAEJKABU_GUID@@PAPAUITypeInfo@@@Z 0049347a f   nafxcw:oletyplb.obj
 0001:000925ac       ?Lookup@CTypeLibCache@@QAEHKPAPAUITypeLib@@@Z 004935ac f   nafxcw:oletyplb.obj
 0001:000925dd       ?Cache@CTypeLibCache@@QAEXKPAUITypeLib@@@Z 004935dd f   nafxcw:oletyplb.obj
 0001:00092620       ?LookupTypeInfo@CTypeLibCache@@QAEHKABU_GUID@@PAPAUITypeInfo@@@Z 00493620 f   nafxcw:oletyplb.obj
 0001:00092671       ?CacheTypeInfo@CTypeLibCache@@QAEXKABU_GUID@@PAUITypeInfo@@@Z 00493671 f   nafxcw:oletyplb.obj
 0001:000926a7       ?AfxOleUnlockAllControls@@YGXXZ 004936a7 f   nafxcw:occlock.obj
 0001:000926e3       _free                      004936e3 f   LIBCMT:free.obj
 0001:000927cc       _malloc                    004937cc f   LIBCMT:malloc.obj
 0001:000927de       __nh_malloc                004937de f   LIBCMT:malloc.obj
 0001:0009280a       __heap_alloc               0049380a f   LIBCMT:malloc.obj
 0001:00092906       ?_JumpToContinuation@@YGXPAXPAUEHRegistrationNode@@@Z 00493906 f   LIBCMT:trnsctrl.obj
 0001:0009293a       ?_CallMemberFunction0@@YGXPAX0@Z 0049393a f   LIBCMT:trnsctrl.obj
 0001:0009293a       ?_CallMemberFunction1@@YGXPAX00@Z 0049393a f   LIBCMT:trnsctrl.obj
 0001:00092941       ?_CallMemberFunction2@@YGXPAX00H@Z 00493941 f   LIBCMT:trnsctrl.obj
 0001:00092948       ?_UnwindNestedFrames@@YGXPAUEHRegistrationNode@@PAUEHExceptionRecord@@@Z 00493948 f   LIBCMT:trnsctrl.obj
 0001:00092997       ___CxxFrameHandler         00493997 f   LIBCMT:trnsctrl.obj
 0001:000929cd       ?_CallCatchBlock2@@YAPAXPAUEHRegistrationNode@@PBU_s_FuncInfo@@PAXHK@Z 004939cd f   LIBCMT:trnsctrl.obj
 0001:00092a46       ?_CallSETranslator@@YAHPAUEHExceptionRecord@@PAUEHRegistrationNode@@PAX2PBU_s_FuncInfo@@H1@Z 00493a46 f   LIBCMT:trnsctrl.obj
 0001:00092b71       ?_GetRangeOfTrysToCheck@@YAPBU_s_TryBlockMapEntry@@PBU_s_FuncInfo@@HHPAI1@Z 00493b71 f   LIBCMT:trnsctrl.obj
 0001:00092bec       __global_unwind2           00493bec f   LIBCMT:exsup.obj
 0001:00092c2e       __local_unwind2            00493c2e f   LIBCMT:exsup.obj
 0001:00092c86       __NLG_Return2              00493c86 f   LIBCMT:exsup.obj
 0001:00092c96       __abnormal_termination     00493c96 f   LIBCMT:exsup.obj
 0001:00092cb9       __NLG_Notify1              00493cb9 f   LIBCMT:exsup.obj
 0001:00092cc2       __NLG_Notify               00493cc2 f   LIBCMT:exsup.obj
 0001:00092cd5       __NLG_Dispatch             00493cd5 f   LIBCMT:exsup.obj
 0001:00092cda       __onexit                   00493cda f   LIBCMT:onexit.obj
 0001:00092d58       _atexit                    00493d58 f   LIBCMT:onexit.obj
 0001:00092d6a       ___onexitinit              00493d6a f   LIBCMT:onexit.obj
 0001:00092da0       _memmove                   00493da0 f   LIBCMT:memmove.obj
 0001:000930d5       _ceil                      004940d5 f   LIBCMT:ceil.obj
 0001:000931a4       __fpmath                   004941a4 f   LIBCMT:fpinit.obj
 0001:000931bb       __fpclear                  004941bb f   LIBCMT:fpinit.obj
 0001:000931bc       __cfltcvt_init             004941bc f   LIBCMT:fpinit.obj
 0001:000931f4       __ftol                     004941f4 f   LIBCMT:ftol.obj
 0001:00093220       _strstr                    00494220 f   LIBCMT:strstr.obj
 0001:000932a0       _strrchr                   004942a0 f   LIBCMT:strrchr.obj
 0001:000932d0       __alloca_probe             004942d0 f   LIBCMT:chkstk.obj
 0001:000932d0       __chkstk                   004942d0 f   LIBCMT:chkstk.obj
 0001:000932ff       __mbsicmp                  004942ff f   LIBCMT:mbsicmp.obj
 0001:00093494       __mbscmp                   00494494 f   LIBCMT:mbscmp.obj
 0001:00093543       _sprintf                   00494543 f   LIBCMT:sprintf.obj
 0001:00093595       _srand                     00494595 f   LIBCMT:rand.obj
 0001:000935a2       _rand                      004945a2 f   LIBCMT:rand.obj
 0001:000935c4       _realloc                   004945c4 f   LIBCMT:realloc.obj
 0001:000938f3       _atol                      004948f3 f   LIBCMT:atox.obj
 0001:0009397e       _atoi                      0049497e f   LIBCMT:atox.obj
 0001:00093989       __itoa                     00494989 f   LIBCMT:xtoa.obj
 0001:00093a12       __ltoa                     00494a12 f   LIBCMT:xtoa.obj
 0001:00093a3c       __ultoa                    00494a3c f   LIBCMT:xtoa.obj
 0001:00093a57       ??1type_info@@UAE@XZ       00494a57 f   LIBCMT:typinfo.obj
 0001:00093a80       ??_Etype_info@@UAEPAXI@Z   00494a80 f i LIBCMT:typinfo.obj
 0001:00093a80       ??_Gtype_info@@UAEPAXI@Z   00494a80 f i LIBCMT:typinfo.obj
 0001:00093a9c       _calloc                    00494a9c f   LIBCMT:calloc.obj
 0001:00093be0       __aullshr                  00494be0 f   LIBCMT:ullshr.obj
 0001:00093c00       __alldiv                   00494c00 f   LIBCMT:lldiv.obj
 0001:00093cb0       __allmul                   00494cb0 f   LIBCMT:llmul.obj
 0001:00093cec       __except_handler3          00494cec f   LIBCMT:exsup3.obj
 0001:00093da9       __seh_longjmp_unwind@4     00494da9 f   LIBCMT:exsup3.obj
 0001:00093dc4       _wcslen                    00494dc4 f   LIBCMT:wcslen.obj
 0001:00093de1       _wcscpy                    00494de1 f   LIBCMT:wcscat.obj
 0001:00093e06       __beginthreadex            00494e06 f   LIBCMT:threadex.obj
 0001:00093f37       __endthreadex              00494f37 f   LIBCMT:threadex.obj
 0001:00093f69       __CxxThrowException@8      00494f69 f   LIBCMT:throw.obj
 0001:00093fa3       _fclose                    00494fa3 f   LIBCMT:fclose.obj
 0001:00093fd4       __fclose_lk                00494fd4 f   LIBCMT:fclose.obj
 0001:00094020       _fread                     00495020 f   LIBCMT:fread.obj
 0001:0009404f       __fread_lk                 0049504f f   LIBCMT:fread.obj
 0001:00094137       _ftell                     00495137 f   LIBCMT:ftell.obj
 0001:00094159       __ftell_lk                 00495159 f   LIBCMT:ftell.obj
 0001:000942ba       _fseek                     004952ba f   LIBCMT:fseek.obj
 0001:000942e6       __fseek_lk                 004952e6 f   LIBCMT:fseek.obj
 0001:00094373       __fsopen                   00495373 f   LIBCMT:fopen.obj
 0001:000943a4       _fopen                     004953a4 f   LIBCMT:fopen.obj
 0001:000943b7       _strtok                    004953b7 f   LIBCMT:strtok.obj
 0001:0009445b       _time                      0049545b f   LIBCMT:time.obj
 0001:00094537       ??_M@YGXPAXIHP6EX0@Z@Z     00495537 f   LIBCMT:ehvecdtr.obj
 0001:000945b7       ?__ArrayUnwind@@YGXPAXIHP6EX0@Z@Z 004955b7 f   LIBCMT:ehvecdtr.obj
 0001:00094615       ??_L@YGXPAXIHP6EX0@Z1@Z    00495615 f   LIBCMT:ehvecctr.obj
 0001:00094697       __mbsrchr                  00495697 f   LIBCMT:mbsrchr.obj
 0001:00094710       _strncpy                   00495710 f   LIBCMT:strncpy.obj
 0001:0009480e       _sscanf                    0049580e f   LIBCMT:sscanf.obj
 0001:00094860       _strchr                    00495860 f   LIBCMT:strchr.obj
 0001:00094866       ___from_strstr_to_strchr   00495866 f   LIBCMT:strchr.obj
 0001:00094920       __allshr                   00495920 f   LIBCMT:llshr.obj
 0001:00094941       __makepath                 00495941 f   LIBCMT:makepath.obj
 0001:000949d2       __splitpath                004959d2 f   LIBCMT:splitpat.obj
 0001:00094b19       __purecall                 00495b19 f   LIBCMT:purevirt.obj
 0001:00094b22       _fputc                     00495b22 f   LIBCMT:fputc.obj
 0001:00094b5d       _fgetc                     00495b5d f   LIBCMT:fgetc.obj
 0001:00094b8e       ___dtoxmode                00495b8e f   LIBCMT:stat.obj
 0001:00094c46       __stat                     00495c46 f   LIBCMT:stat.obj
 0001:00094f71       _WinMainCRTStartup         00495f71 f   LIBCMT:wincrt0.obj
 0001:00095079       __amsg_exit                00496079 f   LIBCMT:wincrt0.obj
 0001:000950c2       _fwrite                    004960c2 f   LIBCMT:fwrite.obj
 0001:000950f1       __fwrite_lk                004960f1 f   LIBCMT:fwrite.obj
 0001:000951fb       _vsprintf                  004961fb f   LIBCMT:vsprintf.obj
 0001:00095250       _strncmp                   00496250 f   LIBCMT:strncmp.obj
 0001:00095290       __allrem                   00496290 f   LIBCMT:llrem.obj
 0001:00095350       __CIacos                   00496350 f   LIBCMT:acos.obj
 0001:00095364       _acos                      00496364 f   LIBCMT:acos.obj
 0001:0009541b       __cinit                    0049641b f   LIBCMT:crt0dat.obj
 0001:00095448       _exit                      00496448 f   LIBCMT:crt0dat.obj
 0001:00095459       __exit                     00496459 f   LIBCMT:crt0dat.obj
 0001:0009550f       __lockexit                 0049650f f   LIBCMT:crt0dat.obj
 0001:00095518       __unlockexit               00496518 f   LIBCMT:crt0dat.obj
 0001:0009553b       _printf                    0049653b f   LIBCMT:printf.obj
 0001:00095580       __CIpow                    00496580 f   LIBCMT:pow.obj
 0001:00095599       _pow                       00496599 f   LIBCMT:pow.obj
 0001:000957a0       _memset                    004967a0 f   LIBCMT:memset.obj
 0001:000957f8       __EH_prolog                004967f8 f   LIBCMT:ehprolog.obj
 0001:00095820       _memcmp                    00496820 f   LIBCMT:memcmp.obj
 0001:000958d0       _memcpy                    004968d0 f   LIBCMT:memcpy.obj
 0001:00095c05       _floor                     00496c05 f   LIBCMT:floor.obj
 0001:00095cd4       _fabs                      00496cd4 f   LIBCMT:fabs.obj
 0001:00095d89       _localtime                 00496d89 f   LIBCMT:localtim.obj
 0001:00095ee9       _strftime                  00496ee9 f   LIBCMT:strftime.obj
 0001:00095f04       __Strftime                 00496f04 f   LIBCMT:strftime.obj
 0001:000967da       __mbsinc                   004977da f   LIBCMT:mbsinc.obj
 0001:000967f1       __mbschr                   004977f1 f   LIBCMT:mbschr.obj
 0001:00096888       __mbspbrk                  00497888 f   LIBCMT:mbspbrk.obj
 0001:0009691d       __mbsupr                   0049791d f   LIBCMT:mbsupr.obj
 0001:000969a7       __mbslwr                   004979a7 f   LIBCMT:mbslwr.obj
 0001:00096a31       _strtol                    00497a31 f   LIBCMT:strtol.obj
 0001:00096c4d       _strtoul                   00497c4d f   LIBCMT:strtol.obj
 0001:00096c64       __mbsstr                   00497c64 f   LIBCMT:mbsstr.obj
 0001:00096cda       __mbclen                   00497cda f   LIBCMT:mbclen.obj
 0001:00096cf0       _strlen                    00497cf0 f   LIBCMT:strlen.obj
 0001:00096d6b       __mbsnbcmp                 00497d6b f   LIBCMT:mbsnbcmp.obj
 0001:00096e5a       __ismbcdigit               00497e5a f   LIBCMT:ismbdgt.obj
 0001:00096ee9       __ismbcspace               00497ee9 f   LIBCMT:ismbspc.obj
 0001:00096f78       _mktime                    00497f78 f   LIBCMT:mktime.obj
 0001:0009716a       _gmtime                    0049816a f   LIBCMT:gmtime.obj
 0001:00097274       __setmbcp                  00498274 f   LIBCMT:mbctype.obj
 0001:0009764c       ___initmbctable            0049864c f   LIBCMT:mbctype.obj
 0001:00097668       _abs                       00498668 f   LIBCMT:abs.obj
 0001:00097673       __fullpath                 00498673 f   LIBCMT:fullpath.obj
 0001:00097718       __strdup                   00498718 f   LIBCMT:strdup.obj
 0001:00097743       __alloc_osfhnd             00498743 f   LIBCMT:osfinfo.obj
 0001:00097866       __set_osfhnd               00498866 f   LIBCMT:osfinfo.obj
 0001:000978e2       __free_osfhnd              004988e2 f   LIBCMT:osfinfo.obj
 0001:00097961       __get_osfhandle            00498961 f   LIBCMT:osfinfo.obj
 0001:000979a3       __open_osfhandle           004989a3 f   LIBCMT:osfinfo.obj
 0001:00097a4a       __lock_fhandle             00498a4a f   LIBCMT:osfinfo.obj
 0001:00097aa9       __unlock_fhandle           00498aa9 f   LIBCMT:osfinfo.obj
 0001:00097acb       __dosmaperr                00498acb f   LIBCMT:dosmap.obj
 0001:00097b3e       __errno                    00498b3e f   LIBCMT:dosmap.obj
 0001:00097b47       ___doserrno                00498b47 f   LIBCMT:dosmap.obj
 0001:00097b50       __fdopen                   00498b50 f   LIBCMT:fdopen.obj
 0001:00097c43       _clearerr                  00498c43 f   LIBCMT:clearerr.obj
 0001:00097c84       _fputs                     00498c84 f   LIBCMT:fputs.obj
 0001:00097cd2       _fgets                     00498cd2 f   LIBCMT:fgets.obj
 0001:00097d34       _fflush                    00498d34 f   LIBCMT:fflush.obj
 0001:00097d63       __fflush_lk                00498d63 f   LIBCMT:fflush.obj
 0001:00097d91       __flush                    00498d91 f   LIBCMT:fflush.obj
 0001:00097ded       __flushall                 00498ded f   LIBCMT:fflush.obj
 0001:00097e9a       __expand                   00498e9a f   LIBCMT:expand.obj
 0001:00097ffe       __msize                    00498ffe f   LIBCMT:msize.obj
 0001:000980ec       __mbsdec                   004990ec f   LIBCMT:mbsdec.obj
 0001:00098159       _wcsncpy                   00499159 f   LIBCMT:wcsncpy.obj
 0001:00098196       __GetLinkerVersion         00499196 f   LIBCMT:heapinit.obj
 0001:000981c3       ___heap_select             004991c3 f   LIBCMT:heapinit.obj
 0001:0009830b       __heap_init                0049930b f   LIBCMT:heapinit.obj
 0001:00098368       ___sbh_heap_init           00499368 f   LIBCMT:sbheap.obj
 0001:000983b0       ___sbh_find_block          004993b0 f   LIBCMT:sbheap.obj
 0001:000983db       ___sbh_free_block          004993db f   LIBCMT:sbheap.obj
 0001:00098704       ___sbh_alloc_block         00499704 f   LIBCMT:sbheap.obj
 0001:00098a0d       ___sbh_alloc_new_region    00499a0d f   LIBCMT:sbheap.obj
 0001:00098abe       ___sbh_alloc_new_group     00499abe f   LIBCMT:sbheap.obj
 0001:00098bb9       ___sbh_resize_block        00499bb9 f   LIBCMT:sbheap.obj
 0001:00098eaf       ___old_sbh_new_region      00499eaf f   LIBCMT:sbheap.obj
 0001:00098ff3       ___old_sbh_release_region  00499ff3 f   LIBCMT:sbheap.obj
 0001:00099049       ___old_sbh_decommit_pages  0049a049 f   LIBCMT:sbheap.obj
 0001:0009910b       ___old_sbh_find_block      0049a10b f   LIBCMT:sbheap.obj
 0001:00099162       ___old_sbh_free_block      0049a162 f   LIBCMT:sbheap.obj
 0001:000991a7       ___old_sbh_alloc_block     0049a1a7 f   LIBCMT:sbheap.obj
 0001:000993af       ___old_sbh_alloc_block_from_page 0049a3af f   LIBCMT:sbheap.obj
 0001:000994d3       ___old_sbh_resize_block    0049a4d3 f   LIBCMT:sbheap.obj
 0001:0009957c       __mtinitlocks              0049a57c f   LIBCMT:mlock.obj
 0001:000995a5       __lock                     0049a5a5 f   LIBCMT:mlock.obj
 0001:00099606       __unlock                   0049a606 f   LIBCMT:mlock.obj
 0001:0009961b       __callnewh                 0049a61b f   LIBCMT:handler.obj
 0001:00099636       ___InternalCxxFrameHandler 0049a636 f   LIBCMT:frame.obj
 0001:0009998b       ___FrameUnwindToState      0049a98b f   LIBCMT:frame.obj
 0001:00099dc3       ?_DestructExceptionObject@@YAXPAUEHExceptionRecord@@E@Z 0049adc3 f   LIBCMT:frame.obj
 0001:00099e50       __CallSettingFrame@12      0049ae50 f   LIBCMT:lowhelpr.obj
 0001:00099e77       __NLG_Return               0049ae77 f   LIBCMT:lowhelpr.obj
 0001:00099e9c       __mtinit                   0049ae9c f   LIBCMT:tidtable.obj
 0001:00099ef0       __initptd                  0049aef0 f   LIBCMT:tidtable.obj
 0001:00099f03       __getptd                   0049af03 f   LIBCMT:tidtable.obj
 0001:00099f6a       __freeptd                  0049af6a f   LIBCMT:tidtable.obj
 0001:0009a00a       ?terminate@@YAXXZ          0049b00a f   LIBCMT:hooks.obj
 0001:0009a06b       ?_inconsistency@@YAXXZ     0049b06b f   LIBCMT:hooks.obj
 0001:0009a0c1       __handle_qnan1             0049b0c1 f   LIBCMT:fpexcept.obj
 0001:0009a115       __except1                  0049b115 f   LIBCMT:fpexcept.obj
 0001:0009a1ad       __raise_exc                0049b1ad f   LIBCMT:fpexcept.obj
 0001:0009a460       __handle_exc               0049b460 f   LIBCMT:fpexcept.obj
 0001:0009a677       __umatherr                 0049b677 f   LIBCMT:fpexcept.obj
 0001:0009a6ff       __set_errno                0049b6ff f   LIBCMT:fpexcept.obj
 0001:0009a74c       __errcode                  0049b74c f   LIBCMT:fpexcept.obj
 0001:0009a779       __frnd                     0049b779 f   LIBCMT:frnd.obj
 0001:0009a78b       __set_exp                  0049b78b f   LIBCMT:util.obj
 0001:0009a7b4       __sptype                   0049b7b4 f   LIBCMT:util.obj
 0001:0009a80e       __decomp                   0049b80e f   LIBCMT:util.obj
 0001:0009a8cf       __statfp                   0049b8cf f   LIBCMT:fpctrl.obj
 0001:0009a8dd       __clrfp                    0049b8dd f   LIBCMT:fpctrl.obj
 0001:0009a8ec       __ctrlfp                   0049b8ec f   LIBCMT:fpctrl.obj
 0001:0009a90f       __set_statfp               0049b90f f   LIBCMT:fpctrl.obj
 0001:0009a965       __setdefaultprecision      0049b965 f   LIBCMT:fp8.obj
 0001:0009a977       __ms_p5_test_fdiv          0049b977 f   LIBCMT:testfdiv.obj
 0001:0009a9b5       __ms_p5_mp_test_fdiv       0049b9b5 f   LIBCMT:testfdiv.obj
 0001:0009a9de       __forcdecpt                0049b9de f   LIBCMT:cvt.obj
 0001:0009aa38       __cropzeros                0049ba38 f   LIBCMT:cvt.obj
 0001:0009aa86       __positive                 0049ba86 f   LIBCMT:cvt.obj
 0001:0009aa9e       __fassign                  0049ba9e f   LIBCMT:cvt.obj
 0001:0009aadc       __cftoe                    0049badc f   LIBCMT:cvt.obj
 0001:0009abff       __cftof                    0049bbff f   LIBCMT:cvt.obj
 0001:0009acfb       __cftog                    0049bcfb f   LIBCMT:cvt.obj
 0001:0009ad8e       __cfltcvt                  0049bd8e f   LIBCMT:cvt.obj
 0001:0009ae04       ___crtLCMapStringA         0049be04 f   LIBCMT:a_map.obj
 0001:0009b060       __stricmp                  0049c060 f   LIBCMT:stricmp.obj
 0001:0009b060       __strcmpi                  0049c060 f   LIBCMT:stricmp.obj
 0001:0009b130       _strcmp                    0049c130 f   LIBCMT:strcmp.obj
 0001:0009b1b4       __flsbuf                   0049c1b4 f   LIBCMT:_flsbuf.obj
 0001:0009b2cc       __output                   0049c2cc f   LIBCMT:output.obj
 0001:0009bb33       __isctype                  0049cb33 f   LIBCMT:isctype.obj
 0001:0009bbb0       __aulldiv                  0049cbb0 f   LIBCMT:ulldiv.obj
 0001:0009bc20       __aullrem                  0049cc20 f   LIBCMT:ullrem.obj
 0001:0009bc95       ___termcon                 0049cc95 f   LIBCMT:initcon.obj
 0001:0009bcc2       __XcptFilter               0049ccc2 f   LIBCMT:winxfltr.obj
 0001:0009be3a       ?__CxxUnhandledExceptionFilter@@YGJPAU_EXCEPTION_POINTERS@@@Z 0049ce3a f   LIBCMT:unhandld.obj
 0001:0009be80       ?__CxxSetUnhandledExceptionFilter@@YAXXZ 0049ce80 f   LIBCMT:unhandld.obj
 0001:0009be91       ?__CxxRestoreUnhandledExceptionFilter@@YAXXZ 0049ce91 f   LIBCMT:unhandld.obj
 0001:0009be9e       ___initstdio               0049ce9e f   LIBCMT:_file.obj
 0001:0009bf46       ___endstdio                0049cf46 f   LIBCMT:_file.obj
 0001:0009bf5a       __lock_file                0049cf5a f   LIBCMT:_file.obj
 0001:0009bf89       __lock_file2               0049cf89 f   LIBCMT:_file.obj
 0001:0009bfac       __unlock_file              0049cfac f   LIBCMT:_file.obj
 0001:0009bfdb       __unlock_file2             0049cfdb f   LIBCMT:_file.obj
 0001:0009bffe       __close                    0049cffe f   LIBCMT:close.obj
 0001:0009c05b       __close_lk                 0049d05b f   LIBCMT:close.obj
 0001:0009c0de       __freebuf                  0049d0de f   LIBCMT:_freebuf.obj
 0001:0009c109       __filbuf                   0049d109 f   LIBCMT:_filbuf.obj
 0001:0009c1e5       __read                     0049d1e5 f   LIBCMT:read.obj
 0001:0009c24a       __read_lk                  0049d24a f   LIBCMT:read.obj
 0001:0009c423       __ioinit                   0049d423 f   LIBCMT:ioinit.obj
 0001:0009c5df       __lseek                    0049d5df f   LIBCMT:lseek.obj
 0001:0009c644       __lseek_lk                 0049d644 f   LIBCMT:lseek.obj
 0001:0009c6b7       __openfile                 0049d6b7 f   LIBCMT:_open.obj
 0001:0009c827       __getstream                0049d827 f   LIBCMT:stream.obj
 0001:0009c8ef       ___loctotime_t             0049d8ef f   LIBCMT:dtoxtime.obj
 0001:0009c9b1       __input                    0049d9b1 f   LIBCMT:input.obj
 0001:0009d462       __mbsnbcpy                 0049e462 f   LIBCMT:mbsnbcpy.obj
 0001:0009d4fc       __getdrive                 0049e4fc f   LIBCMT:drive.obj
 0001:0009d53f       __mbctolower               0049e53f f   LIBCMT:mbtolwr.obj
 0001:0009d5ba       __wincmdln                 0049e5ba f   LIBCMT:wincmdln.obj
 0001:0009d612       __setenvp                  0049e612 f   LIBCMT:stdenvp.obj
 0001:0009d6cb       __setargv                  0049e6cb f   LIBCMT:stdargv.obj
 0001:0009d918       ___crtGetEnvironmentStringsA 0049e918 f   LIBCMT:a_env.obj
 0001:0009da4a       __FF_MSGBANNER             0049ea4a f   LIBCMT:crt0msg.obj
 0001:0009da83       __NMSG_WRITE               0049ea83 f   LIBCMT:crt0msg.obj
 0001:0009dbd6       __write                    0049ebd6 f   LIBCMT:write.obj
 0001:0009dc3b       __write_lk                 0049ec3b f   LIBCMT:write.obj
 0001:0009ddd0       __trandisp1                0049edd0 f   LIBCMT:87disp.obj
 0001:0009de37       __trandisp2                0049ee37 f   LIBCMT:87disp.obj
 0001:0009dec3       __rttospopde               0049eec3 f   LIBCMT:87disp.obj
 0001:0009dec8       __rttospop                 0049eec8 f   LIBCMT:87disp.obj
 0001:0009deca       __rtnospop                 0049eeca f   LIBCMT:87disp.obj
 0001:0009decc       __rttosnpop                0049eecc f   LIBCMT:87disp.obj
 0001:0009decd       __rtnospopde               0049eecd f   LIBCMT:87disp.obj
 0001:0009ded4       __rtzeropop                0049eed4 f   LIBCMT:87disp.obj
 0001:0009ded6       __rtzeronpop               0049eed6 f   LIBCMT:87disp.obj
 0001:0009dedb       __rtonepop                 0049eedb f   LIBCMT:87disp.obj
 0001:0009dedd       __rtonenpop                0049eedd f   LIBCMT:87disp.obj
 0001:0009dee2       __tosnan1                  0049eee2 f   LIBCMT:87disp.obj
 0001:0009df0d       __nosnan2                  0049ef0d f   LIBCMT:87disp.obj
 0001:0009df0f       __tosnan2                  0049ef0f f   LIBCMT:87disp.obj
 0001:0009df37       __nan2                     0049ef37 f   LIBCMT:87disp.obj
 0001:0009df76       __rtindfpop                0049ef76 f   LIBCMT:87disp.obj
 0001:0009df78       __rtindfnpop               0049ef78 f   LIBCMT:87disp.obj
 0001:0009df89       __rttosnpopde              0049ef89 f   LIBCMT:87disp.obj
 0001:0009df93       __rtchsifneg               0049ef93 f   LIBCMT:87disp.obj
 0001:0009dfa0       __startTwoArgErrorHandling 0049efa0 f   LIBCMT:genexcep.obj
 0001:0009dfb7       __startOneArgErrorHandling 0049efb7 f   LIBCMT:genexcep.obj
 0001:0009e000       __twoToTOS                 0049f000 f   LIBCMT:common.obj
 0001:0009e015       __load_CW                  0049f015 f   LIBCMT:common.obj
 0001:0009e02c       __convertTOStoQNaN         0049f02c f   LIBCMT:common.obj
 0001:0009e045       __fload_withFB             0049f045 f   LIBCMT:common.obj
 0001:0009e088       __checkTOS_withFB          0049f088 f   LIBCMT:common.obj
 0001:0009e09e       __fast_exit                0049f09e f   LIBCMT:common.obj
 0001:0009e0ab       __math_exit                0049f0ab f   LIBCMT:common.obj
 0001:0009e0d5       __check_overflow_exit      0049f0d5 f   LIBCMT:common.obj
 0001:0009e0e9       __check_range_exit         0049f0e9 f   LIBCMT:common.obj
 0001:0009e18c       __stbuf                    0049f18c f   LIBCMT:_sftbuf.obj
 0001:0009e219       __ftbuf                    0049f219 f   LIBCMT:_sftbuf.obj
 0001:0009e261       __fFEXP                    0049f261 f   LIBCMT:87tran.obj
 0001:0009e2c8       __rtinfpopse               0049f2c8 f   LIBCMT:87tran.obj
 0001:0009e2ca       __rtinfnpopse              0049f2ca f   LIBCMT:87tran.obj
 0001:0009e2da       __fFLN                     0049f2da f   LIBCMT:87tran.obj
 0001:0009e38f       __rtinfpop                 0049f38f f   LIBCMT:87tran.obj
 0001:0009e391       __rtinfnpop                0049f391 f   LIBCMT:87tran.obj
 0001:0009e3ae       __ffexpm1                  0049f3ae f   LIBCMT:87tran.obj
 0001:0009e457       __powhlp                   0049f457 f   LIBCMT:powhlp.obj
 0001:0009e587       __d_inttype                0049f587 f   LIBCMT:powhlp.obj
 0001:0009e5ec       ___tzset                   0049f5ec f   LIBCMT:tzset.obj
 0001:0009e8a1       __isindst                  0049f8a1 f   LIBCMT:tzset.obj
 0001:0009ebb0       _strcpy                    0049fbb0 f   LIBCMT:strcat.obj
 0001:0009ebc0       _strcat                    0049fbc0 f   LIBCMT:strcat.obj
 0001:0009eca0       __fpclass                  0049fca0 f   LIBCMT:ieeemisc.obj
 0001:0009ed40       _strpbrk                   0049fd40 f   LIBCMT:strpbrk.obj
 0001:0009ed80       __strrev                   0049fd80 f   LIBCMT:strrev.obj
 0001:0009edb0       _toupper                   0049fdb0 f   LIBCMT:toupper.obj
 0001:0009ee1f       __toupper_lk               0049fe1f f   LIBCMT:toupper.obj
 0001:0009eef0       _strspn                    0049fef0 f   LIBCMT:strspn.obj
 0001:0009ef30       _strcspn                   0049ff30 f   LIBCMT:strcspn.obj
 0001:0009ef6e       ___crtGetStringTypeA       0049ff6e f   LIBCMT:a_str.obj
 0001:0009f0b7       __getcwd                   004a00b7 f   LIBCMT:getcwd.obj
 0001:0009f0de       __getdcwd_lk               004a00de f   LIBCMT:getcwd.obj
 0001:0009f1b3       __validdrive               004a01b3 f   LIBCMT:getcwd.obj
 0001:0009f1ea       __commit                   004a01ea f   LIBCMT:commit.obj
 0001:0009f27d       ?_ValidateRead@@YAHPBXI@Z  004a027d f   LIBCMT:validate.obj
 0001:0009f299       ?_ValidateWrite@@YAHPAXI@Z 004a0299 f   LIBCMT:validate.obj
 0001:0009f2b5       ?_ValidateExecute@@YAHP6GHXZ@Z 004a02b5 f   LIBCMT:validate.obj
 0001:0009f2cd       _abort                     004a02cd f   LIBCMT:abort.obj
 0001:0009f2e4       __matherr                  004a02e4 f   LIBCMT:matherr.obj
 0001:0009f2e7       __control87                004a02e7 f   LIBCMT:ieee87.obj
 0001:0009f31c       __controlfp                004a031c f   LIBCMT:ieee87.obj
 0001:0009f44d       _tolower                   004a044d f   LIBCMT:tolower.obj
 0001:0009f4bc       __tolower_lk               004a04bc f   LIBCMT:tolower.obj
 0001:0009f587       __ZeroTail                 004a0587 f   LIBCMT:intrncvt.obj
 0001:0009f5d0       __IncMan                   004a05d0 f   LIBCMT:intrncvt.obj
 0001:0009f626       __RoundMan                 004a0626 f   LIBCMT:intrncvt.obj
 0001:0009f6b2       __CopyMan                  004a06b2 f   LIBCMT:intrncvt.obj
 0001:0009f6cd       __FillZeroMan              004a06cd f   LIBCMT:intrncvt.obj
 0001:0009f6d9       __IsZeroMan                004a06d9 f   LIBCMT:intrncvt.obj
 0001:0009f6f4       __ShrMan                   004a06f4 f   LIBCMT:intrncvt.obj
 0001:0009f781       __ld12cvt                  004a0781 f   LIBCMT:intrncvt.obj
 0001:0009f8ed       __ld12tod                  004a08ed f   LIBCMT:intrncvt.obj
 0001:0009f903       __ld12tof                  004a0903 f   LIBCMT:intrncvt.obj
 0001:0009f919       __atodbl                   004a0919 f   LIBCMT:intrncvt.obj
 0001:0009f946       __atoflt                   004a0946 f   LIBCMT:intrncvt.obj
 0001:0009f973       __fptostr                  004a0973 f   LIBCMT:_fptostr.obj
 0001:0009f9ea       __fltout2                  004a09ea f   LIBCMT:cfout.obj
 0001:0009fa46       ___dtold                   004a0a46 f   LIBCMT:cfout.obj
 0001:0009fafc       __fptrap                   004a0afc f   LIBCMT:crt0fp.obj
 0001:0009fb05       __getbuf                   004a0b05 f   LIBCMT:_getbuf.obj
 0001:0009fb49       __isatty                   004a0b49 f   LIBCMT:isatty.obj
 0001:0009fb72       _wctomb                    004a0b72 f   LIBCMT:wctomb.obj
 0001:0009fbcb       __wctomb_lk                004a0bcb f   LIBCMT:wctomb.obj
 0001:0009fc34       __fcloseall                004a0c34 f   LIBCMT:closeall.obj
 0001:0009fcb5       __sopen                    004a0cb5 f   LIBCMT:open.obj
 0001:0009ff84       _mbtowc                    004a0f84 f   LIBCMT:mbtowc.obj
 0001:0009ffe1       __mbtowc_lk                004a0fe1 f   LIBCMT:mbtowc.obj
 0001:000a00aa       _isspace                   004a10aa f   LIBCMT:_ctype.obj
 0001:000a00e0       __allshl                   004a10e0 f   LIBCMT:llshl.obj
 0001:000a00ff       _ungetc                    004a10ff f   LIBCMT:ungetc.obj
 0001:000a0128       __ungetc_lk                004a1128 f   LIBCMT:ungetc.obj
 0001:000a0196       __ismbblead                004a1196 f   LIBCMT:ismbbyte.obj
 0001:000a01d8       ___crtMessageBoxA          004a11d8 f   LIBCMT:crtmbox.obj
 0001:000a0261       __87except                 004a1261 f   LIBCMT:87except.obj
 0001:000a0340       _fdiv_main_routine         004a1340 f   LIBCMT:adj_fdiv.obj
 0001:000a0457       __adj_fdiv_r               004a1457 f   LIBCMT:adj_fdiv.obj
 0001:000a08f6       __fdivp_sti_st             004a18f6 f   LIBCMT:adj_fdiv.obj
 0001:000a0909       __fdivrp_sti_st            004a1909 f   LIBCMT:adj_fdiv.obj
 0001:000a091c       __adj_fdiv_m32             004a191c f   LIBCMT:adj_fdiv.obj
 0001:000a0968       __adj_fdiv_m64             004a1968 f   LIBCMT:adj_fdiv.obj
 0001:000a09b4       __adj_fdiv_m16i            004a19b4 f   LIBCMT:adj_fdiv.obj
 0001:000a09e8       __adj_fdiv_m32i            004a19e8 f   LIBCMT:adj_fdiv.obj
 0001:000a0a1c       __adj_fdivr_m32            004a1a1c f   LIBCMT:adj_fdiv.obj
 0001:000a0a68       __adj_fdivr_m64            004a1a68 f   LIBCMT:adj_fdiv.obj
 0001:000a0ab4       __adj_fdivr_m16i           004a1ab4 f   LIBCMT:adj_fdiv.obj
 0001:000a0ae8       __adj_fdivr_m32i           004a1ae8 f   LIBCMT:adj_fdiv.obj
 0001:000a0b1c       __safe_fdiv                004a1b1c f   LIBCMT:adj_fdiv.obj
 0001:000a0b31       __safe_fdivr               004a1b31 f   LIBCMT:adj_fdiv.obj
 0001:000a0b46       __fprem_common             004a1b46 f   LIBCMT:adj_fdiv.obj
 0001:000a0d4c       __adj_fprem                004a1d4c f   LIBCMT:adj_fdiv.obj
 0001:000a0dfe       __fprem1_common            004a1dfe f   LIBCMT:adj_fdiv.obj
 0001:000a1004       __adj_fprem1               004a2004 f   LIBCMT:adj_fdiv.obj
 0001:000a10b9       __safe_fprem               004a20b9 f   LIBCMT:adj_fdiv.obj
 0001:000a10bf       __safe_fprem1              004a20bf f   LIBCMT:adj_fdiv.obj
 0001:000a10c5       __adj_fpatan               004a20c5 f   LIBCMT:adj_fdiv.obj
 0001:000a10c8       __adj_fptan                004a20c8 f   LIBCMT:adj_fdiv.obj
 0001:000a10cb       __getenv_lk                004a20cb f   LIBCMT:getenv.obj
 0001:000a1148       _fputwc                    004a2148 f   LIBCMT:fputwc.obj
 0001:000a1172       __putwc_lk                 004a2172 f   LIBCMT:fputwc.obj
 0001:000a126b       _raise                     004a226b f   LIBCMT:winsig.obj
 0001:000a142a       ___addl                    004a242a f   LIBCMT:mantold.obj
 0001:000a144b       ___add_12                  004a244b f   LIBCMT:mantold.obj
 0001:000a14a9       ___shl_12                  004a24a9 f   LIBCMT:mantold.obj
 0001:000a14d7       ___shr_12                  004a24d7 f   LIBCMT:mantold.obj
 0001:000a1504       ___mtold12                 004a2504 f   LIBCMT:mantold.obj
 0001:000a15cb       ___strgtold12              004a25cb f   LIBCMT:strgtold.obj
 0001:000a1a9c       _$I10_OUTPUT               004a2a9c f   LIBCMT:x10fout.obj
 0001:000a1d2f       __chsize_lk                004a2d2f f   LIBCMT:chsize.obj
 0001:000a1e54       __mbsnbicoll               004a2e54 f   LIBCMT:mbsnbico.obj
 0001:000a1e93       ___wtomb_environ           004a2e93 f   LIBCMT:wtombenv.obj
 0001:000a1f01       ___crtGetStringTypeW       004a2f01 f   LIBCMT:w_str.obj
 0001:000a20d0       __strnicmp                 004a30d0 f   LIBCMT:strnicmp.obj
 0001:000a21d1       __flswbuf                  004a31d1 f   LIBCMT:_flswbuf.obj
 0001:000a22f8       ___ld12mul                 004a32f8 f   LIBCMT:tenpow.obj
 0001:000a2518       ___multtenpow12            004a3518 f   LIBCMT:tenpow.obj
 0001:000a2594       __setmode_lk               004a3594 f   LIBCMT:setmode.obj
 0001:000a25f5       ___crtCompareStringA       004a35f5 f   LIBCMT:a_cmp.obj
 0001:000a2872       ___crtsetenv               004a3872 f   LIBCMT:setenv.obj
 0001:000a2ab8       _RtlUnwind@16              004a3ab8 f   kernel32:KERNEL32.dll
 0001:000a2abe       _ReuseDDElParam@20         004a3abe f   user32:USER32.dll
 0001:000a2ac4       _UnpackDDElParam@16        004a3ac4 f   user32:USER32.dll
 0001:000a2aca       _GetSaveFileNameA@4        004a3aca f   comdlg32:comdlg32.dll
 0001:000a2ad0       _GetOpenFileNameA@4        004a3ad0 f   comdlg32:comdlg32.dll
 0001:000a2ad6       _GetFileTitleA@12          004a3ad6 f   comdlg32:comdlg32.dll
 0001:000a2adc       _ClosePrinter@4            004a3adc f   winspool:WINSPOOL.DRV
 0001:000a2ae2       _DocumentPropertiesA@24    004a3ae2 f   winspool:WINSPOOL.DRV
 0001:000a2ae8       _OpenPrinterA@12           004a3ae8 f   winspool:WINSPOOL.DRV
 0001:000a2aee       _OleUIBusyA@4              004a3aee f   oledlg:oledlg.dll
 0001:000a2af4       _URLDownloadToFileA@20     004a3af4 f   urlmon:urlmon.dll
 0001:000a2b38       ?ConvertStringToBSTR@_com_util@@YGPAGPBD@Z 004a3b38 f   comsupp:comutil.obj
 0001:000a2bad       ?ConvertBSTRToString@_com_util@@YGPADPAG@Z 004a3bad f   comsupp:comutil.obj
 0001:000a2c21       ??0_variant_t@@QAE@JG@Z    004a3c21 f i comsupp:comutil.obj
 0001:000a2c7d       ?_com_issue_error@@YGXJ@Z  004a3c7d f   comsupp:comsupp.obj
 0001:000a2c8b       ?_com_issue_errorex@@YGXJPAUIUnknown@@ABU_GUID@@@Z 004a3c8b f   comsupp:comsupp.obj
 0001:000a2cec       ?_com_raise_error@@YGXJPAUIErrorInfo@@@Z 004a3cec f   comsupp:comraise.obj
 0001:000a2d10       ??0_com_error@@QAE@JPAUIErrorInfo@@_N@Z 004a3d10 f i comsupp:comraise.obj
 0001:000a2d42       ??_G_com_error@@UAEPAXI@Z  004a3d42 f i comsupp:comraise.obj
 0001:000a2d42       ??_E_com_error@@UAEPAXI@Z  004a3d42 f i comsupp:comraise.obj
 0001:000a2d5e       ??0_com_error@@QAE@ABV0@@Z 004a3d5e f i comsupp:comraise.obj
 0001:000a2d8b       ??1_com_error@@UAE@XZ      004a3d8b f i comsupp:comraise.obj
 0001:000a2dc0       ??0CXTPHyperLink@@QAE@XZ   004a3dc0 f   ToolkitPro1501vc60S:XTPHyperLink.obj
 0001:000a2ea0       ?SetColors@CXTPHyperLink@@UAEXKKK@Z 004a3ea0 f i ToolkitPro1501vc60S:XTPHyperLink.obj
 0001:000a2ed0       ?GetLinkColor@CXTPHyperLink@@UBEKXZ 004a3ed0 f i ToolkitPro1501vc60S:XTPHyperLink.obj
 0001:000a2ee0       ?GetVisitedColor@CXTPHyperLink@@UBEKXZ 004a3ee0 f i ToolkitPro1501vc60S:XTPHyperLink.obj
 0001:000a2ee0       ?GetSelected@CXTPControl@@UBEHXZ 004a3ee0 f i ToolkitPro1501vc60S:XTPHyperLink.obj
 0001:000a2ef0       ?GetHoverColor@CXTPHyperLink@@UBEKXZ 004a3ef0 f i ToolkitPro1501vc60S:XTPHyperLink.obj
 0001:000a2f00       ?SetVisited@CXTPHyperLink@@UAEX_N@Z 004a3f00 f i ToolkitPro1501vc60S:XTPHyperLink.obj
 0001:000a2f20       ?GetVisited@CXTPHyperLink@@UBE_NXZ 004a3f20 f i ToolkitPro1501vc60S:XTPHyperLink.obj
 0001:000a2f30       ?SetLinkCursor@CXTPHyperLink@@UAEXPAUHICON__@@@Z 004a3f30 f i ToolkitPro1501vc60S:XTPHyperLink.obj
 0001:000a2f40       ?GetLinkCursor@CXTPHyperLink@@UBEPAUHICON__@@XZ 004a3f40 f i ToolkitPro1501vc60S:XTPHyperLink.obj
 0001:000a2f50       ?SetUnderline@CXTPHyperLink@@UAEX_N@Z 004a3f50 f i ToolkitPro1501vc60S:XTPHyperLink.obj
 0001:000a2f70       ?GetUnderline@CXTPHyperLink@@UBE_NXZ 004a3f70 f i ToolkitPro1501vc60S:XTPHyperLink.obj
 0001:000a2f80       ?IsTextControl@CXTPHyperLink@@UAE_NXZ 004a3f80 f i ToolkitPro1501vc60S:XTPHyperLink.obj
 0001:000a2fa0       ?SetBackColor@CXTPHyperLink@@UAEXK@Z 004a3fa0 f i ToolkitPro1501vc60S:XTPHyperLink.obj
 0001:000a2fc0       ?GetBackColor@CXTPHyperLink@@UBEKXZ 004a3fc0 f i ToolkitPro1501vc60S:XTPHyperLink.obj
 0001:000a2fe0       ??_GCXTPHyperLink@@UAEPAXI@Z 004a3fe0 f i ToolkitPro1501vc60S:XTPHyperLink.obj
 0001:000a2fe0       ??_ECXTPHyperLink@@UAEPAXI@Z 004a3fe0 f i ToolkitPro1501vc60S:XTPHyperLink.obj
 0001:000a3000       ??1CXTPHyperLink@@UAE@XZ   004a4000 f   ToolkitPro1501vc60S:XTPHyperLink.obj
 0001:000a3090       ?GetRuntimeClass@CXTPHyperLink@@UBEPAUCRuntimeClass@@XZ 004a4090 f   ToolkitPro1501vc60S:XTPHyperLink.obj
 0001:000a30a0       ?GetMessageMap@CXTPHyperLink@@MBEPBUAFX_MSGMAP@@XZ 004a40a0 f   ToolkitPro1501vc60S:XTPHyperLink.obj
 0001:000a30b0       ?OnSetCursor@CXTPHyperLink@@IAEHPAVCWnd@@II@Z 004a40b0 f   ToolkitPro1501vc60S:XTPHyperLink.obj
 0001:000a30f0       ?CreateFontA@CXTPHyperLink@@MAEHAAVCFont@@H@Z 004a40f0 f   ToolkitPro1501vc60S:XTPHyperLink.obj
 0001:000a31c0       ?InitFont@CXTPHyperLink@@MAE_NXZ 004a41c0 f   ToolkitPro1501vc60S:XTPHyperLink.obj
 0001:000a3230       ?SetURL@CXTPHyperLink@@UAEXPBD@Z 004a4230 f   ToolkitPro1501vc60S:XTPHyperLink.obj
 0001:000a32d0       ?Init@CXTPHyperLink@@MAE_NXZ 004a42d0 f   ToolkitPro1501vc60S:XTPHyperLink.obj
 0001:000a3340       ?PreSubclassWindow@CXTPHyperLink@@MAEXXZ 004a4340 f   ToolkitPro1501vc60S:XTPHyperLink.obj
 0001:000a3360       ?OnCreate@CXTPHyperLink@@IAEHPAUtagCREATESTRUCTA@@@Z 004a4360 f   ToolkitPro1501vc60S:XTPHyperLink.obj
 0001:000a3390       ?PreCreateWindow@CXTPHyperLink@@MAEHAAUtagCREATESTRUCTA@@@Z 004a4390 f   ToolkitPro1501vc60S:XTPHyperLink.obj
 0001:000a33c0       ?ReportError@CXTPHyperLink@@UAEXH@Z 004a43c0 f   ToolkitPro1501vc60S:XTPHyperLink.obj
 0001:000a3630       ?GotoURL@CXTPHyperLink@@UAE_NPBDH00@Z 004a4630 f   ToolkitPro1501vc60S:XTPHyperLink.obj
 0001:000a3680       ?CtlColor@CXTPHyperLink@@IAEPAUHBRUSH__@@PAVCDC@@I@Z 004a4680 f   ToolkitPro1501vc60S:XTPHyperLink.obj
 0001:000a3720       ?OnMouseMove@CXTPHyperLink@@IAEXIVCPoint@@@Z 004a4720 f   ToolkitPro1501vc60S:XTPHyperLink.obj
 0001:000a3760       ?OnTimer@CXTPHyperLink@@IAEXI@Z 004a4760 f   ToolkitPro1501vc60S:XTPHyperLink.obj
 0001:000a37c0       ?PreTranslateMessage@CXTPHyperLink@@MAEHPAUtagMSG@@@Z 004a47c0 f   ToolkitPro1501vc60S:XTPHyperLink.obj
 0001:000a3810       ?OnEraseBkgnd@CXTPHyperLink@@IAEHPAVCDC@@@Z 004a4810 f   ToolkitPro1501vc60S:XTPHyperLink.obj
 0001:000a3830       ?OnPaint@CXTPHyperLink@@IAEXXZ 004a4830 f   ToolkitPro1501vc60S:XTPHyperLink.obj
 0001:000a3930       ?OnWindowPosChanged@CXTPHyperLink@@IAEXPAUtagWINDOWPOS@@@Z 004a4930 f   ToolkitPro1501vc60S:XTPHyperLink.obj
 0001:000a3950       ?OnClicked@CXTPHyperLink@@IAEHXZ 004a4950 f   ToolkitPro1501vc60S:XTPHyperLink.obj
 0001:000a39d0       ?IsLinkHot@CXTPHyperLink@@UAE_NXZ 004a49d0 f   ToolkitPro1501vc60S:XTPHyperLink.obj
 0001:000a3b90       ?OnSetFocus@CXTPHyperLink@@IAEXPAVCWnd@@@Z 004a4b90 f   ToolkitPro1501vc60S:XTPHyperLink.obj
 0001:000a3b90       ?OnKillFocus@CXTPHyperLink@@IAEXPAVCWnd@@@Z 004a4b90 f   ToolkitPro1501vc60S:XTPHyperLink.obj
 0001:000a3b90       ?OnEnable@CXTPCommandBarScrollBarCtrl@@IAEXH@Z 004a4b90 f   ToolkitPro1501vc60S:XTPHyperLink.obj
 0001:000a3bb0       ?OnKeyDown@CXTPHyperLink@@IAEXIII@Z 004a4bb0 f   ToolkitPro1501vc60S:XTPHyperLink.obj
 0001:000a3bf0       ?OnGetDlgCode@CXTPHyperLink@@IAEIXZ 004a4bf0 f   ToolkitPro1501vc60S:XTPHyperLink.obj
 0001:000a3c40       ?GetRuntimeClass@CXTPTabManagerItem@@UBEPAUCRuntimeClass@@XZ 004a4c40 f   ToolkitPro1501vc60S:XTPTabManager.obj
 0001:000a3c50       ??0CXTPTabManagerItem@@IAE@XZ 004a4c50 f   ToolkitPro1501vc60S:XTPTabManager.obj
 0001:000a3d10       ??_GCXTPTabManagerItem@@MAEPAXI@Z 004a4d10 f i ToolkitPro1501vc60S:XTPTabManager.obj
 0001:000a3d10       ??_ECXTPTabManagerItem@@MAEPAXI@Z 004a4d10 f i ToolkitPro1501vc60S:XTPTabManager.obj
 0001:000a3d30       ?OnRemoved@CXTPTabManagerItem@@MAEXXZ 004a4d30 f   ToolkitPro1501vc60S:XTPTabManager.obj
 0001:000a3d40       ??1CXTPTabManagerItem@@MAE@XZ 004a4d40 f   ToolkitPro1501vc60S:XTPTabManager.obj
 0001:000a3dd0       ?Reposition@CXTPTabManagerItem@@IAEXXZ 004a4dd0 f   ToolkitPro1501vc60S:XTPTabManager.obj
 0001:000a3de0       ?SetCaption@CXTPTabManagerItem@@QAEXPBD@Z 004a4de0 f   ToolkitPro1501vc60S:XTPTabManager.obj
 0001:000a3ea0       ?SetColor@CXTPTabManagerItem@@QAEXK@Z 004a4ea0 f   ToolkitPro1501vc60S:XTPTabManager.obj
 0001:000a3ef0       ?GetCaption@CXTPTabManagerItem@@QBE?AVCString@@XZ 004a4ef0 f   ToolkitPro1501vc60S:XTPTabManager.obj
 0001:000a3f20       ?GetColor@CXTPTabManagerItem@@QAEKXZ 004a4f20 f   ToolkitPro1501vc60S:XTPTabManager.obj
 0001:000a3f30       ?Remove@CXTPTabManagerItem@@QAEXXZ 004a4f30 f   ToolkitPro1501vc60S:XTPTabManager.obj
 0001:000a3f50       ?Select@CXTPTabManagerItem@@QAEXXZ 004a4f50 f   ToolkitPro1501vc60S:XTPTabManager.obj
 0001:000a3f60       ?SetVisible@CXTPTabManagerItem@@UAEXH@Z 004a4f60 f   ToolkitPro1501vc60S:XTPTabManager.obj
 0001:000a3f80       ?GetBaseline@CXTPMarkupRun@@MBEHXZ 004a4f80 f   ToolkitPro1501vc60S:XTPTabManager.obj
 0001:000a3f80       ?IsEnabled@CXTPTabManagerItem@@QBEHXZ 004a4f80 f   ToolkitPro1501vc60S:XTPTabManager.obj
 0001:000a3f90       ?SetEnabled@CXTPTabManagerItem@@QAEXH@Z 004a4f90 f   ToolkitPro1501vc60S:XTPTabManager.obj
 0001:000a3fb0       ?DrawRotatedImage@CXTPTabManagerItem@@AAEHPAVCDC@@VCRect@@PAVCXTPImageManagerIcon@@@Z 004a4fb0 f   ToolkitPro1501vc60S:XTPTabManager.obj
 0001:000a4260       ?DrawImage@CXTPTabManagerItem@@QAEXPAVCDC@@VCRect@@PAVCXTPImageManagerIcon@@@Z 004a5260 f   ToolkitPro1501vc60S:XTPTabManager.obj
 0001:000a4350       ?SetRect@CXTPTabManagerItem@@QAEXVCRect@@@Z 004a5350 f   ToolkitPro1501vc60S:XTPTabManager.obj
 0001:000a43c0       ??0CXTPTabManagerNavigateButtons@@QAE@XZ 004a53c0 f   ToolkitPro1501vc60S:XTPTabManager.obj
 0001:000a43e0       ??_GCXTPTabManagerNavigateButtons@@UAEPAXI@Z 004a53e0 f i ToolkitPro1501vc60S:XTPTabManager.obj
 0001:000a43e0       ??_ECXTPTabManagerNavigateButtons@@UAEPAXI@Z 004a53e0 f i ToolkitPro1501vc60S:XTPTabManager.obj
 0001:000a4400       ??1CXTPTabManagerNavigateButtons@@UAE@XZ 004a5400 f   ToolkitPro1501vc60S:XTPTabManager.obj
 0001:000a4470       ?RemoveAll@CXTPTabManagerNavigateButtons@@QAEXXZ 004a5470 f   ToolkitPro1501vc60S:XTPTabManager.obj
 0001:000a44c0       ??0CXTPTabManagerNavigateButton@@QAE@PAVCXTPTabManager@@IW4XTPTabNavigateButtonFlags@@@Z 004a54c0 f   ToolkitPro1501vc60S:XTPTabManager.obj
 0001:000a4510       ??_GCXTPTabManagerNavigateButton@@MAEPAXI@Z 004a5510 f i ToolkitPro1501vc60S:XTPTabManager.obj
 0001:000a4510       ??_ECXTPTabManagerNavigateButton@@MAEPAXI@Z 004a5510 f i ToolkitPro1501vc60S:XTPTabManager.obj
 0001:000a4530       ??1CXTPTabManagerNavigateButton@@MAE@XZ 004a5530 f   ToolkitPro1501vc60S:XTPTabManager.obj
 0001:000a4550       ?GetSize@CXTPTabManagerNavigateButton@@UBE?AVCSize@@XZ 004a5550 f   ToolkitPro1501vc60S:XTPTabManager.obj
 0001:000a4580       ?AdjustWidth@CXTPTabManagerNavigateButton@@UAEXAAH@Z 004a5580 f   ToolkitPro1501vc60S:XTPTabManager.obj
 0001:000a45f0       ?SetRect@CXTPTabManagerNavigateButton@@QAEXVCRect@@@Z 004a55f0 f   ToolkitPro1501vc60S:XTPTabManager.obj
 0001:000a4620       ?Reposition@CXTPTabManagerNavigateButton@@UAEXAAVCRect@@@Z 004a5620 f   ToolkitPro1501vc60S:XTPTabManager.obj
 0001:000a4720       ?Draw@CXTPTabManagerNavigateButton@@QAEXPAVCDC@@@Z 004a5720 f   ToolkitPro1501vc60S:XTPTabManager.obj
 0001:000a4780       ?PerformClick@CXTPTabManagerNavigateButton@@UAEXPAUHWND__@@VCPoint@@@Z 004a5780 f   ToolkitPro1501vc60S:XTPTabManager.obj
 0001:000a48f0       ?OnExecute@CXTPTabManagerNavigateButton@@UAEXH@Z 004a58f0 f   ToolkitPro1501vc60S:XTPTabManager.obj
 0001:000a4910       ??0CRowIndexer@CXTPTabManager@@QAE@PAV1@@Z 004a5910 f   ToolkitPro1501vc60S:XTPTabManager.obj
 0001:000a4940       ??1SLIDERTICKS@CXTPScrollBase@@QAE@XZ 004a5940 f   ToolkitPro1501vc60S:XTPTabManager.obj
 0001:000a4940       ??1CRowIndexer@CXTPTabManager@@QAE@XZ 004a5940 f   ToolkitPro1501vc60S:XTPTabManager.obj
 0001:000a4960       ?CreateIndexer@CRowIndexer@CXTPTabManager@@QAEPAUROW_ITEMS@2@H@Z 004a5960 f   ToolkitPro1501vc60S:XTPTabManager.obj
 0001:000a49c0       ?DrawEntry@CNavigateButtonClose@CXTPTabManager@@MAEXPAVCDC@@VCRect@@@Z 004a59c0 f   ToolkitPro1501vc60S:XTPTabManager.obj
 0001:000a4a90       ?DrawEntry@CNavigateButtonArrowRight@CXTPTabManager@@MAEXPAVCDC@@VCRect@@@Z 004a5a90 f   ToolkitPro1501vc60S:XTPTabManager.obj
 0001:000a4b50       ?AdjustWidth@CNavigateButtonArrow@CXTPTabManager@@MAEXAAH@Z 004a5b50 f   ToolkitPro1501vc60S:XTPTabManager.obj
 0001:000a4bb0       ?Reposition@CNavigateButtonArrow@CXTPTabManager@@MAEXAAVCRect@@@Z 004a5bb0 f   ToolkitPro1501vc60S:XTPTabManager.obj
 0001:000a4cd0       ?Reposition@CNavigateButtonArrowRight@CXTPTabManager@@MAEXAAVCRect@@@Z 004a5cd0 f   ToolkitPro1501vc60S:XTPTabManager.obj
 0001:000a4dd0       ?OnExecute@CNavigateButtonArrowRight@CXTPTabManager@@MAEXH@Z 004a5dd0 f   ToolkitPro1501vc60S:XTPTabManager.obj
 0001:000a4df0       ?OnScrollHeader@CXTPTabManager@@UAEXH@Z 004a5df0 f   ToolkitPro1501vc60S:XTPTabManager.obj
 0001:000a4e20       ?DrawEntry@CNavigateButtonArrowLeft@CXTPTabManager@@MAEXPAVCDC@@VCRect@@@Z 004a5e20 f   ToolkitPro1501vc60S:XTPTabManager.obj
 0001:000a4ee0       ?Reposition@CNavigateButtonArrowLeft@CXTPTabManager@@MAEXAAVCRect@@@Z 004a5ee0 f   ToolkitPro1501vc60S:XTPTabManager.obj
 0001:000a4f50       ?OnExecute@CNavigateButtonArrowLeft@CXTPTabManager@@MAEXH@Z 004a5f50 f   ToolkitPro1501vc60S:XTPTabManager.obj
 0001:000a4f70       ??0CXTPTabManager@@QAE@XZ  004a5f70 f   ToolkitPro1501vc60S:XTPTabManager.obj
 0001:000a5160       ?OnPropertyChanged@CXTPTabManagerAtom@@UAEXXZ 004a6160 f i ToolkitPro1501vc60S:XTPTabManager.obj
 0001:000a5170       ??1CXTPTabManagerAtom@@MAE@XZ 004a6170 f i ToolkitPro1501vc60S:XTPTabManager.obj
 0001:000a5180       ??_ECXTPTabManagerAtom@@MAEPAXI@Z 004a6180 f i ToolkitPro1501vc60S:XTPTabManager.obj
 0001:000a5180       ??_GCXTPTabManagerAtom@@MAEPAXI@Z 004a6180 f i ToolkitPro1501vc60S:XTPTabManager.obj
 0001:000a51a0       ?OnNavigateButtonClick@CXTPTabManager@@MAEXPAVCXTPTabManagerNavigateButton@@@Z 004a61a0 f i ToolkitPro1501vc60S:XTPTabManager.obj
 0001:000a51c0       ?IsAllowReorder@CXTPTabManager@@UBEHXZ 004a61c0 f i ToolkitPro1501vc60S:XTPTabManager.obj
 0001:000a51d0       ?SetAllowReorder@CXTPTabManager@@UAEXH@Z 004a61d0 f i ToolkitPro1501vc60S:XTPTabManager.obj
 0001:000a51e0       ?DrawParentBackground@CXTPTabManager@@UAEHPAVCDC@@VCRect@@@Z 004a61e0 f i ToolkitPro1501vc60S:XTPTabManager.obj
 0001:000a51f0       ?GetMarkupContext@CXTPTabManager@@UBEPAVCXTPMarkupContext@@XZ 004a61f0 f i ToolkitPro1501vc60S:XTPTabManager.obj
 0001:000a5200       ??1CNavigateButtonClose@CXTPTabManager@@UAE@XZ 004a6200 f i ToolkitPro1501vc60S:XTPTabManager.obj
 0001:000a5200       ??1CNavigateButtonTabClose@CXTPTabManager@@UAE@XZ 004a6200 f i ToolkitPro1501vc60S:XTPTabManager.obj
 0001:000a5200       ??1CNavigateButtonArrowLeft@CXTPTabManager@@UAE@XZ 004a6200 f i ToolkitPro1501vc60S:XTPTabManager.obj
 0001:000a5200       ??1CNavigateButtonArrowRight@CXTPTabManager@@UAE@XZ 004a6200 f i ToolkitPro1501vc60S:XTPTabManager.obj
 0001:000a5210       ??_ECXTPTabManager@@UAEPAXI@Z 004a6210 f i ToolkitPro1501vc60S:XTPTabManager.obj
 0001:000a5210       ??_GCXTPTabManager@@UAEPAXI@Z 004a6210 f i ToolkitPro1501vc60S:XTPTabManager.obj
 0001:000a5230       ??1CXTPTabManager@@UAE@XZ  004a6230 f   ToolkitPro1501vc60S:XTPTabManager.obj
 0001:000a5310       ?SetActive@CXTPTabManager@@QAEXH@Z 004a6310 f   ToolkitPro1501vc60S:XTPTabManager.obj
 0001:000a5330       ?IsNavigateButtonVisible@CXTPTabManager@@MAEHPAVCXTPTabManagerNavigateButton@@@Z 004a6330 f   ToolkitPro1501vc60S:XTPTabManager.obj
 0001:000a5370       ?IsNavigateButtonAutomaticVisible@CXTPTabManager@@MAEHPAVCXTPTabManagerNavigateButton@@@Z 004a6370 f   ToolkitPro1501vc60S:XTPTabManager.obj
 0001:000a53b0       ?FindNavigateButton@CXTPTabManager@@QBEPAVCXTPTabManagerNavigateButton@@I@Z 004a63b0 f   ToolkitPro1501vc60S:XTPTabManager.obj
 0001:000a53f0       ?SetHeaderOffset@CXTPTabManager@@QAEXH@Z 004a63f0 f   ToolkitPro1501vc60S:XTPTabManager.obj
 0001:000a5410       ?GetItemsLength@CXTPTabManager@@UBEHXZ 004a6410 f   ToolkitPro1501vc60S:XTPTabManager.obj
 0001:000a5470       ?DeleteAllItems@CXTPTabManager@@QAEXXZ 004a6470 f   ToolkitPro1501vc60S:XTPTabManager.obj
 0001:000a54d0       ?DeleteItem@CXTPTabManager@@QAEHH@Z 004a64d0 f   ToolkitPro1501vc60S:XTPTabManager.obj
 0001:000a5560       ?AddItem@CXTPTabManager@@IAEPAVCXTPTabManagerItem@@HPAV2@@Z 004a6560 f   ToolkitPro1501vc60S:XTPTabManager.obj
 0001:000a5730       ??_ECNavigateButtonArrowLeft@CXTPTabManager@@UAEPAXI@Z 004a6730 f i ToolkitPro1501vc60S:XTPTabManager.obj
 0001:000a5730       ??_ECNavigateButtonArrowRight@CXTPTabManager@@UAEPAXI@Z 004a6730 f i ToolkitPro1501vc60S:XTPTabManager.obj
 0001:000a5730       ??_ECNavigateButtonTabClose@CXTPTabManager@@UAEPAXI@Z 004a6730 f i ToolkitPro1501vc60S:XTPTabManager.obj
 0001:000a5730       ??_GCNavigateButtonTabClose@CXTPTabManager@@UAEPAXI@Z 004a6730 f i ToolkitPro1501vc60S:XTPTabManager.obj
 0001:000a5730       ??_GCNavigateButtonArrowRight@CXTPTabManager@@UAEPAXI@Z 004a6730 f i ToolkitPro1501vc60S:XTPTabManager.obj
 0001:000a5730       ??_GCNavigateButtonClose@CXTPTabManager@@UAEPAXI@Z 004a6730 f i ToolkitPro1501vc60S:XTPTabManager.obj
 0001:000a5730       ??_GCNavigateButtonArrowLeft@CXTPTabManager@@UAEPAXI@Z 004a6730 f i ToolkitPro1501vc60S:XTPTabManager.obj
 0001:000a5730       ??_ECNavigateButtonClose@CXTPTabManager@@UAEPAXI@Z 004a6730 f i ToolkitPro1501vc60S:XTPTabManager.obj
 0001:000a5750       ?OnItemsChanged@CXTPTabManager@@UAEXXZ 004a6750 f   ToolkitPro1501vc60S:XTPTabManager.obj
 0001:000a5780       ?GetItemCaption@CXTPTabManager@@UBE?AVCString@@PBVCXTPTabManagerItem@@@Z 004a6780 f   ToolkitPro1501vc60S:XTPTabManager.obj
 0001:000a57b0       ?GetItemIcon@CXTPTabManager@@UBEPAUHICON__@@PBVCXTPTabManagerItem@@@Z 004a67b0 f   ToolkitPro1501vc60S:XTPTabManager.obj
 0001:000a57c0       ?GetItemColor@CXTPTabManager@@UBEKPBVCXTPTabManagerItem@@@Z 004a67c0 f   ToolkitPro1501vc60S:XTPTabManager.obj
 0001:000a57f0       ?SetCurSel@CXTPTabManager@@QAEXH@Z 004a67f0 f   ToolkitPro1501vc60S:XTPTabManager.obj
 0001:000a5840       ?GetCurSel@CXTPTabManager@@QBEHXZ 004a6840 f   ToolkitPro1501vc60S:XTPTabManager.obj
 0001:000a5850       ?SetSelectedItem@CXTPTabManager@@UAEXPAVCXTPTabManagerItem@@@Z 004a6850 f   ToolkitPro1501vc60S:XTPTabManager.obj
 0001:000a5880       ?EnsureVisible@CXTPTabManager@@QAEXPAVCXTPTabManagerItem@@@Z 004a6880 f   ToolkitPro1501vc60S:XTPTabManager.obj
 0001:000a58a0       ?HitTest@CXTPTabManager@@QBEPAVCXTPTabManagerItem@@VCPoint@@@Z 004a68a0 f   ToolkitPro1501vc60S:XTPTabManager.obj
 0001:000a5970       ?GetPosition@CXTPTabManager@@UBE?AW4XTPTabPosition@@XZ 004a6970 f   ToolkitPro1501vc60S:XTPTabManager.obj
 0001:000a5980       ?GetLayout@CXTPTabManager@@QBE?AW4XTPTabLayoutStyle@@XZ 004a6980 f   ToolkitPro1501vc60S:XTPTabManager.obj
 0001:000a5990       ?TrackClick@CXTPTabManager@@IAEXPAUHWND__@@VCPoint@@PAVCXTPTabManagerItem@@@Z 004a6990 f   ToolkitPro1501vc60S:XTPTabManager.obj
 0001:000a5b50       ?ReOrder@CXTPTabManager@@MAEXPAUHWND__@@VCPoint@@PAVCXTPTabManagerItem@@@Z 004a6b50 f   ToolkitPro1501vc60S:XTPTabManager.obj
 0001:000a5dc0       ?OnItemClick@CXTPTabManager@@MAEXPAVCXTPTabManagerItem@@@Z 004a6dc0 f   ToolkitPro1501vc60S:XTPTabManager.obj
 0001:000a5dd0       ?SetFocusedItem@CXTPTabManager@@UAEXPAVCXTPTabManagerItem@@@Z 004a6dd0 f   ToolkitPro1501vc60S:XTPTabManager.obj
 0001:000a5e00       ?FindNextFocusable@CXTPTabManager@@QBEPAVCXTPTabManagerItem@@HH@Z 004a6e00 f   ToolkitPro1501vc60S:XTPTabManager.obj
 0001:000a5e50       ?PerformKeyDown@CXTPTabManager@@UAEHPAUHWND__@@I@Z 004a6e50 f   ToolkitPro1501vc60S:XTPTabManager.obj
 0001:000a5f90       ?HitTestNavigateButton@CXTPTabManager@@QBEPAVCXTPTabManagerNavigateButton@@VCPoint@@HPAH@Z 004a6f90 f   ToolkitPro1501vc60S:XTPTabManager.obj
 0001:000a6060       ?PerformClick@CXTPTabManager@@QAEHPAUHWND__@@VCPoint@@H@Z 004a7060 f   ToolkitPro1501vc60S:XTPTabManager.obj
 0001:000a6130       ?PerformMouseMove@CXTPTabManager@@QAEXPAUHWND__@@VCPoint@@@Z 004a7130 f   ToolkitPro1501vc60S:XTPTabManager.obj
 0001:000a6330       ?GetItemTooltip@CXTPTabManager@@UBE?AVCString@@PBVCXTPTabManagerItem@@@Z 004a7330 f   ToolkitPro1501vc60S:XTPTabManager.obj
 0001:000a6360       ?PerformToolHitTest@CXTPTabManager@@UBEHPAUHWND__@@VCPoint@@PAUtagTOOLINFOA@@@Z 004a7360 f   ToolkitPro1501vc60S:XTPTabManager.obj
 0001:000a6540       ?GetItemMetrics@CXTPTabManager@@UBEXPAVCSize@@00@Z 004a7540 f   ToolkitPro1501vc60S:XTPTabManager.obj
 0001:000a6590       ?IsDrawStaticFrame@CXTPTabManager@@UBEHXZ 004a7590 f   ToolkitPro1501vc60S:XTPTabManager.obj
 0001:000a65a0       ?SetColor@CXTPTabManager@@QAEPAVCColorSet@CXTPTabPaintManager@@W4XTPTabColorStyle@@@Z 004a75a0 f   ToolkitPro1501vc60S:XTPTabManager.obj
 0001:000a65d0       ??1?$CArray@PAVCXTPTabManagerNavigateButton@@PAV1@@@UAE@XZ 004a75d0 f i ToolkitPro1501vc60S:XTPTabManager.obj
 0001:000a6620       ??1?$CArray@PAVCXTPTabManagerItem@@PAV1@@@UAE@XZ 004a7620 f i ToolkitPro1501vc60S:XTPTabManager.obj
 0001:000a6670       ??1?$CArray@VCRect@@AAV1@@@UAE@XZ 004a7670 f i ToolkitPro1501vc60S:XTPTabManager.obj
 0001:000a66c0       ?Serialize@?$CArray@VCRect@@AAV1@@@UAEXAAVCArchive@@@Z 004a76c0 f i ToolkitPro1501vc60S:XTPTabManager.obj
 0001:000a6840       ??_E?$CArray@PAVCXTPTabManagerNavigateButton@@PAV1@@@UAEPAXI@Z 004a7840 f i ToolkitPro1501vc60S:XTPTabManager.obj
 0001:000a6840       ??_G?$CArray@PAVCXTPTabManagerNavigateButton@@PAV1@@@UAEPAXI@Z 004a7840 f i ToolkitPro1501vc60S:XTPTabManager.obj
 0001:000a6860       ??_E?$CArray@PAVCXTPTabManagerItem@@PAV1@@@UAEPAXI@Z 004a7860 f i ToolkitPro1501vc60S:XTPTabManager.obj
 0001:000a6860       ??_G?$CArray@PAVCXTPTabManagerItem@@PAV1@@@UAEPAXI@Z 004a7860 f i ToolkitPro1501vc60S:XTPTabManager.obj
 0001:000a6880       ??_E?$CArray@VCRect@@AAV1@@@UAEPAXI@Z 004a7880 f i ToolkitPro1501vc60S:XTPTabManager.obj
 0001:000a6880       ??_G?$CArray@VCRect@@AAV1@@@UAEPAXI@Z 004a7880 f i ToolkitPro1501vc60S:XTPTabManager.obj
 0001:000a68a0       ?SetAtGrow@?$CArray@VCRect@@AAV1@@@QAEXHAAVCRect@@@Z 004a78a0 f i ToolkitPro1501vc60S:XTPTabManager.obj
 0001:000a6a00       ?ConstructElements@@YGXPAVCRect@@H@Z 004a7a00 f i ToolkitPro1501vc60S:XTPTabManager.obj
 0001:000a6a20       ??0CXTPComboBox@@QAE@XZ    004a7a20 f   ToolkitPro1501vc60S:XTPComboBox.obj
 0001:000a6ae0       ?SetBackColor@CXTPComboBox@@UAEXK@Z 004a7ae0 f i ToolkitPro1501vc60S:XTPComboBox.obj
 0001:000a6af0       ?SetTextColor@CXTPComboBox@@UAEXK@Z 004a7af0 f i ToolkitPro1501vc60S:XTPComboBox.obj
 0001:000a6b00       ??_ECXTPComboBox@@UAEPAXI@Z 004a7b00 f i ToolkitPro1501vc60S:XTPComboBox.obj
 0001:000a6b00       ??_GCXTPComboBox@@UAEPAXI@Z 004a7b00 f i ToolkitPro1501vc60S:XTPComboBox.obj
 0001:000a6b20       ??_GCXTPComboBoxEditCtrl@@UAEPAXI@Z 004a7b20 f i ToolkitPro1501vc60S:XTPComboBox.obj
 0001:000a6b20       ??_ECXTPComboBoxEditCtrl@@UAEPAXI@Z 004a7b20 f i ToolkitPro1501vc60S:XTPComboBox.obj
 0001:000a6b20       ??_ECXTPControlComboBoxEditCtrl@@UAEPAXI@Z 004a7b20 f i ToolkitPro1501vc60S:XTPComboBox.obj
 0001:000a6b20       ??_GCXTPControlComboBoxEditCtrl@@UAEPAXI@Z 004a7b20 f i ToolkitPro1501vc60S:XTPComboBox.obj
 0001:000a6b20       ??_ECXTPCommandBarEditCtrl@@UAEPAXI@Z 004a7b20 f i ToolkitPro1501vc60S:XTPComboBox.obj
 0001:000a6b20       ??_ECXTPControlEditCtrl@@UAEPAXI@Z 004a7b20 f i ToolkitPro1501vc60S:XTPComboBox.obj
 0001:000a6b20       ??_GCXTPControlEditCtrl@@UAEPAXI@Z 004a7b20 f i ToolkitPro1501vc60S:XTPComboBox.obj
 0001:000a6b20       ??_GCXTPCommandBarEditCtrl@@UAEPAXI@Z 004a7b20 f i ToolkitPro1501vc60S:XTPComboBox.obj
 0001:000a6b40       ??1CXTPComboBox@@UAE@XZ    004a7b40 f   ToolkitPro1501vc60S:XTPComboBox.obj
 0001:000a6bb0       ?GetRuntimeClass@CXTPComboBox@@UBEPAUCRuntimeClass@@XZ 004a7bb0 f   ToolkitPro1501vc60S:XTPComboBox.obj
 0001:000a6bc0       ?GetMessageMap@CXTPComboBox@@MBEPBUAFX_MSGMAP@@XZ 004a7bc0 f   ToolkitPro1501vc60S:XTPComboBox.obj
 0001:000a6bd0       ?RefreshMetrics@CXTPComboBox@@QAEXXZ 004a7bd0 f   ToolkitPro1501vc60S:XTPComboBox.obj
 0001:000a7330       ??4CXTPPaintManagerColor@@QAEABV0@ABV0@@Z 004a8330 f i ToolkitPro1501vc60S:XTPComboBox.obj
 0001:000a7350       ?Init@CXTPComboBox@@IAEXXZ 004a8350 f   ToolkitPro1501vc60S:XTPComboBox.obj
 0001:000a73a0       ?PreSubclassWindow@CXTPComboBox@@MAEXXZ 004a83a0 f   ToolkitPro1501vc60S:XTPComboBox.obj
 0001:000a73c0       ?OnCreate@CXTPComboBox@@IAEHPAUtagCREATESTRUCTA@@@Z 004a83c0 f   ToolkitPro1501vc60S:XTPComboBox.obj
 0001:000a73e0       ?PreCreateWindow@CXTPComboBox@@MAEHAAUtagCREATESTRUCTA@@@Z 004a83e0 f   ToolkitPro1501vc60S:XTPComboBox.obj
 0001:000a73e0       ?PreCreateWindow@CXTPProgressCtrl@@MAEHAAUtagCREATESTRUCTA@@@Z 004a83e0 f   ToolkitPro1501vc60S:XTPComboBox.obj
 0001:000a7410       ?SetTheme@CXTPComboBox@@QAEXW4XTPControlTheme@@@Z 004a8410 f   ToolkitPro1501vc60S:XTPComboBox.obj
 0001:000a7450       ?OnPaint@CXTPComboBox@@IAEXXZ 004a8450 f   ToolkitPro1501vc60S:XTPComboBox.obj
 0001:000a84b0       ?FillSolidRect@CXTPComboBox@@IAEXPAUHDC__@@HHHHPAUHBRUSH__@@@Z 004a94b0 f   ToolkitPro1501vc60S:XTPComboBox.obj
 0001:000a8500       ?DrawFrame@CXTPComboBox@@IAEXPAUHDC__@@PAUtagRECT@@HPAUHBRUSH__@@@Z 004a9500 f   ToolkitPro1501vc60S:XTPComboBox.obj
 0001:000a8590       ?GetClientBrush@CXTPComboBox@@IAEPAUHBRUSH__@@PAVCDC@@@Z 004a9590 f   ToolkitPro1501vc60S:XTPComboBox.obj
 0001:000a8620       ?OnMouseLeave@CXTPComboBox@@IAEXXZ 004a9620 f   ToolkitPro1501vc60S:XTPComboBox.obj
 0001:000a86d0       ?SetHighlighted@CXTPComboBox@@IAEXH@Z 004a96d0 f   ToolkitPro1501vc60S:XTPComboBox.obj
 0001:000a8720       ?OnMouseMove@CXTPComboBox@@IAEXIVCPoint@@@Z 004a9720 f   ToolkitPro1501vc60S:XTPComboBox.obj
 0001:000a8780       ?GetMessageMap@CXTPComboBoxEditCtrl@@MBEPBUAFX_MSGMAP@@XZ 004a9780 f   ToolkitPro1501vc60S:XTPComboBox.obj
 0001:000a8790       ?OnMouseLeave@CXTPComboBoxEditCtrl@@IAEXXZ 004a9790 f   ToolkitPro1501vc60S:XTPComboBox.obj
 0001:000a87e0       ?OnMouseMove@CXTPComboBoxEditCtrl@@IAEXIVCPoint@@@Z 004a97e0 f   ToolkitPro1501vc60S:XTPComboBox.obj
 0001:000a8880       ?OnKillFocus@CXTPComboBoxEditCtrl@@IAEXPAVCWnd@@@Z 004a9880 f   ToolkitPro1501vc60S:XTPComboBox.obj
 0001:000a88d0       ?OnSetFocus@CXTPComboBoxEditCtrl@@IAEXPAVCWnd@@@Z 004a98d0 f   ToolkitPro1501vc60S:XTPComboBox.obj
 0001:000a8910       ?OnKillFocus@CXTPComboBox@@IAEXPAVCWnd@@@Z 004a9910 f   ToolkitPro1501vc60S:XTPComboBox.obj
 0001:000a8940       ?OnSetFocus@CXTPComboBox@@IAEXPAVCWnd@@@Z 004a9940 f   ToolkitPro1501vc60S:XTPComboBox.obj
 0001:000a8970       ?NeedRedraw@CXTPComboBox@@IAEHXZ 004a9970 f   ToolkitPro1501vc60S:XTPComboBox.obj
 0001:000a89a0       ?RedrawFocusedFrame@CXTPComboBox@@IAEXXZ 004a99a0 f   ToolkitPro1501vc60S:XTPComboBox.obj
 0001:000a89d0       ?OnSysColorChange@CXTPComboBox@@IAEXXZ 004a99d0 f   ToolkitPro1501vc60S:XTPComboBox.obj
 0001:000a89f0       ?PreTranslateMessage@CXTPComboBox@@MAEHPAUtagMSG@@@Z 004a99f0 f   ToolkitPro1501vc60S:XTPComboBox.obj
 0001:000a8ab0       ?OnEditUpdate@CXTPComboBox@@IAEHXZ 004a9ab0 f   ToolkitPro1501vc60S:XTPComboBox.obj
 0001:000a8c10       ?OnEndSel@CXTPComboBox@@IAEHXZ 004a9c10 f   ToolkitPro1501vc60S:XTPComboBox.obj
 0001:000a8c30       ??0CXTPHeaderCtrl@@QAE@XZ  004a9c30 f   ToolkitPro1501vc60S:XTPHeaderCtrl.obj
 0001:000a8cf0       ??_GCXTPHeaderCtrl@@UAEPAXI@Z 004a9cf0 f i ToolkitPro1501vc60S:XTPHeaderCtrl.obj
 0001:000a8cf0       ??_ECXTPHeaderCtrl@@UAEPAXI@Z 004a9cf0 f i ToolkitPro1501vc60S:XTPHeaderCtrl.obj
 0001:000a8d10       ??1CXTPHeaderCtrl@@UAE@XZ  004a9d10 f   ToolkitPro1501vc60S:XTPHeaderCtrl.obj
 0001:000a8dd0       ?GetMessageMap@CXTPHeaderCtrl@@MBEPBUAFX_MSGMAP@@XZ 004a9dd0 f   ToolkitPro1501vc60S:XTPHeaderCtrl.obj
 0001:000a8de0       ?GetRuntimeClass@CXTPHeaderCtrl@@UBEPAUCRuntimeClass@@XZ 004a9de0 f   ToolkitPro1501vc60S:XTPHeaderCtrl.obj
 0001:000a8df0       ?OnThemeChanged@CXTPHeaderCtrl@@UAEXXZ 004a9df0 f   ToolkitPro1501vc60S:XTPHeaderCtrl.obj
 0001:000a8e00       ?IsThemeValid@CXTPHeaderCtrl@@QBEHXZ 004a9e00 f   ToolkitPro1501vc60S:XTPHeaderCtrl.obj
 0001:000a8e10       ?ApplyFieldWidths@CXTPHeaderCtrl@@MAEXH@Z 004a9e10 f   ToolkitPro1501vc60S:XTPHeaderCtrl.obj
 0001:000a8ea0       ?FitFieldWidths@CXTPHeaderCtrl@@MAEXH@Z 004a9ea0 f   ToolkitPro1501vc60S:XTPHeaderCtrl.obj
 0001:000a8f10       ?OnWindowPosChanging@CXTPHeaderCtrl@@IAEXPAUtagWINDOWPOS@@@Z 004a9f10 f   ToolkitPro1501vc60S:XTPHeaderCtrl.obj
 0001:000a8fa0       ?OnSetCursor@CXTPHeaderCtrl@@IAEHPAVCWnd@@II@Z 004a9fa0 f   ToolkitPro1501vc60S:XTPHeaderCtrl.obj
 0001:000a90d0       ?OnItemchanging@CXTPHeaderCtrl@@IAEHPAUtagNMHDR@@PAJ@Z 004aa0d0 f   ToolkitPro1501vc60S:XTPHeaderCtrl.obj
 0001:000a9130       ?IsColFrozen@CXTPHeaderCtrl@@QAE_NH@Z 004aa130 f   ToolkitPro1501vc60S:XTPHeaderCtrl.obj
 0001:000a9150       ?DetermineRTL@CXTPHeaderCtrl@@MAE_NXZ 004aa150 f   ToolkitPro1501vc60S:XTPHeaderCtrl.obj
 0001:000a91d0       ?GetFrozenColWidth@CXTPHeaderCtrl@@MAEHXZ 004aa1d0 f   ToolkitPro1501vc60S:XTPHeaderCtrl.obj
 0001:000a9230       ?OnPaint@CXTPHeaderCtrl@@IAEXXZ 004aa230 f   ToolkitPro1501vc60S:XTPHeaderCtrl.obj
 0001:000a92f0       ?OnPrintClient@CXTPHeaderCtrl@@IAEJIJ@Z 004aa2f0 f   ToolkitPro1501vc60S:XTPHeaderCtrl.obj
 0001:000a9340       ?OnLButtonDown@CXTPHeaderCtrl@@IAEXIVCPoint@@@Z 004aa340 f   ToolkitPro1501vc60S:XTPHeaderCtrl.obj
 0001:000a9350       ?OnLButtonUp@CXTPHeaderCtrl@@IAEXIVCPoint@@@Z 004aa350 f   ToolkitPro1501vc60S:XTPHeaderCtrl.obj
 0001:000a9360       ?OnMouseMove@CXTPHeaderCtrl@@IAEXIVCPoint@@@Z 004aa360 f   ToolkitPro1501vc60S:XTPHeaderCtrl.obj
 0001:000a93a0       ?HitTest@CXTPHeaderCtrl@@QBEHVCPoint@@PAI@Z 004aa3a0 f   ToolkitPro1501vc60S:XTPHeaderCtrl.obj
 0001:000a93e0       ?ItemPressed@CXTPHeaderCtrl@@UAEHH@Z 004aa3e0 f   ToolkitPro1501vc60S:XTPHeaderCtrl.obj
 0001:000a9450       ?OnTimer@CXTPHeaderCtrl@@IAEXI@Z 004aa450 f   ToolkitPro1501vc60S:XTPHeaderCtrl.obj
 0001:000a9510       ?OnLayout@CXTPHeaderCtrl@@IAEJIJ@Z 004aa510 f   ToolkitPro1501vc60S:XTPHeaderCtrl.obj
 0001:000a9550       ?SetSortImage@CXTPHeaderCtrl@@QAEHHH@Z 004aa550 f   ToolkitPro1501vc60S:XTPHeaderCtrl.obj
 0001:000a9580       ?GetSortedCol@CXTPHeaderCtrl@@QAEHPAH@Z 004aa580 f   ToolkitPro1501vc60S:XTPHeaderCtrl.obj
 0001:000a95a0       ?RecalcLayout@CXTPHeaderCtrl@@QAEHXZ 004aa5a0 f   ToolkitPro1501vc60S:XTPHeaderCtrl.obj
 0001:000a96b0       ?OnDestroy@CXTPHeaderCtrl@@IAEXXZ 004aa6b0 f   ToolkitPro1501vc60S:XTPHeaderCtrl.obj
 0001:000a96e0       ?InitializeHeader@CXTPHeaderCtrl@@UAEXH@Z 004aa6e0 f   ToolkitPro1501vc60S:XTPHeaderCtrl.obj
 0001:000a9730       ?OnWndMsg@CXTPHeaderCtrl@@MAEHIIJPAJ@Z 004aa730 f   ToolkitPro1501vc60S:XTPHeaderCtrl.obj
 0001:000a9770       ?OnRButtonDown@CXTPHeaderCtrl@@IAEXIVCPoint@@@Z 004aa770 f   ToolkitPro1501vc60S:XTPHeaderCtrl.obj
 0001:000a9a30       ?SetMenuID@CXTPHeaderCtrl@@UAEXIH@Z 004aaa30 f   ToolkitPro1501vc60S:XTPHeaderCtrl.obj
 0001:000a9a50       ?SendNotify@CXTPHeaderCtrl@@IAEXH@Z 004aaa50 f   ToolkitPro1501vc60S:XTPHeaderCtrl.obj
 0001:000a9b50       ?OnSortAsc@CXTPHeaderCtrl@@IAEXXZ 004aab50 f   ToolkitPro1501vc60S:XTPHeaderCtrl.obj
 0001:000a9b90       ?OnSortDsc@CXTPHeaderCtrl@@IAEXXZ 004aab90 f   ToolkitPro1501vc60S:XTPHeaderCtrl.obj
 0001:000a9bd0       ?SetAlingment@CXTPHeaderCtrl@@UAEHH@Z 004aabd0 f   ToolkitPro1501vc60S:XTPHeaderCtrl.obj
 0001:000a9c90       ?OnAlignLeft@CXTPHeaderCtrl@@IAEXXZ 004aac90 f   ToolkitPro1501vc60S:XTPHeaderCtrl.obj
 0001:000a9ca0       ?OnAlignCenter@CXTPHeaderCtrl@@IAEXXZ 004aaca0 f   ToolkitPro1501vc60S:XTPHeaderCtrl.obj
 0001:000a9cb0       ?OnAlignRight@CXTPHeaderCtrl@@IAEXXZ 004aacb0 f   ToolkitPro1501vc60S:XTPHeaderCtrl.obj
 0001:000a9cc0       ?HasSortArrow@CXTPHeaderCtrl@@QAEHXZ 004aacc0 f   ToolkitPro1501vc60S:XTPHeaderCtrl.obj
 0001:000a9cf0       ?ShowSortArrow@CXTPHeaderCtrl@@UAEXH@Z 004aacf0 f   ToolkitPro1501vc60S:XTPHeaderCtrl.obj
 0001:000a9d30       ?SetFontBold@CXTPHeaderCtrl@@UAEXH@Z 004aad30 f   ToolkitPro1501vc60S:XTPHeaderCtrl.obj
 0001:000a9d80       ?RefreshMetrics@CXTPHeaderCtrl@@MAEXXZ 004aad80 f   ToolkitPro1501vc60S:XTPHeaderCtrl.obj
 0001:000a9dc0       ?SetTheme@CXTPHeaderCtrl@@QAEHPAVCXTPHeaderCtrlTheme@@@Z 004aadc0 f   ToolkitPro1501vc60S:XTPHeaderCtrl.obj
 0001:000a9e10       ?SetTheme@CXTPHeaderCtrl@@QAEHW4XTPControlTheme@@@Z 004aae10 f   ToolkitPro1501vc60S:XTPHeaderCtrl.obj
 0001:000a9f20       ?OnSetTheme@CXTPHeaderCtrl@@IAEJIJ@Z 004aaf20 f   ToolkitPro1501vc60S:XTPHeaderCtrl.obj
 0001:000a9f30       ??1?$CList@HAAH@@UAE@XZ    004aaf30 f i ToolkitPro1501vc60S:XTPHeaderCtrl.obj
 0001:000a9f90       ?Serialize@?$CList@HAAH@@UAEXAAVCArchive@@@Z 004aaf90 f i ToolkitPro1501vc60S:XTPHeaderCtrl.obj
 0001:000aa0a0       ??_E?$CList@HAAH@@UAEPAXI@Z 004ab0a0 f i ToolkitPro1501vc60S:XTPHeaderCtrl.obj
 0001:000aa0a0       ??_G?$CList@HAAH@@UAEPAXI@Z 004ab0a0 f i ToolkitPro1501vc60S:XTPHeaderCtrl.obj
 0001:000aa0c0       ?OnCustomDraw@CXTPListViewBase@@IAEXPAUtagNMHDR@@PAJ@Z 004ab0c0 f i ToolkitPro1501vc60S:XTPListCtrlView.obj
 0001:000aa0e0       ?OnSettingChange@CXTPListViewBase@@IAEXIPBD@Z 004ab0e0 f i ToolkitPro1501vc60S:XTPListCtrlView.obj
 0001:000aa110       ?OnDestroy@CXTPListViewBase@@IAEXXZ 004ab110 f i ToolkitPro1501vc60S:XTPListCtrlView.obj
 0001:000aa130       ?OnEraseBkgnd@CXTPListViewBase@@IAEHPAVCDC@@@Z 004ab130 f i ToolkitPro1501vc60S:XTPListCtrlView.obj
 0001:000aa140       ?OnPaint@CXTPListViewBase@@IAEXXZ 004ab140 f i ToolkitPro1501vc60S:XTPListCtrlView.obj
 0001:000aa150       ?OnPrintClient@CXTPListViewBase@@IAEJIJ@Z 004ab150 f i ToolkitPro1501vc60S:XTPListCtrlView.obj
 0001:000aa170       ?OnCreate@CXTPListViewBase@@IAEHPAUtagCREATESTRUCTA@@@Z 004ab170 f i ToolkitPro1501vc60S:XTPListCtrlView.obj
 0001:000aa1a0       ?OnCustomDraw@CXTPListCtrlBase@@IAEXPAUtagNMHDR@@PAJ@Z 004ab1a0 f i ToolkitPro1501vc60S:XTPListCtrlView.obj
 0001:000aa1c0       ?OnSettingChange@CXTPListCtrlBase@@IAEXIPBD@Z 004ab1c0 f i ToolkitPro1501vc60S:XTPListCtrlView.obj
 0001:000aa1f0       ?OnDestroy@CXTPListCtrlBase@@IAEXXZ 004ab1f0 f i ToolkitPro1501vc60S:XTPListCtrlView.obj
 0001:000aa210       ?OnPaint@CXTPListCtrlBase@@IAEXXZ 004ab210 f i ToolkitPro1501vc60S:XTPListCtrlView.obj
 0001:000aa220       ?OnPrintClient@CXTPListCtrlBase@@IAEJIJ@Z 004ab220 f i ToolkitPro1501vc60S:XTPListCtrlView.obj
 0001:000aa240       ?OnCreate@CXTPListCtrlBase@@IAEHPAUtagCREATESTRUCTA@@@Z 004ab240 f i ToolkitPro1501vc60S:XTPListCtrlView.obj
 0001:000aa270       ??0CXTPListView@@QAE@XZ    004ab270 f   ToolkitPro1501vc60S:XTPListCtrlView.obj
 0001:000aa2f0       ?PreCreateWindow@CXTPListViewBase@@MAEHAAUtagCREATESTRUCTA@@@Z 004ab2f0 f i ToolkitPro1501vc60S:XTPListCtrlView.obj
 0001:000aa320       ??1CXTPListViewBase@@UAE@XZ 004ab320 f i ToolkitPro1501vc60S:XTPListCtrlView.obj
 0001:000aa380       ??_ECXTPListView@@UAEPAXI@Z 004ab380 f i ToolkitPro1501vc60S:XTPListCtrlView.obj
 0001:000aa380       ??_GCXTPListView@@UAEPAXI@Z 004ab380 f i ToolkitPro1501vc60S:XTPListCtrlView.obj
 0001:000aa3a0       ??1CXTPListView@@UAE@XZ    004ab3a0 f   ToolkitPro1501vc60S:XTPListCtrlView.obj
 0001:000aa410       ?CreateObject@CXTPListView@@SGPAVCObject@@XZ 004ab410 f   ToolkitPro1501vc60S:XTPListCtrlView.obj
 0001:000aa470       ?GetRuntimeClass@CXTPListView@@UBEPAUCRuntimeClass@@XZ 004ab470 f   ToolkitPro1501vc60S:XTPListCtrlView.obj
 0001:000aa480       ?GetMessageMap@CXTPListView@@MBEPBUAFX_MSGMAP@@XZ 004ab480 f   ToolkitPro1501vc60S:XTPListCtrlView.obj
 0001:000aa490       ??0CXTPListCtrl@@QAE@XZ    004ab490 f   ToolkitPro1501vc60S:XTPListCtrlView.obj
 0001:000aa510       ?SetExtendedStyle@CXTPListViewBase@@UAEXK@Z 004ab510 f i ToolkitPro1501vc60S:XTPListCtrlView.obj
 0001:000aa510       ?SetExtendedStyle@CXTPListBase@@UAEXK@Z 004ab510 f i ToolkitPro1501vc60S:XTPListCtrlView.obj
 0001:000aa510       ?SetExtendedStyle@CXTPListCtrlBase@@UAEXK@Z 004ab510 f i ToolkitPro1501vc60S:XTPListCtrlView.obj
 0001:000aa540       ?OnNotify@CXTPListCtrlBase@@MAEHIJPAJ@Z 004ab540 f i ToolkitPro1501vc60S:XTPListCtrlView.obj
 0001:000aa560       ?PreSubclassWindow@CXTPListCtrlBase@@MAEXXZ 004ab560 f i ToolkitPro1501vc60S:XTPListCtrlView.obj
 0001:000aa580       ?PreCreateWindow@CXTPListCtrlBase@@MAEHAAUtagCREATESTRUCTA@@@Z 004ab580 f i ToolkitPro1501vc60S:XTPListCtrlView.obj
 0001:000aa5b0       ??1CXTPListCtrlBase@@UAE@XZ 004ab5b0 f i ToolkitPro1501vc60S:XTPListCtrlView.obj
 0001:000aa600       ??_GCXTPListCtrl@@UAEPAXI@Z 004ab600 f i ToolkitPro1501vc60S:XTPListCtrlView.obj
 0001:000aa600       ??_ECXTPListCtrl@@UAEPAXI@Z 004ab600 f i ToolkitPro1501vc60S:XTPListCtrlView.obj
 0001:000aa620       ??1CXTPListCtrl@@UAE@XZ    004ab620 f   ToolkitPro1501vc60S:XTPListCtrlView.obj
 0001:000aa680       ?GetRuntimeClass@CXTPListCtrl@@UBEPAUCRuntimeClass@@XZ 004ab680 f   ToolkitPro1501vc60S:XTPListCtrlView.obj
 0001:000aa690       ?GetMessageMap@CXTPListCtrl@@MBEPBUAFX_MSGMAP@@XZ 004ab690 f   ToolkitPro1501vc60S:XTPListCtrlView.obj
 0001:000aa6a0       ?OnNotify@CXTPListCtrlBase@@ODM@AEHIJPAJ@Z 004ab6a0 f i ToolkitPro1501vc60S:XTPListCtrlView.obj
 0001:000aa6b0       ??_ECXTPListView@@WEI@AEPAXI@Z 004ab6b0 f i ToolkitPro1501vc60S:XTPListCtrlView.obj
 0001:000aa6c0       ??_ECXTPListCtrl@@WDM@AEPAXI@Z 004ab6c0 f i ToolkitPro1501vc60S:XTPListCtrlView.obj
 0001:000aa700       ?GetRuntimeClass@CXTPStatusBarPane@@UBEPAUCRuntimeClass@@XZ 004ab700 f   ToolkitPro1501vc60S:XTPStatusBar.obj
 0001:000aa710       ??0CXTPStatusBarPane@@QAE@XZ 004ab710 f   ToolkitPro1501vc60S:XTPStatusBar.obj
 0001:000aa7e0       ??_GCXTPStatusBarPane@@UAEPAXI@Z 004ab7e0 f i ToolkitPro1501vc60S:XTPStatusBar.obj
 0001:000aa7e0       ??_ECXTPStatusBarPane@@UAEPAXI@Z 004ab7e0 f i ToolkitPro1501vc60S:XTPStatusBar.obj
 0001:000aa800       ??1CXTPStatusBarPane@@UAE@XZ 004ab800 f   ToolkitPro1501vc60S:XTPStatusBar.obj
 0001:000aa8f0       ?GetRect@CXTPStatusBarPane@@QBE?AVCRect@@XZ 004ab8f0 f   ToolkitPro1501vc60S:XTPStatusBar.obj
 0001:000aa920       ?Redraw@CXTPStatusBarPane@@QBEXXZ 004ab920 f   ToolkitPro1501vc60S:XTPStatusBar.obj
 0001:000aa970       ?GetPadding@CXTPStatusBarPane@@QBE?AVCRect@@XZ 004ab970 f   ToolkitPro1501vc60S:XTPStatusBar.obj
 0001:000aa9a0       ?SetText@CXTPStatusBarPane@@QAEXPBD@Z 004ab9a0 f   ToolkitPro1501vc60S:XTPStatusBar.obj
 0001:000aaa80       ?GetText@CXTPStatusBarPane@@QBE?AVCString@@XZ 004aba80 f   ToolkitPro1501vc60S:XTPStatusBar.obj
 0001:000aaaa0       ?GetWidth@CXTPStatusBarPane@@UAEHXZ 004abaa0 f   ToolkitPro1501vc60S:XTPStatusBar.obj
 0001:000aaab0       ?SetStyle@CXTPStatusBarPane@@QAEXI@Z 004abab0 f   ToolkitPro1501vc60S:XTPStatusBar.obj
 0001:000aaaf0       ?GetIndex@CXTPStatusBarPane@@QBEHXZ 004abaf0 f   ToolkitPro1501vc60S:XTPStatusBar.obj
 0001:000aab00       ?GetStatusBar@CXTPStatusBarPane@@QBEPAVCXTPStatusBar@@XZ 004abb00 f   ToolkitPro1501vc60S:XTPStatusBar.obj
 0001:000aab00       ?GetWorkspaceCount@CXTPTabClientWnd@@QBEHXZ 004abb00 f   ToolkitPro1501vc60S:XTPStatusBar.obj
 0001:000aab10       ?OnDraw@CXTPStatusBarPane@@MAEXPAVCDC@@VCRect@@@Z 004abb10 f   ToolkitPro1501vc60S:XTPStatusBar.obj
 0001:000aab60       ?GetBestFit@CXTPStatusBarPane@@QAEHXZ 004abb60 f   ToolkitPro1501vc60S:XTPStatusBar.obj
 0001:000aac90       ?GetTextFont@CXTPStatusBarPane@@UAEPAVCFont@@XZ 004abc90 f   ToolkitPro1501vc60S:XTPStatusBar.obj
 0001:000aacb0       ?GetImage@CXTPStatusBarPane@@UBEPAVCXTPImageManagerIcon@@XZ 004abcb0 f   ToolkitPro1501vc60S:XTPStatusBar.obj
 0001:000aacd0       ?GetDragControl@CXTPCommandBars@@QBEPAVCCmdTarget@@XZ 004abcd0 f   ToolkitPro1501vc60S:XTPStatusBar.obj
 0001:000aacd0       ?GetTextAlignment@CXTPStatusBarPane@@QBEHXZ 004abcd0 f   ToolkitPro1501vc60S:XTPStatusBar.obj
 0001:000aace0       ?GetTooltip@CXTPStatusBarPane@@QBE?AVCString@@XZ 004abce0 f   ToolkitPro1501vc60S:XTPStatusBar.obj
 0001:000aad00       ?SetEnabled@CXTPStatusBarPane@@QAEXH@Z 004abd00 f   ToolkitPro1501vc60S:XTPStatusBar.obj
 0001:000aad40       ?IsEnabled@CXTPStatusBarPane@@QBEHXZ 004abd40 f   ToolkitPro1501vc60S:XTPStatusBar.obj
 0001:000aad50       ?IsChecked@CXTPStatusBarPane@@QBEHXZ 004abd50 f   ToolkitPro1501vc60S:XTPStatusBar.obj
 0001:000aad70       ?OnToolHitTest@CXTPStatusBarPane@@MBEHVCPoint@@PAUtagTOOLINFOA@@@Z 004abd70 f   ToolkitPro1501vc60S:XTPStatusBar.obj
 0001:000aad80       ?OnLButtonDown@CXTPStatusBarPane@@MAEXVCPoint@@@Z 004abd80 f   ToolkitPro1501vc60S:XTPStatusBar.obj
 0001:000aaed0       ?GetRuntimeClass@CXTPStatusBar@@UBEPAUCRuntimeClass@@XZ 004abed0 f   ToolkitPro1501vc60S:XTPStatusBar.obj
 0001:000aaee0       ??0CXTPStatusBar@@QAE@XZ   004abee0 f   ToolkitPro1501vc60S:XTPStatusBar.obj
 0001:000aafd0       ??_ECXTPStatusBar@@UAEPAXI@Z 004abfd0 f i ToolkitPro1501vc60S:XTPStatusBar.obj
 0001:000aafd0       ??_GCXTPStatusBar@@UAEPAXI@Z 004abfd0 f i ToolkitPro1501vc60S:XTPStatusBar.obj
 0001:000aaff0       ?IsWin4@CXTPStatusBar@@AAEHXZ 004abff0 f   ToolkitPro1501vc60S:XTPStatusBar.obj
 0001:000ab000       ??1CXTPStatusBar@@UAE@XZ   004ac000 f   ToolkitPro1501vc60S:XTPStatusBar.obj
 0001:000ab0c0       ?GetImageManager@CXTPStatusBar@@QBEPAVCXTPImageManager@@XZ 004ac0c0 f   ToolkitPro1501vc60S:XTPStatusBar.obj
 0001:000ab0e0       ?HitTest@CXTPStatusBar@@QBEPAVCXTPStatusBarPane@@VCPoint@@PAVCRect@@@Z 004ac0e0 f   ToolkitPro1501vc60S:XTPStatusBar.obj
 0001:000ab190       ?RemoveAll@CXTPStatusBar@@QAEXXZ 004ac190 f   ToolkitPro1501vc60S:XTPStatusBar.obj
 0001:000ab1f0       ?FindPane@CXTPStatusBar@@QBEPAVCXTPStatusBarPane@@I@Z 004ac1f0 f   ToolkitPro1501vc60S:XTPStatusBar.obj
 0001:000ab240       ?Create@CXTPStatusBar@@QAEHPAVCWnd@@KI@Z 004ac240 f   ToolkitPro1501vc60S:XTPStatusBar.obj
 0001:000ab260       ?GetFont@CXTPStatusBar@@QAEPAVCFont@@XZ 004ac260 f   ToolkitPro1501vc60S:XTPStatusBar.obj
 0001:000ab280       ?CreateEx@CXTPStatusBar@@QAEHPAVCWnd@@KKI@Z 004ac280 f   ToolkitPro1501vc60S:XTPStatusBar.obj
 0001:000ab310       ?PreCreateWindow@CXTPStatusBar@@MAEHAAUtagCREATESTRUCTA@@@Z 004ac310 f   ToolkitPro1501vc60S:XTPStatusBar.obj
 0001:000ab350       ?SetIndicators@CXTPStatusBar@@QAEHPBIH@Z 004ac350 f   ToolkitPro1501vc60S:XTPStatusBar.obj
 0001:000ab5b0       ?CalcInsideRect@CXTPStatusBar@@IBEXAAVCRect@@H@Z 004ac5b0 f   ToolkitPro1501vc60S:XTPStatusBar.obj
 0001:000ab630       ?RecalcLayout@CXTPStatusBar@@UAEXXZ 004ac630 f   ToolkitPro1501vc60S:XTPStatusBar.obj
 0001:000ab900       ?CommandToIndex@CXTPStatusBar@@QBEHI@Z 004ac900 f   ToolkitPro1501vc60S:XTPStatusBar.obj
 0001:000ab950       ?GetItemID@CXTPStatusBar@@QBEIH@Z 004ac950 f   ToolkitPro1501vc60S:XTPStatusBar.obj
 0001:000ab970       ?GetItemRect@CXTPStatusBar@@QBEXHPAUtagRECT@@@Z 004ac970 f   ToolkitPro1501vc60S:XTPStatusBar.obj
 0001:000ab9d0       ?GetPaneStyle@CXTPStatusBar@@QBEIH@Z 004ac9d0 f   ToolkitPro1501vc60S:XTPStatusBar.obj
 0001:000ab9f0       ?SetPaneStyle@CXTPStatusBar@@QAEXHI@Z 004ac9f0 f   ToolkitPro1501vc60S:XTPStatusBar.obj
 0001:000aba10       ?SetPaneInfo@CXTPStatusBar@@QAEXHIIH@Z 004aca10 f   ToolkitPro1501vc60S:XTPStatusBar.obj
 0001:000aba90       ?SetPaneText@CXTPStatusBar@@QAEHHPBD@Z 004aca90 f   ToolkitPro1501vc60S:XTPStatusBar.obj
 0001:000abac0       ?CalcFixedLayout@CXTPStatusBar@@MAE?AVCSize@@HH@Z 004acac0 f   ToolkitPro1501vc60S:XTPStatusBar.obj
 0001:000abbb0       ?GetMessageMap@CXTPStatusBar@@MBEPBUAFX_MSGMAP@@XZ 004acbb0 f   ToolkitPro1501vc60S:XTPStatusBar.obj
 0001:000abbc0       ?OnCreate@CXTPStatusBar@@QAEHPAUtagCREATESTRUCTA@@@Z 004acbc0 f   ToolkitPro1501vc60S:XTPStatusBar.obj
 0001:000abbe0       ?OnSysCommand@CXTPStatusBar@@IAEXIJ@Z 004acbe0 f   ToolkitPro1501vc60S:XTPStatusBar.obj
 0001:000abc20       ?OnNcHitTest@CXTPStatusBar@@IAEJVCPoint@@@Z 004acc20 f   ToolkitPro1501vc60S:XTPStatusBar.obj
 0001:000abd20       ?SetCustomizationVisible@CXTPStatusBarPane@@QAEXH@Z 004acd20 f   ToolkitPro1501vc60S:XTPStatusBar.obj
 0001:000abd50       ?GetCustomizationVisible@CXTPStatusBarPane@@QBEHXZ 004acd50 f   ToolkitPro1501vc60S:XTPStatusBar.obj
 0001:000abd60       ?GetStatusBarPopup@CXTPStatusBar@@UAEPAVCXTPPopupBar@@XZ 004acd60 f   ToolkitPro1501vc60S:XTPStatusBar.obj
 0001:000abf00       ?SetParent@CXTPControl@@MAEXPAVCXTPCommandBar@@@Z 004acf00 f i ToolkitPro1501vc60S:XTPStatusBar.obj
 0001:000abf10       ?GetDescription@CXTPControl@@UBE?AVCString@@XZ 004acf10 f i ToolkitPro1501vc60S:XTPStatusBar.obj
 0001:000abfe0       ?GetDescription@CXTPControlAction@@QBE?AVCString@@XZ 004acfe0 f i ToolkitPro1501vc60S:XTPStatusBar.obj
 0001:000ac000       ?GetTooltip@CXTPControl@@UBE?AVCString@@XZ 004ad000 f i ToolkitPro1501vc60S:XTPStatusBar.obj
 0001:000ac0d0       ?GetTooltip@CXTPControlAction@@QBE?AVCString@@XZ 004ad0d0 f i ToolkitPro1501vc60S:XTPStatusBar.obj
 0001:000ac0f0       ?GetCaption@CXTPControl@@UBE?AVCString@@XZ 004ad0f0 f i ToolkitPro1501vc60S:XTPStatusBar.obj
 0001:000ac1d0       ?GetCaption@CXTPControlAction@@QBE?AVCString@@XZ 004ad1d0 f i ToolkitPro1501vc60S:XTPStatusBar.obj
 0001:000ac200       ?SetBeginGroup@CXTPControl@@UAEXH@Z 004ad200 f i ToolkitPro1501vc60S:XTPStatusBar.obj
 0001:000ac220       ?SetEnabled@CXTPControl@@UAEXH@Z 004ad220 f i ToolkitPro1501vc60S:XTPStatusBar.obj
 0001:000ac250       ?SetChecked@CXTPControl@@UAEXH@Z 004ad250 f i ToolkitPro1501vc60S:XTPStatusBar.obj
 0001:000ac270       ?GetPressed@CXTPControl@@UBEHXZ 004ad270 f i ToolkitPro1501vc60S:XTPStatusBar.obj
 0001:000ac280       ?SetRect@CXTPControl@@UAEXVCRect@@@Z 004ad280 f i ToolkitPro1501vc60S:XTPStatusBar.obj
 0001:000ac2b0       ?IsVisible@CXTPControl@@UBEHK@Z 004ad2b0 f i ToolkitPro1501vc60S:XTPStatusBar.obj
 0001:000ac2e0       ?SetHideFlags@CXTPControl@@UAEXK@Z 004ad2e0 f i ToolkitPro1501vc60S:XTPStatusBar.obj
 0001:000ac2f0       ?SetWidth@CXTPControl@@UAEXH@Z 004ad2f0 f i ToolkitPro1501vc60S:XTPStatusBar.obj
 0001:000ac310       ?SetHeight@CXTPControl@@UAEXH@Z 004ad310 f i ToolkitPro1501vc60S:XTPStatusBar.obj
 0001:000ac330       ?OnHookKeyDown@CXTPControl@@MAEHIJ@Z 004ad330 f i ToolkitPro1501vc60S:XTPStatusBar.obj
 0001:000ac330       ?OnRButtonUp@CXTPControl@@MAEHVCPoint@@@Z 004ad330 f i ToolkitPro1501vc60S:XTPStatusBar.obj
 0001:000ac330       ?OnRButtonDown@CXTPControl@@MAEHVCPoint@@@Z 004ad330 f i ToolkitPro1501vc60S:XTPStatusBar.obj
 0001:000ac340       ?OnHookMouseWheel@CXTPControl@@MAEHIFVCPoint@@@Z 004ad340 f i ToolkitPro1501vc60S:XTPStatusBar.obj
 0001:000ac350       ?OnToolHitTest@CXTPControl@@MBEHVCPoint@@PAUtagTOOLINFOA@@@Z 004ad350 f i ToolkitPro1501vc60S:XTPStatusBar.obj
 0001:000ac360       ?OnExecute@CControlCustomization@CXTPStatusBar@@UAEXXZ 004ad360 f i ToolkitPro1501vc60S:XTPStatusBar.obj
 0001:000ac3c0       ?OnRButtonUp@CXTPStatusBar@@IAEXIVCPoint@@@Z 004ad3c0 f   ToolkitPro1501vc60S:XTPStatusBar.obj
 0001:000ac430       ?OnMouseLeave@CXTPStatusBar@@IAEXXZ 004ad430 f   ToolkitPro1501vc60S:XTPStatusBar.obj
 0001:000ac440       ?HandleMouseMove@CXTPStatusBar@@IAEXVCPoint@@@Z 004ad440 f   ToolkitPro1501vc60S:XTPStatusBar.obj
 0001:000ac530       ?OnMouseMove@CXTPStatusBar@@IAEXIVCPoint@@@Z 004ad530 f   ToolkitPro1501vc60S:XTPStatusBar.obj
 0001:000ac550       ?OnLButtonDblClk@CXTPStatusBar@@IAEXIVCPoint@@@Z 004ad550 f   ToolkitPro1501vc60S:XTPStatusBar.obj
 0001:000ac610       ?OnLButtonDown@CXTPStatusBar@@IAEXIVCPoint@@@Z 004ad610 f   ToolkitPro1501vc60S:XTPStatusBar.obj
 0001:000ac640       ?OnNcCalcSize@CXTPStatusBar@@IAEXHPAUtagNCCALCSIZE_PARAMS@@@Z 004ad640 f   ToolkitPro1501vc60S:XTPStatusBar.obj
 0001:000ac6a0       ?OnBarStyleChange@CXTPStatusBar@@MAEXKK@Z 004ad6a0 f   ToolkitPro1501vc60S:XTPStatusBar.obj
 0001:000ac6d0       ?OnNcPaint@CXTPStatusBar@@IAEXXZ 004ad6d0 f   ToolkitPro1501vc60S:XTPStatusBar.obj
 0001:000ac6e0       ?OnSize@CXTPStatusBar@@QAEXIHH@Z 004ad6e0 f   ToolkitPro1501vc60S:XTPStatusBar.obj
 0001:000ac700       ?OnWindowPosChanging@CXTPStatusBar@@IAEXPAUtagWINDOWPOS@@@Z 004ad700 f   ToolkitPro1501vc60S:XTPStatusBar.obj
 0001:000ac730       ?OnSetText@CXTPStatusBar@@IAEJIJ@Z 004ad730 f   ToolkitPro1501vc60S:XTPStatusBar.obj
 0001:000ac760       ?OnGetText@CXTPStatusBar@@IAEJIJ@Z 004ad760 f   ToolkitPro1501vc60S:XTPStatusBar.obj
 0001:000ac7c0       ?OnGetTextLength@CXTPStatusBar@@IAEJIJ@Z 004ad7c0 f   ToolkitPro1501vc60S:XTPStatusBar.obj
 0001:000ac7f0       ?OnSetMinHeight@CXTPStatusBar@@IAEJIJ@Z 004ad7f0 f   ToolkitPro1501vc60S:XTPStatusBar.obj
 0001:000ac810       ?Enable@CStatusCmdUI@CXTPStatusBar@@UAEXH@Z 004ad810 f   ToolkitPro1501vc60S:XTPStatusBar.obj
 0001:000ac840       ?SetCheck@CStatusCmdUI@CXTPStatusBar@@UAEXH@Z 004ad840 f   ToolkitPro1501vc60S:XTPStatusBar.obj
 0001:000ac880       ?SetText@CStatusCmdUI@CXTPStatusBar@@UAEXPBD@Z 004ad880 f   ToolkitPro1501vc60S:XTPStatusBar.obj
 0001:000ac8a0       ?OnUpdateCmdUI@CXTPStatusBar@@MAEXPAVCFrameWnd@@H@Z 004ad8a0 f   ToolkitPro1501vc60S:XTPStatusBar.obj
 0001:000ac930       ?GetPaintManager@CXTPStatusBar@@QBEPAVCXTPPaintManager@@XZ 004ad930 f   ToolkitPro1501vc60S:XTPStatusBar.obj
 0001:000ac960       ?DrawPaneEntry@CXTPStatusBar@@UAEXPAVCDC@@HVCRect@@@Z 004ad960 f   ToolkitPro1501vc60S:XTPStatusBar.obj
 0001:000ac9a0       ?OnPaint@CXTPStatusBar@@QAEXXZ 004ad9a0 f   ToolkitPro1501vc60S:XTPStatusBar.obj
 0001:000aca30       ?OnPrintClient@CXTPStatusBar@@QAEJIJ@Z 004ada30 f   ToolkitPro1501vc60S:XTPStatusBar.obj
 0001:000aca70       ?OnDraw@CXTPStatusBar@@QAEXPAVCDC@@@Z 004ada70 f   ToolkitPro1501vc60S:XTPStatusBar.obj
 0001:000acc40       ?DrawStretch@CXTPStatusBar@@MAEXPAVCDC@@AAVCRect@@@Z 004adc40 f   ToolkitPro1501vc60S:XTPStatusBar.obj
 0001:000acc80       ?PositionControls@CXTPStatusBar@@QAEXXZ 004adc80 f   ToolkitPro1501vc60S:XTPStatusBar.obj
 0001:000acda0       ?OnWindowPosChanged@CXTPStatusBar@@IAEXPAUtagWINDOWPOS@@@Z 004adda0 f   ToolkitPro1501vc60S:XTPStatusBar.obj
 0001:000ace00       ?OnIdleUpdateCmdUI@CXTPStatusBar@@QAEJIJ@Z 004ade00 f   ToolkitPro1501vc60S:XTPStatusBar.obj
 0001:000acec0       ?OnToolHitTest@CXTPStatusBar@@MBEHVCPoint@@PAUtagTOOLINFOA@@@Z 004adec0 f   ToolkitPro1501vc60S:XTPStatusBar.obj
 0001:000ad000       ?OnPaneClick@CXTPStatusBar@@UAEXPAVCXTPStatusBarPane@@@Z 004ae000 f   ToolkitPro1501vc60S:XTPStatusBar.obj
 0001:000ad040       ?OnSwitchPaneClick@CXTPStatusBar@@UAEXPAVCXTPStatusBarPane@@J@Z 004ae040 f   ToolkitPro1501vc60S:XTPStatusBar.obj
 0001:000ad070       ?OnWndMsg@CXTPStatusBar@@MAEHIIJPAJ@Z 004ae070 f   ToolkitPro1501vc60S:XTPStatusBar.obj
 0001:000ad120       ?LoadState@CXTPStatusBar@@QAEXPBD@Z 004ae120 f   ToolkitPro1501vc60S:XTPStatusBar.obj
 0001:000ad2f0       ?DoPropExchange@CXTPStatusBar@@UAEXPAVCXTPPropExchange@@@Z 004ae2f0 f   ToolkitPro1501vc60S:XTPStatusBar.obj
 0001:000ad610       ?SaveState@CXTPStatusBar@@QAEXPBD@Z 004ae610 f   ToolkitPro1501vc60S:XTPStatusBar.obj
 0001:000ad7c0       ?GetSwitchCount@CXTPStatusBarSwitchPane@@QBEHXZ 004ae7c0 f   ToolkitPro1501vc60S:XTPStatusBar.obj
 0001:000ad7d0       ?GetSwitch@CXTPStatusBarSwitchPane@@QBEPAUSWITCH@1@H@Z 004ae7d0 f   ToolkitPro1501vc60S:XTPStatusBar.obj
 0001:000ad7e0       ?CreateObject@?$CThreadLocal@VCXTPMouseManager@@@@SGPAVCNoTrackObject@@XZ 004ae7e0 f i ToolkitPro1501vc60S:XTPStatusBar.obj
 0001:000ad840       ??1?$CArray@PAVCXTPStatusBarPane@@PAV1@@@UAE@XZ 004ae840 f i ToolkitPro1501vc60S:XTPStatusBar.obj
 0001:000ad890       ??_G?$CArray@PAVCXTPStatusBarPane@@PAV1@@@UAEPAXI@Z 004ae890 f i ToolkitPro1501vc60S:XTPStatusBar.obj
 0001:000ad890       ??_E?$CArray@PAVCXTPStatusBarPane@@PAV1@@@UAEPAXI@Z 004ae890 f i ToolkitPro1501vc60S:XTPStatusBar.obj
 0001:000ad8b0       ?CreateObject@CXTPToolBar@@SGPAVCObject@@XZ 004ae8b0 f   ToolkitPro1501vc60S:XTPToolBar.obj
 0001:000ad910       ?GetRuntimeClass@CXTPToolBar@@UBEPAUCRuntimeClass@@XZ 004ae910 f   ToolkitPro1501vc60S:XTPToolBar.obj
 0001:000ad940       ?Clone@CXTPToolBar@@UAEPAVCXTPCommandBar@@H@Z 004ae940 f   ToolkitPro1501vc60S:XTPToolBar.obj
 0001:000ad970       ?Draw@CControlButtonHide@CXTPToolBar@@UAEXPAVCDC@@@Z 004ae970 f   ToolkitPro1501vc60S:XTPToolBar.obj
 0001:000ad9b0       ?IsHiddenExists@CControlButtonExpand@CXTPToolBar@@QAEHXZ 004ae9b0 f   ToolkitPro1501vc60S:XTPToolBar.obj
 0001:000ada00       ?Draw@CControlButtonExpand@CXTPToolBar@@UAEXPAVCDC@@@Z 004aea00 f   ToolkitPro1501vc60S:XTPToolBar.obj
 0001:000ada60       ?OnSetPopup@CControlButtonExpand@CXTPToolBar@@UAEHH@Z 004aea60 f   ToolkitPro1501vc60S:XTPToolBar.obj
 0001:000adc90       ??0CXTPToolBar@@QAE@XZ     004aec90 f   ToolkitPro1501vc60S:XTPToolBar.obj
 0001:000add80       ?DelayRedraw@CXTPCommandBar@@UAEXXZ 004aed80 f i ToolkitPro1501vc60S:XTPToolBar.obj
 0001:000add90       ?IsCustomizable@CXTPCommandBar@@UBEHXZ 004aed90 f i ToolkitPro1501vc60S:XTPToolBar.obj
 0001:000adda0       ?OnSetPopup@CXTPControl@@MAEHH@Z 004aeda0 f i ToolkitPro1501vc60S:XTPToolBar.obj
 0001:000adda0       ?SetPosition@CXTPCommandBar@@UAEHW4XTPBarPosition@@@Z 004aeda0 f i ToolkitPro1501vc60S:XTPToolBar.obj
 0001:000adda0       ?PreviewAccel@CXTPCommandBar@@UAEHI@Z 004aeda0 f i ToolkitPro1501vc60S:XTPToolBar.obj
 0001:000addb0       ?SetTopIndex@CXTPControlComboBoxPopupBar@@UAEHH@Z 004aedb0 f i ToolkitPro1501vc60S:XTPToolBar.obj
 0001:000addb0       ?IsControlEnabled@CXTPCommandBar@@MBEHPBVCXTPControl@@@Z 004aedb0 f i ToolkitPro1501vc60S:XTPToolBar.obj
 0001:000addc0       ?IsVisible@CXTPToolBar@@UBEHXZ 004aedc0 f i ToolkitPro1501vc60S:XTPToolBar.obj
 0001:000addd0       ??_ECXTPToolBar@@UAEPAXI@Z 004aedd0 f i ToolkitPro1501vc60S:XTPToolBar.obj
 0001:000addd0       ??_GCXTPToolBar@@UAEPAXI@Z 004aedd0 f i ToolkitPro1501vc60S:XTPToolBar.obj
 0001:000addf0       ?CreateToolBar@CXTPToolBar@@QAEHKPAVCWnd@@I@Z 004aedf0 f   ToolkitPro1501vc60S:XTPToolBar.obj
 0001:000adeb0       ?EnableDocking@CXTPToolBar@@QAEXK@Z 004aeeb0 f   ToolkitPro1501vc60S:XTPToolBar.obj
 0001:000adec0       ??1CXTPToolBar@@UAE@XZ     004aeec0 f   ToolkitPro1501vc60S:XTPToolBar.obj
 0001:000adf40       ?SetButtons@CXTPCommandBar@@QAEHPAIH@Z 004aef40 f   ToolkitPro1501vc60S:XTPToolBar.obj
 0001:000ae150       ?GetTitle@CXTPCommandBar@@QBE?AVCString@@XZ 004af150 f i ToolkitPro1501vc60S:XTPToolBar.obj
 0001:000ae150       ?GetContextCaption@CXTPRibbonTab@@QBE?AVCString@@XZ 004af150 f i ToolkitPro1501vc60S:XTPToolBar.obj
 0001:000ae180       ??1XTP_COMMANDBARS_CREATECONTROL@@QAE@XZ 004af180 f i ToolkitPro1501vc60S:XTPToolBar.obj
 0001:000ae190       ?LoadToolBar@CXTPToolBar@@UAEHIH@Z 004af190 f   ToolkitPro1501vc60S:XTPToolBar.obj
 0001:000ae1d0       ?LoadToolBar@CXTPCommandBar@@UAEHIH@Z 004af1d0 f   ToolkitPro1501vc60S:XTPToolBar.obj
 0001:000ae320       ?SetPosition@CXTPToolBar@@UAEHW4XTPBarPosition@@@Z 004af320 f   ToolkitPro1501vc60S:XTPToolBar.obj
 0001:000ae370       ?GetMessageMap@CXTPToolBar@@MBEPBUAFX_MSGMAP@@XZ 004af370 f   ToolkitPro1501vc60S:XTPToolBar.obj
 0001:000ae380       ?OnSetCursor@CXTPToolBar@@IAEHPAVCWnd@@II@Z 004af380 f   ToolkitPro1501vc60S:XTPToolBar.obj
 0001:000ae500       ?OnToolHitTest@CXTPCommandBar@@UBEHVCPoint@@PAUtagTOOLINFOA@@@Z 004af500 f   ToolkitPro1501vc60S:XTPToolBar.obj
 0001:000ae840       ?OnRButtonDown@CXTPToolBar@@IAEXIVCPoint@@@Z 004af840 f   ToolkitPro1501vc60S:XTPToolBar.obj
 0001:000ae900       ?Create@CXTPToolBar@@MAEHPAVCWnd@@H@Z 004af900 f   ToolkitPro1501vc60S:XTPToolBar.obj
 0001:000aea60       ?GetBorders@CXTPToolBar@@MAE?AVCRect@@XZ 004afa60 f   ToolkitPro1501vc60S:XTPToolBar.obj
 0001:000aeb10       ?CalcDockingLayout@CXTPToolBar@@UAE?AVCSize@@HKH@Z 004afb10 f   ToolkitPro1501vc60S:XTPToolBar.obj
 0001:000aee60       ?GetCommandBar@CXTPControlPopup@@UBEPAVCXTPCommandBar@@XZ 004afe60 f i ToolkitPro1501vc60S:XTPToolBar.obj
 0001:000aee70       ?GetPopuped@CXTPControlPopup@@UBEHXZ 004afe70 f i ToolkitPro1501vc60S:XTPToolBar.obj
 0001:000aee80       ?SetRect@CControlButtonExpand@CXTPToolBar@@UAEXVCRect@@@Z 004afe80 f i ToolkitPro1501vc60S:XTPToolBar.obj
 0001:000aeec0       ?CalcDynamicLayout@CXTPToolBar@@UAE?AVCSize@@HK@Z 004afec0 f   ToolkitPro1501vc60S:XTPToolBar.obj
 0001:000af270       ?OnRecalcLayout@CXTPToolBar@@UAEXXZ 004b0270 f   ToolkitPro1501vc60S:XTPToolBar.obj
 0001:000af390       ?OnFloatStatus@CXTPToolBar@@IAEJIJ@Z 004b0390 f   ToolkitPro1501vc60S:XTPToolBar.obj
 0001:000af4a0       ?IsFloatingFrameFocused@CXTPToolBar@@ABEHXZ 004b04a0 f   ToolkitPro1501vc60S:XTPToolBar.obj
 0001:000af500       ?OnMouseActivate@CXTPToolBar@@IAEHPAVCWnd@@II@Z 004b0500 f   ToolkitPro1501vc60S:XTPToolBar.obj
 0001:000af540       ?OnNcActivate@CXTPPopupBar@@IAEHH@Z 004b0540 f   ToolkitPro1501vc60S:XTPToolBar.obj
 0001:000af540       ?OnNcActivate@CXTPToolBar@@IAEHH@Z 004b0540 f   ToolkitPro1501vc60S:XTPToolBar.obj
 0001:000af560       ?OnLButtonDown@CXTPToolBar@@IAEXIVCPoint@@@Z 004b0560 f   ToolkitPro1501vc60S:XTPToolBar.obj
 0001:000af600       ?OnLButtonDblClk@CXTPToolBar@@IAEXIVCPoint@@@Z 004b0600 f   ToolkitPro1501vc60S:XTPToolBar.obj
 0001:000af650       ?OnNcHitTest@CXTPToolBar@@IAEJVCPoint@@@Z 004b0650 f   ToolkitPro1501vc60S:XTPToolBar.obj
 0001:000af720       ?OnNcLButtonDown@CXTPToolBar@@IAEXIVCPoint@@@Z 004b0720 f   ToolkitPro1501vc60S:XTPToolBar.obj
 0001:000af7a0       ?IsWindowVisible@CXTPToolBar@@QBEHXZ 004b07a0 f   ToolkitPro1501vc60S:XTPToolBar.obj
 0001:000af800       ?SetVisible@CXTPToolBar@@UAEXH@Z 004b0800 f   ToolkitPro1501vc60S:XTPToolBar.obj
 0001:000af940       ?OnSizeParent@CXTPToolBar@@IAEJIJ@Z 004b0940 f   ToolkitPro1501vc60S:XTPToolBar.obj
 0001:000afa40       ?GetAutoIconSize@CXTPCommandBar@@IBE?AVCSize@@H@Z 004b0a40 f   ToolkitPro1501vc60S:XTPToolBar.obj
 0001:000afa70       ?GetIconSize@CXTPCommandBar@@UBE?AVCSize@@XZ 004b0a70 f   ToolkitPro1501vc60S:XTPToolBar.obj
 0001:000afb90       ?GetLargeIconSize@CXTPCommandBar@@QBE?AVCSize@@H@Z 004b0b90 f   ToolkitPro1501vc60S:XTPToolBar.obj
 0001:000afcb0       ?GetButtonSize@CXTPCommandBar@@UBE?AVCSize@@XZ 004b0cb0 f   ToolkitPro1501vc60S:XTPToolBar.obj
 0001:000afd10       ?IsTextBelowIcons@CXTPCommandBar@@QBEHXZ 004b0d10 f   ToolkitPro1501vc60S:XTPToolBar.obj
 0001:000afd30       ?_FindNearest@CXTPToolBar@@ABEHPAVCXTPControls@@PAVCXTPControl@@HH@Z 004b0d30 f   ToolkitPro1501vc60S:XTPToolBar.obj
 0001:000afd90       ?Reset@CXTPToolBar@@UAEXH@Z 004b0d90 f   ToolkitPro1501vc60S:XTPToolBar.obj
 0001:000affa0       ??1CXTPPushRoutingFrame@CXTPToolBar@@QAE@XZ 004b0fa0 f i ToolkitPro1501vc60S:XTPToolBar.obj
 0001:000affb0       ?BuildCustomizePopup@CXTPToolBar@@AAEXPAVCXTPCommandBar@@@Z 004b0fb0 f   ToolkitPro1501vc60S:XTPToolBar.obj
 0001:000b0450       ?OnExecute@CControlButtonCustomize@CXTPToolBar@@UAEXXZ 004b1450 f i ToolkitPro1501vc60S:XTPToolBar.obj
 0001:000b0510       ?OnSetPreviewMode@CXTPToolBar@@QAEXH@Z 004b1510 f   ToolkitPro1501vc60S:XTPToolBar.obj
 0001:000b05a0       ?Copy@CXTPToolBar@@MAEXPAVCXTPCommandBar@@H@Z 004b15a0 f   ToolkitPro1501vc60S:XTPToolBar.obj
 0001:000b05e0       ?OnHookKeyDown@CXTPToolBar@@UAEHIJ@Z 004b15e0 f   ToolkitPro1501vc60S:XTPToolBar.obj
 0001:000b0690       ?OnSetFocus@CXTPToolBar@@IAEXPAVCWnd@@@Z 004b1690 f   ToolkitPro1501vc60S:XTPToolBar.obj
 0001:000b06d0       ?ShouldSerializeBar@CXTPToolBar@@MAEHXZ 004b16d0 f   ToolkitPro1501vc60S:XTPToolBar.obj
 0001:000b0700       ??_ECXTPRibbonControlSystemButton@@WBM@AEPAXI@Z 004b1700 f i ToolkitPro1501vc60S:XTPToolBar.obj
 0001:000b0700       ??_ECControlQuickAccessMorePopup@CXTPRibbonBar@@WBM@AEPAXI@Z 004b1700 f i ToolkitPro1501vc60S:XTPToolBar.obj
 0001:000b0700       ??_ECXTPRibbonBarControlQuickAccessPopup@@WBM@AEPAXI@Z 004b1700 f i ToolkitPro1501vc60S:XTPToolBar.obj
 0001:000b0700       ??_ECControlCaptionPopup@CXTPDialogBar@@WBM@AEPAXI@Z 004b1700 f i ToolkitPro1501vc60S:XTPToolBar.obj
 0001:000b0700       ??_ECXTPRibbonGroupControlPopup@@WBM@AEPAXI@Z 004b1700 f i ToolkitPro1501vc60S:XTPToolBar.obj
 0001:000b0700       ??_ECControlButtonExpand@CXTPToolBar@@WBM@AEPAXI@Z 004b1700 f i ToolkitPro1501vc60S:XTPToolBar.obj
 0001:000b0710       ??_ECXTPToolBar@@WDM@AEPAXI@Z 004b1710 f i ToolkitPro1501vc60S:XTPToolBar.obj
 0001:000b0720       ??_ECXTPToolBar@@WEE@AEPAXI@Z 004b1720 f i ToolkitPro1501vc60S:XTPToolBar.obj
 0001:000b0730       ?GetRuntimeClass@CXTPProgressCtrl@@UBEPAUCRuntimeClass@@XZ 004b1730 f   ToolkitPro1501vc60S:XTPProgressCtrl.obj
 0001:000b0740       ??0CXTPProgressCtrl@@QAE@XZ 004b1740 f   ToolkitPro1501vc60S:XTPProgressCtrl.obj
 0001:000b07e0       ??_GCXTPProgressCtrl@@UAEPAXI@Z 004b17e0 f i ToolkitPro1501vc60S:XTPProgressCtrl.obj
 0001:000b07e0       ??_ECXTPProgressCtrl@@UAEPAXI@Z 004b17e0 f i ToolkitPro1501vc60S:XTPProgressCtrl.obj
 0001:000b0800       ??1CXTPProgressCtrl@@UAE@XZ 004b1800 f i ToolkitPro1501vc60S:XTPProgressCtrl.obj
 0001:000b0850       ?GetMessageMap@CXTPProgressCtrl@@MBEPBUAFX_MSGMAP@@XZ 004b1850 f   ToolkitPro1501vc60S:XTPProgressCtrl.obj
 0001:000b0860       ?Init@CXTPProgressCtrl@@IAEXXZ 004b1860 f   ToolkitPro1501vc60S:XTPProgressCtrl.obj
 0001:000b08d0       ?PreSubclassWindow@CXTPProgressCtrl@@MAEXXZ 004b18d0 f   ToolkitPro1501vc60S:XTPProgressCtrl.obj
 0001:000b08f0       ?OnCreate@CXTPProgressCtrl@@IAEHPAUtagCREATESTRUCTA@@@Z 004b18f0 f   ToolkitPro1501vc60S:XTPProgressCtrl.obj
 0001:000b0910       ?RefreshMetrics@CXTPProgressCtrl@@IAEXXZ 004b1910 f   ToolkitPro1501vc60S:XTPProgressCtrl.obj
 0001:000b09d0       ?GetBackColor@CXTPProgressCtrl@@IAEKXZ 004b19d0 f   ToolkitPro1501vc60S:XTPProgressCtrl.obj
 0001:000b09f0       ?DrawNcBorders@CXTPProgressCtrl@@IAEXPAVCDC@@VCRect@@@Z 004b19f0 f   ToolkitPro1501vc60S:XTPProgressCtrl.obj
 0001:000b0ab0       ?OnSysColorChange@CXTPProgressCtrl@@IAEXXZ 004b1ab0 f   ToolkitPro1501vc60S:XTPProgressCtrl.obj
 0001:000b0ad0       ?SetTextColor@CXTPProgressCtrl@@QAEKK@Z 004b1ad0 f   ToolkitPro1501vc60S:XTPProgressCtrl.obj
 0001:000b0b00       ?DoPaint@CXTPProgressCtrl@@IAEXPAVCDC@@@Z 004b1b00 f   ToolkitPro1501vc60S:XTPProgressCtrl.obj
 0001:000b10b0       ?OnEraseBkgnd@CXTPProgressCtrl@@IAEHPAVCDC@@@Z 004b20b0 f   ToolkitPro1501vc60S:XTPProgressCtrl.obj
 0001:000b10f0       ?OnPaint@CXTPProgressCtrl@@IAEXXZ 004b20f0 f   ToolkitPro1501vc60S:XTPProgressCtrl.obj
 0001:000b11c0       ?PaintOffice2007@CXTPProgressCtrl@@IAEXPAVCDC@@@Z 004b21c0 f   ToolkitPro1501vc60S:XTPProgressCtrl.obj
 0001:000b1420       ?OnStartMarquee@CXTPProgressCtrl@@IAEJIJ@Z 004b2420 f   ToolkitPro1501vc60S:XTPProgressCtrl.obj
 0001:000b14d0       ?DoStep@CXTPProgressCtrl@@IAEXH@Z 004b24d0 f   ToolkitPro1501vc60S:XTPProgressCtrl.obj
 0001:000b1550       ?OnTimer@CXTPProgressCtrl@@IAEXI@Z 004b2550 f   ToolkitPro1501vc60S:XTPProgressCtrl.obj
 0001:000b1590       ?OnStepIt@CXTPProgressCtrl@@IAEJIJ@Z 004b2590 f   ToolkitPro1501vc60S:XTPProgressCtrl.obj
 0001:000b15f0       ?OnSetPos@CXTPProgressCtrl@@IAEJIJ@Z 004b25f0 f   ToolkitPro1501vc60S:XTPProgressCtrl.obj
 0001:000b1610       ?SetTheme@CXTPProgressCtrl@@QAEXW4XTPControlTheme@@@Z 004b2610 f   ToolkitPro1501vc60S:XTPProgressCtrl.obj
 0001:000b1650       ?GetRuntimeClass@CXTPControlAction@@UBEPAUCRuntimeClass@@XZ 004b2650 f   ToolkitPro1501vc60S:XTPControl.obj
 0001:000b1660       ??0CXTPControlAction@@IAE@PAVCXTPControlActions@@@Z 004b2660 f   ToolkitPro1501vc60S:XTPControl.obj
 0001:000b1700       ??_GCXTPControlAction@@MAEPAXI@Z 004b2700 f i ToolkitPro1501vc60S:XTPControl.obj
 0001:000b1700       ??_ECXTPControlAction@@MAEPAXI@Z 004b2700 f i ToolkitPro1501vc60S:XTPControl.obj
 0001:000b1720       ??1CXTPControlAction@@MAE@XZ 004b2720 f   ToolkitPro1501vc60S:XTPControl.obj
 0001:000b1810       ?AddControl@CXTPControlAction@@IAEXPAVCXTPControl@@@Z 004b2810 f   ToolkitPro1501vc60S:XTPControl.obj
 0001:000b19c0       ?RemoveControl@CXTPControlAction@@IAEXPAVCXTPControl@@@Z 004b29c0 f   ToolkitPro1501vc60S:XTPControl.obj
 0001:000b1a30       ?OnChanged@CXTPControlAction@@IAEXH@Z 004b2a30 f   ToolkitPro1501vc60S:XTPControl.obj
 0001:000b1a60       ?OnChanging@CXTPControlAction@@IAEXH@Z 004b2a60 f   ToolkitPro1501vc60S:XTPControl.obj
 0001:000b1a90       ?RepositionControls@CXTPControlAction@@QAEXXZ 004b2a90 f   ToolkitPro1501vc60S:XTPControl.obj
 0001:000b1ac0       ?OnRemoved@CXTPControlAction@@IAEXXZ 004b2ac0 f   ToolkitPro1501vc60S:XTPControl.obj
 0001:000b1af0       ?SetCaption@CXTPControlAction@@QAEXPBD@Z 004b2af0 f   ToolkitPro1501vc60S:XTPControl.obj
 0001:000b1ba0       ?SetPrompt@CXTPControlAction@@QAEXPBD@Z 004b2ba0 f   ToolkitPro1501vc60S:XTPControl.obj
 0001:000b1c30       ?GetEnabled@CXTPControlAction@@QBEHXZ 004b2c30 f   ToolkitPro1501vc60S:XTPControl.obj
 0001:000b1c50       ?GetCommandBars@CXTPControlAction@@QBEPAVCXTPCommandBars@@XZ 004b2c50 f   ToolkitPro1501vc60S:XTPControl.obj
 0001:000b1c60       ??0CXTPControlActions@@IAE@PAVCXTPCommandBars@@@Z 004b2c60 f   ToolkitPro1501vc60S:XTPControl.obj
 0001:000b1c90       ??_ECXTPControlActions@@MAEPAXI@Z 004b2c90 f i ToolkitPro1501vc60S:XTPControl.obj
 0001:000b1c90       ??_GCXTPControlActions@@MAEPAXI@Z 004b2c90 f i ToolkitPro1501vc60S:XTPControl.obj
 0001:000b1cb0       ??1CXTPControlActions@@MAE@XZ 004b2cb0 f   ToolkitPro1501vc60S:XTPControl.obj
 0001:000b1d30       ?GetAt@CXTPControlActions@@QBEPAVCXTPControlAction@@H@Z 004b2d30 f   ToolkitPro1501vc60S:XTPControl.obj
 0001:000b1d40       ?GetCount@CXTPControlActions@@QBEHXZ 004b2d40 f   ToolkitPro1501vc60S:XTPControl.obj
 0001:000b1d40       ?GetDrawStyle@CXTPHeaderCtrlTheme@@UBEKXZ 004b2d40 f   ToolkitPro1501vc60S:XTPControl.obj
 0001:000b1d40       ?GetWidth@CXTPImageManagerIcon@@QBEHXZ 004b2d40 f   ToolkitPro1501vc60S:XTPControl.obj
 0001:000b1d40       ?GetStyle@CXTPStatusBarPane@@QBEIXZ 004b2d40 f   ToolkitPro1501vc60S:XTPControl.obj
 0001:000b1d50       ?FindAction@CXTPControlActions@@QBEPAVCXTPControlAction@@H@Z 004b2d50 f   ToolkitPro1501vc60S:XTPControl.obj
 0001:000b1de0       ?RemoveAll@CXTPControlActions@@QAEXXZ 004b2de0 f   ToolkitPro1501vc60S:XTPControl.obj
 0001:000b1e40       ?Insert@CXTPControlActions@@IAEXPAVCXTPControlAction@@@Z 004b2e40 f   ToolkitPro1501vc60S:XTPControl.obj
 0001:000b2010       ?SetActionId@CXTPControlActions@@IAEXPAVCXTPControlAction@@H@Z 004b3010 f   ToolkitPro1501vc60S:XTPControl.obj
 0001:000b2020       ?Add@CXTPControlActions@@QAEPAVCXTPControlAction@@HPAV2@@Z 004b3020 f   ToolkitPro1501vc60S:XTPControl.obj
 0001:000b20b0       ?Add@CXTPControlActions@@QAEPAVCXTPControlAction@@H@Z 004b30b0 f   ToolkitPro1501vc60S:XTPControl.obj
 0001:000b2130       ??0CXTPControl@@IAE@XZ     004b3130 f   ToolkitPro1501vc60S:XTPControl.obj
 0001:000b2310       ?OnClick@CXTPControl@@UAEXHVCPoint@@@Z 004b3310 f i ToolkitPro1501vc60S:XTPControl.obj
 0001:000b2310       ?OnItemHandleChanged@CXTPTabManager@@MAEXPAVCXTPTabManagerItem@@PAUHWND__@@1@Z 004b3310 f i ToolkitPro1501vc60S:XTPControl.obj
 0001:000b2310       ?OnPopupRButtonUp@CXTPCommandBar@@UAEXPAV1@VCPoint@@@Z 004b3310 f i ToolkitPro1501vc60S:XTPControl.obj
 0001:000b2310       ?OnItemOrderChanged@CXTPTabManager@@MAEXPAVCXTPTabManagerItem@@HH@Z 004b3310 f i ToolkitPro1501vc60S:XTPControl.obj
 0001:000b2320       ?OnMouseMove@CXTPControl@@MAEXVCPoint@@@Z 004b3320 f i ToolkitPro1501vc60S:XTPControl.obj
 0001:000b2320       ?OnLButtonUp@CXTPControl@@MAEXVCPoint@@@Z 004b3320 f i ToolkitPro1501vc60S:XTPControl.obj
 0001:000b2320       ?GetText@CXTPControlComboBoxPopupBar@@UBEXHAAVCString@@@Z 004b3320 f i ToolkitPro1501vc60S:XTPControl.obj
 0001:000b2320       ?DrawSingleButton@CAppearanceSet@CXTPTabPaintManager@@UAEXPAVCDC@@PAVCXTPTabManagerItem@@@Z 004b3320 f i ToolkitPro1501vc60S:XTPControl.obj
 0001:000b2320       ?OnSwitchItem@CXTPTabManager@@MAEXPAVCXTPTabManagerItem@@0@Z 004b3320 f i ToolkitPro1501vc60S:XTPControl.obj
 0001:000b2330       ??_ECXTPControl@@MAEPAXI@Z 004b3330 f i ToolkitPro1501vc60S:XTPControl.obj
 0001:000b2330       ??_GCXTPControl@@MAEPAXI@Z 004b3330 f i ToolkitPro1501vc60S:XTPControl.obj
 0001:000b2350       ??1CDocTemplateMap@CXTPControl@@UAE@XZ 004b3350 f i ToolkitPro1501vc60S:XTPControl.obj
 0001:000b23d0       ??_ECDocTemplateMap@CXTPControl@@UAEPAXI@Z 004b33d0 f i ToolkitPro1501vc60S:XTPControl.obj
 0001:000b23d0       ??_GCDocTemplateMap@CXTPControl@@UAEPAXI@Z 004b33d0 f i ToolkitPro1501vc60S:XTPControl.obj
 0001:000b23f0       ??1CXTPControl@@MAE@XZ     004b33f0 f   ToolkitPro1501vc60S:XTPControl.obj
 0001:000b25b0       ?SetAction@CXTPControl@@UAEXPAVCXTPControlAction@@@Z 004b35b0 f   ToolkitPro1501vc60S:XTPControl.obj
 0001:000b25f0       ?OnRemoved@CXTPControl@@MAEXXZ 004b35f0 f   ToolkitPro1501vc60S:XTPControl.obj
 0001:000b2600       ?GetStyle@CXTPControl@@QBE?AW4XTPButtonStyle@@XZ 004b3600 f   ToolkitPro1501vc60S:XTPControl.obj
 0001:000b2630       ?GetSize@CXTPControl@@UAE?AVCSize@@PAVCDC@@@Z 004b3630 f   ToolkitPro1501vc60S:XTPControl.obj
 0001:000b2670       ?Draw@CXTPControl@@UAEXPAVCDC@@@Z 004b3670 f   ToolkitPro1501vc60S:XTPControl.obj
 0001:000b26a0       ?DelayLayoutParent@CXTPControl@@QAEXXZ 004b36a0 f   ToolkitPro1501vc60S:XTPControl.obj
 0001:000b26c0       ?RedrawParent@CXTPControl@@QAEXH@Z 004b36c0 f   ToolkitPro1501vc60S:XTPControl.obj
 0001:000b2720       ?OnSetSelected@CXTPControl@@MAEHH@Z 004b3720 f   ToolkitPro1501vc60S:XTPControl.obj
 0001:000b27a0       ?OnMouseHover@CXTPControl@@MAEXXZ 004b37a0 f   ToolkitPro1501vc60S:XTPControl.obj
 0001:000b27e0       ?SetPrompt@CXTPControl@@QAEXPBD@Z 004b37e0 f   ToolkitPro1501vc60S:XTPControl.obj
 0001:000b28b0       ?SetID@CXTPControl@@QAEXH@Z 004b38b0 f   ToolkitPro1501vc60S:XTPControl.obj
 0001:000b2930       ?OnActionChanged@CXTPControl@@MAEXH@Z 004b3930 f   ToolkitPro1501vc60S:XTPControl.obj
 0001:000b2950       ?SetCaption@CXTPControl@@QAEXI@Z 004b3950 f   ToolkitPro1501vc60S:XTPControl.obj
 0001:000b29c0       ?SetCaption@CXTPControl@@QAEXPBD@Z 004b39c0 f   ToolkitPro1501vc60S:XTPControl.obj
 0001:000b2ad0       ?ClickToolBarButton@CXTPControl@@IAEXVCRect@@@Z 004b3ad0 f   ToolkitPro1501vc60S:XTPControl.obj
 0001:000b2db0       ?NotifySite@CXTPControl@@QAEJI@Z 004b3db0 f   ToolkitPro1501vc60S:XTPControl.obj
 0001:000b2df0       ?NotifySite@CXTPControl@@QAEJIPAUNMXTPCONTROL@@@Z 004b3df0 f   ToolkitPro1501vc60S:XTPControl.obj
 0001:000b2e20       ?NotifySite@CXTPControl@@QAEJPAVCWnd@@IPAUNMXTPCONTROL@@@Z 004b3e20 f   ToolkitPro1501vc60S:XTPControl.obj
 0001:000b2ed0       ?NeedPressOnExecute@CXTPControl@@ABEHXZ 004b3ed0 f   ToolkitPro1501vc60S:XTPControl.obj
 0001:000b2ef0       ?OnExecute@CXTPControl@@UAEXXZ 004b3ef0 f   ToolkitPro1501vc60S:XTPControl.obj
 0001:000b30c0       ?IsCursorOver@CXTPControl@@QBEHXZ 004b40c0 f   ToolkitPro1501vc60S:XTPControl.obj
 0001:000b3100       ?Copy@CXTPControl@@UAEXPAV1@H@Z 004b4100 f   ToolkitPro1501vc60S:XTPControl.obj
 0001:000b32e0       ?Compare@CXTPControl@@UAEHPAV1@@Z 004b42e0 f   ToolkitPro1501vc60S:XTPControl.obj
 0001:000b34c0       ?CreateObject@CXTPControl@@SGPAVCObject@@XZ 004b44c0 f   ToolkitPro1501vc60S:XTPControl.obj
 0001:000b3520       ?GetRuntimeClass@CXTPControl@@UBEPAUCRuntimeClass@@XZ 004b4520 f   ToolkitPro1501vc60S:XTPControl.obj
 0001:000b3550       ?Clone@CXTPControl@@UAEPAV1@H@Z 004b4550 f   ToolkitPro1501vc60S:XTPControl.obj
 0001:000b3580       ?IsCustomizeMode@CXTPControl@@IBEHXZ 004b4580 f   ToolkitPro1501vc60S:XTPControl.obj
 0001:000b35a0       ?OnInvertTracker@CXTPControl@@AAEXPAVCDC@@VCRect@@@Z 004b45a0 f   ToolkitPro1501vc60S:XTPControl.obj
 0001:000b3660       ?OnCustomizeMouseMove@CXTPControl@@IAEXVCPoint@@@Z 004b4660 f   ToolkitPro1501vc60S:XTPControl.obj
 0001:000b36c0       ?CustomizeStartResize@CXTPControl@@MAEHVCPoint@@@Z 004b46c0 f   ToolkitPro1501vc60S:XTPControl.obj
 0001:000b3a90       ?CustomizeStartDrag@CXTPControl@@MAEXVCPoint@@@Z 004b4a90 f   ToolkitPro1501vc60S:XTPControl.obj
 0001:000b3c00       ?OnCustomizeDragOver@CXTPControl@@MAEXPAV1@VCPoint@@AAK@Z 004b4c00 f   ToolkitPro1501vc60S:XTPControl.obj
 0001:000b3c30       ?GetImageManager@CXTPControl@@QBEPAVCXTPImageManager@@XZ 004b4c30 f   ToolkitPro1501vc60S:XTPControl.obj
 0001:000b3c60       ?GetPaintManager@CXTPControl@@QBEPAVCXTPPaintManager@@XZ 004b4c60 f   ToolkitPro1501vc60S:XTPControl.obj
 0001:000b3cb0       ?GetImage@CXTPControl@@UBEPAVCXTPImageManagerIcon@@H@Z 004b4cb0 f   ToolkitPro1501vc60S:XTPControl.obj
 0001:000b3d20       ?SetExpanded@CXTPControl@@IAEXH@Z 004b4d20 f   ToolkitPro1501vc60S:XTPControl.obj
 0001:000b3d50       ?IsItemDefault@CXTPControl@@QBEHXZ 004b4d50 f   ToolkitPro1501vc60S:XTPControl.obj
 0001:000b3d60       ?SetItemDefault@CXTPControl@@QAEXH@Z 004b4d60 f   ToolkitPro1501vc60S:XTPControl.obj
 0001:000b3d80       ?SetFlags@CXTPControl@@QAEXK@Z 004b4d80 f   ToolkitPro1501vc60S:XTPControl.obj
 0001:000b3d90       ?GetFlags@CXTPControl@@QBEKXZ 004b4d90 f   ToolkitPro1501vc60S:XTPControl.obj
 0001:000b3da0       ?IsCustomizeMovable@CXTPControl@@UBEHXZ 004b4da0 f   ToolkitPro1501vc60S:XTPControl.obj
 0001:000b3df0       ?Copy@CDocTemplateMap@CXTPControl@@QAEXAAV12@@Z 004b4df0 f   ToolkitPro1501vc60S:XTPControl.obj
 0001:000b3fb0       ?OnLButtonDown@CXTPControl@@MAEXVCPoint@@@Z 004b4fb0 f   ToolkitPro1501vc60S:XTPControl.obj
 0001:000b3ff0       ?OnLButtonDblClk@CXTPControl@@MAEHVCPoint@@@Z 004b4ff0 f   ToolkitPro1501vc60S:XTPControl.obj
 0001:000b4010       ?Reset@CXTPControl@@QAEXXZ 004b5010 f   ToolkitPro1501vc60S:XTPControl.obj
 0001:000b4080       ?GetButtonSize@CXTPControl@@UBE?AVCSize@@XZ 004b5080 f   ToolkitPro1501vc60S:XTPControl.obj
 0001:000b40b0       ?GetIconSize@CXTPControl@@UBE?AVCSize@@XZ 004b50b0 f   ToolkitPro1501vc60S:XTPControl.obj
 0001:000b4110       ?GetEnabled@CXTPControl@@QBEHXZ 004b5110 f   ToolkitPro1501vc60S:XTPControl.obj
 0001:000b4150       ?OnUnderlineActivate@CXTPControl@@UAEXXZ 004b5150 f   ToolkitPro1501vc60S:XTPControl.obj
 0001:000b4160       ?IsCaptionVisible@CXTPControl@@UBEHXZ 004b5160 f   ToolkitPro1501vc60S:XTPControl.obj
 0001:000b4210       ?GetAccessible@CXTPControl@@MAEPAVCCmdTarget@@XZ 004b5210 f   ToolkitPro1501vc60S:XTPControl.obj
 0001:000b4220       ?GetAccessibleParent@CXTPControl@@MAEJPAPAUIDispatch@@@Z 004b5220 f   ToolkitPro1501vc60S:XTPControl.obj
 0001:000b4250       ?GetAccessibleChildCount@CXTPControl@@MAEJPAJ@Z 004b5250 f   ToolkitPro1501vc60S:XTPControl.obj
 0001:000b4280       ?GetAccessibleChild@CXTPControl@@MAEJUtagVARIANT@@PAPAUIDispatch@@@Z 004b5280 f   ToolkitPro1501vc60S:XTPControl.obj
 0001:000b42c0       ?GetAccessibleName@CXTPControl@@MAEJUtagVARIANT@@PAPAG@Z 004b52c0 f   ToolkitPro1501vc60S:XTPControl.obj
 0001:000b4430       ?GetShortcutText@CXTPControl@@QBE?AVCString@@XZ 004b5430 f i ToolkitPro1501vc60S:XTPControl.obj
 0001:000b4510       ?GetShortcutText@CXTPControlAction@@QBE?AVCString@@XZ 004b5510 f i ToolkitPro1501vc60S:XTPControl.obj
 0001:000b4510       ?GetURL@CXTPHyperLink@@UBE?AVCString@@XZ 004b5510 f i ToolkitPro1501vc60S:XTPControl.obj
 0001:000b4530       ?GetAccessibleKeyboardShortcut@CXTPControl@@MAEJUtagVARIANT@@PAPAG@Z 004b5530 f   ToolkitPro1501vc60S:XTPControl.obj
 0001:000b4610       ?GetAccessibleDescription@CXTPControl@@MAEJUtagVARIANT@@PAPAG@Z 004b5610 f   ToolkitPro1501vc60S:XTPControl.obj
 0001:000b46a0       ?GetAccessibleRole@CXTPControl@@MAEJUtagVARIANT@@PAU2@@Z 004b56a0 f   ToolkitPro1501vc60S:XTPControl.obj
 0001:000b4730       ?AccessibleSelect@CXTPControl@@MAEJJUtagVARIANT@@@Z 004b5730 f   ToolkitPro1501vc60S:XTPControl.obj
 0001:000b4790       ?GetAccessibleState@CXTPControl@@MAEJUtagVARIANT@@PAU2@@Z 004b5790 f   ToolkitPro1501vc60S:XTPControl.obj
 0001:000b4870       ?GetAccessibleDefaultAction@CXTPControl@@MAEJUtagVARIANT@@PAPAG@Z 004b5870 f   ToolkitPro1501vc60S:XTPControl.obj
 0001:000b48a0       ?AccessibleDoDefaultAction@CXTPControl@@MAEJUtagVARIANT@@@Z 004b58a0 f   ToolkitPro1501vc60S:XTPControl.obj
 0001:000b48e0       ?AccessibleLocation@CXTPControl@@MAEJPAJ000UtagVARIANT@@@Z 004b58e0 f   ToolkitPro1501vc60S:XTPControl.obj
 0001:000b49b0       ?AccessibleHitTest@CXTPControl@@MAEJJJPAUtagVARIANT@@@Z 004b59b0 f   ToolkitPro1501vc60S:XTPControl.obj
 0001:000b4a90       ?SetVisible@CXTPControl@@QAEXH@Z 004b5a90 f   ToolkitPro1501vc60S:XTPControl.obj
 0001:000b4ae0       ?OnCmdMsg@CXTPControl@@MAEHIHPAXPAUAFX_CMDHANDLERINFO@@@Z 004b5ae0 f   ToolkitPro1501vc60S:XTPControl.obj
 0001:000b4b20       ?GetInterfaceMap@CXTPControl@@MBEPBUAFX_INTERFACEMAP@@XZ 004b5b20 f   ToolkitPro1501vc60S:XTPControl.obj
 0001:000b4b30       ??1?$CArray@PAVCXTPControl@@PAV1@@@UAE@XZ 004b5b30 f i ToolkitPro1501vc60S:XTPControl.obj
 0001:000b4b80       ??1?$CArray@PAVCXTPControlAction@@PAV1@@@UAE@XZ 004b5b80 f i ToolkitPro1501vc60S:XTPControl.obj
 0001:000b4bd0       ??_G?$CArray@PAVCXTPControl@@PAV1@@@UAEPAXI@Z 004b5bd0 f i ToolkitPro1501vc60S:XTPControl.obj
 0001:000b4bd0       ??_E?$CArray@PAVCXTPControl@@PAV1@@@UAEPAXI@Z 004b5bd0 f i ToolkitPro1501vc60S:XTPControl.obj
 0001:000b4bf0       ??_E?$CArray@PAVCXTPControlAction@@PAV1@@@UAEPAXI@Z 004b5bf0 f i ToolkitPro1501vc60S:XTPControl.obj
 0001:000b4bf0       ??_G?$CArray@PAVCXTPControlAction@@PAV1@@@UAEPAXI@Z 004b5bf0 f i ToolkitPro1501vc60S:XTPControl.obj
 0001:000b4c10       ??_G?$CMap@IIHH@@UAEPAXI@Z 004b5c10 f i ToolkitPro1501vc60S:XTPControl.obj
 0001:000b4c10       ??_E?$CMap@IIHH@@UAEPAXI@Z 004b5c10 f i ToolkitPro1501vc60S:XTPControl.obj
 0001:000b4c30       ??1?$CMap@IIHH@@UAE@XZ     004b5c30 f i ToolkitPro1501vc60S:XTPControl.obj
 0001:000b4cb0       ??_ECXTPControl@@OBM@AEPAXI@Z 004b5cb0 f i ToolkitPro1501vc60S:XTPControl.obj
 0001:000b4cc0       ?CreateObject@CXTPControls@@SGPAVCObject@@XZ 004b5cc0 f   ToolkitPro1501vc60S:XTPControls.obj
 0001:000b4d20       ?GetRuntimeClass@CXTPControls@@UBEPAUCRuntimeClass@@XZ 004b5d20 f   ToolkitPro1501vc60S:XTPControls.obj
 0001:000b4d30       ?CreateObject@CXTPOriginalControls@@SGPAVCObject@@XZ 004b5d30 f   ToolkitPro1501vc60S:XTPControls.obj
 0001:000b4d90       ?GetRuntimeClass@CXTPOriginalControls@@UBEPAUCRuntimeClass@@XZ 004b5d90 f   ToolkitPro1501vc60S:XTPControls.obj
 0001:000b4da0       ??0CXTPControls@@QAE@XZ    004b5da0 f   ToolkitPro1501vc60S:XTPControls.obj
 0001:000b4e10       ??_ECXTPControls@@UAEPAXI@Z 004b5e10 f i ToolkitPro1501vc60S:XTPControls.obj
 0001:000b4e10       ??_GCXTPControls@@UAEPAXI@Z 004b5e10 f i ToolkitPro1501vc60S:XTPControls.obj
 0001:000b4e30       ??1CXTPControls@@UAE@XZ    004b5e30 f   ToolkitPro1501vc60S:XTPControls.obj
 0001:000b4ec0       ??0CXTPOriginalControls@@QAE@XZ 004b5ec0 f   ToolkitPro1501vc60S:XTPControls.obj
 0001:000b4ee0       ?GetCommandBars@CXTPControls@@QBEPAVCXTPCommandBars@@XZ 004b5ee0 f   ToolkitPro1501vc60S:XTPControls.obj
 0001:000b4f00       ?SetPropertySheet@CXTPPropertyPageNavigator@@MAEXPAVCXTPPropertySheet@@@Z 004b5f00 f   ToolkitPro1501vc60S:XTPControls.obj
 0001:000b4f00       ?SetCommandBars@CXTPControls@@QAEXPAVCXTPCommandBars@@@Z 004b5f00 f   ToolkitPro1501vc60S:XTPControls.obj
 0001:000b4f00       ?SetHandle@CXTPTabManagerItem@@QAEXPAUHWND__@@@Z 004b5f00 f   ToolkitPro1501vc60S:XTPControls.obj
 0001:000b4f10       ?RefreshIndexes@CXTPControls@@MAEXXZ 004b5f10 f   ToolkitPro1501vc60S:XTPControls.obj
 0001:000b4f60       ?SetParent@CXTPControls@@QAEXPAVCXTPCommandBar@@@Z 004b5f60 f   ToolkitPro1501vc60S:XTPControls.obj
 0001:000b4f80       ?AddMenuItem@CXTPControls@@QAEPAVCXTPControl@@PAVCMenu@@H@Z 004b5f80 f   ToolkitPro1501vc60S:XTPControls.obj
 0001:000b5740       ?OnControlAdded@CXTPControls@@MAEXPAVCXTPControl@@@Z 004b6740 f   ToolkitPro1501vc60S:XTPControls.obj
 0001:000b5750       ?OnControlRemoved@CXTPControls@@MAEXPAVCXTPControl@@@Z 004b6750 f   ToolkitPro1501vc60S:XTPControls.obj
 0001:000b5790       ?Add@CXTPControls@@QAEPAVCXTPControl@@W4XTPControlType@@HPBDHH@Z 004b6790 f   ToolkitPro1501vc60S:XTPControls.obj
 0001:000b5ad0       ?Add@CXTPControls@@QAEPAVCXTPControl@@PAV2@HPBDHH@Z 004b6ad0 f   ToolkitPro1501vc60S:XTPControls.obj
 0001:000b5bc0       ?InsertAt@CXTPControls@@QAEPAVCXTPControl@@PAV2@H@Z 004b6bc0 f   ToolkitPro1501vc60S:XTPControls.obj
 0001:000b5d90       ?Add@CXTPControls@@QAEPAVCXTPControl@@PAV2@@Z 004b6d90 f   ToolkitPro1501vc60S:XTPControls.obj
 0001:000b5da0       ?AddClone@CXTPControls@@QAEPAVCXTPControl@@PAV2@HH@Z 004b6da0 f   ToolkitPro1501vc60S:XTPControls.obj
 0001:000b5df0       ?RemoveAll@CXTPControls@@QAEXXZ 004b6df0 f   ToolkitPro1501vc60S:XTPControls.obj
 0001:000b5e70       ?FindControl@CXTPControls@@QBEPAVCXTPControl@@H@Z 004b6e70 f   ToolkitPro1501vc60S:XTPControls.obj
 0001:000b5e90       ?FindControl@CXTPControls@@QBEPAVCXTPControl@@W4XTPControlType@@HHH@Z 004b6e90 f   ToolkitPro1501vc60S:XTPControls.obj
 0001:000b5f40       ?OnBeforeRemove@CXTPShortcutManager@@UAEHPAVCXTPShortcutManagerAccel@@@Z 004b6f40 f   ToolkitPro1501vc60S:XTPControls.obj
 0001:000b5f40       ?OnControlRemoving@CXTPControls@@MAEHPAVCXTPControl@@@Z 004b6f40 f   ToolkitPro1501vc60S:XTPControls.obj
 0001:000b5f40       ?HideUI@XDocHostUIHandler@CHTMLToolTip@CXTPToolTipContext@@UAGJXZ 004b6f40 f   ToolkitPro1501vc60S:XTPControls.obj
 0001:000b5f40       ?GetLogicalChild@CXTPMarkupObject@@UBEPAV1@H@Z 004b6f40 f   ToolkitPro1501vc60S:XTPControls.obj
 0001:000b5f40       ?TxReleaseDC@XTextHost@CXTPRichRender@@UAEHPAUHDC__@@@Z 004b6f40 f   ToolkitPro1501vc60S:XTPControls.obj
 0001:000b5f40       ?OnBeforeAdd@CXTPShortcutManager@@UAEHPAVCXTPShortcutManagerAccel@@@Z 004b6f40 f   ToolkitPro1501vc60S:XTPControls.obj
 0001:000b5f40       ?TxShowCaret@XTextHost@CXTPRichRender@@UAEHH@Z 004b6f40 f   ToolkitPro1501vc60S:XTPControls.obj
 0001:000b5f40       ?GetVisualChild@CXTPMarkupVisual@@UBEPAV1@H@Z 004b6f40 f   ToolkitPro1501vc60S:XTPControls.obj
 0001:000b5f40       ?IsWordBreakPosition@CXTPMarkupInline@@UBEHPAU__POSITION@@@Z 004b6f40 f   ToolkitPro1501vc60S:XTPControls.obj
 0001:000b5f40       ?OnEraseBkgnd@CDigiStatic@@IAEHPAVCDC@@@Z 004b6f40 f   ToolkitPro1501vc60S:XTPControls.obj
 0001:000b5f40       ?TxClientToScreen@XTextHost@CXTPRichRender@@UAEHPAUtagPOINT@@@Z 004b6f40 f   ToolkitPro1501vc60S:XTPControls.obj
 0001:000b5f40       ?UpdateUI@XDocHostUIHandler@CHTMLToolTip@CXTPToolTipContext@@UAGJXZ 004b6f40 f   ToolkitPro1501vc60S:XTPControls.obj
 0001:000b5f40       ?TxScreenToClient@XTextHost@CXTPRichRender@@UAEHPAUtagPOINT@@@Z 004b6f40 f   ToolkitPro1501vc60S:XTPControls.obj
 0001:000b5f40       ?IsWhiteSpacePosition@CXTPMarkupInline@@UBEHPAU__POSITION@@@Z 004b6f40 f   ToolkitPro1501vc60S:XTPControls.obj
 0001:000b5f40       ?GetLayoutClip@CXTPMarkupVisual@@UBEHAAVCRect@@@Z 004b6f40 f   ToolkitPro1501vc60S:XTPControls.obj
 0001:000b5f40       ?IsLineBreakPosition@CXTPMarkupInline@@UBEHPAU__POSITION@@@Z 004b6f40 f   ToolkitPro1501vc60S:XTPControls.obj
 0001:000b5f40       ?IsCaretReturnPosition@CXTPMarkupInline@@UBEHPAU__POSITION@@@Z 004b6f40 f   ToolkitPro1501vc60S:XTPControls.obj
 0001:000b5f50       ?Remove@CXTPControls@@UAEXPAVCXTPControl@@@Z 004b6f50 f   ToolkitPro1501vc60S:XTPControls.obj
 0001:000b5ff0       ?Remove@CXTPControls@@QAEXH@Z 004b6ff0 f   ToolkitPro1501vc60S:XTPControls.obj
 0001:000b6020       ?SetControlType@CXTPControls@@QAEPAVCXTPControl@@HW4XTPControlType@@@Z 004b7020 f   ToolkitPro1501vc60S:XTPControls.obj
 0001:000b6060       ?SetControlType@CXTPControls@@QAEPAVCXTPControl@@PAV2@W4XTPControlType@@@Z 004b7060 f   ToolkitPro1501vc60S:XTPControls.obj
 0001:000b60e0       ?GetNext@CXTPControls@@QBEJJHHHH@Z 004b70e0 f   ToolkitPro1501vc60S:XTPControls.obj
 0001:000b61f0       ?HitTest@CXTPControls@@QBEPAVCXTPControl@@VCPoint@@@Z 004b71f0 f   ToolkitPro1501vc60S:XTPControls.obj
 0001:000b6260       ?_CalcSize@CXTPControls@@IAE?AVCSize@@PAUXTPBUTTONINFO@1@H@Z 004b7260 f   ToolkitPro1501vc60S:XTPControls.obj
 0001:000b6410       ?_WrapToolBar@CXTPControls@@IAEHPAUXTPBUTTONINFO@1@HAAK@Z 004b7410 f   ToolkitPro1501vc60S:XTPControls.obj
 0001:000b6620       ?_SizePopupToolBar@CXTPControls@@IAEXPAUXTPBUTTONINFO@1@K@Z 004b7620 f   ToolkitPro1501vc60S:XTPControls.obj
 0001:000b66e0       ?_SizeFloatableBar@CXTPControls@@IAEXPAUXTPBUTTONINFO@1@HK@Z 004b76e0 f   ToolkitPro1501vc60S:XTPControls.obj
 0001:000b6880       ?_CenterControlsInRow@CXTPControls@@IAEXPAUXTPBUTTONINFO@1@HHHHVCSize@@VCRect@@@Z 004b7880 f   ToolkitPro1501vc60S:XTPControls.obj
 0001:000b6980       ?_AdjustBorders@CXTPControls@@IAEXPAUXTPBUTTONINFO@1@AAVCSize@@KVCRect@@@Z 004b7980 f   ToolkitPro1501vc60S:XTPControls.obj
 0001:000b6b10       ?_MoveRightAlligned@CXTPControls@@IAEXPAUXTPBUTTONINFO@1@VCSize@@VCRect@@K@Z 004b7b10 f   ToolkitPro1501vc60S:XTPControls.obj
 0001:000b6e60       ?GetVisibleCount@CXTPControls@@QBEHH@Z 004b7e60 f   ToolkitPro1501vc60S:XTPControls.obj
 0001:000b6eb0       ?GetVisibleAt@CXTPControls@@QBEPAVCXTPControl@@HH@Z 004b7eb0 f   ToolkitPro1501vc60S:XTPControls.obj
 0001:000b6f20       ?_ReduceSmartLayoutToolBar@CXTPControls@@IAE?AVCSize@@PAVCDC@@PAUXTPBUTTONINFO@1@HAAK@Z 004b7f20 f   ToolkitPro1501vc60S:XTPControls.obj
 0001:000b73c0       ?_CalcSmartLayoutToolBar@CXTPControls@@IAE?AVCSize@@PAVCDC@@PAUXTPBUTTONINFO@1@AAK@Z 004b83c0 f   ToolkitPro1501vc60S:XTPControls.obj
 0001:000b7600       ?_WrapSmartLayoutToolBar@CXTPControls@@IAE?AVCSize@@PAVCDC@@PAUXTPBUTTONINFO@1@HAAK@Z 004b8600 f   ToolkitPro1501vc60S:XTPControls.obj
 0001:000b77b0       ?CalcDynamicSize@CXTPControls@@QAE?AVCSize@@PAVCDC@@HKABVCRect@@H@Z 004b87b0 f   ToolkitPro1501vc60S:XTPControls.obj
 0001:000b7c90       ?_MakeSameWidth@CXTPControls@@IAEXHHH@Z 004b8c90 f   ToolkitPro1501vc60S:XTPControls.obj
 0001:000b7d40       ?CalcPopupSize@CXTPControls@@QAE?AVCSize@@PAVCDC@@HHABVCRect@@@Z 004b8d40 f   ToolkitPro1501vc60S:XTPControls.obj
 0001:000b8120       ?Copy@CXTPControls@@UAEXPAV1@H@Z 004b9120 f   ToolkitPro1501vc60S:XTPControls.obj
 0001:000b81b0       ?Duplicate@CXTPControls@@QAEPAV1@H@Z 004b91b0 f   ToolkitPro1501vc60S:XTPControls.obj
 0001:000b8230       ?ClearOriginalControls@CXTPControls@@QAEXXZ 004b9230 f   ToolkitPro1501vc60S:XTPControls.obj
 0001:000b8250       ?CreateOriginalControls@CXTPControls@@QAEXXZ 004b9250 f   ToolkitPro1501vc60S:XTPControls.obj
 0001:000b8310       ?SetOriginalControls@CXTPControls@@QAEXPAVCXTPOriginalControls@@@Z 004b9310 f   ToolkitPro1501vc60S:XTPControls.obj
 0001:000b8330       ?Compare@CXTPControls@@QAEHPBV1@@Z 004b9330 f   ToolkitPro1501vc60S:XTPControls.obj
 0001:000b83f0       ?IsChanged@CXTPControls@@QBEHXZ 004b93f0 f   ToolkitPro1501vc60S:XTPControls.obj
 0001:000b8410       ?CompareByCaption@CXTPControls@@KAHPAPBVCXTPControl@@0@Z 004b9410 f   ToolkitPro1501vc60S:XTPControls.obj
 0001:000b84c0       ?Sort@CXTPControls@@QAEXXZ 004b94c0 f   ToolkitPro1501vc60S:XTPControls.obj
 0001:000b8550       ?BitmapsCompatible@CXTPImageManager@@ABEHPAUtagBITMAP@@0@Z 004b9550 f   ToolkitPro1501vc60S:XTPImageManager.obj
 0001:000b85a0       ?McTransparentBlt@CXTPImageManager@@ABEHPAUHDC__@@HHHH0HHHHI@Z 004b95a0 f   ToolkitPro1501vc60S:XTPImageManager.obj
 0001:000b8840       ?IsWindow2000@CXTPImageManager@@ABEHXZ 004b9840 f   ToolkitPro1501vc60S:XTPImageManager.obj
 0001:000b8860       ?TransparentBlt@CXTPImageManager@@QBEHPAUHDC__@@ABVCRect@@01I@Z 004b9860 f   ToolkitPro1501vc60S:XTPImageManager.obj
 0001:000b8930       ?BlendImages@CXTPImageManager@@ABEHPAUHBITMAP__@@H0H0@Z 004b9930 f   ToolkitPro1501vc60S:XTPImageManager.obj
 0001:000b8b70       ?Create32BPPDIBSection@CXTPImageManager@@SAPAUHBITMAP__@@PAUHDC__@@HHPAPAE@Z 004b9b70 f   ToolkitPro1501vc60S:XTPImageManager.obj
 0001:000b8be0       ?DoAlphaBlend@CXTPImageManager@@ABEHPAUHDC__@@HHHH0HHHH@Z 004b9be0 f   ToolkitPro1501vc60S:XTPImageManager.obj
 0001:000b8e20       ?AlphaBlend@CXTPImageManager@@QBEHPAUHDC__@@ABVCRect@@01@Z 004b9e20 f   ToolkitPro1501vc60S:XTPImageManager.obj
 0001:000b8f70       ??1CXTPImageManagerImageList@@QAE@XZ 004b9f70 f   ToolkitPro1501vc60S:XTPImageManager.obj
 0001:000b9020       ?RemoveAll@CXTPImageManagerImageList@@QAEXXZ 004ba020 f   ToolkitPro1501vc60S:XTPImageManager.obj
 0001:000b90d0       ?Lookup@CXTPImageManagerImageList@@QAEHI@Z 004ba0d0 f   ToolkitPro1501vc60S:XTPImageManager.obj
 0001:000b9100       ?GetIconSize@CXTPImageManagerImageList@@QBE?AVCSize@@XZ 004ba100 f   ToolkitPro1501vc60S:XTPImageManager.obj
 0001:000b9140       ?GetIcon@CXTPImageManagerImageList@@QAEPAVCXTPImageManagerIcon@@I@Z 004ba140 f   ToolkitPro1501vc60S:XTPImageManager.obj
 0001:000b92e0       ?Draw@CXTPImageManagerImageList@@QAEXPAVCDC@@VCPoint@@PAVCXTPImageManagerIcon@@VCSize@@KKI@Z 004ba2e0 f   ToolkitPro1501vc60S:XTPImageManager.obj
 0001:000b9340       ?IsAlphaBitmapFile@CXTPImageManagerIcon@@SAHPBD@Z 004ba340 f   ToolkitPro1501vc60S:XTPImageManager.obj
 0001:000b93e0       ?IsPngBitmapFile@CXTPImageManagerIcon@@SAHPBD@Z 004ba3e0 f   ToolkitPro1501vc60S:XTPImageManager.obj
 0001:000b9480       ?LoadBitmapFromFile@CXTPImageManagerIcon@@SAPAUHBITMAP__@@PBDPAH@Z 004ba480 f   ToolkitPro1501vc60S:XTPImageManager.obj
 0001:000b9720       ??1CXTPGraphicBitmapPng@@UAE@XZ 004ba720 f i ToolkitPro1501vc60S:XTPImageManager.obj
 0001:000b9760       ?IsPngBitmapResource@CXTPImageManagerIcon@@SAHPAUHINSTANCE__@@PBD@Z 004ba760 f   ToolkitPro1501vc60S:XTPImageManager.obj
 0001:000b97c0       ?IsAlphaBitmapResource@CXTPImageManagerIcon@@SAHPAUHINSTANCE__@@PBD@Z 004ba7c0 f   ToolkitPro1501vc60S:XTPImageManager.obj
 0001:000b9810       ?LoadBitmapFromResource@CXTPImageManagerIcon@@SAPAUHBITMAP__@@PBDPAH@Z 004ba810 f   ToolkitPro1501vc60S:XTPImageManager.obj
 0001:000b9970       ?LoadBitmapFromResource@CXTPImageManagerIcon@@SAPAUHBITMAP__@@PAUHINSTANCE__@@PBDPAH@Z 004ba970 f   ToolkitPro1501vc60S:XTPImageManager.obj
 0001:000b9ac0       ?LoadAlphaBitmap@CXTPImageManagerIcon@@SAPAUHBITMAP__@@I@Z 004baac0 f   ToolkitPro1501vc60S:XTPImageManager.obj
 0001:000b9ae0       ?LoadAlphaBitmap@CXTPImageManagerIcon@@SAPAUHBITMAP__@@PAUHINSTANCE__@@PBD@Z 004baae0 f   ToolkitPro1501vc60S:XTPImageManager.obj
 0001:000b9c90       ?LoadAlphaIcon@CXTPImageManagerIcon@@SAPAUHBITMAP__@@PBDH@Z 004bac90 f   ToolkitPro1501vc60S:XTPImageManager.obj
 0001:000b9f40       ?SetIconFromIcoFile@CXTPImageManager@@QAEHPBDIVCSize@@W4XTPImageState@@@Z 004baf40 f   ToolkitPro1501vc60S:XTPImageManager.obj
 0001:000ba2b0       ??0CXTPImageManagerResource@@QAE@PAVCXTPImageManager@@VCSize@@@Z 004bb2b0 f   ToolkitPro1501vc60S:XTPImageManager.obj
 0001:000ba380       ??1CBitmapDC@CXTPImageManagerResource@@UAE@XZ 004bb380 f i ToolkitPro1501vc60S:XTPImageManager.obj
 0001:000ba3c0       ??_ECBitmapDC@CXTPImageManagerResource@@UAEPAXI@Z 004bb3c0 f i ToolkitPro1501vc60S:XTPImageManager.obj
 0001:000ba3c0       ??_GCBitmapDC@CXTPImageManagerResource@@UAEPAXI@Z 004bb3c0 f i ToolkitPro1501vc60S:XTPImageManager.obj
 0001:000ba3e0       ??1CXTPImageManagerResource@@QAE@XZ 004bb3e0 f   ToolkitPro1501vc60S:XTPImageManager.obj
 0001:000ba4a0       ?RemoveAll@CXTPImageManagerResource@@AAEXXZ 004bb4a0 f   ToolkitPro1501vc60S:XTPImageManager.obj
 0001:000ba540       ?GetResource@CXTPImageManager@@QAEPAVCXTPImageManagerResource@@VCSize@@@Z 004bb540 f   ToolkitPro1501vc60S:XTPImageManager.obj
 0001:000ba6d0       ?AllocBitmap@CXTPImageManagerResource@@AAEPAUXTP_IMAGERESOURCE_INFO@@XZ 004bb6d0 f   ToolkitPro1501vc60S:XTPImageManager.obj
 0001:000baa80       ?Clear@CXTPImageManagerResource@@QAEXPAUXTP_IMAGERESOURCE_INFO@@@Z 004bba80 f   ToolkitPro1501vc60S:XTPImageManager.obj
 0001:000bab50       ?IsAlphaIconHandle@CXTPImageManagerIcon@@SAHPAUHICON__@@@Z 004bbb50 f   ToolkitPro1501vc60S:XTPImageManager.obj
 0001:000bac00       ?Add@CXTPImageManagerResource@@QAEPAUXTP_IMAGERESOURCE_INFO@@ABVCXTPImageManagerIconHandle@@@Z 004bbc00 f   ToolkitPro1501vc60S:XTPImageManager.obj
 0001:000baf60       ?IsDrawReverted@CXTPImageManager@@QBEHPAVCDC@@@Z 004bbf60 f   ToolkitPro1501vc60S:XTPImageManager.obj
 0001:000baf90       ?CreateIcon@CXTPImageManagerResource@@QAEXAAVCXTPImageManagerIconHandle@@PAUXTP_IMAGERESOURCE_INFO@@@Z 004bbf90 f   ToolkitPro1501vc60S:XTPImageManager.obj
 0001:000bb1c0       ?DrawIconComposited@CXTPImageManagerResource@@AAEXPAVCDC@@PAUXTP_IMAGERESOURCE_INFO@@VCPoint@@VCSize@@@Z 004bc1c0 f   ToolkitPro1501vc60S:XTPImageManager.obj
 0001:000bb440       ?Draw@CXTPImageManagerResource@@QAEXPAVCDC@@PAUXTP_IMAGERESOURCE_INFO@@VCPoint@@VCSize@@H@Z 004bc440 f   ToolkitPro1501vc60S:XTPImageManager.obj
 0001:000bb750       ?GetExtent@CXTPImageManagerResource@@QBE?AVCSize@@XZ 004bc750 f   ToolkitPro1501vc60S:XTPImageManager.obj
 0001:000bb770       ?Init@CXTPImageManagerIconHandle@@IAEXXZ 004bc770 f   ToolkitPro1501vc60S:XTPImageManager.obj
 0001:000bb7a0       ??0CXTPImageManagerIconHandle@@QAE@XZ 004bc7a0 f   ToolkitPro1501vc60S:XTPImageManager.obj
 0001:000bb7b0       ??0CXTPImageManagerIconHandle@@QAE@PAUHICON__@@H@Z 004bc7b0 f   ToolkitPro1501vc60S:XTPImageManager.obj
 0001:000bb7f0       ??0CXTPImageManagerIconHandle@@QAE@PAUHBITMAP__@@@Z 004bc7f0 f   ToolkitPro1501vc60S:XTPImageManager.obj
 0001:000bb830       ?CopyHandle@CXTPImageManagerIconHandle@@QAEXPAUHBITMAP__@@@Z 004bc830 f   ToolkitPro1501vc60S:XTPImageManager.obj
 0001:000bb880       ?CopyHandle@CXTPImageManagerIconHandle@@QAEXABV1@@Z 004bc880 f   ToolkitPro1501vc60S:XTPImageManager.obj
 0001:000bb9c0       ??4CXTPImageManagerIconHandle@@QAEABV0@QAUHICON__@@@Z 004bc9c0 f   ToolkitPro1501vc60S:XTPImageManager.obj
 0001:000bba00       ??4CXTPImageManagerIconHandle@@QAEABV0@QAUHBITMAP__@@@Z 004bca00 f   ToolkitPro1501vc60S:XTPImageManager.obj
 0001:000bba40       ??1CXTPImageManagerIconHandle@@QAE@XZ 004bca40 f   ToolkitPro1501vc60S:XTPImageManager.obj
 0001:000bba50       ?IsEmpty@CXTPImageManagerIconHandle@@QBEHXZ 004bca50 f   ToolkitPro1501vc60S:XTPImageManager.obj
 0001:000bba80       ?IsAlpha@CXTPImageManagerIconHandle@@QBEHXZ 004bca80 f   ToolkitPro1501vc60S:XTPImageManager.obj
 0001:000bbaa0       ?GetBitmap@CXTPImageManagerIconHandle@@QBEPAUHBITMAP__@@XZ 004bcaa0 f   ToolkitPro1501vc60S:XTPImageManager.obj
 0001:000bbac0       ??BCXTPA2W@CXTPResourceManager@@QBEPBGXZ 004bcac0 f   ToolkitPro1501vc60S:XTPImageManager.obj
 0001:000bbac0       ??CCXTPMarkupAutoPtr@@QBEPAVCXTPMarkupObject@@XZ 004bcac0 f   ToolkitPro1501vc60S:XTPImageManager.obj
 0001:000bbac0       ?GetIcon@CXTPImageManagerIconHandle@@QBEPAUHICON__@@XZ 004bcac0 f   ToolkitPro1501vc60S:XTPImageManager.obj
 0001:000bbad0       ?Clear@CXTPImageManagerIconHandle@@QAEXXZ 004bcad0 f   ToolkitPro1501vc60S:XTPImageManager.obj
 0001:000bbb20       ?GetExtent@CXTPImageManagerIconHandle@@QBE?AVCSize@@XZ 004bcb20 f   ToolkitPro1501vc60S:XTPImageManager.obj
 0001:000bbb40       ?_GetExtent@CXTPImageManagerIconHandle@@ABE?AVCSize@@XZ 004bcb40 f   ToolkitPro1501vc60S:XTPImageManager.obj
 0001:000bbbe0       ?Draw@CXTPImageManagerIconHandle@@QAEXPAVCDC@@VCPoint@@VCSize@@H@Z 004bcbe0 f   ToolkitPro1501vc60S:XTPImageManager.obj
 0001:000bbd50       ?CreateIconFromResource@CXTPImageManagerIconHandle@@QAEHPBDVCSize@@H@Z 004bcd50 f   ToolkitPro1501vc60S:XTPImageManager.obj
 0001:000bbdc0       ?CreateIconFromResource@CXTPImageManagerIconHandle@@QAEHPAUHINSTANCE__@@PBDVCSize@@H@Z 004bcdc0 f   ToolkitPro1501vc60S:XTPImageManager.obj
 0001:000bc020       ?PreMultiply@CXTPImageManagerIconHandle@@QAEPAEXZ 004bd020 f   ToolkitPro1501vc60S:XTPImageManager.obj
 0001:000bc0a0       ?IsAlpha@CXTPImageManagerIcon@@QBEHXZ 004bd0a0 f   ToolkitPro1501vc60S:XTPImageManager.obj
 0001:000bc0b0       ?PreMultiplyAlphaBitmap@CXTPImageManagerIcon@@SAPAUHBITMAP__@@PAU2@PAHPAPAE@Z 004bd0b0 f   ToolkitPro1501vc60S:XTPImageManager.obj
 0001:000bc300       ?GetBitmapBits@CXTPImageManagerIcon@@SAHAAVCDC@@PAUHBITMAP__@@AAPAUtagBITMAPINFO@@AAPAXAAI@Z 004bd300 f   ToolkitPro1501vc60S:XTPImageManager.obj
 0001:000bc450       ?CopyAlphaBitmap@CXTPImageManagerIcon@@SAPAUHBITMAP__@@PAU2@PAPAE@Z 004bd450 f   ToolkitPro1501vc60S:XTPImageManager.obj
 0001:000bc590       ??0CXTPImageManagerIcon@@QAE@IHHPAVCXTPImageManagerIconSet@@@Z 004bd590 f   ToolkitPro1501vc60S:XTPImageManager.obj
 0001:000bc670       ??_GCXTPImageManagerIcon@@UAEPAXI@Z 004bd670 f i ToolkitPro1501vc60S:XTPImageManager.obj
 0001:000bc670       ??_ECXTPImageManagerIcon@@UAEPAXI@Z 004bd670 f i ToolkitPro1501vc60S:XTPImageManager.obj
 0001:000bc690       ??0CXTPImageManagerIcon@@QAE@IHHPAVCXTPImageManagerImageList@@@Z 004bd690 f   ToolkitPro1501vc60S:XTPImageManager.obj
 0001:000bc720       ??1CXTPImageManagerIcon@@UAE@XZ 004bd720 f   ToolkitPro1501vc60S:XTPImageManager.obj
 0001:000bc7f0       ?GetID@CXTPImageManagerIcon@@QBEIXZ 004bd7f0 f   ToolkitPro1501vc60S:XTPImageManager.obj
 0001:000bc7f0       ?GetIndex@CXTPControlGalleryItem@@QBEHXZ 004bd7f0 f   ToolkitPro1501vc60S:XTPImageManager.obj
 0001:000bc800       ?GetHeight@CXTPImageManagerIcon@@QBEHXZ 004bd800 f   ToolkitPro1501vc60S:XTPImageManager.obj
 0001:000bc800       ?GetCount@CXTPCommandBarList@@QBEHXZ 004bd800 f   ToolkitPro1501vc60S:XTPImageManager.obj
 0001:000bc800       ?GetCount@CXTPMenuBarMDIMenus@@QBEHXZ 004bd800 f   ToolkitPro1501vc60S:XTPImageManager.obj
 0001:000bc810       ?Clear@CXTPImageManagerIcon@@AAEXH@Z 004bd810 f   ToolkitPro1501vc60S:XTPImageManager.obj
 0001:000bc870       ?Refresh@CXTPImageManagerIcon@@QAEXXZ 004bd870 f   ToolkitPro1501vc60S:XTPImageManager.obj
 0001:000bc890       ?GetIcon@CXTPImageManagerIcon@@QAEAAVCXTPImageManagerIconHandle@@XZ 004bd890 f   ToolkitPro1501vc60S:XTPImageManager.obj
 0001:000bc8a0       ?GetIcon@CXTPImageManagerIcon@@QAEAAVCXTPImageManagerIconHandle@@W4XTPImageState@@@Z 004bd8a0 f   ToolkitPro1501vc60S:XTPImageManager.obj
 0001:000bc8f0       ?GetFadedIcon@CXTPImageManagerIcon@@QAEAAVCXTPImageManagerIconHandle@@XZ 004bd8f0 f   ToolkitPro1501vc60S:XTPImageManager.obj
 0001:000bc920       ?GetShadowIcon@CXTPImageManagerIcon@@QAEAAVCXTPImageManagerIconHandle@@XZ 004bd920 f   ToolkitPro1501vc60S:XTPImageManager.obj
 0001:000bc940       ?GetHotIcon@CXTPImageManagerIcon@@QAEAAVCXTPImageManagerIconHandle@@XZ 004bd940 f   ToolkitPro1501vc60S:XTPImageManager.obj
 0001:000bc960       ?GetCheckedIcon@CXTPImageManagerIcon@@QAEAAVCXTPImageManagerIconHandle@@XZ 004bd960 f   ToolkitPro1501vc60S:XTPImageManager.obj
 0001:000bc990       ?GetPressedIcon@CXTPImageManagerIcon@@QAEAAVCXTPImageManagerIconHandle@@XZ 004bd990 f   ToolkitPro1501vc60S:XTPImageManager.obj
 0001:000bc9c0       ?HasDisabledIcon@CXTPImageManagerIcon@@QBEHXZ 004bd9c0 f   ToolkitPro1501vc60S:XTPImageManager.obj
 0001:000bc9f0       ?GetDisabledIcon@CXTPImageManagerIcon@@QAEAAVCXTPImageManagerIconHandle@@H@Z 004bd9f0 f   ToolkitPro1501vc60S:XTPImageManager.obj
 0001:000bca30       ?SetIcon@CXTPImageManagerIcon@@QAEHABVCXTPImageManagerIconHandle@@@Z 004bda30 f   ToolkitPro1501vc60S:XTPImageManager.obj
 0001:000bca80       ?SetHotIcon@CXTPImageManagerIcon@@QAEXABVCXTPImageManagerIconHandle@@@Z 004bda80 f   ToolkitPro1501vc60S:XTPImageManager.obj
 0001:000bcaa0       ?SetCheckedIcon@CXTPImageManagerIcon@@QAEXABVCXTPImageManagerIconHandle@@@Z 004bdaa0 f   ToolkitPro1501vc60S:XTPImageManager.obj
 0001:000bcac0       ?SetPressedIcon@CXTPImageManagerIcon@@QAEXABVCXTPImageManagerIconHandle@@@Z 004bdac0 f   ToolkitPro1501vc60S:XTPImageManager.obj
 0001:000bcae0       ?SetDisabledIcon@CXTPImageManagerIcon@@QAEXABVCXTPImageManagerIconHandle@@@Z 004bdae0 f   ToolkitPro1501vc60S:XTPImageManager.obj
 0001:000bcb00       ?LightenColor@CXTPImageManagerIcon@@AAEKKN@Z 004bdb00 f   ToolkitPro1501vc60S:XTPImageManager.obj
 0001:000bcb90       ?CreateFadedIcon@CXTPImageManagerIcon@@AAEXXZ 004bdb90 f   ToolkitPro1501vc60S:XTPImageManager.obj
 0001:000bce10       ?CreateShadowIcon@CXTPImageManagerIcon@@AAEXXZ 004bde10 f   ToolkitPro1501vc60S:XTPImageManager.obj
 0001:000bd110       ?CreateDisabledIcon@CXTPImageManagerIcon@@QAEXKK@Z 004be110 f   ToolkitPro1501vc60S:XTPImageManager.obj
 0001:000bd6c0       ?GetExtent@CXTPImageManagerIcon@@QBE?AVCSize@@XZ 004be6c0 f   ToolkitPro1501vc60S:XTPImageManager.obj
 0001:000bd6f0       ?GetExtent@CXTPImageManagerIcon@@SA?AVCSize@@PAUHICON__@@@Z 004be6f0 f   ToolkitPro1501vc60S:XTPImageManager.obj
 0001:000bd770       ?ScaleToFit@CXTPImageManagerIcon@@SAPAUHICON__@@PAU2@VCSize@@H@Z 004be770 f   ToolkitPro1501vc60S:XTPImageManager.obj
 0001:000bd850       ?GetDIBBitmap@CXTPImageManagerIcon@@AAEHPAUHBITMAP__@@AAPAEAAIAAPAUtagBITMAPINFO@@2@Z 004be850 f   ToolkitPro1501vc60S:XTPImageManager.obj
 0001:000bda10       ?ReadDIBBitmap@CXTPImageManagerIcon@@AAEPAUHBITMAP__@@AAVCArchive@@PAPAE@Z 004bea10 f   ToolkitPro1501vc60S:XTPImageManager.obj
 0001:000bdba0       ?WriteDIBBitmap@CXTPImageManagerIcon@@AAEXAAVCArchive@@PAUHBITMAP__@@@Z 004beba0 f   ToolkitPro1501vc60S:XTPImageManager.obj
 0001:000bdc60       ?SerializeIcon@CXTPImageManagerIcon@@QAEXAAVCXTPImageManagerIconHandle@@AAVCArchive@@J@Z 004bec60 f   ToolkitPro1501vc60S:XTPImageManager.obj
 0001:000bdeb0       ?Serialize@CXTPImageManagerIcon@@UAEXAAVCArchive@@@Z 004beeb0 f   ToolkitPro1501vc60S:XTPImageManager.obj
 0001:000bdfc0       ?DrawAlphaBitmap@CXTPImageManagerIcon@@SAXPAVCDC@@PAUHBITMAP__@@VCPoint@@VCSize@@23@Z 004befc0 f   ToolkitPro1501vc60S:XTPImageManager.obj
 0001:000be0b0       ?DrawMono@CXTPImageManagerIcon@@QAEXPAVCDC@@VCPoint@@AAVCXTPImageManagerIconHandle@@VCSize@@K@Z 004bf0b0 f   ToolkitPro1501vc60S:XTPImageManager.obj
 0001:000be210       ?Draw@CXTPImageManagerIcon@@QAEXPAVCDC@@VCPoint@@VCSize@@@Z 004bf210 f   ToolkitPro1501vc60S:XTPImageManager.obj
 0001:000be250       ?Draw@CXTPImageManagerIcon@@QAEXPAVCDC@@VCPoint@@@Z 004bf250 f   ToolkitPro1501vc60S:XTPImageManager.obj
 0001:000be290       ??0CSize@@QAE@K@Z          004bf290 f i ToolkitPro1501vc60S:XTPImageManager.obj
 0001:000be2b0       ?DrawIconComposited@CXTPImageManagerIcon@@SAXPAVCDC@@VCPoint@@VCSize@@PAUHICON__@@@Z 004bf2b0 f   ToolkitPro1501vc60S:XTPImageManager.obj
 0001:000be460       ?Draw@CXTPImageManagerIcon@@QAEXPAVCDC@@VCPoint@@AAVCXTPImageManagerIconHandle@@VCSize@@KKI@Z 004bf460 f   ToolkitPro1501vc60S:XTPImageManager.obj
 0001:000be4e0       ??0CXTPImageManagerIconSet@@QAE@IPAVCXTPImageManager@@@Z 004bf4e0 f   ToolkitPro1501vc60S:XTPImageManager.obj
 0001:000be530       ??_ECXTPImageManagerIconSet@@UAEPAXI@Z 004bf530 f i ToolkitPro1501vc60S:XTPImageManager.obj
 0001:000be530       ??_GCXTPImageManagerIconSet@@UAEPAXI@Z 004bf530 f i ToolkitPro1501vc60S:XTPImageManager.obj
 0001:000be550       ??1CXTPImageManagerIconSet@@UAE@XZ 004bf550 f   ToolkitPro1501vc60S:XTPImageManager.obj
 0001:000be600       ?RemoveAll@CXTPImageManagerIconSet@@QAEXXZ 004bf600 f   ToolkitPro1501vc60S:XTPImageManager.obj
 0001:000be6c0       ?CreateIcon@CXTPImageManagerIconSet@@AAEPAVCXTPImageManagerIcon@@I@Z 004bf6c0 f   ToolkitPro1501vc60S:XTPImageManager.obj
 0001:000be840       ?SetIcon@CXTPImageManagerIconSet@@AAEXABVCXTPImageManagerIconHandle@@I@Z 004bf840 f   ToolkitPro1501vc60S:XTPImageManager.obj
 0001:000be860       ?SetDisabledIcon@CXTPImageManagerIconSet@@AAEXABVCXTPImageManagerIconHandle@@I@Z 004bf860 f   ToolkitPro1501vc60S:XTPImageManager.obj
 0001:000be880       ?SetHotIcon@CXTPImageManagerIconSet@@AAEXABVCXTPImageManagerIconHandle@@I@Z 004bf880 f   ToolkitPro1501vc60S:XTPImageManager.obj
 0001:000be8a0       ?SetCheckedIcon@CXTPImageManagerIconSet@@AAEXABVCXTPImageManagerIconHandle@@I@Z 004bf8a0 f   ToolkitPro1501vc60S:XTPImageManager.obj
 0001:000be8c0       ?SetPressedIcon@CXTPImageManagerIconSet@@AAEXABVCXTPImageManagerIconHandle@@I@Z 004bf8c0 f   ToolkitPro1501vc60S:XTPImageManager.obj
 0001:000be8e0       ?GetIcon@CXTPImageManagerIconSet@@QAEPAVCXTPImageManagerIcon@@IH@Z 004bf8e0 f   ToolkitPro1501vc60S:XTPImageManager.obj
 0001:000bea30       ?RefreshAll@CXTPImageManagerIconSet@@QAEXXZ 004bfa30 f   ToolkitPro1501vc60S:XTPImageManager.obj
 0001:000beaa0       ??0CXTPImageManager@@QAE@XZ 004bfaa0 f   ToolkitPro1501vc60S:XTPImageManager.obj
 0001:000beb70       ??_ECXTPImageManager@@UAEPAXI@Z 004bfb70 f i ToolkitPro1501vc60S:XTPImageManager.obj
 0001:000beb70       ??_GCXTPImageManager@@UAEPAXI@Z 004bfb70 f i ToolkitPro1501vc60S:XTPImageManager.obj
 0001:000beb90       ?XTPImageManager@@YAPAVCXTPImageManager@@XZ 004bfb90 f   ToolkitPro1501vc60S:XTPImageManager.obj
 0001:000bebe0       ??1CXTPImageManager@@UAE@XZ 004bfbe0 f   ToolkitPro1501vc60S:XTPImageManager.obj
 0001:000bed10       ?LoadToolbar@CXTPImageManager@@ABEHIAAPAIAAHAAVCSize@@@Z 004bfd10 f   ToolkitPro1501vc60S:XTPImageManager.obj
 0001:000bedf0       ?items@CToolBarData@?1??LoadToolbar@CXTPImageManager@@ABEHIAAPAIAAHAAVCSize@@@Z@QAEPAGXZ 004bfdf0 f   ToolkitPro1501vc60S:XTPImageManager.obj
 0001:000bedf0       ?items@CToolBarData@?1??LoadToolBar@CXTPCommandBar@@UAEHIH@Z@QAEPAGXZ 004bfdf0 f   ToolkitPro1501vc60S:XTPImageManager.obj
 0001:000bee00       ?SetIcons@CXTPImageManager@@QAEHIIW4XTPImageState@@@Z 004bfe00 f   ToolkitPro1501vc60S:XTPImageManager.obj
 0001:000bee80       ?SetIcons@CXTPImageManager@@QAEHIW4XTPImageState@@@Z 004bfe80 f   ToolkitPro1501vc60S:XTPImageManager.obj
 0001:000beea0       ?SetIcon@CXTPImageManager@@QAEHABVCXTPImageManagerIconHandle@@IVCSize@@W4XTPImageState@@@Z 004bfea0 f   ToolkitPro1501vc60S:XTPImageManager.obj
 0001:000bf110       ?SetIconFromResource@CXTPImageManager@@QAEHPAUHINSTANCE__@@PBDIVCSize@@W4XTPImageState@@@Z 004c0110 f   ToolkitPro1501vc60S:XTPImageManager.obj
 0001:000bf2d0       ?SetIcon@CXTPImageManager@@QAEHPBDIVCSize@@W4XTPImageState@@@Z 004c02d0 f   ToolkitPro1501vc60S:XTPImageManager.obj
 0001:000bf3b0       ?SetIcons@CXTPImageManager@@QAEHAAVCImageList@@PAIHVCSize@@W4XTPImageState@@@Z 004c03b0 f   ToolkitPro1501vc60S:XTPImageManager.obj
 0001:000bf560       ?SplitBitmap@CXTPImageManager@@ABEHPAUHBITMAP__@@HPAPAU2@@Z 004c0560 f   ToolkitPro1501vc60S:XTPImageManager.obj
 0001:000bf7c0       ?GetBitmapMaskColor@CXTPImageManager@@SAKAAVCBitmap@@VCPoint@@@Z 004c07c0 f   ToolkitPro1501vc60S:XTPImageManager.obj
 0001:000bf800       ?ResampleAlphaLayer@CXTPImageManager@@SAPAUHBITMAP__@@PAU2@K@Z 004c0800 f   ToolkitPro1501vc60S:XTPImageManager.obj
 0001:000bf9e0       ?SetIcons@CXTPImageManager@@QAEHAAVCBitmap@@PAIHVCSize@@W4XTPImageState@@H@Z 004c09e0 f   ToolkitPro1501vc60S:XTPImageManager.obj
 0001:000bfd80       ?SetIcons@CXTPImageManager@@QAEHIPAIHVCSize@@W4XTPImageState@@@Z 004c0d80 f   ToolkitPro1501vc60S:XTPImageManager.obj
 0001:000bfdb0       ?SetIcons@CXTPImageManager@@QAEHPBDPAIHVCSize@@W4XTPImageState@@@Z 004c0db0 f   ToolkitPro1501vc60S:XTPImageManager.obj
 0001:000bfea0       ?AddCustomIcon@CXTPImageManager@@QAEIABVCXTPImageManagerIconHandle@@@Z 004c0ea0 f   ToolkitPro1501vc60S:XTPImageManager.obj
 0001:000c0020       ?CopyImage@CXTPImageManager@@AAEXI@Z 004c1020 f   ToolkitPro1501vc60S:XTPImageManager.obj
 0001:000c0150       ?PasteCustomImage@CXTPImageManager@@AAEIAAVCOleDataObject@@@Z 004c1150 f   ToolkitPro1501vc60S:XTPImageManager.obj
 0001:000c0260       ?IsPrimaryImageExists@CXTPImageManager@@QBEHIH@Z 004c1260 f   ToolkitPro1501vc60S:XTPImageManager.obj
 0001:000c02d0       ?GetImage@CXTPImageManager@@QBEPAVCXTPImageManagerIcon@@IH@Z 004c12d0 f   ToolkitPro1501vc60S:XTPImageManager.obj
 0001:000c0320       ?GetIconSet@CXTPImageManager@@QBEPAVCXTPImageManagerIconSet@@I@Z 004c1320 f   ToolkitPro1501vc60S:XTPImageManager.obj
 0001:000c0360       ?GetImageList@CXTPImageManager@@QBEPAVCXTPImageManagerImageList@@I@Z 004c1360 f   ToolkitPro1501vc60S:XTPImageManager.obj
 0001:000c03a0       ?RemoveAll@CXTPImageManager@@QAEXXZ 004c13a0 f   ToolkitPro1501vc60S:XTPImageManager.obj
 0001:000c0540       ?RefreshAll@CXTPImageManager@@QAEXXZ 004c1540 f   ToolkitPro1501vc60S:XTPImageManager.obj
 0001:000c05d0       ?SetMaskColor@CXTPImageManager@@QAEKK@Z 004c15d0 f   ToolkitPro1501vc60S:XTPImageManager.obj
 0001:000c05e0       ?IsAlphaIconsImageListSupported@CXTPImageManager@@SAHXZ 004c15e0 f   ToolkitPro1501vc60S:XTPImageManager.obj
 0001:000c0600       ?DoPropExchange@CXTPImageManager@@QAEXIPAVCXTPPropExchange@@@Z 004c1600 f   ToolkitPro1501vc60S:XTPImageManager.obj
 0001:000c09d0       ??1CXTPPropExchangeSection@@QAE@XZ 004c19d0 f i ToolkitPro1501vc60S:XTPImageManager.obj
 0001:000c09e0       ??1CXTPPropExchangeEnumeratorPtr@@QAE@XZ 004c19e0 f i ToolkitPro1501vc60S:XTPImageManager.obj
 0001:000c09f0       ?Serialize@CXTPImageManager@@QAEXIAAVCArchive@@@Z 004c19f0 f   ToolkitPro1501vc60S:XTPImageManager.obj
 0001:000c0a60       ??1CXTPPropExchangeArchive@@UAE@XZ 004c1a60 f i ToolkitPro1501vc60S:XTPImageManager.obj
 0001:000c0a70       ?DoPropExchange@CXTPImageManager@@QAEXPAVCXTPPropExchange@@@Z 004c1a70 f   ToolkitPro1501vc60S:XTPImageManager.obj
 0001:000c0c10       ?Serialize@CXTPImageManager@@UAEXAAVCArchive@@@Z 004c1c10 f   ToolkitPro1501vc60S:XTPImageManager.obj
 0001:000c0c70       ??1?$CArray@PAUXTP_IMAGERESOURCE_INFO@@PAU1@@@UAE@XZ 004c1c70 f i ToolkitPro1501vc60S:XTPImageManager.obj
 0001:000c0cc0       ??1?$CMap@IIPAVCXTPImageManagerIcon@@PAV1@@@UAE@XZ 004c1cc0 f i ToolkitPro1501vc60S:XTPImageManager.obj
 0001:000c0d40       ??1?$CMap@IIPAVCXTPImageManagerIconSet@@PAV1@@@UAE@XZ 004c1d40 f i ToolkitPro1501vc60S:XTPImageManager.obj
 0001:000c0dc0       ??1?$CArray@PAVCXTPImageManagerImageList@@PAV1@@@UAE@XZ 004c1dc0 f i ToolkitPro1501vc60S:XTPImageManager.obj
 0001:000c0e10       ??1?$CMap@KKPAVCXTPImageManagerResource@@PAV1@@@UAE@XZ 004c1e10 f i ToolkitPro1501vc60S:XTPImageManager.obj
 0001:000c0e90       ??_E?$CArray@PAUXTP_IMAGERESOURCE_INFO@@PAU1@@@UAEPAXI@Z 004c1e90 f i ToolkitPro1501vc60S:XTPImageManager.obj
 0001:000c0e90       ??_G?$CArray@PAUXTP_IMAGERESOURCE_INFO@@PAU1@@@UAEPAXI@Z 004c1e90 f i ToolkitPro1501vc60S:XTPImageManager.obj
 0001:000c0eb0       ??_E?$CMap@IIPAVCXTPImageManagerIcon@@PAV1@@@UAEPAXI@Z 004c1eb0 f i ToolkitPro1501vc60S:XTPImageManager.obj
 0001:000c0eb0       ??_G?$CMap@IIPAVCXTPImageManagerIcon@@PAV1@@@UAEPAXI@Z 004c1eb0 f i ToolkitPro1501vc60S:XTPImageManager.obj
 0001:000c0ed0       ??_G?$CMap@IIPAVCXTPImageManagerIconSet@@PAV1@@@UAEPAXI@Z 004c1ed0 f i ToolkitPro1501vc60S:XTPImageManager.obj
 0001:000c0ed0       ??_E?$CMap@IIPAVCXTPImageManagerIconSet@@PAV1@@@UAEPAXI@Z 004c1ed0 f i ToolkitPro1501vc60S:XTPImageManager.obj
 0001:000c0ef0       ??_E?$CArray@PAVCXTPImageManagerImageList@@PAV1@@@UAEPAXI@Z 004c1ef0 f i ToolkitPro1501vc60S:XTPImageManager.obj
 0001:000c0ef0       ??_G?$CArray@PAVCXTPImageManagerImageList@@PAV1@@@UAEPAXI@Z 004c1ef0 f i ToolkitPro1501vc60S:XTPImageManager.obj
 0001:000c0f10       ??_G?$CMap@KKPAVCXTPImageManagerResource@@PAV1@@@UAEPAXI@Z 004c1f10 f i ToolkitPro1501vc60S:XTPImageManager.obj
 0001:000c0f10       ??_E?$CMap@KKPAVCXTPImageManagerResource@@PAV1@@@UAEPAXI@Z 004c1f10 f i ToolkitPro1501vc60S:XTPImageManager.obj
 0001:000c0f30       ?InitHashTable@?$CMap@IIHH@@QAEXIH@Z 004c1f30 f i ToolkitPro1501vc60S:XTPImageManager.obj
 0001:000c0f30       ?InitHashTable@?$CMap@PAVCXTPMarkupDependencyProperty@@PAV1@PAVCXTPMarkupObject@@PAV2@@@QAEXIH@Z 004c1f30 f i ToolkitPro1501vc60S:XTPImageManager.obj
 0001:000c0f30       ?InitHashTable@?$CMap@PAUHWND__@@PAU1@PAVCXTPDockingPaneManager@@PAV2@@@QAEXIH@Z 004c1f30 f i ToolkitPro1501vc60S:XTPImageManager.obj
 0001:000c0f30       ?InitHashTable@?$CMap@IIPAVCXTPImageManagerIcon@@PAV1@@@QAEXIH@Z 004c1f30 f i ToolkitPro1501vc60S:XTPImageManager.obj
 0001:000c0f30       ?InitHashTable@?$CMap@HHPAVCXTPDockingPaneBase@@PAV1@@@QAEXIH@Z 004c1f30 f i ToolkitPro1501vc60S:XTPImageManager.obj
 0001:000c0fa0       ??1CXTPCommandBarList@@UAE@XZ 004c1fa0 f   ToolkitPro1501vc60S:XTPCommandBar.obj
 0001:000c1020       ??_GCXTPCommandBarList@@UAEPAXI@Z 004c2020 f i ToolkitPro1501vc60S:XTPCommandBar.obj
 0001:000c1020       ??_ECXTPCommandBarList@@UAEPAXI@Z 004c2020 f i ToolkitPro1501vc60S:XTPCommandBar.obj
 0001:000c1040       ?GetAt@CXTPCommandBarList@@QBEPAVCXTPCommandBar@@H@Z 004c2040 f   ToolkitPro1501vc60S:XTPCommandBar.obj
 0001:000c1060       ?Add@CXTPCommandBarList@@UAEPAVCXTPCommandBar@@PAV2@@Z 004c2060 f   ToolkitPro1501vc60S:XTPCommandBar.obj
 0001:000c11d0       ?Lookup@CXTPCommandBarList@@QBEHPAVCXTPCommandBar@@@Z 004c21d0 f   ToolkitPro1501vc60S:XTPCommandBar.obj
 0001:000c1210       ?RemoveAll@CXTPCommandBarList@@QAEXXZ 004c2210 f   ToolkitPro1501vc60S:XTPCommandBar.obj
 0001:000c1260       ?FindCommandBar@CXTPCommandBarList@@QBEPAVCXTPCommandBar@@I@Z 004c2260 f   ToolkitPro1501vc60S:XTPCommandBar.obj
 0001:000c12a0       ?CreateObject@CXTPCommandBar@@SGPAVCObject@@XZ 004c22a0 f   ToolkitPro1501vc60S:XTPCommandBar.obj
 0001:000c1300       ?GetRuntimeClass@CXTPCommandBar@@UBEPAUCRuntimeClass@@XZ 004c2300 f   ToolkitPro1501vc60S:XTPCommandBar.obj
 0001:000c1330       ?Clone@CXTPCommandBar@@UAEPAV1@H@Z 004c2330 f   ToolkitPro1501vc60S:XTPCommandBar.obj
 0001:000c1360       ??0CXTPCommandBar@@IAE@XZ  004c2360 f   ToolkitPro1501vc60S:XTPCommandBar.obj
 0001:000c1540       ?CalcDynamicLayout@CXTPCommandBar@@MAE?AVCSize@@HK@Z 004c2540 f i ToolkitPro1501vc60S:XTPCommandBar.obj
 0001:000c1550       ??_GCXTPCommandBar@@MAEPAXI@Z 004c2550 f i ToolkitPro1501vc60S:XTPCommandBar.obj
 0001:000c1550       ??_ECXTPCommandBar@@MAEPAXI@Z 004c2550 f i ToolkitPro1501vc60S:XTPCommandBar.obj
 0001:000c1570       ??1CXTPCommandBar@@MAE@XZ  004c2570 f   ToolkitPro1501vc60S:XTPCommandBar.obj
 0001:000c16e0       ?SetControls@CXTPCommandBar@@QAEXPAVCXTPControls@@@Z 004c26e0 f   ToolkitPro1501vc60S:XTPCommandBar.obj
 0001:000c1720       ?OnRemoved@CXTPCommandBar@@MAEXXZ 004c2720 f   ToolkitPro1501vc60S:XTPCommandBar.obj
 0001:000c1790       ?GetMessageMap@CXTPCommandBar@@MBEPBUAFX_MSGMAP@@XZ 004c2790 f   ToolkitPro1501vc60S:XTPCommandBar.obj
 0001:000c17a0       ?OnCreate@CXTPCommandBar@@QAEHPAUtagCREATESTRUCTA@@@Z 004c27a0 f   ToolkitPro1501vc60S:XTPCommandBar.obj
 0001:000c1830       ?OnDestroy@CXTPCommandBar@@QAEXXZ 004c2830 f   ToolkitPro1501vc60S:XTPCommandBar.obj
 0001:000c1880       ?IsMouseLocked@CXTPCommandBar@@IBEHXZ 004c2880 f   ToolkitPro1501vc60S:XTPCommandBar.obj
 0001:000c18b0       ?OnMouseMove@CXTPCommandBar@@QAEXIVCPoint@@@Z 004c28b0 f   ToolkitPro1501vc60S:XTPCommandBar.obj
 0001:000c1a30       ?OnMouseLeave@CXTPCommandBar@@QAEXXZ 004c2a30 f   ToolkitPro1501vc60S:XTPCommandBar.obj
 0001:000c1a70       ?OnNcMouseMove@CXTPCommandBar@@QAEXIVCPoint@@@Z 004c2a70 f   ToolkitPro1501vc60S:XTPCommandBar.obj
 0001:000c1a90       ?OnTrackEnter@CXTPCommandBar@@UAEXXZ 004c2a90 f   ToolkitPro1501vc60S:XTPCommandBar.obj
 0001:000c1aa0       ?OnLButtonDown@CXTPCommandBar@@QAEXIVCPoint@@@Z 004c2aa0 f   ToolkitPro1501vc60S:XTPCommandBar.obj
 0001:000c1be0       ?OnLButtonDblClk@CXTPCommandBar@@QAEXIVCPoint@@@Z 004c2be0 f   ToolkitPro1501vc60S:XTPCommandBar.obj
 0001:000c1c20       ?OnLButtonUp@CXTPCommandBar@@QAEXIVCPoint@@@Z 004c2c20 f   ToolkitPro1501vc60S:XTPCommandBar.obj
 0001:000c1c70       ?OnRButtonUp@CXTPCommandBar@@QAEXIVCPoint@@@Z 004c2c70 f   ToolkitPro1501vc60S:XTPCommandBar.obj
 0001:000c1d20       ?SetSelected@CXTPCommandBar@@UAEHHH@Z 004c2d20 f   ToolkitPro1501vc60S:XTPCommandBar.obj
 0001:000c1e60       ?SetPopuped@CXTPCommandBar@@QAEHHH@Z 004c2e60 f   ToolkitPro1501vc60S:XTPCommandBar.obj
 0001:000c1f80       ?OnIdleUpdateCmdUI@CXTPCommandBar@@UAEJIJ@Z 004c2f80 f   ToolkitPro1501vc60S:XTPCommandBar.obj
 0001:000c1ff0       ?Enable@CCommandBarCmdUI@CXTPCommandBar@@UAEXH@Z 004c2ff0 f   ToolkitPro1501vc60S:XTPCommandBar.obj
 0001:000c2050       ?SetCheck@CCommandBarCmdUI@CXTPCommandBar@@UAEXH@Z 004c3050 f   ToolkitPro1501vc60S:XTPCommandBar.obj
 0001:000c2070       ?SetText@CCommandBarCmdUI@CXTPCommandBar@@UAEXPBD@Z 004c3070 f   ToolkitPro1501vc60S:XTPCommandBar.obj
 0001:000c2090       ?OnInitialUpdate@CXTPCommandBar@@QAEXXZ 004c3090 f   ToolkitPro1501vc60S:XTPCommandBar.obj
 0001:000c20a0       ?OnUpdateCmdUI@CXTPCommandBar@@QAEXXZ 004c30a0 f   ToolkitPro1501vc60S:XTPCommandBar.obj
 0001:000c2230       ?LoadMenuA@CXTPControls@@QAEHPAVCMenu@@@Z 004c3230 f   ToolkitPro1501vc60S:XTPCommandBar.obj
 0001:000c2380       ?LoadMenuA@CXTPCommandBar@@UAEHPAVCMenu@@H@Z 004c3380 f   ToolkitPro1501vc60S:XTPCommandBar.obj
 0001:000c23e0       ?ProcessSpecialKey@CXTPCommandBar@@MAEHW4XTPSpecialKey@@@Z 004c33e0 f   ToolkitPro1501vc60S:XTPCommandBar.obj
 0001:000c2940       ?IsHelpMode@CXTPCommandBar@@IBEHXZ 004c3940 f   ToolkitPro1501vc60S:XTPCommandBar.obj
 0001:000c2960       ?OnHookKeyDown@CXTPCommandBar@@MAEHIJ@Z 004c3960 f   ToolkitPro1501vc60S:XTPCommandBar.obj
 0001:000c2db0       ?HideKeyboardTips@CXTPCommandBar@@QAEXXZ 004c3db0 f   ToolkitPro1501vc60S:XTPCommandBar.obj
 0001:000c2dd0       ?OnKeyboardTip@CXTPCommandBar@@UAEXPAVCXTPCommandBarKeyboardTip@@@Z 004c3dd0 f   ToolkitPro1501vc60S:XTPCommandBar.obj
 0001:000c2e30       ?OnKeyboardTipChar@CXTPCommandBar@@QAEXI@Z 004c3e30 f   ToolkitPro1501vc60S:XTPCommandBar.obj
 0001:000c2fb0       ?OnHookMessage@CXTPCommandBar@@UAEHPAUHWND__@@IAAIAAJ2@Z 004c3fb0 f   ToolkitPro1501vc60S:XTPCommandBar.obj
 0001:000c3080       ?SetTrackingMode@CXTPCommandBar@@UAEHHHH@Z 004c4080 f   ToolkitPro1501vc60S:XTPCommandBar.obj
 0001:000c32e0       ?GetControlCount@CXTPCommandBar@@QBEHXZ 004c42e0 f   ToolkitPro1501vc60S:XTPCommandBar.obj
 0001:000c32f0       ?GetControl@CXTPCommandBar@@QBEPAVCXTPControl@@H@Z 004c42f0 f   ToolkitPro1501vc60S:XTPCommandBar.obj
 0001:000c3330       ?OnTimer@CXTPCommandBar@@QAEXI@Z 004c4330 f   ToolkitPro1501vc60S:XTPCommandBar.obj
 0001:000c3450       ?OnControlsChanged@CXTPCommandBar@@MAEXXZ 004c4450 f   ToolkitPro1501vc60S:XTPCommandBar.obj
 0001:000c3470       ?Redraw@CXTPCommandBar@@UAEXPBUtagRECT@@H@Z 004c4470 f   ToolkitPro1501vc60S:XTPCommandBar.obj
 0001:000c34e0       ?EnableAnimation@CXTPCommandBar@@QAEXH@Z 004c44e0 f   ToolkitPro1501vc60S:XTPCommandBar.obj
 0001:000c3500       ?IsAnimationEnabled@CXTPCommandBar@@QBEHXZ 004c4500 f   ToolkitPro1501vc60S:XTPCommandBar.obj
 0001:000c3510       ?EnableDoubleBuffer@CXTPCommandBar@@QAEXH@Z 004c4510 f   ToolkitPro1501vc60S:XTPCommandBar.obj
 0001:000c3520       ?SetShowGripper@CXTPCommandBar@@QAEXH@Z 004c4520 f   ToolkitPro1501vc60S:XTPCommandBar.obj
 0001:000c3550       ?GetShowGripper@CXTPCommandBar@@QBEHXZ 004c4550 f   ToolkitPro1501vc60S:XTPCommandBar.obj
 0001:000c3560       ?OnPaint@CXTPCommandBar@@QAEXXZ 004c4560 f   ToolkitPro1501vc60S:XTPCommandBar.obj
 0001:000c35c0       ?OnPrintClient@CXTPCommandBar@@QAEJIJ@Z 004c45c0 f   ToolkitPro1501vc60S:XTPCommandBar.obj
 0001:000c3620       ?GetBorders@CXTPCommandBar@@UAE?AVCRect@@XZ 004c4620 f   ToolkitPro1501vc60S:XTPCommandBar.obj
 0001:000c3660       ?FillCommandBarEntry@CXTPCommandBar@@UAEXPAVCDC@@@Z 004c4660 f   ToolkitPro1501vc60S:XTPCommandBar.obj
 0001:000c3680       ?DrawCommandBar@CXTPCommandBar@@UAEXPAVCDC@@VCRect@@@Z 004c4680 f   ToolkitPro1501vc60S:XTPCommandBar.obj
 0001:000c38b0       ?CustomizeDrawMarker@CXTPCommandBar@@IAEXPAVCDC@@@Z 004c48b0 f   ToolkitPro1501vc60S:XTPCommandBar.obj
 0001:000c3b00       ?FindAccelEx@CXTPCommandBar@@QBEHIAAH@Z 004c4b00 f   ToolkitPro1501vc60S:XTPCommandBar.obj
 0001:000c3ca0       ?GetFrameSite@CXTPCommandBar@@QBEPAVCFrameWnd@@XZ 004c4ca0 f   ToolkitPro1501vc60S:XTPCommandBar.obj
 0001:000c3cd0       ?GetSite@CXTPCommandBar@@QBEPAVCWnd@@XZ 004c4cd0 f   ToolkitPro1501vc60S:XTPCommandBar.obj
 0001:000c3d30       ?GetOwnerSite@CXTPCommandBar@@QBEPAVCWnd@@XZ 004c4d30 f   ToolkitPro1501vc60S:XTPCommandBar.obj
 0001:000c3d90       ?GetRootParent@CXTPCommandBar@@QBEPAV1@XZ 004c4d90 f   ToolkitPro1501vc60S:XTPCommandBar.obj
 0001:000c3dc0       ?GetCommandBars@CXTPCommandBar@@QBEPAVCXTPCommandBars@@XZ 004c4dc0 f   ToolkitPro1501vc60S:XTPCommandBar.obj
 0001:000c3df0       ?IsCustomizeMode@CXTPCommandBar@@QBEHXZ 004c4df0 f   ToolkitPro1501vc60S:XTPCommandBar.obj
 0001:000c3e00       ?OnCustomizeDragEnter@CXTPCommandBar@@UAEKPAVCXTPControl@@VCPoint@@@Z 004c4e00 f   ToolkitPro1501vc60S:XTPCommandBar.obj
 0001:000c3e30       ?OnCustomizeDragLeave@CXTPCommandBar@@UAEXXZ 004c4e30 f   ToolkitPro1501vc60S:XTPCommandBar.obj
 0001:000c3e60       ?CustomizeFindDropIndex@CXTPCommandBar@@MAEXPAVCXTPControl@@ABVCPoint@@AAVCRect@@AAH3@Z 004c4e60 f   ToolkitPro1501vc60S:XTPCommandBar.obj
 0001:000c41d0       ?OnCustomizeDragOver@CXTPCommandBar@@UAEKPAVCXTPControl@@VCPoint@@@Z 004c51d0 f   ToolkitPro1501vc60S:XTPCommandBar.obj
 0001:000c4310       ?OnCustomizeDrop@CXTPCommandBar@@UAEXPAVCXTPControl@@AAKVCPoint@@2@Z 004c5310 f   ToolkitPro1501vc60S:XTPCommandBar.obj
 0001:000c4490       ?OnRButtonDown@CXTPCommandBar@@QAEXIVCPoint@@@Z 004c5490 f   ToolkitPro1501vc60S:XTPCommandBar.obj
 0001:000c4580       ?InvalidateParents@CXTPCommandBar@@QAEXXZ 004c5580 f   ToolkitPro1501vc60S:XTPCommandBar.obj
 0001:000c45c0       ?OnControlSelected@CXTPCommandBar@@UAEXHPAVCXTPControl@@@Z 004c55c0 f   ToolkitPro1501vc60S:XTPCommandBar.obj
 0001:000c4720       ?SetStatusText@CXTPCommandBar@@QAEHABVCString@@@Z 004c5720 f   ToolkitPro1501vc60S:XTPCommandBar.obj
 0001:000c47a0       ?SetPaintManager@CXTPCommandBar@@QAEXPAVCXTPPaintManager@@@Z 004c57a0 f   ToolkitPro1501vc60S:XTPCommandBar.obj
 0001:000c47d0       ?GetPaintManager@CXTPCommandBar@@QBEPAVCXTPPaintManager@@XZ 004c57d0 f   ToolkitPro1501vc60S:XTPCommandBar.obj
 0001:000c4820       ?SetImageManager@CXTPCommandBar@@QAEXPAVCXTPImageManager@@@Z 004c5820 f   ToolkitPro1501vc60S:XTPCommandBar.obj
 0001:000c4850       ?GetImageManager@CXTPCommandBar@@QBEPAVCXTPImageManager@@XZ 004c5850 f   ToolkitPro1501vc60S:XTPCommandBar.obj
 0001:000c4890       ?Copy@CXTPCommandBar@@MAEXPAV1@H@Z 004c5890 f   ToolkitPro1501vc60S:XTPCommandBar.obj
 0001:000c4960       ?GetActiveDocTemplate@CXTPCommandBar@@IBEIXZ 004c5960 f   ToolkitPro1501vc60S:XTPCommandBar.obj
 0001:000c4980       ?UpdateDocTemplateControls@CXTPCommandBar@@IAEXXZ 004c5980 f   ToolkitPro1501vc60S:XTPCommandBar.obj
 0001:000c4b00       ?SetFlags@CXTPCommandBar@@QAEXKK@Z 004c5b00 f   ToolkitPro1501vc60S:XTPCommandBar.obj
 0001:000c4b20       ?OnHelpHitTest@CXTPCommandBar@@QAEJIJ@Z 004c5b20 f   ToolkitPro1501vc60S:XTPCommandBar.obj
 0001:000c4ba0       ?OnNcHitTest@CXTPCommandBar@@QAEJVCPoint@@@Z 004c5ba0 f   ToolkitPro1501vc60S:XTPCommandBar.obj
 0001:000c4c10       ?OnNcLButtonDown@CXTPCommandBar@@QAEXIVCPoint@@@Z 004c5c10 f   ToolkitPro1501vc60S:XTPCommandBar.obj
 0001:000c4c50       ?SetWidth@CXTPCommandBar@@QAEXH@Z 004c5c50 f   ToolkitPro1501vc60S:XTPCommandBar.obj
 0001:000c4c60       ?GetWidth@CXTPCommandBar@@QBEHXZ 004c5c60 f   ToolkitPro1501vc60S:XTPCommandBar.obj
 0001:000c4c70       ?IsLayoutRTL@CXTPCommandBar@@QBEHXZ 004c5c70 f   ToolkitPro1501vc60S:XTPCommandBar.obj
 0001:000c4c90       ?OnMouseHitTest@CXTPCommandBar@@MAEHVCPoint@@@Z 004c5c90 f   ToolkitPro1501vc60S:XTPCommandBar.obj
 0001:000c4de0       ?GetAccessible@CXTPCommandBar@@MAEPAVCCmdTarget@@XZ 004c5de0 f   ToolkitPro1501vc60S:XTPCommandBar.obj
 0001:000c4df0       ?GetAccessibleParent@CXTPCommandBar@@MAEJPAPAUIDispatch@@@Z 004c5df0 f   ToolkitPro1501vc60S:XTPCommandBar.obj
 0001:000c4e70       ?GetAccessibleChildCount@CXTPCommandBar@@MAEJPAJ@Z 004c5e70 f   ToolkitPro1501vc60S:XTPCommandBar.obj
 0001:000c4ea0       ?GetAccessibleChild@CXTPCommandBar@@MAEJUtagVARIANT@@PAPAUIDispatch@@@Z 004c5ea0 f   ToolkitPro1501vc60S:XTPCommandBar.obj
 0001:000c4ef0       ?GetAccessibleName@CXTPCommandBar@@MAEJUtagVARIANT@@PAPAG@Z 004c5ef0 f   ToolkitPro1501vc60S:XTPCommandBar.obj
 0001:000c50a0       ?GetAccessibleRole@CXTPCommandBar@@MAEJUtagVARIANT@@PAU2@@Z 004c60a0 f   ToolkitPro1501vc60S:XTPCommandBar.obj
 0001:000c5110       ?GetAccessibleState@CXTPCommandBar@@MAEJUtagVARIANT@@PAU2@@Z 004c6110 f   ToolkitPro1501vc60S:XTPCommandBar.obj
 0001:000c5190       ?AccessibleLocation@CXTPCommandBar@@MAEJPAJ000UtagVARIANT@@@Z 004c6190 f   ToolkitPro1501vc60S:XTPCommandBar.obj
 0001:000c5270       ?AccessibleHitTest@CXTPCommandBar@@MAEJJJPAUtagVARIANT@@@Z 004c6270 f   ToolkitPro1501vc60S:XTPCommandBar.obj
 0001:000c5340       ?OnGetObject@CXTPCommandBar@@QAEJIJ@Z 004c6340 f   ToolkitPro1501vc60S:XTPCommandBar.obj
 0001:000c53e0       ?FilterToolTipMessage@CXTPCommandBar@@QAEXIIJ@Z 004c63e0 f   ToolkitPro1501vc60S:XTPCommandBar.obj
 0001:000c5410       ?OnWndMsg@CXTPCommandBar@@UAEHIIJPAJ@Z 004c6410 f   ToolkitPro1501vc60S:XTPCommandBar.obj
 0001:000c5440       ?GetInterfaceMap@CXTPCommandBar@@MBEPBUAFX_INTERFACEMAP@@XZ 004c6440 f   ToolkitPro1501vc60S:XTPCommandBar.obj
 0001:000c5450       ?CreateObject@?$CThreadLocal@VCXTPKeyboardManager@@@@SGPAVCNoTrackObject@@XZ 004c6450 f i ToolkitPro1501vc60S:XTPCommandBar.obj
 0001:000c54b0       ??1?$CArray@PAVCXTPCommandBar@@PAV1@@@UAE@XZ 004c64b0 f i ToolkitPro1501vc60S:XTPCommandBar.obj
 0001:000c5500       ??_G?$CArray@PAVCXTPCommandBar@@PAV1@@@UAEPAXI@Z 004c6500 f i ToolkitPro1501vc60S:XTPCommandBar.obj
 0001:000c5500       ??_E?$CArray@PAVCXTPCommandBar@@PAV1@@@UAEPAXI@Z 004c6500 f i ToolkitPro1501vc60S:XTPCommandBar.obj
 0001:000c5520       ??_9@$BBHA@AE              004c6520 f i ToolkitPro1501vc60S:XTPCommandBar.obj
 0001:000c5530       ??_ECXTPCommandBar@@ODM@AEPAXI@Z 004c6530 f i ToolkitPro1501vc60S:XTPCommandBar.obj
 0001:000c5540       ??_ECXTPCommandBar@@OEE@AEPAXI@Z 004c6540 f i ToolkitPro1501vc60S:XTPCommandBar.obj
 0001:000c5550       ??0CXTPCommandBarsContextMenus@@QAE@PAVCXTPCommandBars@@@Z 004c6550 f   ToolkitPro1501vc60S:XTPCommandBars.obj
 0001:000c5580       ??_GCXTPCommandBarsContextMenus@@UAEPAXI@Z 004c6580 f i ToolkitPro1501vc60S:XTPCommandBars.obj
 0001:000c5580       ??_ECXTPCommandBarsContextMenus@@UAEPAXI@Z 004c6580 f i ToolkitPro1501vc60S:XTPCommandBars.obj
 0001:000c55a0       ??1CXTPCommandBarsContextMenus@@UAE@XZ 004c65a0 f i ToolkitPro1501vc60S:XTPCommandBars.obj
 0001:000c55b0       ?Add@CXTPCommandBarsContextMenus@@UAEPAVCXTPCommandBar@@PAV2@@Z 004c65b0 f   ToolkitPro1501vc60S:XTPCommandBars.obj
 0001:000c5700       ??0CXTPCommandBarsOptions@@QAE@XZ 004c6700 f   ToolkitPro1501vc60S:XTPCommandBars.obj
 0001:000c5830       ??_ECXTPCommandBarsOptions@@UAEPAXI@Z 004c6830 f i ToolkitPro1501vc60S:XTPCommandBars.obj
 0001:000c5830       ??_GCXTPCommandBarsOptions@@UAEPAXI@Z 004c6830 f i ToolkitPro1501vc60S:XTPCommandBars.obj
 0001:000c5850       ??1CXTPCommandBarsOptions@@UAE@XZ 004c6850 f i ToolkitPro1501vc60S:XTPCommandBars.obj
 0001:000c5950       ?ShowKeyboardCues@CXTPCommandBarsOptions@@QAEXW4XTPKeyboardCuesShow@@@Z 004c6950 f   ToolkitPro1501vc60S:XTPCommandBars.obj
 0001:000c59e0       ?CreateObject@CXTPCommandBars@@SGPAVCObject@@XZ 004c69e0 f   ToolkitPro1501vc60S:XTPCommandBars.obj
 0001:000c5a40       ?GetRuntimeClass@CXTPCommandBars@@UBEPAUCRuntimeClass@@XZ 004c6a40 f   ToolkitPro1501vc60S:XTPCommandBars.obj
 0001:000c5a50       ??0CXTPCommandBars@@IAE@XZ 004c6a50 f   ToolkitPro1501vc60S:XTPCommandBars.obj
 0001:000c5c80       ??_GCXTPCommandBars@@MAEPAXI@Z 004c6c80 f i ToolkitPro1501vc60S:XTPCommandBars.obj
 0001:000c5c80       ??_ECXTPCommandBars@@MAEPAXI@Z 004c6c80 f i ToolkitPro1501vc60S:XTPCommandBars.obj
 0001:000c5ca0       ??1KEYBOARDTIPS@CXTPCommandBars@@QAE@XZ 004c6ca0 f i ToolkitPro1501vc60S:XTPCommandBars.obj
 0001:000c5cf0       ??1CXTPCommandBars@@MAE@XZ 004c6cf0 f   ToolkitPro1501vc60S:XTPCommandBars.obj
 0001:000c5ea0       ?IsToolBarVisible@@YAHPAVCXTPToolBar@@@Z 004c6ea0 f   ToolkitPro1501vc60S:XTPCommandBars.obj
 0001:000c5ec0       ?CreateAction@CXTPCommandBars@@QAEPAVCXTPControlAction@@H@Z 004c6ec0 f   ToolkitPro1501vc60S:XTPCommandBars.obj
 0001:000c5ee0       ?FindAction@CXTPCommandBars@@QBEPAVCXTPControlAction@@H@Z 004c6ee0 f   ToolkitPro1501vc60S:XTPCommandBars.obj
 0001:000c5f00       ?GetMenuBar@CXTPCommandBars@@UBEPAVCXTPMenuBar@@XZ 004c6f00 f   ToolkitPro1501vc60S:XTPCommandBars.obj
 0001:000c5f20       ?RecalcFrameLayout@CXTPCommandBars@@UAEXH@Z 004c6f20 f   ToolkitPro1501vc60S:XTPCommandBars.obj
 0001:000c5ff0       ?IdleRecalcLayout@CXTPCommandBars@@IAEXXZ 004c6ff0 f   ToolkitPro1501vc60S:XTPCommandBars.obj
 0001:000c6030       ?OnToolBarAdded@CXTPCommandBars@@MAEXPAVCXTPToolBar@@@Z 004c7030 f   ToolkitPro1501vc60S:XTPCommandBars.obj
 0001:000c6050       ?OnToolBarRemoved@CXTPCommandBars@@MAEXPAVCXTPToolBar@@@Z 004c7050 f   ToolkitPro1501vc60S:XTPCommandBars.obj
 0001:000c6070       ?GetFrameReBar@CXTPCommandBars@@QBEPAVCXTPReBar@@XZ 004c7070 f   ToolkitPro1501vc60S:XTPCommandBars.obj
 0001:000c60a0       ?AddCustomBar@CXTPCommandBars@@MAEPAVCXTPToolBar@@PBDIH@Z 004c70a0 f   ToolkitPro1501vc60S:XTPCommandBars.obj
 0001:000c61b0       ?GetShortcutManager@CXTPCommandBars@@QBEPAVCXTPShortcutManager@@XZ 004c71b0 f   ToolkitPro1501vc60S:XTPCommandBars.obj
 0001:000c61c0       ?EnableDocking@CXTPCommandBars@@QAEXXZ 004c71c0 f   ToolkitPro1501vc60S:XTPCommandBars.obj
 0001:000c6280       ?CanDock@CXTPCommandBars@@QBEPAVCXTPDockBar@@VCPoint@@PAV2@@Z 004c7280 f   ToolkitPro1501vc60S:XTPCommandBars.obj
 0001:000c6410       ?DockCommandBar@CXTPCommandBars@@QAEHPAVCXTPToolBar@@PAUtagRECT@@PAVCXTPDockBar@@@Z 004c7410 f   ToolkitPro1501vc60S:XTPCommandBars.obj
 0001:000c6470       ?DockCommandBar@CXTPCommandBars@@QAEHPAVCXTPToolBar@@W4XTPBarPosition@@@Z 004c7470 f   ToolkitPro1501vc60S:XTPCommandBars.obj
 0001:000c64b0       ?FloatCommandBar@CXTPCommandBars@@IAEHPAVCXTPToolBar@@@Z 004c74b0 f   ToolkitPro1501vc60S:XTPCommandBars.obj
 0001:000c6500       ?InvalidateCommandBars@CXTPCommandBars@@QAEXXZ 004c7500 f   ToolkitPro1501vc60S:XTPCommandBars.obj
 0001:000c6560       ?RedrawCommandBars@CXTPCommandBars@@QAEXXZ 004c7560 f   ToolkitPro1501vc60S:XTPCommandBars.obj
 0001:000c6690       ?IsKeyboardCuesVisible@CXTPCommandBar@@UBEHXZ 004c7690 f   ToolkitPro1501vc60S:XTPCommandBars.obj
 0001:000c66b0       ??0CXTPCommandBarKeyboardTip@@QAE@PAVCXTPCommandBars@@PAVCCmdTarget@@PBDVCPoint@@KH@Z 004c76b0 f   ToolkitPro1501vc60S:XTPCommandBars.obj
 0001:000c6770       ??_ECXTPCommandBarKeyboardTip@@UAEPAXI@Z 004c7770 f i ToolkitPro1501vc60S:XTPCommandBars.obj
 0001:000c6770       ??_GCXTPCommandBarKeyboardTip@@UAEPAXI@Z 004c7770 f i ToolkitPro1501vc60S:XTPCommandBars.obj
 0001:000c6790       ??1CXTPCommandBarKeyboardTip@@UAE@XZ 004c7790 f i ToolkitPro1501vc60S:XTPCommandBars.obj
 0001:000c6800       ?GetMessageMap@CXTPCommandBarKeyboardTip@@MBEPBUAFX_MSGMAP@@XZ 004c7800 f   ToolkitPro1501vc60S:XTPCommandBars.obj
 0001:000c6810       ?OnPaint@CXTPCommandBarKeyboardTip@@IAEXXZ 004c7810 f   ToolkitPro1501vc60S:XTPCommandBars.obj
 0001:000c6880       ?IsKeyboardTipsVisible@CXTPCommandBar@@QBEHXZ 004c7880 f   ToolkitPro1501vc60S:XTPCommandBars.obj
 0001:000c68a0       ?CreateKeyboardTips@CXTPCommandBar@@UAEXXZ 004c78a0 f   ToolkitPro1501vc60S:XTPCommandBars.obj
 0001:000c6cf0       ?GetKeyboardTip@CXTPControl@@QBE?AVCString@@XZ 004c7cf0 f i ToolkitPro1501vc60S:XTPCommandBars.obj
 0001:000c6dc0       ?GetKeyboardTip@CXTPControlAction@@QBE?AVCString@@XZ 004c7dc0 f i ToolkitPro1501vc60S:XTPCommandBars.obj
 0001:000c6de0       ?CreateKeyboardTips@CXTPCommandBars@@UAEXPAVCXTPCommandBar@@@Z 004c7de0 f   ToolkitPro1501vc60S:XTPCommandBars.obj
 0001:000c6df0       ?ShowKeyboardTips@CXTPCommandBars@@QAEXPAVCXTPCommandBar@@H@Z 004c7df0 f   ToolkitPro1501vc60S:XTPCommandBars.obj
 0001:000c74f0       ?HideKeyboardTips@CXTPCommandBars@@QAEXXZ 004c84f0 f   ToolkitPro1501vc60S:XTPCommandBars.obj
 0001:000c7550       ?ShowKeyboardCues@CXTPCommandBars@@QAEXH@Z 004c8550 f   ToolkitPro1501vc60S:XTPCommandBars.obj
 0001:000c7580       ?OnTrackingModeChanged@CXTPCommandBars@@MAEXPAVCXTPCommandBar@@H@Z 004c8580 f   ToolkitPro1501vc60S:XTPCommandBars.obj
 0001:000c7620       ?GetMouseManager@CXTPCommandBars@@QBEPAVCXTPMouseManager@@XZ 004c8620 f   ToolkitPro1501vc60S:XTPCommandBars.obj
 0001:000c7660       ?GetKeyboardManager@CXTPCommandBars@@QBEPAVCXTPKeyboardManager@@XZ 004c8660 f   ToolkitPro1501vc60S:XTPCommandBars.obj
 0001:000c76a0       ?_GetNextControl@CXTPCommandBars@@IBEPAVCXTPControl@@AAPAVCXTPControls@@H@Z 004c86a0 f   ToolkitPro1501vc60S:XTPCommandBars.obj
 0001:000c7770       ?FindAccel@CXTPCommandBars@@IBEPAVCXTPControl@@PAVCXTPCommandBar@@IAAH@Z 004c8770 f   ToolkitPro1501vc60S:XTPCommandBars.obj
 0001:000c79a0       ?ClosePopups@CXTPCommandBars@@QBEXXZ 004c89a0 f   ToolkitPro1501vc60S:XTPCommandBars.obj
 0001:000c79d0       ?OnFrameAccel@CXTPCommandBars@@QAEHI@Z 004c89d0 f   ToolkitPro1501vc60S:XTPCommandBars.obj
 0001:000c7b30       ?PreTranslateFrameMessage@CXTPCommandBars@@QAEHPAUtagMSG@@@Z 004c8b30 f   ToolkitPro1501vc60S:XTPCommandBars.obj
 0001:000c7d30       ?OnFrameWndMsg@CXTPCommandBars@@QAEHIIJPAJ@Z 004c8d30 f   ToolkitPro1501vc60S:XTPCommandBars.obj
 0001:000c7f40       ?IsLayoutRTL@CXTPCommandBars@@QBEHXZ 004c8f40 f   ToolkitPro1501vc60S:XTPCommandBars.obj
 0001:000c7f70       ?PumpMessage@CXTPPopupBar@@QAEXXZ 004c8f70 f   ToolkitPro1501vc60S:XTPCommandBars.obj
 0001:000c8080       ?TrackPopupMenu@CXTPCommandBars@@SAHPAVCXTPPopupBar@@IHHPAVCWnd@@PBUtagRECT@@1@Z 004c9080 f   ToolkitPro1501vc60S:XTPCommandBars.obj
 0001:000c81f0       ?TrackPopupMenu@CXTPCommandBars@@SAHPAVCMenu@@IHHPAVCWnd@@PBUtagRECT@@1PAV1@@Z 004c91f0 f   ToolkitPro1501vc60S:XTPCommandBars.obj
 0001:000c82a0       ?GetToolbarsPopup@CXTPCommandBars@@UAEPAVCXTPPopupBar@@XZ 004c92a0 f   ToolkitPro1501vc60S:XTPCommandBars.obj
 0001:000c82d0       ?ContextMenu@CXTPCommandBars@@UAEXPAVCXTPToolBar@@VCPoint@@@Z 004c92d0 f   ToolkitPro1501vc60S:XTPCommandBars.obj
 0001:000c8350       ?GetAt@CXTPCommandBars@@QBEPAVCXTPToolBar@@H@Z 004c9350 f   ToolkitPro1501vc60S:XTPCommandBars.obj
 0001:000c8350       ?GetPane@CXTPStatusBar@@QBEPAVCXTPStatusBarPane@@H@Z 004c9350 f   ToolkitPro1501vc60S:XTPCommandBars.obj
 0001:000c8370       ?ToggleVisible@CXTPCommandBars@@QAEXH@Z 004c9370 f   ToolkitPro1501vc60S:XTPCommandBars.obj
 0001:000c83c0       ?GetToolBar@CXTPCommandBars@@QBEPAVCXTPToolBar@@I@Z 004c93c0 f   ToolkitPro1501vc60S:XTPCommandBars.obj
 0001:000c8400       ?_GetHiddenControls@CXTPToolBar@@AAEXPAVCXTPCommandBar@@@Z 004c9400 f   ToolkitPro1501vc60S:XTPCommandBars.obj
 0001:000c8460       ?GetHiddenControls@CXTPCommandBars@@UAEXPAVCXTPToolBar@@PAVCXTPCommandBar@@@Z 004c9460 f   ToolkitPro1501vc60S:XTPCommandBars.obj
 0001:000c8520       ?_GetAddOrRemovePopup@CXTPCommandBars@@IAEXPAVCXTPToolBar@@PAVCXTPCommandBar@@@Z 004c9520 f   ToolkitPro1501vc60S:XTPCommandBars.obj
 0001:000c8620       ?GetAddOrRemovePopup@CXTPCommandBars@@UAEXPAVCXTPToolBar@@PAVCXTPCommandBar@@@Z 004c9620 f   ToolkitPro1501vc60S:XTPCommandBars.obj
 0001:000c8730       ?SetQuickCustomizeMode@CXTPCommandBars@@QAEXH@Z 004c9730 f   ToolkitPro1501vc60S:XTPCommandBars.obj
 0001:000c8760       ?SetCustomizeMode@CXTPCommandBars@@QAEXH@Z 004c9760 f   ToolkitPro1501vc60S:XTPCommandBars.obj
 0001:000c87e0       ?SetDragControl@CXTPCommandBars@@QAEXPAVCCmdTarget@@@Z 004c97e0 f   ToolkitPro1501vc60S:XTPCommandBars.obj
 0001:000c8870       ?RemoveAll@CXTPCommandBars@@QAEXXZ 004c9870 f   ToolkitPro1501vc60S:XTPCommandBars.obj
 0001:000c8920       ?Remove@CXTPCommandBars@@QAEXPAVCXTPToolBar@@@Z 004c9920 f   ToolkitPro1501vc60S:XTPCommandBars.obj
 0001:000c89d0       ?SetSite@CXTPCommandBars@@QAEXPAVCWnd@@@Z 004c99d0 f   ToolkitPro1501vc60S:XTPCommandBars.obj
 0001:000c8a30       ?IsControlHidden@CXTPCommandBars@@UAEHPAVCXTPControl@@@Z 004c9a30 f   ToolkitPro1501vc60S:XTPCommandBars.obj
 0001:000c8ad0       ?IsCommandHidden@CXTPCommandBars@@UAEHI@Z 004c9ad0 f   ToolkitPro1501vc60S:XTPCommandBars.obj
 0001:000c8b60       ?SetCommandUsed@CXTPCommandBars@@QAEXI@Z 004c9b60 f   ToolkitPro1501vc60S:XTPCommandBars.obj
 0001:000c8c70       ?ResetUsageData@CXTPCommandBars@@QAEXXZ 004c9c70 f   ToolkitPro1501vc60S:XTPCommandBars.obj
 0001:000c8ce0       ?PX_UintMap@@YAXPAVCXTPPropExchange@@PBDAAV?$CMap@IIHH@@@Z 004c9ce0 f   ToolkitPro1501vc60S:XTPCommandBars.obj
 0001:000c8f70       ?DoPropExchange@CXTPCommandBarsOptions@@QAEXPAVCXTPPropExchange@@H@Z 004c9f70 f   ToolkitPro1501vc60S:XTPCommandBars.obj
 0001:000c9200       ?Serialize@CXTPCommandBarsOptions@@UAEXAAVCArchive@@@Z 004ca200 f   ToolkitPro1501vc60S:XTPCommandBars.obj
 0001:000c9270       ?SaveOptions@CXTPCommandBars@@QAEXPBD@Z 004ca270 f   ToolkitPro1501vc60S:XTPCommandBars.obj
 0001:000c93a0       ?LoadOptions@CXTPCommandBars@@QAEXPBD@Z 004ca3a0 f   ToolkitPro1501vc60S:XTPCommandBars.obj
 0001:000c94c0       ?GetPaintManager@CXTPCommandBars@@QBEPAVCXTPPaintManager@@XZ 004ca4c0 f   ToolkitPro1501vc60S:XTPCommandBars.obj
 0001:000c94e0       ?GetImageManager@CXTPCommandBars@@QBEPAVCXTPImageManager@@XZ 004ca4e0 f   ToolkitPro1501vc60S:XTPCommandBars.obj
 0001:000c94f0       ?FindDocTemplate@CXTPCommandBars@@IAEPAVCDocTemplate@@PAVCMDIChildWnd@@@Z 004ca4f0 f   ToolkitPro1501vc60S:XTPCommandBars.obj
 0001:000c9580       ?GetActiveDocTemplate@CXTPCommandBars@@UAEIXZ 004ca580 f   ToolkitPro1501vc60S:XTPCommandBars.obj
 0001:000c95f0       ?OnSetPreviewMode@CXTPCommandBars@@QAEXH@Z 004ca5f0 f   ToolkitPro1501vc60S:XTPCommandBars.obj
 0001:000c9640       ?GetToolTipContext@CXTPCommandBars@@QBEPAVCXTPToolTipContext@@XZ 004ca640 f   ToolkitPro1501vc60S:XTPCommandBars.obj
 0001:000c9650       ?FindIndex@CXTPCommandBars@@QBEHPAVCXTPToolBar@@@Z 004ca650 f   ToolkitPro1501vc60S:XTPCommandBars.obj
 0001:000c9690       ?GetNextVisible@CXTPCommandBars@@IBEHJH@Z 004ca690 f   ToolkitPro1501vc60S:XTPCommandBars.obj
 0001:000c9730       ?SetToolBarFocus@CXTPCommandBars@@QAEHPAVCXTPToolBar@@H@Z 004ca730 f   ToolkitPro1501vc60S:XTPCommandBars.obj
 0001:000c97f0       ??1?$CArray@PAVCXTPToolBar@@PAV1@@@UAE@XZ 004ca7f0 f i ToolkitPro1501vc60S:XTPCommandBars.obj
 0001:000c9840       ??1?$CArray@PAVCXTPCommandBarKeyboardTip@@PAV1@@@UAE@XZ 004ca840 f i ToolkitPro1501vc60S:XTPCommandBars.obj
 0001:000c9890       ??_G?$CArray@PAVCXTPToolBar@@PAV1@@@UAEPAXI@Z 004ca890 f i ToolkitPro1501vc60S:XTPCommandBars.obj
 0001:000c9890       ??_E?$CArray@PAVCXTPToolBar@@PAV1@@@UAEPAXI@Z 004ca890 f i ToolkitPro1501vc60S:XTPCommandBars.obj
 0001:000c98b0       ??_G?$CArray@PAVCXTPCommandBarKeyboardTip@@PAV1@@@UAEPAXI@Z 004ca8b0 f i ToolkitPro1501vc60S:XTPCommandBars.obj
 0001:000c98b0       ??_E?$CArray@PAVCXTPCommandBarKeyboardTip@@PAV1@@@UAEPAXI@Z 004ca8b0 f i ToolkitPro1501vc60S:XTPCommandBars.obj
 0001:000c98d0       ?CreateObject@CXTPControlWindowList@@SGPAVCObject@@XZ 004ca8d0 f   ToolkitPro1501vc60S:XTPControlExt.obj
 0001:000c9930       ??1CControlButtonHide@CXTPDialogBar@@UAE@XZ 004ca930 f i ToolkitPro1501vc60S:XTPControlExt.obj
 0001:000c9930       ??1CXTPRibbonControlSystemPopupBarButton@@UAE@XZ 004ca930 f i ToolkitPro1501vc60S:XTPControlExt.obj
 0001:000c9930       ??1CControlExpandButton@CXTPPopupBar@@UAE@XZ 004ca930 f i ToolkitPro1501vc60S:XTPControlExt.obj
 0001:000c9930       ??1CControlButtonHide@CXTPToolBar@@UAE@XZ 004ca930 f i ToolkitPro1501vc60S:XTPControlExt.obj
 0001:000c9930       ??1CXTPRibbonControlSystemPopupBarListItem@@UAE@XZ 004ca930 f i ToolkitPro1501vc60S:XTPControlExt.obj
 0001:000c9930       ??1CXTPRibbonBarControlCaptionButton@@UAE@XZ 004ca930 f i ToolkitPro1501vc60S:XTPControlExt.obj
 0001:000c9930       ??1CControlMDIButton@CXTPMenuBar@@UAE@XZ 004ca930 f i ToolkitPro1501vc60S:XTPControlExt.obj
 0001:000c9930       ??1CXTPControlRecentFileList@@UAE@XZ 004ca930 f i ToolkitPro1501vc60S:XTPControlExt.obj
 0001:000c9930       ??1CCustomizeButton@CXTPCustomizeSheet@@UAE@XZ 004ca930 f i ToolkitPro1501vc60S:XTPControlExt.obj
 0001:000c9930       ??1CXTPControlOleItems@@UAE@XZ 004ca930 f i ToolkitPro1501vc60S:XTPControlExt.obj
 0001:000c9930       ??1CXTPControlWorkspaceActions@@UAE@XZ 004ca930 f i ToolkitPro1501vc60S:XTPControlExt.obj
 0001:000c9930       ??1CXTPControlToolbars@@UAE@XZ 004ca930 f i ToolkitPro1501vc60S:XTPControlExt.obj
 0001:000c9930       ??1CXTPControlWindowList@@UAE@XZ 004ca930 f i ToolkitPro1501vc60S:XTPControlExt.obj
 0001:000c9930       ??1CXTPControlCheckBox@@UAE@XZ 004ca930 f i ToolkitPro1501vc60S:XTPControlExt.obj
 0001:000c9930       ??1CControlFileItem@CXTPRibbonControlSystemRecentFileList@@UAE@XZ 004ca930 f i ToolkitPro1501vc60S:XTPControlExt.obj
 0001:000c9930       ??1CXTPControlToolbar@CXTPControlToolbars@@UAE@XZ 004ca930 f i ToolkitPro1501vc60S:XTPControlExt.obj
 0001:000c9930       ??1CControlCustomization@CXTPStatusBar@@UAE@XZ 004ca930 f i ToolkitPro1501vc60S:XTPControlExt.obj
 0001:000c9930       ??1CXTPControlRadioButton@@UAE@XZ 004ca930 f i ToolkitPro1501vc60S:XTPControlExt.obj
 0001:000c9930       ??1CXTPRibbonGroupOption@@UAE@XZ 004ca930 f i ToolkitPro1501vc60S:XTPControlExt.obj
 0001:000c9930       ??1CControlButtonCustomize@CXTPToolBar@@UAE@XZ 004ca930 f i ToolkitPro1501vc60S:XTPControlExt.obj
 0001:000c9930       ??1CControlGroupsScroll@CXTPRibbonScrollableBar@@UAE@XZ 004ca930 f i ToolkitPro1501vc60S:XTPControlExt.obj
 0001:000c9930       ??1CControlQuickAccessCommand@CXTPRibbonBar@@UAE@XZ 004ca930 f i ToolkitPro1501vc60S:XTPControlExt.obj
 0001:000c9940       ?GetRuntimeClass@CXTPControlWindowList@@UBEPAUCRuntimeClass@@XZ 004ca940 f   ToolkitPro1501vc60S:XTPControlExt.obj
 0001:000c9970       ?Clone@CXTPControlWindowList@@UAEPAVCXTPControl@@H@Z 004ca970 f   ToolkitPro1501vc60S:XTPControlExt.obj
 0001:000c99a0       ?ConstructCaption@CXTPControlWindowList@@SA?AVCString@@ABV2@H@Z 004ca9a0 f   ToolkitPro1501vc60S:XTPControlExt.obj
 0001:000c9af0       ?OnCalcDynamicSize@CXTPControlWindowList@@MAEXK@Z 004caaf0 f   ToolkitPro1501vc60S:XTPControlExt.obj
 0001:000c9db0       ?OnExecute@CXTPControlToolbar@CXTPControlToolbars@@EAEXXZ 004cadb0 f   ToolkitPro1501vc60S:XTPControlExt.obj
 0001:000c9de0       ?CreateObject@CXTPControlToolbars@@SGPAVCObject@@XZ 004cade0 f   ToolkitPro1501vc60S:XTPControlExt.obj
 0001:000c9e40       ?GetRuntimeClass@CXTPControlToolbars@@UBEPAUCRuntimeClass@@XZ 004cae40 f   ToolkitPro1501vc60S:XTPControlExt.obj
 0001:000c9e70       ?Clone@CXTPControlToolbars@@UAEPAVCXTPControl@@H@Z 004cae70 f   ToolkitPro1501vc60S:XTPControlExt.obj
 0001:000c9ea0       ??0CXTPControlToolbars@@QAE@XZ 004caea0 f   ToolkitPro1501vc60S:XTPControlExt.obj
 0001:000c9ec0       ?CreateToolbarMenu@CXTPControlToolbars@@SAXPAVCXTPCommandBar@@HHHH@Z 004caec0 f   ToolkitPro1501vc60S:XTPControlExt.obj
 0001:000ca070       ?OnCalcDynamicSize@CXTPControlToolbars@@MAEXK@Z 004cb070 f   ToolkitPro1501vc60S:XTPControlExt.obj
 0001:000ca140       ?CreateObject@CXTPControlOleItems@@SGPAVCObject@@XZ 004cb140 f   ToolkitPro1501vc60S:XTPControlExt.obj
 0001:000ca1a0       ?GetRuntimeClass@CXTPControlOleItems@@UBEPAUCRuntimeClass@@XZ 004cb1a0 f   ToolkitPro1501vc60S:XTPControlExt.obj
 0001:000ca1d0       ?Clone@CXTPControlOleItems@@UAEPAVCXTPControl@@H@Z 004cb1d0 f   ToolkitPro1501vc60S:XTPControlExt.obj
 0001:000ca200       ?OnCalcDynamicSize@CXTPControlOleItems@@MAEXK@Z 004cb200 f   ToolkitPro1501vc60S:XTPControlExt.obj
 0001:000ca4a0       ?CreateObject@CXTPControlRecentFileList@@SGPAVCObject@@XZ 004cb4a0 f   ToolkitPro1501vc60S:XTPControlExt.obj
 0001:000ca500       ?GetRuntimeClass@CXTPControlRecentFileList@@UBEPAUCRuntimeClass@@XZ 004cb500 f   ToolkitPro1501vc60S:XTPControlExt.obj
 0001:000ca530       ?Clone@CXTPControlRecentFileList@@UAEPAVCXTPControl@@H@Z 004cb530 f   ToolkitPro1501vc60S:XTPControlExt.obj
 0001:000ca560       ?GetRecentFileList@CXTPRibbonControlSystemRecentFileList@@MAEPAVCRecentFileList@@XZ 004cb560 f   ToolkitPro1501vc60S:XTPControlExt.obj
 0001:000ca560       ?GetRecentFileList@CXTPControlRecentFileList@@MAEPAVCRecentFileList@@XZ 004cb560 f   ToolkitPro1501vc60S:XTPControlExt.obj
 0001:000ca570       ?GetFirstMruID@CXTPControlRecentFileList@@MAEHXZ 004cb570 f   ToolkitPro1501vc60S:XTPControlExt.obj
 0001:000ca570       ?GetFirstMruID@CXTPRibbonControlSystemRecentFileList@@MAEHXZ 004cb570 f   ToolkitPro1501vc60S:XTPControlExt.obj
 0001:000ca580       ?OnCalcDynamicSize@CXTPControlRecentFileList@@MAEXK@Z 004cb580 f   ToolkitPro1501vc60S:XTPControlExt.obj
 0001:000ca810       ?IsCustomizeDragOverAvail@CXTPControlOleItems@@MAEHPAVCXTPCommandBar@@VCPoint@@AAK@Z 004cb810 f   ToolkitPro1501vc60S:XTPControlExt.obj
 0001:000ca810       ?IsCustomizeDragOverAvail@CXTPControlToolbars@@MAEHPAVCXTPCommandBar@@VCPoint@@AAK@Z 004cb810 f   ToolkitPro1501vc60S:XTPControlExt.obj
 0001:000ca810       ?IsCustomizeDragOverAvail@CXTPRibbonControlSystemRecentFileList@@MAEHPAVCXTPCommandBar@@VCPoint@@AAK@Z 004cb810 f   ToolkitPro1501vc60S:XTPControlExt.obj
 0001:000ca810       ?IsCustomizeDragOverAvail@CXTPControlRecentFileList@@MAEHPAVCXTPCommandBar@@VCPoint@@AAK@Z 004cb810 f   ToolkitPro1501vc60S:XTPControlExt.obj
 0001:000ca810       ?IsCustomizeDragOverAvail@CXTPControlWindowList@@MAEHPAVCXTPCommandBar@@VCPoint@@AAK@Z 004cb810 f   ToolkitPro1501vc60S:XTPControlExt.obj
 0001:000ca810       ?IsCustomizeDragOverAvail@CXTPControlCustom@@MAEHPAVCXTPCommandBar@@VCPoint@@AAK@Z 004cb810 f   ToolkitPro1501vc60S:XTPControlExt.obj
 0001:000ca840       ?CreateObject@CXTPControlSelector@@SGPAVCObject@@XZ 004cb840 f   ToolkitPro1501vc60S:XTPControlExt.obj
 0001:000ca8a0       ?GetRuntimeClass@CXTPControlSelector@@UBEPAUCRuntimeClass@@XZ 004cb8a0 f   ToolkitPro1501vc60S:XTPControlExt.obj
 0001:000ca8d0       ?Clone@CXTPControlSelector@@UAEPAVCXTPControl@@H@Z 004cb8d0 f   ToolkitPro1501vc60S:XTPControlExt.obj
 0001:000ca900       ??0CXTPControlSelector@@QAE@XZ 004cb900 f   ToolkitPro1501vc60S:XTPControlExt.obj
 0001:000ca960       ?Draw@CXTPControlSelector@@MAEXPAVCDC@@@Z 004cb960 f   ToolkitPro1501vc60S:XTPControlExt.obj
 0001:000cab00       ?GetSize@CXTPControlSelector@@MAE?AVCSize@@PAVCDC@@@Z 004cbb00 f   ToolkitPro1501vc60S:XTPControlExt.obj
 0001:000cab30       ?OnLButtonUp@CXTPControlSelector@@MAEXVCPoint@@@Z 004cbb30 f   ToolkitPro1501vc60S:XTPControlExt.obj
 0001:000cab70       ?OnSetSelected@CXTPControlSelector@@MAEHH@Z 004cbb70 f   ToolkitPro1501vc60S:XTPControlExt.obj
 0001:000cacc0       ?OnCalcDynamicSize@CXTPControlSelector@@MAEXK@Z 004cbcc0 f   ToolkitPro1501vc60S:XTPControlExt.obj
 0001:000cad10       ?SetItemsActive@CXTPControlSelector@@IAEXVCSize@@H@Z 004cbd10 f   ToolkitPro1501vc60S:XTPControlExt.obj
 0001:000cad60       ?OnMouseMove@CXTPControlSelector@@MAEXVCPoint@@@Z 004cbd60 f   ToolkitPro1501vc60S:XTPControlExt.obj
 0001:000cadf0       ?Copy@CXTPControlSelector@@MAEXPAVCXTPControl@@H@Z 004cbdf0 f   ToolkitPro1501vc60S:XTPControlExt.obj
 0001:000cae50       ?DoPropExchange@CXTPControlSelector@@MAEXPAVCXTPPropExchange@@@Z 004cbe50 f   ToolkitPro1501vc60S:XTPControlExt.obj
 0001:000caeb0       ?CreateObject@CXTPControlWorkspaceActions@@SGPAVCObject@@XZ 004cbeb0 f   ToolkitPro1501vc60S:XTPControlExt.obj
 0001:000caf10       ?GetRuntimeClass@CXTPControlWorkspaceActions@@UBEPAUCRuntimeClass@@XZ 004cbf10 f   ToolkitPro1501vc60S:XTPControlExt.obj
 0001:000caf40       ?Clone@CXTPControlWorkspaceActions@@UAEPAVCXTPControl@@H@Z 004cbf40 f   ToolkitPro1501vc60S:XTPControlExt.obj
 0001:000caf70       ?AddCommand@CXTPControlWorkspaceActions@@IAEXPAVCXTPTabClientWnd@@IAAH@Z 004cbf70 f   ToolkitPro1501vc60S:XTPControlExt.obj
 0001:000cafb0       ?OnCalcDynamicSize@CXTPControlWorkspaceActions@@MAEXK@Z 004cbfb0 f   ToolkitPro1501vc60S:XTPControlExt.obj
 0001:000cb100       ?CreateObject@CXTPControlLabel@@SGPAVCObject@@XZ 004cc100 f   ToolkitPro1501vc60S:XTPControlExt.obj
 0001:000cb170       ?GetRuntimeClass@CXTPControlLabel@@UBEPAUCRuntimeClass@@XZ 004cc170 f   ToolkitPro1501vc60S:XTPControlExt.obj
 0001:000cb1a0       ?Clone@CXTPControlLabel@@UAEPAVCXTPControl@@H@Z 004cc1a0 f   ToolkitPro1501vc60S:XTPControlExt.obj
 0001:000cb1d0       ?OnClick@CXTPControlProgress@@MAEXHVCPoint@@@Z 004cc1d0 f   ToolkitPro1501vc60S:XTPControlExt.obj
 0001:000cb1d0       ?OnClick@CXTPControlLabel@@UAEXHVCPoint@@@Z 004cc1d0 f   ToolkitPro1501vc60S:XTPControlExt.obj
 0001:000cb210       ?CreateObject@CXTPControlCheckBox@@SGPAVCObject@@XZ 004cc210 f   ToolkitPro1501vc60S:XTPControlExt.obj
 0001:000cb270       ?GetRuntimeClass@CXTPControlCheckBox@@UBEPAUCRuntimeClass@@XZ 004cc270 f   ToolkitPro1501vc60S:XTPControlExt.obj
 0001:000cb2a0       ?Clone@CXTPControlCheckBox@@UAEPAVCXTPControl@@H@Z 004cc2a0 f   ToolkitPro1501vc60S:XTPControlExt.obj
 0001:000cb2d0       ??0CXTPControlCheckBox@@QAE@XZ 004cc2d0 f   ToolkitPro1501vc60S:XTPControlExt.obj
 0001:000cb300       ?CreateObject@CXTPControlRadioButton@@SGPAVCObject@@XZ 004cc300 f   ToolkitPro1501vc60S:XTPControlExt.obj
 0001:000cb360       ?GetRuntimeClass@CXTPControlRadioButton@@UBEPAUCRuntimeClass@@XZ 004cc360 f   ToolkitPro1501vc60S:XTPControlExt.obj
 0001:000cb390       ?Clone@CXTPControlRadioButton@@UAEPAVCXTPControl@@H@Z 004cc390 f   ToolkitPro1501vc60S:XTPControlExt.obj
 0001:000cb3c0       ??0CXTPControlRadioButton@@QAE@XZ 004cc3c0 f   ToolkitPro1501vc60S:XTPControlExt.obj
 0001:000cb3f0       ?IsFocused@CXTPControlRadioButton@@MBEHXZ 004cc3f0 f   ToolkitPro1501vc60S:XTPControlExt.obj
 0001:000cb3f0       ?IsFocused@CXTPControlCheckBox@@MBEHXZ 004cc3f0 f   ToolkitPro1501vc60S:XTPControlExt.obj
 0001:000cb400       ?OnHookKeyDown@CXTPControlRadioButton@@MAEHIJ@Z 004cc400 f   ToolkitPro1501vc60S:XTPControlExt.obj
 0001:000cb400       ?OnHookKeyDown@CXTPControlCheckBox@@MAEHIJ@Z 004cc400 f   ToolkitPro1501vc60S:XTPControlExt.obj
 0001:000cb430       ?CreateObject@CXTPControlMarkupLabel@@SGPAVCObject@@XZ 004cc430 f   ToolkitPro1501vc60S:XTPControlExt.obj
 0001:000cb490       ?GetRuntimeClass@CXTPControlMarkupLabel@@UBEPAUCRuntimeClass@@XZ 004cc490 f   ToolkitPro1501vc60S:XTPControlExt.obj
 0001:000cb4c0       ?Clone@CXTPControlMarkupLabel@@UAEPAVCXTPControl@@H@Z 004cc4c0 f   ToolkitPro1501vc60S:XTPControlExt.obj
 0001:000cb4f0       ??0CXTPControlMarkupLabel@@QAE@XZ 004cc4f0 f   ToolkitPro1501vc60S:XTPControlExt.obj
 0001:000cb530       ??_ECXTPControlMarkupLabel@@UAEPAXI@Z 004cc530 f i ToolkitPro1501vc60S:XTPControlExt.obj
 0001:000cb530       ??_GCXTPControlMarkupLabel@@UAEPAXI@Z 004cc530 f i ToolkitPro1501vc60S:XTPControlExt.obj
 0001:000cb550       ??1CXTPControlMarkupLabel@@UAE@XZ 004cc550 f   ToolkitPro1501vc60S:XTPControlExt.obj
 0001:000cb5b0       ?OnCaptionChanged@CXTPControlMarkupLabel@@MAEXXZ 004cc5b0 f   ToolkitPro1501vc60S:XTPControlExt.obj
 0001:000cb5f0       ?GetSize@CXTPControlMarkupLabel@@MAE?AVCSize@@PAVCDC@@@Z 004cc5f0 f   ToolkitPro1501vc60S:XTPControlExt.obj
 0001:000cb6a0       ?Draw@CXTPControlMarkupLabel@@MAEXPAVCDC@@@Z 004cc6a0 f   ToolkitPro1501vc60S:XTPControlExt.obj
 0001:000cb7a0       ?CreateObject@CXTPControlBitmap@@SGPAVCObject@@XZ 004cc7a0 f   ToolkitPro1501vc60S:XTPControlExt.obj
 0001:000cb800       ?GetRuntimeClass@CXTPControlBitmap@@UBEPAUCRuntimeClass@@XZ 004cc800 f   ToolkitPro1501vc60S:XTPControlExt.obj
 0001:000cb830       ?Clone@CXTPControlBitmap@@UAEPAVCXTPControl@@H@Z 004cc830 f   ToolkitPro1501vc60S:XTPControlExt.obj
 0001:000cb860       ??0CXTPControlBitmap@@QAE@XZ 004cc860 f   ToolkitPro1501vc60S:XTPControlExt.obj
 0001:000cb890       ?GetSize@CXTPControlBitmap@@MAE?AVCSize@@PAVCDC@@@Z 004cc890 f   ToolkitPro1501vc60S:XTPControlExt.obj
 0001:000cb8e0       ?Draw@CXTPControlBitmap@@MAEXPAVCDC@@@Z 004cc8e0 f   ToolkitPro1501vc60S:XTPControlExt.obj
 0001:000cb930       ?CreateObject@CXTPControlHyperlink@@SGPAVCObject@@XZ 004cc930 f   ToolkitPro1501vc60S:XTPControlExt.obj
 0001:000cb990       ?GetRuntimeClass@CXTPControlHyperlink@@UBEPAUCRuntimeClass@@XZ 004cc990 f   ToolkitPro1501vc60S:XTPControlExt.obj
 0001:000cb9c0       ?Clone@CXTPControlHyperlink@@UAEPAVCXTPControl@@H@Z 004cc9c0 f   ToolkitPro1501vc60S:XTPControlExt.obj
 0001:000cb9f0       ??0CXTPControlHyperlink@@QAE@XZ 004cc9f0 f   ToolkitPro1501vc60S:XTPControlExt.obj
 0001:000cba60       ?GetSize@CXTPControlHyperlink@@MAE?AVCSize@@PAVCDC@@@Z 004cca60 f   ToolkitPro1501vc60S:XTPControlExt.obj
 0001:000cbb20       ?Draw@CXTPControlHyperlink@@MAEXPAVCDC@@@Z 004ccb20 f   ToolkitPro1501vc60S:XTPControlExt.obj
 0001:000cbc30       ?OnClick@CXTPControlHyperlink@@MAEXHVCPoint@@@Z 004ccc30 f   ToolkitPro1501vc60S:XTPControlExt.obj
 0001:000cbc80       ?OnExecute@CXTPControlHyperlink@@MAEXXZ 004ccc80 f   ToolkitPro1501vc60S:XTPControlExt.obj
 0001:000cbca0       ?OnMouseMove@CXTPControlHyperlink@@MAEXVCPoint@@@Z 004ccca0 f   ToolkitPro1501vc60S:XTPControlExt.obj
 0001:000cbcb0       ??_ECXTPControlHyperlink@@WBM@AEPAXI@Z 004cccb0 f i ToolkitPro1501vc60S:XTPControlExt.obj
 0001:000cbcb0       ??_ECXTPControlLabel@@WBM@AEPAXI@Z 004cccb0 f i ToolkitPro1501vc60S:XTPControlExt.obj
 0001:000cbcb0       ??_ECXTPRibbonBackstageCommand@@WBM@AEPAXI@Z 004cccb0 f i ToolkitPro1501vc60S:XTPControlExt.obj
 0001:000cbcb0       ??_ECXTPRibbonControlSystemRecentFileList@@WBM@AEPAXI@Z 004cccb0 f i ToolkitPro1501vc60S:XTPControlExt.obj
 0001:000cbcb0       ??_ECXTPRibbonBackstageTab@@WBM@AEPAXI@Z 004cccb0 f i ToolkitPro1501vc60S:XTPControlExt.obj
 0001:000cbcb0       ??_ECXTPRibbonControlSystemPopupBarListCaption@@WBM@AEPAXI@Z 004cccb0 f i ToolkitPro1501vc60S:XTPControlExt.obj
 0001:000cbcb0       ??_ECXTPControlBitmap@@WBM@AEPAXI@Z 004cccb0 f i ToolkitPro1501vc60S:XTPControlExt.obj
 0001:000cbcb0       ??_ECXTPControlSelector@@WBM@AEPAXI@Z 004cccb0 f i ToolkitPro1501vc60S:XTPControlExt.obj
 0001:000cbcc0       ??_ECXTPControlMarkupLabel@@WBM@AEPAXI@Z 004cccc0 f i ToolkitPro1501vc60S:XTPControlExt.obj
 0001:000cbcd0       ??0CRichEditContext@CXTPCommandBarEditCtrl@@QAE@XZ 004cccd0 f   ToolkitPro1501vc60S:XTPControlComboBox.obj
 0001:000cbd70       ??1CRichEditContext@CXTPCommandBarEditCtrl@@QAE@XZ 004ccd70 f   ToolkitPro1501vc60S:XTPControlComboBox.obj
 0001:000cbd80       ?GetRichEditContext@CXTPCommandBarEditCtrl@@IAEAAVCRichEditContext@1@XZ 004ccd80 f   ToolkitPro1501vc60S:XTPControlComboBox.obj
 0001:000cbdd0       ?CreateObject@CXTPCommandBarEditCtrl@@SGPAVCObject@@XZ 004ccdd0 f   ToolkitPro1501vc60S:XTPControlComboBox.obj
 0001:000cbe30       ?GetRuntimeClass@CXTPCommandBarEditCtrl@@UBEPAUCRuntimeClass@@XZ 004cce30 f   ToolkitPro1501vc60S:XTPControlComboBox.obj
 0001:000cbe40       ??0CXTPCommandBarEditCtrl@@QAE@XZ 004cce40 f   ToolkitPro1501vc60S:XTPControlComboBox.obj
 0001:000cbe60       ??1CXTPComboBoxEditCtrl@@UAE@XZ 004cce60 f i ToolkitPro1501vc60S:XTPControlComboBox.obj
 0001:000cbe60       ??1CXTPControlComboBoxEditCtrl@@UAE@XZ 004cce60 f i ToolkitPro1501vc60S:XTPControlComboBox.obj
 0001:000cbe60       ??1CXTPCommandBarEditCtrl@@UAE@XZ 004cce60 f i ToolkitPro1501vc60S:XTPControlComboBox.obj
 0001:000cbe60       ??1CXTPControlEditCtrl@@UAE@XZ 004cce60 f i ToolkitPro1501vc60S:XTPControlComboBox.obj
 0001:000cbe70       ?IsCommandEnabled@CXTPCommandBarEditCtrl@@IAEHI@Z 004cce70 f   ToolkitPro1501vc60S:XTPControlComboBox.obj
 0001:000cbf10       ?OnCmdMsg@CXTPCommandBarEditCtrl@@UAEHIHPAXPAUAFX_CMDHANDLERINFO@@@Z 004ccf10 f   ToolkitPro1501vc60S:XTPControlComboBox.obj
 0001:000cbf60       ?OnCommand@CXTPCommandBarEditCtrl@@UAEHIJ@Z 004ccf60 f   ToolkitPro1501vc60S:XTPControlComboBox.obj
 0001:000cbfe0       ?ShowContextMenu@CXTPCommandBarEditCtrl@@UAEHPAVCXTPControl@@VCPoint@@@Z 004ccfe0 f   ToolkitPro1501vc60S:XTPControlComboBox.obj
 0001:000cc210       ?CreateEdit@CXTPCommandBarEditCtrl@@UAEHKPAVCWnd@@@Z 004cd210 f   ToolkitPro1501vc60S:XTPControlComboBox.obj
 0001:000cc2c0       ?IsDialogCode@CXTPCommandBarEditCtrl@@QAEHIJ@Z 004cd2c0 f   ToolkitPro1501vc60S:XTPControlComboBox.obj
 0001:000cc340       ?SetWindowTextEx@CXTPCommandBarEditCtrl@@QAEXPBD@Z 004cd340 f   ToolkitPro1501vc60S:XTPControlComboBox.obj
 0001:000cc370       ?GetWindowTextEx@CXTPCommandBarEditCtrl@@QAEXAAVCString@@@Z 004cd370 f   ToolkitPro1501vc60S:XTPControlComboBox.obj
 0001:000cc380       ?GetMessageMap@CXTPCommandBarEditCtrl@@MBEPBUAFX_MSGMAP@@XZ 004cd380 f   ToolkitPro1501vc60S:XTPControlComboBox.obj
 0001:000cc390       ?OnImeStartComposition@CXTPCommandBarEditCtrl@@IAEXXZ 004cd390 f   ToolkitPro1501vc60S:XTPControlComboBox.obj
 0001:000cc3b0       ?OnImeEndComposition@CXTPCommandBarEditCtrl@@IAEXXZ 004cd3b0 f   ToolkitPro1501vc60S:XTPControlComboBox.obj
 0001:000cc3d0       ?OnKillFocus@CXTPCommandBarEditCtrl@@IAEXPAVCWnd@@@Z 004cd3d0 f   ToolkitPro1501vc60S:XTPControlComboBox.obj
 0001:000cc3f0       ?OnPaint@CXTPCommandBarEditCtrl@@IAEXXZ 004cd3f0 f   ToolkitPro1501vc60S:XTPControlComboBox.obj
 0001:000cc480       ??0CXTPControlComboBoxAutoCompleteWnd@@QAE@XZ 004cd480 f   ToolkitPro1501vc60S:XTPControlComboBox.obj
 0001:000cc4a0       ??_ECXTPControlComboBoxAutoCompleteWnd@@UAEPAXI@Z 004cd4a0 f i ToolkitPro1501vc60S:XTPControlComboBox.obj
 0001:000cc4a0       ??_GCXTPControlComboBoxAutoCompleteWnd@@UAEPAXI@Z 004cd4a0 f i ToolkitPro1501vc60S:XTPControlComboBox.obj
 0001:000cc4c0       ??1CXTPControlComboBoxAutoCompleteWnd@@UAE@XZ 004cd4c0 f   ToolkitPro1501vc60S:XTPControlComboBox.obj
 0001:000cc520       ?IsDialogCode@CXTPControlComboBoxAutoCompleteWnd@@QAEHIJ@Z 004cd520 f   ToolkitPro1501vc60S:XTPControlComboBox.obj
 0001:000cc5c0       ?ShellAutoComplete@CXTPControlComboBoxAutoCompleteWnd@@QAEJPAUHWND__@@K@Z 004cd5c0 f   ToolkitPro1501vc60S:XTPControlComboBox.obj
 0001:000cc610       ?CloseWindow@CXTPControlComboBoxAutoCompleteWnd@@QAEXXZ 004cd610 f   ToolkitPro1501vc60S:XTPControlComboBox.obj
 0001:000cc630       ?SetAutoCompeteHandle@CXTPControlComboBoxAutoCompleteWnd@@AAEXPAUHWND__@@@Z 004cd630 f   ToolkitPro1501vc60S:XTPControlComboBox.obj
 0001:000cc680       ?SetupMessageHook@CXTPControlComboBoxAutoCompleteWnd@@QAEXH@Z 004cd680 f   ToolkitPro1501vc60S:XTPControlComboBox.obj
 0001:000cc730       ?OnHookMessage@CXTPControlComboBoxAutoCompleteWnd@@EAEHPAUHWND__@@IAAIAAJ2@Z 004cd730 f   ToolkitPro1501vc60S:XTPControlComboBox.obj
 0001:000cc750       ?CallWndProc@CXTPControlComboBoxAutoCompleteWnd@@CGJHIJ@Z 004cd750 f   ToolkitPro1501vc60S:XTPControlComboBox.obj
 0001:000cc820       ?CreateObject@CXTPControlComboBox@@SGPAVCObject@@XZ 004cd820 f   ToolkitPro1501vc60S:XTPControlComboBox.obj
 0001:000cc880       ?GetRuntimeClass@CXTPControlComboBox@@UBEPAUCRuntimeClass@@XZ 004cd880 f   ToolkitPro1501vc60S:XTPControlComboBox.obj
 0001:000cc8b0       ?Clone@CXTPControlComboBox@@UAEPAVCXTPControl@@H@Z 004cd8b0 f   ToolkitPro1501vc60S:XTPControlComboBox.obj
 0001:000cc8e0       ??0CXTPControlComboBox@@QAE@PAVCXTPCommandBars@@@Z 004cd8e0 f   ToolkitPro1501vc60S:XTPControlComboBox.obj
 0001:000cca60       ?GetText@CXTPControlComboBox@@UBE?AVCString@@XZ 004cda60 f i ToolkitPro1501vc60S:XTPControlComboBox.obj
 0001:000cca80       ?OnThemeChanged@CXTPControlComboBox@@MAEXXZ 004cda80 f i ToolkitPro1501vc60S:XTPControlComboBox.obj
 0001:000cca90       ??_ECXTPControlComboBox@@UAEPAXI@Z 004cda90 f i ToolkitPro1501vc60S:XTPControlComboBox.obj
 0001:000cca90       ??_GCXTPControlComboBox@@UAEPAXI@Z 004cda90 f i ToolkitPro1501vc60S:XTPControlComboBox.obj
 0001:000ccab0       ??1CXTPControlComboBox@@UAE@XZ 004cdab0 f   ToolkitPro1501vc60S:XTPControlComboBox.obj
 0001:000ccb60       ?GetEditText@CXTPControlComboBox@@QBE?AVCString@@XZ 004cdb60 f   ToolkitPro1501vc60S:XTPControlComboBox.obj
 0001:000ccc40       ?_GetEditText@CXTPControlComboBox@@IBE?AVCString@@XZ 004cdc40 f   ToolkitPro1501vc60S:XTPControlComboBox.obj
 0001:000ccca0       ?SetEditText@CXTPControlComboBox@@QAEXABVCString@@@Z 004cdca0 f   ToolkitPro1501vc60S:XTPControlComboBox.obj
 0001:000ccd20       ?_SetEditText@CXTPControlComboBox@@IAEXABVCString@@@Z 004cdd20 f   ToolkitPro1501vc60S:XTPControlComboBox.obj
 0001:000ccda0       ?SetEditHint@CXTPControlComboBox@@QAEXPBD@Z 004cdda0 f   ToolkitPro1501vc60S:XTPControlComboBox.obj
 0001:000ccf20       ?IsImageVisible@CXTPControlEdit@@QBEHXZ 004cdf20 f   ToolkitPro1501vc60S:XTPControlComboBox.obj
 0001:000ccf20       ?IsImageVisible@CXTPControlComboBox@@QBEHXZ 004cdf20 f   ToolkitPro1501vc60S:XTPControlComboBox.obj
 0001:000ccf80       ?IsCaptionVisible@CXTPControlComboBox@@UBEHXZ 004cdf80 f   ToolkitPro1501vc60S:XTPControlComboBox.obj
 0001:000ccff0       ?GetEditHint@CXTPControlComboBox@@QBE?AVCString@@XZ 004cdff0 f   ToolkitPro1501vc60S:XTPControlComboBox.obj
 0001:000cd0c0       ?GetEditHint@CXTPControlAction@@QBE?AVCString@@XZ 004ce0c0 f i ToolkitPro1501vc60S:XTPControlComboBox.obj
 0001:000cd0e0       ?UpdatePopupSelection@CXTPControlComboBox@@QAEXXZ 004ce0e0 f   ToolkitPro1501vc60S:XTPControlComboBox.obj
 0001:000cd1b0       ?OnEditChanged@CXTPControlComboBox@@UAEXXZ 004ce1b0 f   ToolkitPro1501vc60S:XTPControlComboBox.obj
 0001:000cd330       ?OnSelChanged@CXTPControlComboBox@@UAEXXZ 004ce330 f   ToolkitPro1501vc60S:XTPControlComboBox.obj
 0001:000cd3b0       ?OnHookMouseWheel@CXTPControlComboBox@@MAEHIFVCPoint@@@Z 004ce3b0 f   ToolkitPro1501vc60S:XTPControlComboBox.obj
 0001:000cd420       ?OnHookKeyDown@CXTPControlComboBox@@MAEHIJ@Z 004ce420 f   ToolkitPro1501vc60S:XTPControlComboBox.obj
 0001:000cd620       ?CreateEditControl@CXTPControlComboBox@@MAEPAVCXTPControlComboBoxEditCtrl@@XZ 004ce620 f   ToolkitPro1501vc60S:XTPControlComboBox.obj
 0001:000cd670       ?SetDropDownListStyle@CXTPControlComboBox@@QAEXH@Z 004ce670 f   ToolkitPro1501vc60S:XTPControlComboBox.obj
 0001:000cd6c0       ?EnableShellAutoComplete@CXTPControlComboBox@@QAEXK@Z 004ce6c0 f   ToolkitPro1501vc60S:XTPControlComboBox.obj
 0001:000cd7a0       ?SetRect@CXTPControlComboBox@@MAEXVCRect@@@Z 004ce7a0 f   ToolkitPro1501vc60S:XTPControlComboBox.obj
 0001:000cda70       ?ShowHideEditControl@CXTPControlComboBox@@IAEXXZ 004cea70 f   ToolkitPro1501vc60S:XTPControlComboBox.obj
 0001:000cdae0       ?OnRemoved@CXTPControlComboBox@@MAEXXZ 004ceae0 f   ToolkitPro1501vc60S:XTPControlComboBox.obj
 0001:000cdb20       ?OnEnabledChanged@CXTPControlComboBox@@UAEXXZ 004ceb20 f   ToolkitPro1501vc60S:XTPControlComboBox.obj
 0001:000cdb60       ?SetParent@CXTPControlComboBox@@MAEXPAVCXTPCommandBar@@@Z 004ceb60 f   ToolkitPro1501vc60S:XTPControlComboBox.obj
 0001:000cdbc0       ?OnSetSelected@CXTPControlComboBox@@MAEHH@Z 004cebc0 f   ToolkitPro1501vc60S:XTPControlComboBox.obj
 0001:000cdc30       ?AllowWhiteSpaceContent@CXTPMarkupSpan@@MBEHXZ 004cec30 f   ToolkitPro1501vc60S:XTPControlComboBox.obj
 0001:000cdc30       ?IsFocusable@CXTPControlComboBox@@MBEHXZ 004cec30 f   ToolkitPro1501vc60S:XTPControlComboBox.obj
 0001:000cdc30       ?IsAlphaIconsSupported@CXTPImageManager@@QBEHXZ 004cec30 f   ToolkitPro1501vc60S:XTPControlComboBox.obj
 0001:000cdc30       ?IsFocusable@CXTPRibbonControlTab@@MBEHXZ 004cec30 f   ToolkitPro1501vc60S:XTPControlComboBox.obj
 0001:000cdc30       ?IsTransparent@CXTPRibbonGroupControlPopup@@UBEHXZ 004cec30 f   ToolkitPro1501vc60S:XTPControlComboBox.obj
 0001:000cdc30       ?ShouldSerializeBar@CXTPRibbonBar@@MAEHXZ 004cec30 f   ToolkitPro1501vc60S:XTPControlComboBox.obj
 0001:000cdc30       ?AllowWhiteSpaceContent@CXTPMarkupTextBlock@@MBEHXZ 004cec30 f   ToolkitPro1501vc60S:XTPControlComboBox.obj
 0001:000cdc30       ?IsComCtlValid@CXTPAuxData@@QBEHXZ 004cec30 f   ToolkitPro1501vc60S:XTPControlComboBox.obj
 0001:000cdc30       ?IsImagesAvailable@CXTPRibbonTheme@@IAEHXZ 004cec30 f   ToolkitPro1501vc60S:XTPControlComboBox.obj
 0001:000cdc40       ?OnClick@CXTPControlComboBox@@MAEXHVCPoint@@@Z 004cec40 f   ToolkitPro1501vc60S:XTPControlComboBox.obj
 0001:000cdd20       ?OnUnderlineActivate@CXTPControlComboBox@@MAEXXZ 004ced20 f   ToolkitPro1501vc60S:XTPControlComboBox.obj
 0001:000cdd20       ?OnUnderlineActivate@CXTPControlEdit@@MAEXXZ 004ced20 f   ToolkitPro1501vc60S:XTPControlComboBox.obj
 0001:000cdd40       ?SetHideFlags@CXTPControlComboBox@@UAEXK@Z 004ced40 f   ToolkitPro1501vc60S:XTPControlComboBox.obj
 0001:000cdd70       ?OnActionChanged@CXTPControlComboBox@@UAEXH@Z 004ced70 f   ToolkitPro1501vc60S:XTPControlComboBox.obj
 0001:000cde60       ?OnActionChanging@CXTPControlComboBox@@UAEXH@Z 004cee60 f   ToolkitPro1501vc60S:XTPControlComboBox.obj
 0001:000cdf50       ?OnCalcDynamicSize@CXTPControlComboBox@@MAEXK@Z 004cef50 f   ToolkitPro1501vc60S:XTPControlComboBox.obj
 0001:000cdf50       ?OnCalcDynamicSize@CXTPControlEdit@@MAEXK@Z 004cef50 f   ToolkitPro1501vc60S:XTPControlComboBox.obj
 0001:000cdf80       ?Copy@CXTPControlComboBox@@MAEXPAVCXTPControl@@H@Z 004cef80 f   ToolkitPro1501vc60S:XTPControlComboBox.obj
 0001:000ce090       ?Compare@CXTPControlComboBox@@UAEHPAVCXTPControl@@@Z 004cf090 f   ToolkitPro1501vc60S:XTPControlComboBox.obj
 0001:000ce0c0       ?GetListBoxText@CXTPControlComboBox@@UBE?AVCString@@XZ 004cf0c0 f   ToolkitPro1501vc60S:XTPControlComboBox.obj
 0001:000ce180       ?IsValidList@CXTPControlComboBox@@IBEHXZ 004cf180 f   ToolkitPro1501vc60S:XTPControlComboBox.obj
 0001:000ce190       ?GetComboBoxPopupBar@CXTPControlComboBox@@QBEPAVCXTPControlComboBoxPopupBar@@XZ 004cf190 f   ToolkitPro1501vc60S:XTPControlComboBox.obj
 0001:000ce1b0       ?GetCurSel@CXTPControlComboBox@@QBEHXZ 004cf1b0 f   ToolkitPro1501vc60S:XTPControlComboBox.obj
 0001:000ce1d0       ?SetCurSel@CXTPControlComboBox@@QAEXH@Z 004cf1d0 f   ToolkitPro1501vc60S:XTPControlComboBox.obj
 0001:000ce220       ?IsFocused@CXTPControlComboBox@@UBEHXZ 004cf220 f   ToolkitPro1501vc60S:XTPControlComboBox.obj
 0001:000ce230       ?SetFocused@CXTPControlComboBox@@UAEXH@Z 004cf230 f   ToolkitPro1501vc60S:XTPControlComboBox.obj
 0001:000ce380       ?OnSetFocus@CXTPControlComboBox@@MAEXPAVCWnd@@@Z 004cf380 f   ToolkitPro1501vc60S:XTPControlComboBox.obj
 0001:000ce510       ?OnKillFocus@CXTPControlComboBox@@MAEXXZ 004cf510 f   ToolkitPro1501vc60S:XTPControlComboBox.obj
 0001:000ce610       ?GetDroppedState@CXTPControlComboBox@@QBEHXZ 004cf610 f   ToolkitPro1501vc60S:XTPControlComboBox.obj
 0001:000ce620       ?OnSetPopup@CXTPControlComboBox@@MAEHH@Z 004cf620 f   ToolkitPro1501vc60S:XTPControlComboBox.obj
 0001:000ce6c0       ?OnExecute@CXTPControlComboBox@@UAEXXZ 004cf6c0 f   ToolkitPro1501vc60S:XTPControlComboBox.obj
 0001:000ce720       ?GetDefaultCharFormat@CXTPControlComboBox@@UAE?AUCHARFORMAT2A@@XZ 004cf720 f   ToolkitPro1501vc60S:XTPControlComboBox.obj
 0001:000ce850       ?CreateObject@CXTPControlComboBoxPopupBar@@SGPAVCObject@@XZ 004cf850 f   ToolkitPro1501vc60S:XTPControlComboBox.obj
 0001:000ce8b0       ?GetRuntimeClass@CXTPControlComboBoxPopupBar@@UBEPAUCRuntimeClass@@XZ 004cf8b0 f   ToolkitPro1501vc60S:XTPControlComboBox.obj
 0001:000ce8e0       ?Clone@CXTPControlComboBoxPopupBar@@UAEPAVCXTPCommandBar@@H@Z 004cf8e0 f   ToolkitPro1501vc60S:XTPControlComboBox.obj
 0001:000ce910       ??0CXTPControlComboBoxPopupBar@@QAE@XZ 004cf910 f   ToolkitPro1501vc60S:XTPControlComboBox.obj
 0001:000ce940       ?DelayRedraw@CXTPPopupBar@@MAEXXZ 004cf940 f i ToolkitPro1501vc60S:XTPControlComboBox.obj
 0001:000ce950       ?IsResizable@CXTPPopupBar@@UBEHXZ 004cf950 f i ToolkitPro1501vc60S:XTPControlComboBox.obj
 0001:000ce960       ?GetCurSel@CXTPControlComboBoxPopupBar@@UBEHXZ 004cf960 f i ToolkitPro1501vc60S:XTPControlComboBox.obj
 0001:000ce970       ?FindStringExact@CXTPControlComboBoxPopupBar@@UBEHHPBD@Z 004cf970 f i ToolkitPro1501vc60S:XTPControlComboBox.obj
 0001:000ce970       ?FindString@CXTPControlComboBoxPopupBar@@UBEHHPBD@Z 004cf970 f i ToolkitPro1501vc60S:XTPControlComboBox.obj
 0001:000ce980       ?ProcessHookKeyDown@CXTPControlComboBoxPopupBar@@UAEHPAVCXTPControlComboBox@@IJ@Z 004cf980 f   ToolkitPro1501vc60S:XTPControlComboBox.obj
 0001:000cea70       ?OnHookKeyDown@CXTPControlComboBoxPopupBar@@UAEHIJ@Z 004cfa70 f   ToolkitPro1501vc60S:XTPControlComboBox.obj
 0001:000ceae0       ??0CXTPControlComboBoxList@@QAE@XZ 004cfae0 f   ToolkitPro1501vc60S:XTPControlComboBox.obj
 0001:000ceb30       ?GetCurSel@CXTPControlComboBoxList@@MBEHXZ 004cfb30 f i ToolkitPro1501vc60S:XTPControlComboBox.obj
 0001:000ceb50       ?FindString@CXTPControlComboBoxList@@MBEHHPBD@Z 004cfb50 f i ToolkitPro1501vc60S:XTPControlComboBox.obj
 0001:000ceb80       ?FindStringExact@CXTPControlComboBoxList@@MBEHHPBD@Z 004cfb80 f i ToolkitPro1501vc60S:XTPControlComboBox.obj
 0001:000cebb0       ?SetTopIndex@CXTPControlComboBoxList@@MAEHH@Z 004cfbb0 f i ToolkitPro1501vc60S:XTPControlComboBox.obj
 0001:000cebd0       ?SetCurSel@CXTPControlComboBoxList@@MAEXH@Z 004cfbd0 f i ToolkitPro1501vc60S:XTPControlComboBox.obj
 0001:000cebf0       ?GetText@CXTPControlComboBoxList@@MBEXHAAVCString@@@Z 004cfbf0 f i ToolkitPro1501vc60S:XTPControlComboBox.obj
 0001:000cec10       ?GetMessageMap@CXTPControlComboBoxList@@MBEPBUAFX_MSGMAP@@XZ 004cfc10 f   ToolkitPro1501vc60S:XTPControlComboBox.obj
 0001:000cec20       ?CreateObject@CXTPControlComboBoxList@@SGPAVCObject@@XZ 004cfc20 f   ToolkitPro1501vc60S:XTPControlComboBox.obj
 0001:000cec80       ?GetRuntimeClass@CXTPControlComboBoxList@@UBEPAUCRuntimeClass@@XZ 004cfc80 f   ToolkitPro1501vc60S:XTPControlComboBox.obj
 0001:000cecb0       ?Clone@CXTPControlComboBoxList@@UAEPAVCXTPCommandBar@@H@Z 004cfcb0 f   ToolkitPro1501vc60S:XTPControlComboBox.obj
 0001:000cece0       ?CreateListBox@CXTPControlComboBoxList@@UAEXXZ 004cfce0 f   ToolkitPro1501vc60S:XTPControlComboBox.obj
 0001:000cee00       ?DrawItem@CXTPControlComboBoxList@@MAEXPAUtagDRAWITEMSTRUCT@@@Z 004cfe00 f   ToolkitPro1501vc60S:XTPControlComboBox.obj
 0001:000cee20       ?MeasureItem@CXTPControlComboBoxList@@MAEXPAUtagMEASUREITEMSTRUCT@@@Z 004cfe20 f   ToolkitPro1501vc60S:XTPControlComboBox.obj
 0001:000cee40       ?OnHookMessage@CXTPControlComboBoxList@@MAEHPAUHWND__@@IAAIAAJ2@Z 004cfe40 f   ToolkitPro1501vc60S:XTPControlComboBox.obj
 0001:000cee90       ?OnNcPaint@CXTPControlComboBoxList@@IAEXXZ 004cfe90 f   ToolkitPro1501vc60S:XTPControlComboBox.obj
 0001:000cef70       ?OnEraseBkgnd@CXTPControlComboBoxList@@IAEHPAVCDC@@@Z 004cff70 f   ToolkitPro1501vc60S:XTPControlComboBox.obj
 0001:000cef80       ?OnLButtonUp@CXTPControlComboBoxList@@IAEXIVCPoint@@@Z 004cff80 f   ToolkitPro1501vc60S:XTPControlComboBox.obj
 0001:000cefa0       ?SetTrackingMode@CXTPControlComboBoxList@@MAEHHHH@Z 004cffa0 f   ToolkitPro1501vc60S:XTPControlComboBox.obj
 0001:000cf060       ?ProcessHookKeyDown@CXTPControlComboBoxList@@MAEHPAVCXTPControlComboBox@@IJ@Z 004d0060 f   ToolkitPro1501vc60S:XTPControlComboBox.obj
 0001:000cf1c0       ?OnHookKeyDown@CXTPControlComboBoxList@@MAEHIJ@Z 004d01c0 f   ToolkitPro1501vc60S:XTPControlComboBox.obj
 0001:000cf280       ?OnMouseMove@CXTPControlComboBoxList@@IAEXIVCPoint@@@Z 004d0280 f   ToolkitPro1501vc60S:XTPControlComboBox.obj
 0001:000cf2e0       ?Popup@CXTPControlComboBoxList@@MAEHPAVCXTPControlPopup@@H@Z 004d02e0 f   ToolkitPro1501vc60S:XTPControlComboBox.obj
 0001:000cf470       ?OnPaint@CXTPControlComboBoxList@@IAEXXZ 004d0470 f   ToolkitPro1501vc60S:XTPControlComboBox.obj
 0001:000cf530       ?DrawCommandBar@CXTPControlComboBoxList@@MAEXPAVCDC@@VCRect@@@Z 004d0530 f   ToolkitPro1501vc60S:XTPControlComboBox.obj
 0001:000cf580       ?GetMessageMap@CXTPControlComboBoxEditCtrl@@MBEPBUAFX_MSGMAP@@XZ 004d0580 f   ToolkitPro1501vc60S:XTPControlComboBox.obj
 0001:000cf590       ?OnEditChanged@CXTPControlComboBoxEditCtrl@@IAEXXZ 004d0590 f   ToolkitPro1501vc60S:XTPControlComboBox.obj
 0001:000cf5e0       ?OnKeyDown@CXTPControlComboBoxEditCtrl@@IAEXIII@Z 004d05e0 f   ToolkitPro1501vc60S:XTPControlComboBox.obj
 0001:000cf5e0       ?OnKeyDown@CXTPControlEditCtrl@@IAEXIII@Z 004d05e0 f   ToolkitPro1501vc60S:XTPControlComboBox.obj
 0001:000cf620       ?UpdateCharFormat@CXTPControlComboBoxEditCtrl@@IAEXXZ 004d0620 f   ToolkitPro1501vc60S:XTPControlComboBox.obj
 0001:000cf6a0       ?OnShellAutoCompleteStart@CXTPControlComboBoxEditCtrl@@IAEXXZ 004d06a0 f   ToolkitPro1501vc60S:XTPControlComboBox.obj
 0001:000cf6c0       ?OnRButtonDown@CXTPControlComboBoxEditCtrl@@IAEXIVCPoint@@@Z 004d06c0 f   ToolkitPro1501vc60S:XTPControlComboBox.obj
 0001:000cf760       ?OnLButtonDown@CXTPControlEditCtrl@@IAEXIVCPoint@@@Z 004d0760 f   ToolkitPro1501vc60S:XTPControlComboBox.obj
 0001:000cf760       ?OnLButtonDown@CXTPControlComboBoxEditCtrl@@IAEXIVCPoint@@@Z 004d0760 f   ToolkitPro1501vc60S:XTPControlComboBox.obj
 0001:000cf7a0       ?OnDestroy@CXTPControlComboBoxEditCtrl@@IAEXXZ 004d07a0 f   ToolkitPro1501vc60S:XTPControlComboBox.obj
 0001:000cf7c0       ?OnWndMsg@CXTPControlEditCtrl@@MAEHIIJPAJ@Z 004d07c0 f   ToolkitPro1501vc60S:XTPControlComboBox.obj
 0001:000cf7c0       ?OnWndMsg@CXTPControlComboBoxEditCtrl@@MAEHIIJPAJ@Z 004d07c0 f   ToolkitPro1501vc60S:XTPControlComboBox.obj
 0001:000cf800       ?OnSetFocus@CXTPControlComboBoxEditCtrl@@IAEXPAVCWnd@@@Z 004d0800 f   ToolkitPro1501vc60S:XTPControlComboBox.obj
 0001:000cf870       ?OnKillFocus@CXTPControlComboBoxEditCtrl@@IAEXPAVCWnd@@@Z 004d0870 f   ToolkitPro1501vc60S:XTPControlComboBox.obj
 0001:000cf890       ?Copy@CXTPControlComboBoxList@@MAEXPAVCXTPCommandBar@@H@Z 004d0890 f   ToolkitPro1501vc60S:XTPControlComboBox.obj
 0001:000cf9b0       ?DoPropExchange@CXTPControlComboBoxList@@MAEXPAVCXTPPropExchange@@@Z 004d09b0 f   ToolkitPro1501vc60S:XTPControlComboBox.obj
 0001:000cfc20       ?OnMouseMove@CXTPControlComboBox@@MAEXVCPoint@@@Z 004d0c20 f   ToolkitPro1501vc60S:XTPControlComboBox.obj
 0001:000cfce0       ?GetListIconId@CXTPControlComboBox@@QBEHXZ 004d0ce0 f   ToolkitPro1501vc60S:XTPControlComboBox.obj
 0001:000cfd00       ?GetCustomizeMinWidth@CXTPControlComboBox@@MBEHXZ 004d0d00 f   ToolkitPro1501vc60S:XTPControlComboBox.obj
 0001:000cfd20       ?DeflateEditRect@CXTPControlComboBox@@MAEXAAVCRect@@@Z 004d0d20 f   ToolkitPro1501vc60S:XTPControlComboBox.obj
 0001:000cfd60       ?DrawEditText@CXTPControlComboBox@@UAEXPAVCDC@@VCRect@@@Z 004d0d60 f   ToolkitPro1501vc60S:XTPControlComboBox.obj
 0001:000cffe0       ??0CPoint@@QAE@HH@Z        004d0fe0 f i ToolkitPro1501vc60S:XTPControlComboBox.obj
 0001:000d0000       ?CenterPoint@CRect@@QBE?AVCPoint@@XZ 004d1000 f i ToolkitPro1501vc60S:XTPControlComboBox.obj
 0001:000d0030       ?DrawItem@CXTPControlComboBox@@MAEXPAUtagDRAWITEMSTRUCT@@@Z 004d1030 f   ToolkitPro1501vc60S:XTPControlComboBox.obj
 0001:000d0260       ??_9@$BBLE@AE              004d1260 f i ToolkitPro1501vc60S:XTPControlComboBox.obj
 0001:000d0270       ??_9@$BBLI@AE              004d1270 f i ToolkitPro1501vc60S:XTPControlComboBox.obj
 0001:000d0280       ??_ECXTPRibbonSystemPopupBarPage@@WDM@AEPAXI@Z 004d1280 f i ToolkitPro1501vc60S:XTPControlComboBox.obj
 0001:000d0280       ??_ECXTPControlComboBoxList@@WDM@AEPAXI@Z 004d1280 f i ToolkitPro1501vc60S:XTPControlComboBox.obj
 0001:000d0280       ??_ECXTPControlComboBoxGalleryPopupBar@@WDM@AEPAXI@Z 004d1280 f i ToolkitPro1501vc60S:XTPControlComboBox.obj
 0001:000d0280       ??_ECXTPSysMenuPopupBar@CControlMDISysMenuPopup@CXTPMenuBar@@WDM@AEPAXI@Z 004d1280 f i ToolkitPro1501vc60S:XTPControlComboBox.obj
 0001:000d0280       ??_ECXTPControlComboBoxPopupBar@@WDM@AEPAXI@Z 004d1280 f i ToolkitPro1501vc60S:XTPControlComboBox.obj
 0001:000d0280       ??_ECXTPPopupToolBar@@WDM@AEPAXI@Z 004d1280 f i ToolkitPro1501vc60S:XTPControlComboBox.obj
 0001:000d0280       ??_ECCaptionPopupBar@CXTPDialogBar@@WDM@AEPAXI@Z 004d1280 f i ToolkitPro1501vc60S:XTPControlComboBox.obj
 0001:000d0280       ??_ECXTPRibbonBarMorePopupToolBar@@WDM@AEPAXI@Z 004d1280 f i ToolkitPro1501vc60S:XTPControlComboBox.obj
 0001:000d0280       ??_ECXTPRibbonSystemPopupBar@@WDM@AEPAXI@Z 004d1280 f i ToolkitPro1501vc60S:XTPControlComboBox.obj
 0001:000d0290       ??_ECXTPRibbonSystemPopupBarPage@@WEE@AEPAXI@Z 004d1290 f i ToolkitPro1501vc60S:XTPControlComboBox.obj
 0001:000d0290       ??_ECCaptionPopupBar@CXTPDialogBar@@WEE@AEPAXI@Z 004d1290 f i ToolkitPro1501vc60S:XTPControlComboBox.obj
 0001:000d0290       ??_ECXTPRibbonSystemPopupBar@@WEE@AEPAXI@Z 004d1290 f i ToolkitPro1501vc60S:XTPControlComboBox.obj
 0001:000d0290       ??_ECXTPControlComboBoxGalleryPopupBar@@WEE@AEPAXI@Z 004d1290 f i ToolkitPro1501vc60S:XTPControlComboBox.obj
 0001:000d0290       ??_ECXTPPopupToolBar@@WEE@AEPAXI@Z 004d1290 f i ToolkitPro1501vc60S:XTPControlComboBox.obj
 0001:000d0290       ??_ECXTPControlComboBoxList@@WEE@AEPAXI@Z 004d1290 f i ToolkitPro1501vc60S:XTPControlComboBox.obj
 0001:000d0290       ??_ECXTPSysMenuPopupBar@CControlMDISysMenuPopup@CXTPMenuBar@@WEE@AEPAXI@Z 004d1290 f i ToolkitPro1501vc60S:XTPControlComboBox.obj
 0001:000d0290       ??_ECXTPControlComboBoxPopupBar@@WEE@AEPAXI@Z 004d1290 f i ToolkitPro1501vc60S:XTPControlComboBox.obj
 0001:000d0290       ??_ECXTPRibbonBarMorePopupToolBar@@WEE@AEPAXI@Z 004d1290 f i ToolkitPro1501vc60S:XTPControlComboBox.obj
 0001:000d02a0       ??_ECXTPControlComboBox@@WBM@AEPAXI@Z 004d12a0 f i ToolkitPro1501vc60S:XTPControlComboBox.obj
 0001:000d02b0       ??0CXTPListBase@@QAE@XZ    004d12b0 f   ToolkitPro1501vc60S:XTPListBase.obj
 0001:000d0370       ??_GCXTPListBase@@UAEPAXI@Z 004d1370 f i ToolkitPro1501vc60S:XTPListBase.obj
 0001:000d0370       ??_ECXTPListBase@@UAEPAXI@Z 004d1370 f i ToolkitPro1501vc60S:XTPListBase.obj
 0001:000d0390       ??1CXTPListBase@@UAE@XZ    004d1390 f   ToolkitPro1501vc60S:XTPListBase.obj
 0001:000d0440       ?RefreshMetrics@CXTPListBase@@IAEXXZ 004d1440 f   ToolkitPro1501vc60S:XTPListBase.obj
 0001:000d0490       ?Lookup@CXTPListBase@@UAEPAUROWCOLOR@1@H@Z 004d1490 f   ToolkitPro1501vc60S:XTPListBase.obj
 0001:000d04c0       ?ImplAttach@CXTPListBase@@IAEXPAVCListCtrl@@@Z 004d14c0 f   ToolkitPro1501vc60S:XTPListBase.obj
 0001:000d04d0       ?MoveRow@CXTPListBase@@UAE_NHH@Z 004d14d0 f   ToolkitPro1501vc60S:XTPListBase.obj
 0001:000d0520       ?CopyRow@CXTPListBase@@UAEHHH@Z 004d1520 f   ToolkitPro1501vc60S:XTPListBase.obj
 0001:000d0660       ?GetColumnCount@CXTPListBase@@UAEHXZ 004d1660 f   ToolkitPro1501vc60S:XTPListBase.obj
 0001:000d06b0       ?ModifyExtendedStyle@CXTPListBase@@UAEHKK@Z 004d16b0 f   ToolkitPro1501vc60S:XTPListBase.obj
 0001:000d0710       ?OnCustomDraw@CXTPListBase@@IAEXPAUtagNMHDR@@PAJ@Z 004d1710 f   ToolkitPro1501vc60S:XTPListBase.obj
 0001:000d08d0       ?SetSortImage@CXTPListBase@@UAEHHH@Z 004d18d0 f   ToolkitPro1501vc60S:XTPListBase.obj
 0001:000d0940       ?OnNotify@CXTPListBase@@MAEHIJPAJ@Z 004d1940 f   ToolkitPro1501vc60S:XTPListBase.obj
 0001:000d0a40       ?AddColumn@CXTPListBase@@UAEHPBDHH@Z 004d1a40 f   ToolkitPro1501vc60S:XTPListBase.obj
 0001:000d0af0       ?BuildColumns@CXTPListBase@@UAE_NHPAH0@Z 004d1af0 f   ToolkitPro1501vc60S:XTPListBase.obj
 0001:000d0ba0       ?BuildColumns@CXTPListBase@@UAE_NHPAHPAVCString@@@Z 004d1ba0 f   ToolkitPro1501vc60S:XTPListBase.obj
 0001:000d0c00       ?HitTestEx@CXTPListBase@@UBEHAAVCPoint@@PAH@Z 004d1c00 f   ToolkitPro1501vc60S:XTPListBase.obj
 0001:000d0dc0       ?SubclassHeader@CXTPListBase@@UAE_N_N@Z 004d1dc0 f   ToolkitPro1501vc60S:XTPListBase.obj
 0001:000d0e40       ?AutoSaveColumns@CXTPListBase@@UAEXPBD00@Z 004d1e40 f   ToolkitPro1501vc60S:XTPListBase.obj
 0001:000d0ea0       ?SaveColumnWidths@CXTPListBase@@UAEXXZ 004d1ea0 f   ToolkitPro1501vc60S:XTPListBase.obj
 0001:000d0ff0       ?LoadColumnWidths@CXTPListBase@@UAEXXZ 004d1ff0 f   ToolkitPro1501vc60S:XTPListBase.obj
 0001:000d1090       ?SetStoredWidth@CXTPListBase@@UAEXH@Z 004d2090 f   ToolkitPro1501vc60S:XTPListBase.obj
 0001:000d10c0       ?GetStoredWidth@CXTPListBase@@UAEHH@Z 004d20c0 f   ToolkitPro1501vc60S:XTPListBase.obj
 0001:000d11c0       ?OnDestroy@CXTPListBase@@IAEXXZ 004d21c0 f   ToolkitPro1501vc60S:XTPListBase.obj
 0001:000d11d0       ?AutoSizeColumn@CXTPListBase@@UAEXH@Z 004d21d0 f   ToolkitPro1501vc60S:XTPListBase.obj
 0001:000d1430       ?OnPrintClient@CXTPListBase@@IAEJIJ@Z 004d2430 f   ToolkitPro1501vc60S:XTPListBase.obj
 0001:000d1470       ?OnPaint@CXTPListBase@@IAEXXZ 004d2470 f   ToolkitPro1501vc60S:XTPListBase.obj
 0001:000d1740       ?Init@CXTPListBase@@MAE_NXZ 004d2740 f   ToolkitPro1501vc60S:XTPListBase.obj
 0001:000d17b0       ?OnSettingChange@CXTPListBase@@IAEXIPBD@Z 004d27b0 f   ToolkitPro1501vc60S:XTPListBase.obj
 0001:000d17c0       ?_xtGetHeaderCtrl@CXTPListBase@@QBEPAVCHeaderCtrl@@XZ 004d27c0 f   ToolkitPro1501vc60S:XTPListBase.obj
 0001:000d17e0       ?XTPGetHeaderCtrl@CXTPListBase@@QBEPAVCXTPHeaderCtrl@@XZ 004d27e0 f   ToolkitPro1501vc60S:XTPListBase.obj
 0001:000d1800       ??1?$CList@UROWCOLOR@CXTPListBase@@AAU12@@@UAE@XZ 004d2800 f i ToolkitPro1501vc60S:XTPListBase.obj
 0001:000d1860       ?Serialize@?$CList@UROWCOLOR@CXTPListBase@@AAU12@@@UAEXAAVCArchive@@@Z 004d2860 f i ToolkitPro1501vc60S:XTPListBase.obj
 0001:000d19a0       ??_G?$CList@UROWCOLOR@CXTPListBase@@AAU12@@@UAEPAXI@Z 004d29a0 f i ToolkitPro1501vc60S:XTPListBase.obj
 0001:000d19a0       ??_E?$CList@UROWCOLOR@CXTPListBase@@AAU12@@@UAEPAXI@Z 004d29a0 f i ToolkitPro1501vc60S:XTPListBase.obj
 0001:000d19c0       ??0CXTPTabControl@@QAE@XZ  004d29c0 f   ToolkitPro1501vc60S:XTPTabControl.obj
 0001:000d1b30       ?GetPaintManager@CXTPTabControl@@UBEPAVCXTPTabPaintManager@@XZ 004d2b30 f i ToolkitPro1501vc60S:XTPTabControl.obj
 0001:000d1b40       ?OnDragOver@CTabControlDropTarget@CXTPTabControl@@UAEKPAVCWnd@@PAVCOleDataObject@@KVCPoint@@@Z 004d2b40 f i ToolkitPro1501vc60S:XTPTabControl.obj
 0001:000d1bf0       ??_ECPanelDropTarget@CXTPDockingPaneAutoHidePanel@@UAEPAXI@Z 004d2bf0 f i ToolkitPro1501vc60S:XTPTabControl.obj
 0001:000d1bf0       ??_GCTabControlDropTarget@CXTPTabControl@@UAEPAXI@Z 004d2bf0 f i ToolkitPro1501vc60S:XTPTabControl.obj
 0001:000d1bf0       ??_ECTabControlDropTarget@CXTPTabControl@@UAEPAXI@Z 004d2bf0 f i ToolkitPro1501vc60S:XTPTabControl.obj
 0001:000d1bf0       ??_GCPanelDropTarget@CXTPDockingPaneAutoHidePanel@@UAEPAXI@Z 004d2bf0 f i ToolkitPro1501vc60S:XTPTabControl.obj
 0001:000d1bf0       ??_ECContainerDropTarget@CXTPDockingPaneTabbedContainer@@UAEPAXI@Z 004d2bf0 f i ToolkitPro1501vc60S:XTPTabControl.obj
 0001:000d1bf0       ??_GCContainerDropTarget@CXTPDockingPaneTabbedContainer@@UAEPAXI@Z 004d2bf0 f i ToolkitPro1501vc60S:XTPTabControl.obj
 0001:000d1c10       ??_GCXTPTabControl@@UAEPAXI@Z 004d2c10 f i ToolkitPro1501vc60S:XTPTabControl.obj
 0001:000d1c10       ??_ECXTPTabControl@@UAEPAXI@Z 004d2c10 f i ToolkitPro1501vc60S:XTPTabControl.obj
 0001:000d1c30       ??1CXTPTabControl@@UAE@XZ  004d2c30 f   ToolkitPro1501vc60S:XTPTabControl.obj
 0001:000d1cf0       ?Create@CXTPTabControl@@QAEHKABUtagRECT@@PAVCWnd@@I@Z 004d2cf0 f   ToolkitPro1501vc60S:XTPTabControl.obj
 0001:000d1d50       ?InsertItem@CXTPTabControl@@QAEPAVCXTPTabManagerItem@@HPBDPAUHWND__@@HPAV2@@Z 004d2d50 f   ToolkitPro1501vc60S:XTPTabControl.obj
 0001:000d1dd0       ?RedrawControl@CXTPTabControl@@UAEXPBUtagRECT@@H@Z 004d2dd0 f   ToolkitPro1501vc60S:XTPTabControl.obj
 0001:000d1e00       ?Reposition@CXTPTabControl@@UAEXXZ 004d2e00 f   ToolkitPro1501vc60S:XTPTabControl.obj
 0001:000d1f40       ?OnItemClick@CXTPTabControl@@UAEXPAVCXTPTabManagerItem@@@Z 004d2f40 f   ToolkitPro1501vc60S:XTPTabControl.obj
 0001:000d1fa0       ?SetSelectedItem@CXTPTabControl@@UAEXPAVCXTPTabManagerItem@@@Z 004d2fa0 f   ToolkitPro1501vc60S:XTPTabControl.obj
 0001:000d20b0       ?PreSubclassWindow@CXTPTabControl@@MAEXXZ 004d30b0 f   ToolkitPro1501vc60S:XTPTabControl.obj
 0001:000d20d0       ?GetMessageMap@CXTPTabControl@@MBEPBUAFX_MSGMAP@@XZ 004d30d0 f   ToolkitPro1501vc60S:XTPTabControl.obj
 0001:000d20e0       ?DrawParentBackground@CXTPTabControl@@MAEHPAVCDC@@VCRect@@@Z 004d30e0 f   ToolkitPro1501vc60S:XTPTabControl.obj
 0001:000d2150       ?OnPaint@CXTPTabControl@@IAEXXZ 004d3150 f   ToolkitPro1501vc60S:XTPTabControl.obj
 0001:000d2220       ?OnPrintClient@CXTPTabControl@@IAEJIJ@Z 004d3220 f   ToolkitPro1501vc60S:XTPTabControl.obj
 0001:000d22b0       ?OnSize@CXTPTabControl@@IAEXIHH@Z 004d32b0 f   ToolkitPro1501vc60S:XTPTabControl.obj
 0001:000d22d0       ?OnLButtonDown@CXTPTabControl@@IAEXIVCPoint@@@Z 004d32d0 f   ToolkitPro1501vc60S:XTPTabControl.obj
 0001:000d2320       ?OnNavigateButtonClick@CXTPTabControl@@MAEXPAVCXTPTabManagerNavigateButton@@@Z 004d3320 f   ToolkitPro1501vc60S:XTPTabControl.obj
 0001:000d2350       ?OnSysColorChange@CXTPTabControl@@IAEXXZ 004d3350 f   ToolkitPro1501vc60S:XTPTabControl.obj
 0001:000d2380       ?OnToolHitTest@CXTPTabControl@@MBEHVCPoint@@PAUtagTOOLINFOA@@@Z 004d3380 f   ToolkitPro1501vc60S:XTPTabControl.obj
 0001:000d23b0       ?OnMouseMove@CXTPTabControl@@IAEXIVCPoint@@@Z 004d33b0 f   ToolkitPro1501vc60S:XTPTabControl.obj
 0001:000d23e0       ?OnMouseLeave@CXTPTabControl@@IAEXXZ 004d33e0 f   ToolkitPro1501vc60S:XTPTabControl.obj
 0001:000d2400       ?DrawIcon@CXTPTabControl@@UBEHPAVCDC@@VCPoint@@PAVCXTPTabManagerItem@@HAAVCSize@@@Z 004d3400 f   ToolkitPro1501vc60S:XTPTabControl.obj
 0001:000d24a0       ?SetPaintManager@CXTPTabControl@@UAEXPAVCXTPTabPaintManager@@@Z 004d34a0 f   ToolkitPro1501vc60S:XTPTabControl.obj
 0001:000d24d0       ?OnWndMsg@CXTPTabControl@@MAEHIIJPAJ@Z 004d34d0 f   ToolkitPro1501vc60S:XTPTabControl.obj
 0001:000d2510       ?OnKeyDown@CXTPTabControl@@IAEXIII@Z 004d3510 f   ToolkitPro1501vc60S:XTPTabControl.obj
 0001:000d2530       ?OnGetDlgCode@CXTPTabControl@@IAEIXZ 004d3530 f   ToolkitPro1501vc60S:XTPTabControl.obj
 0001:000d2550       ?OnSetFocus@CXTPTabControl@@IAEXPAVCWnd@@@Z 004d3550 f   ToolkitPro1501vc60S:XTPTabControl.obj
 0001:000d2550       ?OnKillFocus@CXTPTabControl@@IAEXPAVCWnd@@@Z 004d3550 f   ToolkitPro1501vc60S:XTPTabControl.obj
 0001:000d2570       ?SetFocusedItem@CXTPTabControl@@UAEXPAVCXTPTabManagerItem@@@Z 004d3570 f   ToolkitPro1501vc60S:XTPTabControl.obj
 0001:000d25c0       ?HeaderHasFocus@CXTPTabControl@@MBEHXZ 004d35c0 f   ToolkitPro1501vc60S:XTPTabControl.obj
 0001:000d2610       ?AdjustRect@CXTPTabControl@@QBEXHPAUtagRECT@@@Z 004d3610 f   ToolkitPro1501vc60S:XTPTabControl.obj
 0001:000d26c0       ??_ECXTPTabControl@@WDM@AEPAXI@Z 004d36c0 f i ToolkitPro1501vc60S:XTPTabControl.obj
 0001:000d26d0       ??0CXTPTabPaintManager@@QAE@XZ 004d36d0 f   ToolkitPro1501vc60S:XTPTabPaintManager.obj
 0001:000d28b0       ??_ECXTPTabPaintManager@@UAEPAXI@Z 004d38b0 f i ToolkitPro1501vc60S:XTPTabPaintManager.obj
 0001:000d28b0       ??_GCXTPTabPaintManager@@UAEPAXI@Z 004d38b0 f i ToolkitPro1501vc60S:XTPTabPaintManager.obj
 0001:000d28d0       ??1CXTPTabPaintManager@@UAE@XZ 004d38d0 f   ToolkitPro1501vc60S:XTPTabPaintManager.obj
 0001:000d29d0       ?SetColor@CXTPTabPaintManager@@QAEPAVCColorSet@1@W4XTPTabColorStyle@@@Z 004d39d0 f   ToolkitPro1501vc60S:XTPTabPaintManager.obj
 0001:000d2dc0       ?DrawSidePanel@CXTPDockingPanePaintManager@@UAEXPAVCDC@@PAVCXTPDockingPaneSidePanel@@VCRect@@@Z 004d3dc0 f i ToolkitPro1501vc60S:XTPTabPaintManager.obj
 0001:000d2dc0       ?DrawFloatingFrame@CXTPDockingPanePaintManager@@UAEXPAVCDC@@PAVCXTPDockingPaneMiniWnd@@VCRect@@@Z 004d3dc0 f i ToolkitPro1501vc60S:XTPTabPaintManager.obj
 0001:000d2dc0       ?SelectClipRgn@CColorSet@CXTPTabPaintManager@@UAEXPAVCDC@@VCRect@@PAVCXTPTabManager@@@Z 004d3dc0 f i ToolkitPro1501vc60S:XTPTabPaintManager.obj
 0001:000d2dd0       ??_GCColorSetWinNative@CXTPTabPaintManager@@UAEPAXI@Z 004d3dd0 f i ToolkitPro1501vc60S:XTPTabPaintManager.obj
 0001:000d2dd0       ??_ECColorSetWinNative@CXTPTabPaintManager@@UAEPAXI@Z 004d3dd0 f i ToolkitPro1501vc60S:XTPTabPaintManager.obj
 0001:000d2df0       ??1CColorSetWinNative@CXTPTabPaintManager@@UAE@XZ 004d3df0 f i ToolkitPro1501vc60S:XTPTabPaintManager.obj
 0001:000d2e50       ?SetColorSet@CXTPTabPaintManager@@QAEPAVCColorSet@1@PAV21@@Z 004d3e50 f   ToolkitPro1501vc60S:XTPTabPaintManager.obj
 0001:000d2e90       ?SetAppearance@CXTPTabPaintManager@@QAEPAVCAppearanceSet@1@W4XTPTabAppearanceStyle@@@Z 004d3e90 f   ToolkitPro1501vc60S:XTPTabPaintManager.obj
 0001:000d32d0       ?GetSupportedColorSets@CAppearanceSet@CXTPTabPaintManager@@UAEHXZ 004d42d0 f i ToolkitPro1501vc60S:XTPTabPaintManager.obj
 0001:000d32e0       ?GetSupportedColorSets@CAppearanceSetPropertyPage@CXTPTabPaintManager@@UAEHXZ 004d42e0 f i ToolkitPro1501vc60S:XTPTabPaintManager.obj
 0001:000d32f0       ?GetHeaderMargin@CAppearanceSetPropertyPage2003@CXTPTabPaintManager@@UAE?AVCRect@@XZ 004d42f0 f i ToolkitPro1501vc60S:XTPTabPaintManager.obj
 0001:000d3320       ?GetSupportedColorSets@CAppearanceSetPropertyPage2003@CXTPTabPaintManager@@UAEHXZ 004d4320 f i ToolkitPro1501vc60S:XTPTabPaintManager.obj
 0001:000d3330       ?GetSupportedColorSets@CAppearanceSetPropertyPage2007@CXTPTabPaintManager@@MAEHXZ 004d4330 f i ToolkitPro1501vc60S:XTPTabPaintManager.obj
 0001:000d3330       ?GetDefaultColorSet@CAppearanceSetPropertyPage2007@CXTPTabPaintManager@@MAE?AW4XTPTabColorStyle@@XZ 004d4330 f i ToolkitPro1501vc60S:XTPTabPaintManager.obj
 0001:000d3340       ?GetSupportedColorSets@CAppearanceSetPropertyPageAccess2007@CXTPTabPaintManager@@MAEHXZ 004d4340 f i ToolkitPro1501vc60S:XTPTabPaintManager.obj
 0001:000d3340       ?GetDefaultColorSet@CAppearanceSetPropertyPageAccess2007@CXTPTabPaintManager@@MAE?AW4XTPTabColorStyle@@XZ 004d4340 f i ToolkitPro1501vc60S:XTPTabPaintManager.obj
 0001:000d3350       ?GetHeaderMargin@CAppearanceSetPropertyPageAccess2007@CXTPTabPaintManager@@MAE?AVCRect@@XZ 004d4350 f i ToolkitPro1501vc60S:XTPTabPaintManager.obj
 0001:000d3390       ?GetHeaderMargin@CAppearanceSetVisualStudio2005@CXTPTabPaintManager@@UAE?AVCRect@@XZ 004d4390 f i ToolkitPro1501vc60S:XTPTabPaintManager.obj
 0001:000d33d0       ?GetSupportedColorSets@CAppearanceSetFlat@CXTPTabPaintManager@@UAEHXZ 004d43d0 f i ToolkitPro1501vc60S:XTPTabPaintManager.obj
 0001:000d33e0       ?GetHeaderMargin@CAppearanceSetExcel@CXTPTabPaintManager@@UAE?AVCRect@@XZ 004d43e0 f i ToolkitPro1501vc60S:XTPTabPaintManager.obj
 0001:000d3420       ?GetHeaderMargin@CAppearanceSet@CXTPTabPaintManager@@UAE?AVCRect@@XZ 004d4420 f i ToolkitPro1501vc60S:XTPTabPaintManager.obj
 0001:000d3450       ?FillTabControl@CAppearanceSet@CXTPTabPaintManager@@UAE?AVCRect@@PAVCXTPTabManager@@PAVCDC@@V3@@Z 004d4450 f i ToolkitPro1501vc60S:XTPTabPaintManager.obj
 0001:000d3480       ?DrawTabControl@CAppearanceSet@CXTPTabPaintManager@@UAEXPAVCXTPTabManager@@PAVCDC@@VCRect@@@Z 004d4480 f i ToolkitPro1501vc60S:XTPTabPaintManager.obj
 0001:000d34c0       ?RepositionTabControl@CAppearanceSet@CXTPTabPaintManager@@UAEXPAVCXTPTabManager@@PAVCDC@@VCRect@@@Z 004d44c0 f i ToolkitPro1501vc60S:XTPTabPaintManager.obj
 0001:000d3500       ?SetAppearanceSet@CXTPTabPaintManager@@QAEPAVCAppearanceSet@1@PAV21@@Z 004d4500 f   ToolkitPro1501vc60S:XTPTabPaintManager.obj
 0001:000d3550       ?SetFontIndirect@CXTPTabPaintManager@@QAEXPAUtagLOGFONTA@@H@Z 004d4550 f   ToolkitPro1501vc60S:XTPTabPaintManager.obj
 0001:000d36a0       ?RefreshMetrics@CXTPTabPaintManager@@UAEXXZ 004d46a0 f   ToolkitPro1501vc60S:XTPTabPaintManager.obj
 0001:000d36f0       ?DisableLunaColors@CXTPTabPaintManager@@QAEXH@Z 004d46f0 f   ToolkitPro1501vc60S:XTPTabPaintManager.obj
 0001:000d3710       ?IsLunaColorsDisabled@CXTPTabPaintManager@@QBEHXZ 004d4710 f   ToolkitPro1501vc60S:XTPTabPaintManager.obj
 0001:000d3730       ?GetOneNoteColor@CXTPTabPaintManager@@SAKW4XTPTabOneNoteColor@@@Z 004d4730 f   ToolkitPro1501vc60S:XTPTabPaintManager.obj
 0001:000d3790       ?DrawNavigateButton@CXTPTabPaintManager@@UAEXPAVCDC@@PAVCXTPTabManagerNavigateButton@@AAVCRect@@@Z 004d4790 f   ToolkitPro1501vc60S:XTPTabPaintManager.obj
 0001:000d38a0       ?FillNavigateButton@CXTPTabPaintManager@@QAEXPAVCDC@@PAVCXTPTabManagerNavigateButton@@AAVCRect@@@Z 004d48a0 f   ToolkitPro1501vc60S:XTPTabPaintManager.obj
 0001:000d38c0       ?DrawTabControl@CXTPTabPaintManager@@UAEXPAVCXTPTabManager@@PAVCDC@@VCRect@@@Z 004d48c0 f   ToolkitPro1501vc60S:XTPTabPaintManager.obj
 0001:000d3900       ?DrawRowItems@CXTPTabPaintManager@@IAEXPAVCXTPTabManager@@PAVCDC@@ABVCRect@@H@Z 004d4900 f   ToolkitPro1501vc60S:XTPTabPaintManager.obj
 0001:000d3aa0       ?DrawTabControlEx@CXTPTabPaintManager@@IAEXPAVCXTPTabManager@@PAVCDC@@VCRect@@@Z 004d4aa0 f   ToolkitPro1501vc60S:XTPTabPaintManager.obj
 0001:000d3de0       ?_GetButtonLength@CXTPTabPaintManager@@IAEHHHH@Z 004d4de0 f   ToolkitPro1501vc60S:XTPTabPaintManager.obj
 0001:000d3e10       ?StripMnemonics@CXTPTabPaintManager@@IAEXAAVCString@@@Z 004d4e10 f   ToolkitPro1501vc60S:XTPTabPaintManager.obj
 0001:000d3e20       ?GetPrefixTextExtent@CXTPTabPaintManager@@IAEHPAVCDC@@ABVCString@@I@Z 004d4e20 f   ToolkitPro1501vc60S:XTPTabPaintManager.obj
 0001:000d3ee0       ?DrawTextPathEllipsis@CXTPTabPaintManager@@IAEXPAVCDC@@PAVCXTPTabManager@@ABVCString@@VCRect@@I@Z 004d4ee0 f   ToolkitPro1501vc60S:XTPTabPaintManager.obj
 0001:000d4280       ?DrawFocusRect@CXTPTabPaintManager@@MAEXPAVCDC@@PAVCXTPTabManagerItem@@VCRect@@@Z 004d5280 f   ToolkitPro1501vc60S:XTPTabPaintManager.obj
 0001:000d42d0       ?DrawSingleButtonIconAndText@CXTPTabPaintManager@@UAEHPAVCDC@@PAVCXTPTabManagerItem@@VCRect@@H@Z 004d52d0 f   ToolkitPro1501vc60S:XTPTabPaintManager.obj
 0001:000d4ed0       ?AdjustClientRect@CXTPTabPaintManager@@UAEXPAVCXTPTabManager@@AAVCRect@@@Z 004d5ed0 f   ToolkitPro1501vc60S:XTPTabPaintManager.obj
 0001:000d4f50       ?RepositionNavigateButtons@CXTPTabPaintManager@@QAE?AVCRect@@PAVCXTPTabManager@@V2@@Z 004d5f50 f   ToolkitPro1501vc60S:XTPTabPaintManager.obj
 0001:000d5020       ?RepositionTabControl@CXTPTabPaintManager@@UAEXPAVCXTPTabManager@@PAVCDC@@VCRect@@@Z 004d6020 f   ToolkitPro1501vc60S:XTPTabPaintManager.obj
 0001:000d50e0       ?_CreateMultiRowIndexerBestFit@CXTPTabPaintManager@@IAEHPAVCXTPTabManager@@HHH@Z 004d60e0 f   ToolkitPro1501vc60S:XTPTabPaintManager.obj
 0001:000d51f0       ?SetRect@CRect@@QAEXHHHH@Z 004d61f0 f i ToolkitPro1501vc60S:XTPTabPaintManager.obj
 0001:000d5210       ?CreateMultiRowIndexer@CXTPTabPaintManager@@IAEXPAVCXTPTabManager@@PAVCDC@@H@Z 004d6210 f   ToolkitPro1501vc60S:XTPTabPaintManager.obj
 0001:000d5330       ?RepositionTabControlMultiRow@CXTPTabPaintManager@@IAEXPAVCXTPTabManager@@PAVCDC@@VCRect@@@Z 004d6330 f   ToolkitPro1501vc60S:XTPTabPaintManager.obj
 0001:000d5920       ?RepositionTabControlEx@CXTPTabPaintManager@@IAEXPAVCXTPTabManager@@PAVCDC@@VCRect@@@Z 004d6920 f   ToolkitPro1501vc60S:XTPTabPaintManager.obj
 0001:000d60f0       ?EnsureVisible@CXTPTabPaintManager@@QAEXPAVCXTPTabManager@@PAVCXTPTabManagerItem@@@Z 004d70f0 f   ToolkitPro1501vc60S:XTPTabPaintManager.obj
 0001:000d6240       ?_SizeToFitCompare@CXTPTabPaintManager@@KAHPBX0@Z 004d7240 f   ToolkitPro1501vc60S:XTPTabPaintManager.obj
 0001:000d6260       ?SizeToFit@CXTPTabPaintManager@@IAEXPAVCXTPTabManager@@H@Z 004d7260 f   ToolkitPro1501vc60S:XTPTabPaintManager.obj
 0001:000d6370       ?GetAppearance@CXTPTabPaintManager@@QBE?AW4XTPTabAppearanceStyle@@XZ 004d7370 f   ToolkitPro1501vc60S:XTPTabPaintManager.obj
 0001:000d6380       ?GetColor@CXTPTabPaintManager@@QBE?AW4XTPTabColorStyle@@XZ 004d7380 f   ToolkitPro1501vc60S:XTPTabPaintManager.obj
 0001:000d6390       ?SetPosition@CXTPTabPaintManager@@QAEXW4XTPTabPosition@@@Z 004d7390 f   ToolkitPro1501vc60S:XTPTabPaintManager.obj
 0001:000d63b0       ?SetLayout@CXTPTabPaintManager@@QAEXW4XTPTabLayoutStyle@@@Z 004d73b0 f   ToolkitPro1501vc60S:XTPTabPaintManager.obj
 0001:000d63d0       ?GetPosition@CXTPTabPaintManager@@QBE?AW4XTPTabPosition@@XZ 004d73d0 f   ToolkitPro1501vc60S:XTPTabPaintManager.obj
 0001:000d63e0       ?GetLayout@CXTPTabPaintManager@@QBE?AW4XTPTabLayoutStyle@@XZ 004d73e0 f   ToolkitPro1501vc60S:XTPTabPaintManager.obj
 0001:000d63f0       ?OnPropertyChanged@CXTPTabPaintManager@@MAEXXZ 004d73f0 f   ToolkitPro1501vc60S:XTPTabPaintManager.obj
 0001:000d6420       ??1?$CArray@PAVCXTPTabManagerAtom@@PAV1@@@UAE@XZ 004d7420 f i ToolkitPro1501vc60S:XTPTabPaintManager.obj
 0001:000d6470       ??_G?$CArray@PAVCXTPTabManagerAtom@@PAV1@@@UAEPAXI@Z 004d7470 f i ToolkitPro1501vc60S:XTPTabPaintManager.obj
 0001:000d6470       ??_E?$CArray@PAVCXTPTabManagerAtom@@PAV1@@@UAEPAXI@Z 004d7470 f i ToolkitPro1501vc60S:XTPTabPaintManager.obj
 0001:000d6490       _compress2                 004d7490 f   ToolkitPro1501vc60S:compress.obj
 0001:000d6540       _compress                  004d7540 f   ToolkitPro1501vc60S:compress.obj
 0001:000d6560       _uncompress                004d7560 f   ToolkitPro1501vc60S:uncompr.obj
 0001:000d6610       ??0CXTPHeaderCtrlTheme@@QAE@XZ 004d7610 f   ToolkitPro1501vc60S:XTPHeaderCtrlTheme.obj
 0001:000d6690       ??_GCXTPHeaderCtrlTheme@@UAEPAXI@Z 004d7690 f i ToolkitPro1501vc60S:XTPHeaderCtrlTheme.obj
 0001:000d6690       ??_ECXTPHeaderCtrlTheme@@UAEPAXI@Z 004d7690 f i ToolkitPro1501vc60S:XTPHeaderCtrlTheme.obj
 0001:000d66b0       ??1CXTPHeaderCtrlTheme@@UAE@XZ 004d76b0 f   ToolkitPro1501vc60S:XTPHeaderCtrlTheme.obj
 0001:000d6710       ?RefreshMetrics@CXTPHeaderCtrlTheme@@UAEXPAVCXTPHeaderCtrl@@@Z 004d7710 f   ToolkitPro1501vc60S:XTPHeaderCtrlTheme.obj
 0001:000d6780       ?OnDrawBackground@CXTPHeaderCtrlTheme@@MAEXPAUtagDRAWITEMSTRUCT@@@Z 004d7780 f   ToolkitPro1501vc60S:XTPHeaderCtrlTheme.obj
 0001:000d6810       ?OnDrawItemBackground@CXTPHeaderCtrlTheme@@MAEXPAUtagDRAWITEMSTRUCT@@@Z 004d7810 f   ToolkitPro1501vc60S:XTPHeaderCtrlTheme.obj
 0001:000d69b0       ?OnDrawBackgroundWinThemed@CXTPHeaderCtrlTheme@@MAEHPAUtagDRAWITEMSTRUCT@@@Z 004d79b0 f   ToolkitPro1501vc60S:XTPHeaderCtrlTheme.obj
 0001:000d69f0       ?OnDrawItemBackgroundWinThemed@CXTPHeaderCtrlTheme@@MAEHPAUtagDRAWITEMSTRUCT@@@Z 004d79f0 f   ToolkitPro1501vc60S:XTPHeaderCtrlTheme.obj
 0001:000d6a30       ?DrawSortArrow@CXTPHeaderCtrlTheme@@MAEXPAVCDC@@PAUtagPOINT@@H@Z 004d7a30 f   ToolkitPro1501vc60S:XTPHeaderCtrlTheme.obj
 0001:000d6b40       ?OnDrawItemSortArrow@CXTPHeaderCtrlTheme@@MAEXPAUtagDRAWITEMSTRUCT@@H@Z 004d7b40 f   ToolkitPro1501vc60S:XTPHeaderCtrlTheme.obj
 0001:000d6c00       ?OnDrawItemText@CXTPHeaderCtrlTheme@@MAEXPAUtagDRAWITEMSTRUCT@@PAVCXTPHeaderCtrl@@@Z 004d7c00 f   ToolkitPro1501vc60S:XTPHeaderCtrlTheme.obj
 0001:000d6ee0       ?DrawHeader@CXTPHeaderCtrlTheme@@UAEXPAVCDC@@PAVCXTPHeaderCtrl@@@Z 004d7ee0 f   ToolkitPro1501vc60S:XTPHeaderCtrlTheme.obj
 0001:000d71d0       ?UseWinXPThemes@CXTPHeaderCtrlTheme@@UAEHPAVCXTPHeaderCtrl@@@Z 004d81d0 f   ToolkitPro1501vc60S:XTPHeaderCtrlTheme.obj
 0001:000d7220       ?SetDrawStyle@CXTPHeaderCtrlTheme@@UAEXKPAVCXTPHeaderCtrl@@@Z 004d8220 f   ToolkitPro1501vc60S:XTPHeaderCtrlTheme.obj
 0001:000d7250       ?Layout@CXTPHeaderCtrlTheme@@UAEHPAU_HD_LAYOUT@@PAVCXTPHeaderCtrl@@@Z 004d8250 f   ToolkitPro1501vc60S:XTPHeaderCtrlTheme.obj
 0001:000d7270       ?SetBitmap@CXTPHeaderCtrlTheme@@UAEHHIHKPAVCXTPHeaderCtrl@@@Z 004d8270 f   ToolkitPro1501vc60S:XTPHeaderCtrlTheme.obj
 0001:000d73e0       ?OnDrawItemBitmap@CXTPHeaderCtrlTheme@@MAEXPAUtagDRAWITEMSTRUCT@@AAVCRect@@PAVCXTPHeaderCtrl@@@Z 004d83e0 f   ToolkitPro1501vc60S:XTPHeaderCtrlTheme.obj
 0001:000d7600       ?CleanUp@CXTPHeaderCtrlTheme@@UAEXPAVCXTPHeaderCtrl@@@Z 004d8600 f   ToolkitPro1501vc60S:XTPHeaderCtrlTheme.obj
 0001:000d7680       ??0CXTPHeaderCtrlThemeOfficeXP@@QAE@XZ 004d8680 f   ToolkitPro1501vc60S:XTPHeaderCtrlTheme.obj
 0001:000d76a0       ??_ECXTPHeaderCtrlThemeOfficeXP@@UAEPAXI@Z 004d86a0 f i ToolkitPro1501vc60S:XTPHeaderCtrlTheme.obj
 0001:000d76a0       ??_GCXTPHeaderCtrlThemeOfficeXP@@UAEPAXI@Z 004d86a0 f i ToolkitPro1501vc60S:XTPHeaderCtrlTheme.obj
 0001:000d76c0       ??1CXTPHeaderCtrlThemeOfficeXP@@UAE@XZ 004d86c0 f   ToolkitPro1501vc60S:XTPHeaderCtrlTheme.obj
 0001:000d76d0       ?OnDrawBackground@CXTPHeaderCtrlThemeExplorer@@MAEXPAUtagDRAWITEMSTRUCT@@@Z 004d86d0 f   ToolkitPro1501vc60S:XTPHeaderCtrlTheme.obj
 0001:000d76d0       ?OnDrawBackground@CXTPHeaderCtrlThemeOfficeXP@@MAEXPAUtagDRAWITEMSTRUCT@@@Z 004d86d0 f   ToolkitPro1501vc60S:XTPHeaderCtrlTheme.obj
 0001:000d7730       ?OnDrawItemBackground@CXTPHeaderCtrlThemeOfficeXP@@MAEXPAUtagDRAWITEMSTRUCT@@@Z 004d8730 f   ToolkitPro1501vc60S:XTPHeaderCtrlTheme.obj
 0001:000d7890       ??0CXTPHeaderCtrlThemeOffice2003@@QAE@XZ 004d8890 f   ToolkitPro1501vc60S:XTPHeaderCtrlTheme.obj
 0001:000d78c0       ??_GCXTPHeaderCtrlThemeOffice2003@@UAEPAXI@Z 004d88c0 f i ToolkitPro1501vc60S:XTPHeaderCtrlTheme.obj
 0001:000d78c0       ??_ECXTPHeaderCtrlThemeOffice2003@@UAEPAXI@Z 004d88c0 f i ToolkitPro1501vc60S:XTPHeaderCtrlTheme.obj
 0001:000d78e0       ??1CXTPHeaderCtrlThemeOffice2003@@UAE@XZ 004d88e0 f   ToolkitPro1501vc60S:XTPHeaderCtrlTheme.obj
 0001:000d78f0       ?OnDrawBackground@CXTPHeaderCtrlThemeOffice2003@@MAEXPAUtagDRAWITEMSTRUCT@@@Z 004d88f0 f   ToolkitPro1501vc60S:XTPHeaderCtrlTheme.obj
 0001:000d7c20       ?OnDrawItemBackground@CXTPHeaderCtrlThemeOffice2003@@MAEXPAUtagDRAWITEMSTRUCT@@@Z 004d8c20 f   ToolkitPro1501vc60S:XTPHeaderCtrlTheme.obj
 0001:000d7d80       ?Layout@CXTPHeaderCtrlThemeOffice2003@@UAEHPAU_HD_LAYOUT@@PAVCXTPHeaderCtrl@@@Z 004d8d80 f   ToolkitPro1501vc60S:XTPHeaderCtrlTheme.obj
 0001:000d7e60       ??0CXTPHeaderCtrlThemeExplorer@@QAE@XZ 004d8e60 f   ToolkitPro1501vc60S:XTPHeaderCtrlTheme.obj
 0001:000d7ea0       ??_ECXTPHeaderCtrlThemeExplorer@@UAEPAXI@Z 004d8ea0 f i ToolkitPro1501vc60S:XTPHeaderCtrlTheme.obj
 0001:000d7ea0       ??_GCXTPHeaderCtrlThemeExplorer@@UAEPAXI@Z 004d8ea0 f i ToolkitPro1501vc60S:XTPHeaderCtrlTheme.obj
 0001:000d7ec0       ??1CXTPHeaderCtrlThemeExplorer@@UAE@XZ 004d8ec0 f   ToolkitPro1501vc60S:XTPHeaderCtrlTheme.obj
 0001:000d7ed0       ?OnDrawItemBackgroundWinThemed@CXTPHeaderCtrlThemeExplorer@@MAEHPAUtagDRAWITEMSTRUCT@@@Z 004d8ed0 f   ToolkitPro1501vc60S:XTPHeaderCtrlTheme.obj
 0001:000d7ee0       ?Layout@CXTPHeaderCtrlThemeExplorer@@UAEHPAU_HD_LAYOUT@@PAVCXTPHeaderCtrl@@@Z 004d8ee0 f   ToolkitPro1501vc60S:XTPHeaderCtrlTheme.obj
 0001:000d7fc0       ?DrawSortArrow@CXTPHeaderCtrlThemeExplorer@@MAEXPAVCDC@@PAUtagPOINT@@H@Z 004d8fc0 f   ToolkitPro1501vc60S:XTPHeaderCtrlTheme.obj
 0001:000d8060       ?CreateObject@CXTPFrameWnd@@SGPAVCObject@@XZ 004d9060 f   ToolkitPro1501vc60S:XTPFrameWnd.obj
 0001:000d80c0       ?GetRuntimeClass@CXTPFrameWnd@@UBEPAUCRuntimeClass@@XZ 004d90c0 f   ToolkitPro1501vc60S:XTPFrameWnd.obj
 0001:000d80d0       ??0CXTPFrameWnd@@QAE@XZ    004d90d0 f   ToolkitPro1501vc60S:XTPFrameWnd.obj
 0001:000d80f0       ??_GCXTPFrameWnd@@UAEPAXI@Z 004d90f0 f i ToolkitPro1501vc60S:XTPFrameWnd.obj
 0001:000d80f0       ??_ECXTPFrameWnd@@UAEPAXI@Z 004d90f0 f i ToolkitPro1501vc60S:XTPFrameWnd.obj
 0001:000d8110       ?CreateObject@CXTPMDIFrameWnd@@SGPAVCObject@@XZ 004d9110 f   ToolkitPro1501vc60S:XTPFrameWnd.obj
 0001:000d8170       ?GetRuntimeClass@CXTPMDIFrameWnd@@UBEPAUCRuntimeClass@@XZ 004d9170 f   ToolkitPro1501vc60S:XTPFrameWnd.obj
 0001:000d8180       ??0CXTPMDIFrameWnd@@QAE@XZ 004d9180 f   ToolkitPro1501vc60S:XTPFrameWnd.obj
 0001:000d81a0       ?OnCmdMsg@CXTPMDIFrameWnd@@UAEHIHPAXPAUAFX_CMDHANDLERINFO@@@Z 004d91a0 f i ToolkitPro1501vc60S:XTPFrameWnd.obj
 0001:000d8210       ??_GCXTPMDIFrameWnd@@UAEPAXI@Z 004d9210 f i ToolkitPro1501vc60S:XTPFrameWnd.obj
 0001:000d8210       ??_ECXTPMDIFrameWnd@@UAEPAXI@Z 004d9210 f i ToolkitPro1501vc60S:XTPFrameWnd.obj
 0001:000d8230       ??1CXTPMDIFrameWnd@@UAE@XZ 004d9230 f i ToolkitPro1501vc60S:XTPFrameWnd.obj
 0001:000d82a0       ?LoadFrame@?$CXTPFrameWndBase@VCMDIFrameWnd@@@@UAEHIKPAVCWnd@@PAUCCreateContext@@@Z 004d92a0 f i ToolkitPro1501vc60S:XTPFrameWnd.obj
 0001:000d82f0       ?OnSetPreviewMode@?$CXTPFrameWndBase@VCMDIFrameWnd@@@@UAEXHPAUCPrintPreviewState@@@Z 004d92f0 f i ToolkitPro1501vc60S:XTPFrameWnd.obj
 0001:000d8320       ?InitCommandBars@?$CXTPCommandBarsSiteBase@VCMDIFrameWnd@@@@UAEHPAUCRuntimeClass@@@Z 004d9320 f i ToolkitPro1501vc60S:XTPFrameWnd.obj
 0001:000d8370       ?SaveCommandBars@?$CXTPCommandBarsSiteBase@VCMDIFrameWnd@@@@UAEXPBD@Z 004d9370 f i ToolkitPro1501vc60S:XTPFrameWnd.obj
 0001:000d83b0       ?LoadCommandBars@?$CXTPCommandBarsSiteBase@VCMDIFrameWnd@@@@UAEXPBDH@Z 004d93b0 f i ToolkitPro1501vc60S:XTPFrameWnd.obj
 0001:000d8400       ?PreTranslateMessage@?$CXTPCommandBarsSiteBase@VCMDIFrameWnd@@@@MAEHPAUtagMSG@@@Z 004d9400 f i ToolkitPro1501vc60S:XTPFrameWnd.obj
 0001:000d8490       ?OnWndMsg@?$CXTPCommandBarsSiteBase@VCMDIFrameWnd@@@@MAEHIIJPAJ@Z 004d9490 f i ToolkitPro1501vc60S:XTPFrameWnd.obj
 0001:000d84e0       ??_E?$CXTPCommandBarsSiteBase@VCMDIFrameWnd@@@@UAEPAXI@Z 004d94e0 f i ToolkitPro1501vc60S:XTPFrameWnd.obj
 0001:000d84e0       ??_G?$CXTPCommandBarsSiteBase@VCMDIFrameWnd@@@@UAEPAXI@Z 004d94e0 f i ToolkitPro1501vc60S:XTPFrameWnd.obj
 0001:000d8500       ??1?$CXTPCommandBarsSiteBase@VCMDIFrameWnd@@@@UAE@XZ 004d9500 f i ToolkitPro1501vc60S:XTPFrameWnd.obj
 0001:000d8570       ??1CMDIFrameWnd@@UAE@XZ    004d9570 f i ToolkitPro1501vc60S:XTPFrameWnd.obj
 0001:000d8580       ??0CXTPDockingPaneManager@@QAE@XZ 004d9580 f   ToolkitPro1501vc60S:XTPDockingPaneManager.obj
 0001:000d8830       ??_GCXTPDockingPaneManager@@UAEPAXI@Z 004d9830 f i ToolkitPro1501vc60S:XTPDockingPaneManager.obj
 0001:000d8830       ??_ECXTPDockingPaneManager@@UAEPAXI@Z 004d9830 f i ToolkitPro1501vc60S:XTPDockingPaneManager.obj
 0001:000d8850       ??1CXTPDockingPaneManager@@UAE@XZ 004d9850 f   ToolkitPro1501vc60S:XTPDockingPaneManager.obj
 0001:000d8960       ?GetMessageMap@CXTPDockingPaneManager@@MBEPBUAFX_MSGMAP@@XZ 004d9960 f   ToolkitPro1501vc60S:XTPDockingPaneManager.obj
 0001:000d8970       ?OnSysColorChange@CXTPDockingPaneManager@@IAEXXZ 004d9970 f   ToolkitPro1501vc60S:XTPDockingPaneManager.obj
 0001:000d8990       ?OnSettingChange@CXTPDockingPaneManager@@IAEXIPBD@Z 004d9990 f   ToolkitPro1501vc60S:XTPDockingPaneManager.obj
 0001:000d89b0       ?UpdatePanes@CXTPDockingPaneManager@@UAEXXZ 004d99b0 f   ToolkitPro1501vc60S:XTPDockingPaneManager.obj
 0001:000d8a10       ?OnInitialUpdate@CXTPDockingPaneManager@@IAEXXZ 004d9a10 f   ToolkitPro1501vc60S:XTPDockingPaneManager.obj
 0001:000d8ae0       ?OnIdleUpdateCmdUI@CXTPDockingPaneManager@@IAEJIJ@Z 004d9ae0 f   ToolkitPro1501vc60S:XTPDockingPaneManager.obj
 0001:000d8af0       ?SyncPanesState@CXTPDockingPaneManager@@QAEXXZ 004d9af0 f   ToolkitPro1501vc60S:XTPDockingPaneManager.obj
 0001:000d8b70       ?OnSizeParent@CXTPDockingPaneManager@@IAEJIJ@Z 004d9b70 f   ToolkitPro1501vc60S:XTPDockingPaneManager.obj
 0001:000d8bc0       ?_Clone@CXTPDockingPaneManager@@AAEPAVCXTPDockingPaneBase@@PAV2@@Z 004d9bc0 f   ToolkitPro1501vc60S:XTPDockingPaneManager.obj
 0001:000d8be0       ?NotifyAction@CXTPDockingPaneManager@@QAEHW4XTPDockingPaneAction@@PAVCXTPDockingPane@@PAVCXTPDockingPaneBase@@W4XTPDockingPaneDirection@@@Z 004d9be0 f   ToolkitPro1501vc60S:XTPDockingPaneManager.obj
 0001:000d8c40       ?DockSidePane@CXTPDockingPaneManager@@QAEPAVCXTPDockingPaneSidePanel@@PAVCXTPDockingPaneBase@@W4XTPDockingPaneDirection@@VCRect@@@Z 004d9c40 f   ToolkitPro1501vc60S:XTPDockingPaneManager.obj
 0001:000d8cc0       ?FloatPane@CXTPDockingPaneManager@@QAEPAVCXTPDockingPaneMiniWnd@@PAVCXTPDockingPaneBase@@VCRect@@@Z 004d9cc0 f   ToolkitPro1501vc60S:XTPDockingPaneManager.obj
 0001:000d8d60       ?CreatePane@CXTPDockingPaneManager@@QAEPAVCXTPDockingPane@@IVCRect@@W4XTPDockingPaneDirection@@PAVCXTPDockingPaneBase@@@Z 004d9d60 f   ToolkitPro1501vc60S:XTPDockingPaneManager.obj
 0001:000d8e80       ?OnCreatePane@CXTPDockingPaneManager@@UAEPAVCXTPDockingPaneBase@@W4XTPDockingPaneType@@PAVCXTPDockingPaneLayout@@@Z 004d9e80 f   ToolkitPro1501vc60S:XTPDockingPaneManager.obj
 0001:000d90d0       ?DockPane@CXTPDockingPaneManager@@QAEXPAVCXTPDockingPaneBase@@W4XTPDockingPaneDirection@@0@Z 004da0d0 f   ToolkitPro1501vc60S:XTPDockingPaneManager.obj
 0001:000d91e0       ?_RemovePane@CXTPDockingPaneManager@@AAEXPAVCXTPDockingPaneBase@@@Z 004da1e0 f   ToolkitPro1501vc60S:XTPDockingPaneManager.obj
 0001:000d9200       ?AttachPane@CXTPDockingPaneManager@@QAEXPAVCXTPDockingPaneBase@@0@Z 004da200 f   ToolkitPro1501vc60S:XTPDockingPaneManager.obj
 0001:000d9220       ?_AttachPane@CXTPDockingPaneManager@@AAEXPAVCXTPDockingPaneBase@@0@Z 004da220 f   ToolkitPro1501vc60S:XTPDockingPaneManager.obj
 0001:000d9360       ?_CalculateResultDockingRect@CXTPDockingPaneManager@@AAE?AVCRect@@PAVCXTPDockingPaneBase@@W4XTPDockingPaneDirection@@0@Z 004da360 f   ToolkitPro1501vc60S:XTPDockingPaneManager.obj
 0001:000d9470       ?_InsertPane@CXTPDockingPaneManager@@AAEXPAVCXTPDockingPaneBase@@W4XTPDockingPaneDirection@@0@Z 004da470 f   ToolkitPro1501vc60S:XTPDockingPaneManager.obj
 0001:000d96a0       ?_GetHolder@CXTPDockingPaneManager@@AAEPAVCXTPDockingPaneBase@@PAV2@H@Z 004da6a0 f   ToolkitPro1501vc60S:XTPDockingPaneManager.obj
 0001:000d9700       ?ToggleDocking@CXTPDockingPaneManager@@QAEXPAVCXTPDockingPaneBase@@@Z 004da700 f   ToolkitPro1501vc60S:XTPDockingPaneManager.obj
 0001:000d9970       ?_ToggleDocking@CXTPDockingPaneManager@@AAEHPAVCXTPDockingPane@@PAVCXTPDockingPaneBase@@@Z 004da970 f   ToolkitPro1501vc60S:XTPDockingPaneManager.obj
 0001:000d9ae0       ?InstallDockingPanes@CXTPDockingPaneManager@@QAE_NPAVCWnd@@_N@Z 004daae0 f   ToolkitPro1501vc60S:XTPDockingPaneManager.obj
 0001:000d9c40       ?FindPane@CXTPDockingPaneManager@@QBEPAVCXTPDockingPane@@H@Z 004dac40 f   ToolkitPro1501vc60S:XTPDockingPaneManager.obj
 0001:000d9c80       ?ShowPane@CXTPDockingPaneManager@@QAEXPAVCXTPDockingPane@@H@Z 004dac80 f   ToolkitPro1501vc60S:XTPDockingPaneManager.obj
 0001:000d9d10       ?NotifyOwner@CXTPDockingPaneManager@@UAEJIJ@Z 004dad10 f   ToolkitPro1501vc60S:XTPDockingPaneManager.obj
 0001:000d9d50       ?ClosePane@CXTPDockingPaneManager@@QAEXPAVCXTPDockingPane@@@Z 004dad50 f   ToolkitPro1501vc60S:XTPDockingPaneManager.obj
 0001:000d9da0       ?HidePane@CXTPDockingPaneManager@@QAEXPAVCXTPDockingPaneBase@@@Z 004dada0 f   ToolkitPro1501vc60S:XTPDockingPaneManager.obj
 0001:000d9e00       ?IsPaneClosed@CXTPDockingPaneManager@@QBEHPAVCXTPDockingPane@@@Z 004dae00 f   ToolkitPro1501vc60S:XTPDockingPaneManager.obj
 0001:000d9e20       ?IsPaneHidden@CXTPDockingPaneManager@@QBEHPAVCXTPDockingPane@@@Z 004dae20 f   ToolkitPro1501vc60S:XTPDockingPaneManager.obj
 0001:000d9e50       ?_Redraw@CXTPDockingPaneManager@@AAEXXZ 004dae50 f   ToolkitPro1501vc60S:XTPDockingPaneManager.obj
 0001:000d9ed0       ?SetTheme@CXTPDockingPaneManager@@QAEXW4XTPDockingPanePaintTheme@@@Z 004daed0 f   ToolkitPro1501vc60S:XTPDockingPaneManager.obj
 0001:000da2d0       ?CreateLayout@CXTPDockingPaneManager@@UAEPAVCXTPDockingPaneLayout@@XZ 004db2d0 f   ToolkitPro1501vc60S:XTPDockingPaneManager.obj
 0001:000da330       ?GetPaneStack@CXTPDockingPaneManager@@QBEAAV?$CList@PAVCXTPDockingPaneBase@@PAV1@@@XZ 004db330 f   ToolkitPro1501vc60S:XTPDockingPaneManager.obj
 0001:000da340       ?GetPaneList@CXTPDockingPaneManager@@QBEAAV?$CList@UXTP_DOCKINGPANE_INFO@@AAU1@@@XZ 004db340 f   ToolkitPro1501vc60S:XTPDockingPaneManager.obj
 0001:000da350       ?GetClientPane@CXTPDockingPaneManager@@QBEPAVCXTPDockingPaneBase@@XZ 004db350 f   ToolkitPro1501vc60S:XTPDockingPaneManager.obj
 0001:000da370       ?GetTopPane@CXTPDockingPaneManager@@QBEPAVCXTPDockingPaneBase@@XZ 004db370 f   ToolkitPro1501vc60S:XTPDockingPaneManager.obj
 0001:000da390       ?GetIcon@CXTPDockingPaneManager@@QBEPAVCXTPImageManagerIcon@@IH@Z 004db390 f   ToolkitPro1501vc60S:XTPDockingPaneManager.obj
 0001:000da3b0       ?IsLayoutRTL@CXTPDockingPaneManager@@QBEHXZ 004db3b0 f   ToolkitPro1501vc60S:XTPDockingPaneManager.obj
 0001:000da3d0       ?GetRTLDirection@CXTPDockingPaneManager@@QBE?AW4XTPDockingPaneDirection@@W42@@Z 004db3d0 f   ToolkitPro1501vc60S:XTPDockingPaneManager.obj
 0001:000da400       ?GetPaneDirection@CXTPDockingPaneManager@@QBE?AW4XTPDockingPaneDirection@@PBVCXTPDockingPaneBase@@@Z 004db400 f   ToolkitPro1501vc60S:XTPDockingPaneManager.obj
 0001:000da420       ?RecalcFramesLayout@CXTPDockingPaneManager@@QAEXXZ 004db420 f   ToolkitPro1501vc60S:XTPDockingPaneManager.obj
 0001:000da4b0       ?EnsureVisible@CXTPDockingPaneManager@@QAEXPAVCXTPDockingPaneBase@@@Z 004db4b0 f   ToolkitPro1501vc60S:XTPDockingPaneManager.obj
 0001:000da510       ?OnActivatePane@CXTPDockingPaneManager@@UAEXHPAVCXTPDockingPane@@@Z 004db510 f   ToolkitPro1501vc60S:XTPDockingPaneManager.obj
 0001:000da5b0       ?RecalcFrameLayout@CXTPDockingPaneManager@@QAEXPAVCXTPDockingPaneBase@@H@Z 004db5b0 f   ToolkitPro1501vc60S:XTPDockingPaneManager.obj
 0001:000da6e0       ?_TrackPopupContextMenu@CXTPDockingPaneManager@@AAEXPAVCXTPDockingPane@@@Z 004db6e0 f   ToolkitPro1501vc60S:XTPDockingPaneManager.obj
 0001:000da860       ?ActivateNextPane@CXTPDockingPaneManager@@QAEHPAVCXTPDockingPane@@H@Z 004db860 f   ToolkitPro1501vc60S:XTPDockingPaneManager.obj
 0001:000da910       ?OnWndMsg@CXTPDockingPaneManager@@MAEHIIJPAJ@Z 004db910 f   ToolkitPro1501vc60S:XTPDockingPaneManager.obj
 0001:000da9f0       ?GetAccessible@CXTPDockingPaneManager@@MAEPAVCCmdTarget@@XZ 004db9f0 f   ToolkitPro1501vc60S:XTPDockingPaneManager.obj
 0001:000daa00       ?GetAccessibleParent@CXTPDockingPaneManager@@MAEJPAPAUIDispatch@@@Z 004dba00 f   ToolkitPro1501vc60S:XTPDockingPaneManager.obj
 0001:000daa40       ?GetAccessibleChildCount@CXTPDockingPaneManager@@MAEJPAJ@Z 004dba40 f   ToolkitPro1501vc60S:XTPDockingPaneManager.obj
 0001:000daa60       ?GetAccessibleChild@CXTPDockingPaneManager@@MAEJUtagVARIANT@@PAPAUIDispatch@@@Z 004dba60 f   ToolkitPro1501vc60S:XTPDockingPaneManager.obj
 0001:000daac0       ?GetAccessibleName@CXTPDockingPaneManager@@MAEJUtagVARIANT@@PAPAG@Z 004dbac0 f   ToolkitPro1501vc60S:XTPDockingPaneManager.obj
 0001:000dab00       ?GetAccessibleRole@CXTPDockingPaneManager@@MAEJUtagVARIANT@@PAU2@@Z 004dbb00 f   ToolkitPro1501vc60S:XTPDockingPaneManager.obj
 0001:000dab40       ?GetAccessibleState@CXTPDockingPaneManager@@MAEJUtagVARIANT@@PAU2@@Z 004dbb40 f   ToolkitPro1501vc60S:XTPDockingPaneManager.obj
 0001:000dab70       ?AccessibleLocation@CXTPDockingPaneManager@@MAEJPAJ000UtagVARIANT@@@Z 004dbb70 f   ToolkitPro1501vc60S:XTPDockingPaneManager.obj
 0001:000daba0       ?AccessibleHitTest@CXTPDockingPaneManager@@MAEJJJPAUtagVARIANT@@@Z 004dbba0 f   ToolkitPro1501vc60S:XTPDockingPaneManager.obj
 0001:000dabb0       ?OnGetObject@CXTPDockingPaneManager@@IAEJIJ@Z 004dbbb0 f   ToolkitPro1501vc60S:XTPDockingPaneManager.obj
 0001:000dac00       ?GetInterfaceMap@CXTPDockingPaneManager@@MBEPBUAFX_INTERFACEMAP@@XZ 004dbc00 f   ToolkitPro1501vc60S:XTPDockingPaneManager.obj
 0001:000dac10       ?CreateObject@?$CThreadLocal@VCXTPDockingPaneKeyboardHook@@@@SGPAVCNoTrackObject@@XZ 004dbc10 f i ToolkitPro1501vc60S:XTPDockingPaneManager.obj
 0001:000dac70       ??1?$CList@PAVCXTPDockingPaneBase@@PAV1@@@UAE@XZ 004dbc70 f i ToolkitPro1501vc60S:XTPDockingPaneManager.obj
 0001:000dacd0       ??_G?$CList@PAVCXTPDockingPaneBase@@PAV1@@@UAEPAXI@Z 004dbcd0 f i ToolkitPro1501vc60S:XTPDockingPaneManager.obj
 0001:000dacd0       ??_E?$CList@PAVCXTPDockingPaneBase@@PAV1@@@UAEPAXI@Z 004dbcd0 f i ToolkitPro1501vc60S:XTPDockingPaneManager.obj
 0001:000dacf0       ?ConstructElements@@YGXPAUXTP_DOCKINGPANE_INFO@@H@Z 004dbcf0 f i ToolkitPro1501vc60S:XTPDockingPaneManager.obj
 0001:000dad40       ??_ECXTPDockingPaneManager@@WDM@AEPAXI@Z 004dbd40 f i ToolkitPro1501vc60S:XTPDockingPaneManager.obj
 0001:000dad80       ??0CXTPTrayIcon@@QAE@XZ    004dbd80 f   ToolkitPro1501vc60S:XTPTrayIcon.obj
 0001:000dae40       ?Create@CXTPTrayIcon@@UAE_NPBDKPAVCWnd@@I@Z 004dbe40 f i ToolkitPro1501vc60S:XTPTrayIcon.obj
 0001:000dae60       ?SetTooltip@CXTPTrayIcon@@UAEXPBD@Z 004dbe60 f i ToolkitPro1501vc60S:XTPTrayIcon.obj
 0001:000dae70       ?SetTrayIcon@CXTPTrayIcon@@UAEXIK@Z 004dbe70 f i ToolkitPro1501vc60S:XTPTrayIcon.obj
 0001:000dae80       ?SetAnimationIcons@CXTPTrayIcon@@UAEXPBIPBVCString@@H@Z 004dbe80 f i ToolkitPro1501vc60S:XTPTrayIcon.obj
 0001:000daea0       ?KillTimer@CXTPTrayIcon@@UAEXXZ 004dbea0 f i ToolkitPro1501vc60S:XTPTrayIcon.obj
 0001:000daeb0       ?SetTimer@CXTPTrayIcon@@UAEXII@Z 004dbeb0 f i ToolkitPro1501vc60S:XTPTrayIcon.obj
 0001:000daed0       ??_ECXTPTrayIcon@@UAEPAXI@Z 004dbed0 f i ToolkitPro1501vc60S:XTPTrayIcon.obj
 0001:000daed0       ??_GCXTPTrayIcon@@UAEPAXI@Z 004dbed0 f i ToolkitPro1501vc60S:XTPTrayIcon.obj
 0001:000daef0       ??1CXTPTrayIcon@@UAE@XZ    004dbef0 f   ToolkitPro1501vc60S:XTPTrayIcon.obj
 0001:000dafe0       ?GetMessageMap@CXTPTrayIcon@@MBEPBUAFX_MSGMAP@@XZ 004dbfe0 f   ToolkitPro1501vc60S:XTPTrayIcon.obj
 0001:000daff0       ?SetDefaultValues@CXTPTrayIcon@@QAEXXZ 004dbff0 f   ToolkitPro1501vc60S:XTPTrayIcon.obj
 0001:000db090       ?IsShellVersion5@CXTPTrayIcon@@QBEHXZ 004dc090 f   ToolkitPro1501vc60S:XTPTrayIcon.obj
 0001:000db110       ?ShellNotify@CXTPTrayIcon@@QAEHK@Z 004dc110 f   ToolkitPro1501vc60S:XTPTrayIcon.obj
 0001:000db130       ?SetIcon@CXTPTrayIcon@@QAE_NPAUHICON__@@@Z 004dc130 f   ToolkitPro1501vc60S:XTPTrayIcon.obj
 0001:000db170       ?SetIcon@CXTPTrayIcon@@QAE_NPBD@Z 004dc170 f   ToolkitPro1501vc60S:XTPTrayIcon.obj
 0001:000db1d0       ?SetIcon@CXTPTrayIcon@@QAE_NI@Z 004dc1d0 f   ToolkitPro1501vc60S:XTPTrayIcon.obj
 0001:000db1f0       ?RemoveAnimationIcons@CXTPTrayIcon@@UAEXXZ 004dc1f0 f   ToolkitPro1501vc60S:XTPTrayIcon.obj
 0001:000db240       ?SetAnimationIcons@CXTPTrayIcon@@UAE_NPBIHPBVCString@@@Z 004dc240 f   ToolkitPro1501vc60S:XTPTrayIcon.obj
 0001:000db430       ??1TRAYICONDATA@CXTPTrayIcon@@QAE@XZ 004dc430 f i ToolkitPro1501vc60S:XTPTrayIcon.obj
 0001:000db440       ??0TRAYICONDATA@CXTPTrayIcon@@QAE@XZ 004dc440 f i ToolkitPro1501vc60S:XTPTrayIcon.obj
 0001:000db450       ?SetTooltipText@CXTPTrayIcon@@QAE_NPBD@Z 004dc450 f   ToolkitPro1501vc60S:XTPTrayIcon.obj
 0001:000db4e0       ?SetShellTooltip@CXTPTrayIcon@@AAE_NPBD@Z 004dc4e0 f   ToolkitPro1501vc60S:XTPTrayIcon.obj
 0001:000db530       ?AddIcon@CXTPTrayIcon@@QAE_NXZ 004dc530 f   ToolkitPro1501vc60S:XTPTrayIcon.obj
 0001:000db570       ?RemoveIcon@CXTPTrayIcon@@QAE_NXZ 004dc570 f   ToolkitPro1501vc60S:XTPTrayIcon.obj
 0001:000db5b0       ?OnTimer@CXTPTrayIcon@@IAEXI@Z 004dc5b0 f   ToolkitPro1501vc60S:XTPTrayIcon.obj
 0001:000db630       ?Create@CXTPTrayIcon@@UAE_NPBDPAVCWnd@@III_N@Z 004dc630 f   ToolkitPro1501vc60S:XTPTrayIcon.obj
 0001:000db6e0       ?ShowBalloonTip@CXTPTrayIcon@@QAE_NPBD0KI@Z 004dc6e0 f   ToolkitPro1501vc60S:XTPTrayIcon.obj
 0001:000db790       ?StartAnimation@CXTPTrayIcon@@UAEXI@Z 004dc790 f   ToolkitPro1501vc60S:XTPTrayIcon.obj
 0001:000db7b0       ?StopAnimation@CXTPTrayIcon@@UAEXXZ 004dc7b0 f   ToolkitPro1501vc60S:XTPTrayIcon.obj
 0001:000db7e0       ?OnTrayNotification@CXTPTrayIcon@@MAEJIJ@Z 004dc7e0 f   ToolkitPro1501vc60S:XTPTrayIcon.obj
 0001:000dbaf0       ?WindowProc@CXTPTrayIcon@@MAEJIIJ@Z 004dcaf0 f   ToolkitPro1501vc60S:XTPTrayIcon.obj
 0001:000dbb30       ?OnTaskbarCreated@CXTPTrayIcon@@IAEJIJ@Z 004dcb30 f   ToolkitPro1501vc60S:XTPTrayIcon.obj
 0001:000dbb40       ?OnSettingChange@CXTPTrayIcon@@IAEXIPBD@Z 004dcb40 f   ToolkitPro1501vc60S:XTPTrayIcon.obj
 0001:000dbb70       ?InstallIconPending@CXTPTrayIcon@@UAEXXZ 004dcb70 f   ToolkitPro1501vc60S:XTPTrayIcon.obj
 0001:000dbba0       ?FindTrayWnd@CXTPTrayIcon@@CGHPAUHWND__@@J@Z 004dcba0 f   ToolkitPro1501vc60S:XTPTrayIcon.obj
 0001:000dbc50       ?GetTrayWindowRect@CXTPTrayIcon@@AAE_NAAVCRect@@@Z 004dcc50 f   ToolkitPro1501vc60S:XTPTrayIcon.obj
 0001:000dbd70       ?CanAnimate@CXTPTrayIcon@@ABE_NXZ 004dcd70 f   ToolkitPro1501vc60S:XTPTrayIcon.obj
 0001:000dbdb0       ?CreateMinimizeWnd@CXTPTrayIcon@@UAE_NPAVCWnd@@@Z 004dcdb0 f   ToolkitPro1501vc60S:XTPTrayIcon.obj
 0001:000dbe30       ?MinimizeToTray@CXTPTrayIcon@@QAEXPAVCWnd@@@Z 004dce30 f   ToolkitPro1501vc60S:XTPTrayIcon.obj
 0001:000dbea0       ?MaximizeFromTray@CXTPTrayIcon@@QAEXPAVCWnd@@@Z 004dcea0 f   ToolkitPro1501vc60S:XTPTrayIcon.obj
 0001:000dbf60       ?RemoveHead@?$CList@UTRAYICONDATA@CXTPTrayIcon@@AAU12@@@QAE?AUTRAYICONDATA@CXTPTrayIcon@@XZ 004dcf60 f i ToolkitPro1501vc60S:XTPTrayIcon.obj
 0001:000dc060       ??1?$CList@UTRAYICONDATA@CXTPTrayIcon@@AAU12@@@UAE@XZ 004dd060 f i ToolkitPro1501vc60S:XTPTrayIcon.obj
 0001:000dc0e0       ?Serialize@?$CList@UTRAYICONDATA@CXTPTrayIcon@@AAU12@@@UAEXAAVCArchive@@@Z 004dd0e0 f i ToolkitPro1501vc60S:XTPTrayIcon.obj
 0001:000dc260       ??_G?$CList@UTRAYICONDATA@CXTPTrayIcon@@AAU12@@@UAEPAXI@Z 004dd260 f i ToolkitPro1501vc60S:XTPTrayIcon.obj
 0001:000dc260       ??_E?$CList@UTRAYICONDATA@CXTPTrayIcon@@AAU12@@@UAEPAXI@Z 004dd260 f i ToolkitPro1501vc60S:XTPTrayIcon.obj
 0001:000dc280       ?ConstructElements@@YGXPAUTRAYICONDATA@CXTPTrayIcon@@H@Z 004dd280 f i ToolkitPro1501vc60S:XTPTrayIcon.obj
 0001:000dc310       ??0CLogFont@CXTPPaintManager@@QAE@XZ 004dd310 f   ToolkitPro1501vc60S:XTPPaintManager.obj
 0001:000dc330       ?GetRuntimeClass@CXTPPaintManager@@UBEPAUCRuntimeClass@@XZ 004dd330 f   ToolkitPro1501vc60S:XTPPaintManager.obj
 0001:000dc340       ??0CXTPPaintManager@@IAE@XZ 004dd340 f   ToolkitPro1501vc60S:XTPPaintManager.obj
 0001:000dc660       ??_GCXTPPaintManagerFont@@UAEPAXI@Z 004dd660 f i ToolkitPro1501vc60S:XTPPaintManager.obj
 0001:000dc660       ??_ECXTPPaintManagerFont@@UAEPAXI@Z 004dd660 f i ToolkitPro1501vc60S:XTPPaintManager.obj
 0001:000dc680       ??1CXTPPaintManagerFont@@UAE@XZ 004dd680 f i ToolkitPro1501vc60S:XTPPaintManager.obj
 0001:000dc6c0       ?GetGalleryPaintManager@CXTPPaintManager@@UBEPAVCXTPControlGalleryPaintManager@@XZ 004dd6c0 f i ToolkitPro1501vc60S:XTPPaintManager.obj
 0001:000dc6d0       ?GetSliderPaintManager@CXTPPaintManager@@UBEPAVCXTPSliderPaintManager@@XZ 004dd6d0 f i ToolkitPro1501vc60S:XTPPaintManager.obj
 0001:000dc6e0       ?GetProgressPaintManager@CXTPPaintManager@@UBEPAVCXTPProgressPaintManager@@XZ 004dd6e0 f i ToolkitPro1501vc60S:XTPPaintManager.obj
 0001:000dc6f0       ??_ECXTPPaintManager@@MAEPAXI@Z 004dd6f0 f i ToolkitPro1501vc60S:XTPPaintManager.obj
 0001:000dc6f0       ??_GCXTPPaintManager@@MAEPAXI@Z 004dd6f0 f i ToolkitPro1501vc60S:XTPPaintManager.obj
 0001:000dc710       ?GetCurrentSystemTheme@CXTPPaintManager@@QAE?AW4XTPCurrentSystemTheme@@XZ 004dd710 f   ToolkitPro1501vc60S:XTPPaintManager.obj
 0001:000dc750       ?GetXtremeColor@CXTPPaintManager@@QAEKI@Z 004dd750 f   ToolkitPro1501vc60S:XTPPaintManager.obj
 0001:000dc780       ?SetColors@CXTPPaintManager@@QAEXHPBHPBK@Z 004dd780 f   ToolkitPro1501vc60S:XTPPaintManager.obj
 0001:000dc7b0       ??1CXTPPaintManager@@MAE@XZ 004dd7b0 f   ToolkitPro1501vc60S:XTPPaintManager.obj
 0001:000dc980       ?GetIconsInfo@CXTPPaintManager@@QAEPAUXTP_COMMANDBARS_ICONSINFO@@XZ 004dd980 f   ToolkitPro1501vc60S:XTPPaintManager.obj
 0001:000dc990       ?UpdateColors@CXTPPaintManager@@UAEXXZ 004dd990 f   ToolkitPro1501vc60S:XTPPaintManager.obj
 0001:000dc9c0       ?RefreshMetrics@CXTPPaintManager@@UAEXXZ 004dd9c0 f   ToolkitPro1501vc60S:XTPPaintManager.obj
 0001:000dcaf0       ?GetFramePaintManager@CXTPPaintManager@@UAEPAVCXTPFramePaintManager@@XZ 004ddaf0 f   ToolkitPro1501vc60S:XTPPaintManager.obj
 0001:000dcb70       ?GetRibbonPaintManager@CXTPPaintManager@@UAEPAVCXTPRibbonPaintManager@@XZ 004ddb70 f   ToolkitPro1501vc60S:XTPPaintManager.obj
 0001:000dcbf0       ?GetControlHeight@CXTPPaintManager@@QBEHXZ 004ddbf0 f   ToolkitPro1501vc60S:XTPPaintManager.obj
 0001:000dcc10       ?CreateTheme@CXTPPaintManager@@SAPAV1@W4XTPPaintTheme@@@Z 004ddc10 f   ToolkitPro1501vc60S:XTPPaintManager.obj
 0001:000dce20       ?GetParentCommandBar@CXTPCommandBar@@UBEPAV1@XZ 004dde20 f i ToolkitPro1501vc60S:XTPPaintManager.obj
 0001:000dce20       ?IsMouseLocked@CXTPTabManager@@MBEHXZ 004dde20 f i ToolkitPro1501vc60S:XTPPaintManager.obj
 0001:000dce20       ?IsCaptionVisible@CControlButtonExpand@CXTPToolBar@@UBEHXZ 004dde20 f i ToolkitPro1501vc60S:XTPPaintManager.obj
 0001:000dce20       ?IsPrinting@CXTPMarkupDrawingContext@@UBEHXZ 004dde20 f i ToolkitPro1501vc60S:XTPPaintManager.obj
 0001:000dce20       ?IsAllowBlobValues@CXTPPropExchange@@UBEHXZ 004dde20 f i ToolkitPro1501vc60S:XTPPaintManager.obj
 0001:000dce20       ?IsCustomizeMovable@CControlButtonHide@CXTPToolBar@@UBEHXZ 004dde20 f i ToolkitPro1501vc60S:XTPPaintManager.obj
 0001:000dce20       ?IsTransparent@CXTPControl@@UBEHXZ 004dde20 f i ToolkitPro1501vc60S:XTPPaintManager.obj
 0001:000dce20       ?IsEvent@CXTPMarkupDependencyProperty@@UBEHXZ 004dde20 f i ToolkitPro1501vc60S:XTPPaintManager.obj
 0001:000dce20       ?GetPaneHwnd@CXTPDockingPaneBase@@UBEPAUHWND__@@XZ 004dde20 f i ToolkitPro1501vc60S:XTPPaintManager.obj
 0001:000dce20       ?HeaderHasFocus@CXTPTabManager@@MBEHXZ 004dde20 f i ToolkitPro1501vc60S:XTPPaintManager.obj
 0001:000dce20       ?GetCustomizeMinWidth@CXTPControl@@MBEHXZ 004dde20 f i ToolkitPro1501vc60S:XTPPaintManager.obj
 0001:000dce20       ?GetSelected@CXTPControlLabel@@UBEHXZ 004dde20 f i ToolkitPro1501vc60S:XTPPaintManager.obj
 0001:000dce20       ?IsResizable@CXTPCommandBar@@UBEHXZ 004dde20 f i ToolkitPro1501vc60S:XTPPaintManager.obj
 0001:000dce20       ?IsDialogBar@CXTPCommandBar@@UBEHXZ 004dde20 f i ToolkitPro1501vc60S:XTPPaintManager.obj
 0001:000dce20       ?GetCustomizeMinHeight@CXTPControl@@MBEHXZ 004dde20 f i ToolkitPro1501vc60S:XTPPaintManager.obj
 0001:000dce20       ?BaseTheme@CXTPDefaultTheme@@MAE?AW4XTPPaintTheme@@XZ 004dde20 f i ToolkitPro1501vc60S:XTPPaintManager.obj
 0001:000dce20       ?IsPopupBar@CXTPCommandBar@@UBEHXZ 004dde20 f i ToolkitPro1501vc60S:XTPPaintManager.obj
 0001:000dce20       ?IsRibbonBar@CXTPCommandBar@@UBEHXZ 004dde20 f i ToolkitPro1501vc60S:XTPPaintManager.obj
 0001:000dce20       ?IsCustomizable@CXTPControlComboBoxList@@MBEHXZ 004dde20 f i ToolkitPro1501vc60S:XTPPaintManager.obj
 0001:000dce20       ?IsCustomizeMovable@CXTPRibbonBarControlQuickAccessPopup@@UBEHXZ 004dde20 f i ToolkitPro1501vc60S:XTPPaintManager.obj
 0001:000dce20       ?GetCommandBar@CXTPControl@@UBEPAVCXTPCommandBar@@XZ 004dde20 f i ToolkitPro1501vc60S:XTPPaintManager.obj
 0001:000dce20       ?IsFocused@CXTPControl@@UBEHXZ 004dde20 f i ToolkitPro1501vc60S:XTPPaintManager.obj
 0001:000dce20       ?IsCustomizeMovable@CXTPRibbonBarControlCaptionButton@@MBEHXZ 004dde20 f i ToolkitPro1501vc60S:XTPPaintManager.obj
 0001:000dce20       ?IsFocusable@CXTPControl@@MBEHXZ 004dde20 f i ToolkitPro1501vc60S:XTPPaintManager.obj
 0001:000dce20       ?IsCustomizeMovable@CControlGroupsScroll@CXTPRibbonScrollableBar@@UBEHXZ 004dde20 f i ToolkitPro1501vc60S:XTPPaintManager.obj
 0001:000dce20       ?IsAllowDefaultValues@CXTPPropExchangeArchive@@UBEHXZ 004dde20 f i ToolkitPro1501vc60S:XTPPaintManager.obj
 0001:000dce20       ?IsVisible@CXTPCommandBar@@UBEHXZ 004dde20 f i ToolkitPro1501vc60S:XTPPaintManager.obj
 0001:000dce20       ?IsCustomizeMovable@CControlButtonExpand@CXTPToolBar@@UBEHXZ 004dde20 f i ToolkitPro1501vc60S:XTPPaintManager.obj
 0001:000dce20       ?GetPopuped@CXTPControl@@UBEHXZ 004dde20 f i ToolkitPro1501vc60S:XTPPaintManager.obj
 0001:000dce30       ??_GCXTPOfficeTheme@@UAEPAXI@Z 004dde30 f i ToolkitPro1501vc60S:XTPPaintManager.obj
 0001:000dce30       ??_ECXTPVisualStudio6Theme@@UAEPAXI@Z 004dde30 f i ToolkitPro1501vc60S:XTPPaintManager.obj
 0001:000dce30       ??_GCXTPVisualStudio6Theme@@UAEPAXI@Z 004dde30 f i ToolkitPro1501vc60S:XTPPaintManager.obj
 0001:000dce30       ??_GCXTPDefaultTheme@@UAEPAXI@Z 004dde30 f i ToolkitPro1501vc60S:XTPPaintManager.obj
 0001:000dce30       ??_ECXTPDefaultTheme@@UAEPAXI@Z 004dde30 f i ToolkitPro1501vc60S:XTPPaintManager.obj
 0001:000dce30       ??_ECXTPOfficeTheme@@UAEPAXI@Z 004dde30 f i ToolkitPro1501vc60S:XTPPaintManager.obj
 0001:000dce50       ??1CXTPDefaultTheme@@UAE@XZ 004dde50 f i ToolkitPro1501vc60S:XTPPaintManager.obj
 0001:000dce50       ??1CXTPOfficeTheme@@UAE@XZ 004dde50 f i ToolkitPro1501vc60S:XTPPaintManager.obj
 0001:000dce50       ??1CXTPVisualStudio6Theme@@UAE@XZ 004dde50 f i ToolkitPro1501vc60S:XTPPaintManager.obj
 0001:000dce60       ?SetTheme@CXTPPaintManager@@SAXW4XTPPaintTheme@@@Z 004dde60 f   ToolkitPro1501vc60S:XTPPaintManager.obj
 0001:000dce90       ?SetCustomTheme@CXTPPaintManager@@SAXPAV1@@Z 004dde90 f   ToolkitPro1501vc60S:XTPPaintManager.obj
 0001:000dcec0       ?Done@CXTPPaintManager@@SAXXZ 004ddec0 f   ToolkitPro1501vc60S:XTPPaintManager.obj
 0001:000dcee0       ?Triangle@CXTPPaintManager@@SAXPAVCDC@@VCPoint@@11K@Z 004ddee0 f   ToolkitPro1501vc60S:XTPPaintManager.obj
 0001:000dcfb0       ?Rectangle@CXTPPaintManager@@QAEXPAVCDC@@VCRect@@HH@Z 004ddfb0 f   ToolkitPro1501vc60S:XTPPaintManager.obj
 0001:000dd010       ?Draw3dRect@CXTPPaintManager@@QAEXPAVCDC@@VCRect@@HH@Z 004de010 f   ToolkitPro1501vc60S:XTPPaintManager.obj
 0001:000dd040       ?_DrawCheckMark@CXTPPaintManager@@IAEXPAVCDC@@VCRect@@KH@Z 004de040 f   ToolkitPro1501vc60S:XTPPaintManager.obj
 0001:000dd1a0       ?AlphaEllipse@CXTPPaintManager@@QAEXPAVCDC@@VCRect@@KK@Z 004de1a0 f   ToolkitPro1501vc60S:XTPPaintManager.obj
 0001:000dd3e0       ?DrawPopupBarRadioMark@CXTPPaintManager@@UAEXPAVCDC@@VCRect@@HK@Z 004de3e0 f   ToolkitPro1501vc60S:XTPPaintManager.obj
 0001:000dd440       ?DrawPopupBarCheckMark@CXTPPaintManager@@UAEXPAVCDC@@VCRect@@HK@Z 004de440 f   ToolkitPro1501vc60S:XTPPaintManager.obj
 0001:000dd4d0       ?DrawComboExpandMark@CXTPPaintManager@@UAEXPAVCDC@@VCRect@@K@Z 004de4d0 f   ToolkitPro1501vc60S:XTPPaintManager.obj
 0001:000dd550       ?HorizontalLine@CXTPPaintManager@@QAEXPAVCDC@@HHHK@Z 004de550 f   ToolkitPro1501vc60S:XTPPaintManager.obj
 0001:000dd580       ?VerticalLine@CXTPPaintManager@@QAEXPAVCDC@@HHHK@Z 004de580 f   ToolkitPro1501vc60S:XTPPaintManager.obj
 0001:000dd5b0       ?Line@CXTPPaintManager@@QAEXPAVCDC@@VCPoint@@1@Z 004de5b0 f   ToolkitPro1501vc60S:XTPPaintManager.obj
 0001:000dd5e0       ?Line@CXTPPaintManager@@QAEXPAVCDC@@HHHHH@Z 004de5e0 f   ToolkitPro1501vc60S:XTPPaintManager.obj
 0001:000dd680       ?StripMnemonics@CXTPPaintManager@@SAXAAVCString@@@Z 004de680 f   ToolkitPro1501vc60S:XTPPaintManager.obj
 0001:000dd690       ?SplitString@CXTPPaintManager@@IAEXABVCString@@AAV2@1@Z 004de690 f   ToolkitPro1501vc60S:XTPPaintManager.obj
 0001:000dd7e0       ?DrawTextApi@CXTPPaintManager@@SAXPAVCDC@@ABVCString@@PAUtagRECT@@IH@Z 004de7e0 f   ToolkitPro1501vc60S:XTPPaintManager.obj
 0001:000dda40       ?DrawControlText3@CXTPPaintManager@@IAEXPAVCDC@@PAVCXTPControl@@ABVCString@@2VCRect@@HH@Z 004dea40 f   ToolkitPro1501vc60S:XTPPaintManager.obj
 0001:000ddc80       ?DrawDropDownGlyph@CXTPPaintManager@@UAEXPAVCDC@@PAVCXTPControl@@VCPoint@@HHHH@Z 004dec80 f   ToolkitPro1501vc60S:XTPPaintManager.obj
 0001:000ddd00       ?DrawControlText2@CXTPPaintManager@@QAE?AVCSize@@PAVCDC@@PAVCXTPControl@@VCRect@@HHH@Z 004ded00 f   ToolkitPro1501vc60S:XTPPaintManager.obj
 0001:000de250       ?DrawControlText@CXTPPaintManager@@QAE?AVCSize@@PAVCDC@@PAVCXTPControl@@VCRect@@HHHH@Z 004df250 f   ToolkitPro1501vc60S:XTPPaintManager.obj
 0001:000de5c0       ?FontExists@CXTPPaintManager@@SAHPBD@Z 004df5c0 f   ToolkitPro1501vc60S:XTPPaintManager.obj
 0001:000de5d0       ?SetCommandBarsFontIndirect@CXTPPaintManager@@QAEXPAUtagLOGFONTA@@H@Z 004df5d0 f   ToolkitPro1501vc60S:XTPPaintManager.obj
 0001:000de7f0       ?UpdateFonts@CXTPPaintManager@@UAEXXZ 004df7f0 f   ToolkitPro1501vc60S:XTPPaintManager.obj
 0001:000dea40       ?DrawControlEntry@CXTPPaintManager@@UAEXPAVCDC@@PAVCXTPControl@@@Z 004dfa40 f   ToolkitPro1501vc60S:XTPPaintManager.obj
 0001:000deb20       ?GetControlTextColor@CXTPPaintManager@@UAEKPAVCXTPControl@@@Z 004dfb20 f   ToolkitPro1501vc60S:XTPPaintManager.obj
 0001:000dec20       ?GetPopupBarGripperWidth@CXTPPaintManager@@UAEHPAVCXTPCommandBar@@@Z 004dfc20 f   ToolkitPro1501vc60S:XTPPaintManager.obj
 0001:000dec90       ?GetControlEditBackColor@CXTPPaintManager@@UAEKPAVCXTPControl@@@Z 004dfc90 f   ToolkitPro1501vc60S:XTPPaintManager.obj
 0001:000decc0       ?DrawControlEdit@CXTPPaintManager@@UAE?AVCSize@@PAVCDC@@PAVCXTPControlEdit@@H@Z 004dfcc0 f   ToolkitPro1501vc60S:XTPPaintManager.obj
 0001:000df140       ?DrawControlComboBox@CXTPPaintManager@@UAE?AVCSize@@PAVCDC@@PAVCXTPControlComboBox@@H@Z 004e0140 f   ToolkitPro1501vc60S:XTPPaintManager.obj
 0001:000df630       ?DrawControl@CXTPPaintManager@@QAE?AVCSize@@PAVCDC@@PAVCXTPControl@@H@Z 004e0630 f   ToolkitPro1501vc60S:XTPPaintManager.obj
 0001:000df6e0       ?FillDockBar@CXTPPaintManager@@UAEXPAVCDC@@PAVCXTPDockBar@@@Z 004e06e0 f   ToolkitPro1501vc60S:XTPPaintManager.obj
 0001:000df720       ?FillMessageBar@CXTPPaintManager@@UAEXPAVCDC@@PAVCXTPMessageBar@@@Z 004e0720 f   ToolkitPro1501vc60S:XTPPaintManager.obj
 0001:000df7d0       ?DrawMessageBarButton@CXTPPaintManager@@UAEXPAVCDC@@PAVCXTPMessageBarButton@@@Z 004e07d0 f   ToolkitPro1501vc60S:XTPPaintManager.obj
 0001:000dfa20       ?FillStatusBar@CXTPPaintManager@@UAEXPAVCDC@@PAVCXTPStatusBar@@@Z 004e0a20 f   ToolkitPro1501vc60S:XTPPaintManager.obj
 0001:000dfaa0       ?GetControlTextOrientation@CXTPPaintManager@@UAE?AW4XTPBarTextOrientation@@PAVCXTPControl@@@Z 004e0aa0 f   ToolkitPro1501vc60S:XTPPaintManager.obj
 0001:000dfae0       ?GetControlFont@CXTPPaintManager@@UAEPAVCFont@@PAVCXTPControl@@@Z 004e0ae0 f   ToolkitPro1501vc60S:XTPPaintManager.obj
 0001:000dfb40       ?GetCommandBarFont@CXTPPaintManager@@UAEPAVCFont@@PAVCXTPCommandBar@@@Z 004e0b40 f   ToolkitPro1501vc60S:XTPPaintManager.obj
 0001:000dfb80       ?DrawSpecialControl@CXTPPaintManager@@UAE?AVCSize@@PAVCDC@@W4XTPSpecialControl@@PAVCXTPControl@@PAVCXTPCommandBar@@HPAX@Z 004e0b80 f   ToolkitPro1501vc60S:XTPPaintManager.obj
 0001:000e0220       ?DrawControlText@CXTPPaintManager@@IAE?AVCSize@@PAVCDC@@PAVCXTPControl@@VCRect@@HHV2@H@Z 004e1220 f   ToolkitPro1501vc60S:XTPPaintManager.obj
 0001:000e03f0       ??0CRect@@QAE@PBUtagRECT@@@Z 004e13f0 f i ToolkitPro1501vc60S:XTPPaintManager.obj
 0001:000e03f0       ??0CRect@@QAE@ABUtagRECT@@@Z 004e13f0 f i ToolkitPro1501vc60S:XTPPaintManager.obj
 0001:000e0410       ?GetSplitButtonCommandRect@CXTPPaintManager@@UAE?AVCRect@@PAVCXTPControl@@@Z 004e1410 f   ToolkitPro1501vc60S:XTPPaintManager.obj
 0001:000e0510       ?DrawControlCheckBoxMark@CXTPPaintManager@@UAE?AVCSize@@PAVCDC@@VCRect@@HHHHH@Z 004e1510 f   ToolkitPro1501vc60S:XTPPaintManager.obj
 0001:000e05f0       ?DrawControlRadioButtonMark@CXTPPaintManager@@UAE?AVCSize@@PAVCDC@@VCRect@@HHHHH@Z 004e15f0 f   ToolkitPro1501vc60S:XTPPaintManager.obj
 0001:000e06e0       ?GetControlSize@CXTPPaintManager@@IAE?AVCSize@@PAVCXTPControl@@V2@H@Z 004e16e0 f   ToolkitPro1501vc60S:XTPPaintManager.obj
 0001:000e0760       ?GetPopupBarImageSize@CXTPPaintManager@@MAE?AVCSize@@PAVCXTPCommandBar@@@Z 004e1760 f   ToolkitPro1501vc60S:XTPPaintManager.obj
 0001:000e07b0       ?DrawPopupBarText@CXTPPaintManager@@MAEXPAVCDC@@ABVCString@@AAVCRect@@IHHH@Z 004e17b0 f   ToolkitPro1501vc60S:XTPPaintManager.obj
 0001:000e08c0       ?DrawControlPopupParent@CXTPPaintManager@@UAE?AVCSize@@PAVCDC@@PAVCXTPControl@@H@Z 004e18c0 f   ToolkitPro1501vc60S:XTPPaintManager.obj
 0001:000e0f60       ?GetIconSize@CXTPPaintManager@@IAE?AVCSize@@PAVCXTPControl@@@Z 004e1f60 f   ToolkitPro1501vc60S:XTPPaintManager.obj
 0001:000e0fc0       ?GetSplitDropDownHeight@CXTPPaintManager@@QBEHXZ 004e1fc0 f   ToolkitPro1501vc60S:XTPPaintManager.obj
 0001:000e0ff0       ?GetStretchIconSize@CXTPPaintManager@@IAE?AVCSize@@PAVCXTPImageManagerIcon@@V2@@Z 004e1ff0 f   ToolkitPro1501vc60S:XTPPaintManager.obj
 0001:000e1080       ?DrawControlToolBarParent@CXTPPaintManager@@UAE?AVCSize@@PAVCDC@@PAVCXTPControl@@H@Z 004e2080 f   ToolkitPro1501vc60S:XTPPaintManager.obj
 0001:000e1f90       ?GetCommandBarBorders@CXTPPaintManager@@UAE?AVCRect@@PAVCXTPCommandBar@@@Z 004e2f90 f   ToolkitPro1501vc60S:XTPPaintManager.obj
 0001:000e1fc0       ?GradientFill@CXTPPaintManager@@QAEXPAVCDC@@PAUtagRECT@@KKHPBU3@@Z 004e2fc0 f   ToolkitPro1501vc60S:XTPPaintManager.obj
 0001:000e1ff0       ?DrawStatusBarGripper@CXTPPaintManager@@UAEXPAVCDC@@VCRect@@@Z 004e2ff0 f   ToolkitPro1501vc60S:XTPPaintManager.obj
 0001:000e21f0       ?AnimateExpanding@CXTPPaintManager@@UAEXPAVCXTPCommandBar@@PAVCDC@@1H@Z 004e31f0 f   ToolkitPro1501vc60S:XTPPaintManager.obj
 0001:000e2550       ?AlphaBlendU@CXTPPaintManager@@IAEXPAE0HH0E@Z 004e3550 f   ToolkitPro1501vc60S:XTPPaintManager.obj
 0001:000e2600       ?Animate@CXTPPaintManager@@UAEXPAVCDC@@0VCRect@@W4XTPAnimationType@@@Z 004e3600 f   ToolkitPro1501vc60S:XTPPaintManager.obj
 0001:000e2a70       ?EnsureVisible@CXTPCommandBar@@UAEXPAVCXTPControl@@@Z 004e3a70 f   ToolkitPro1501vc60S:XTPPaintManager.obj
 0001:000e2a70       ?RestoreCommandBarList@CXTPControl@@MAEXPAVCXTPCommandBarList@@@Z 004e3a70 f   ToolkitPro1501vc60S:XTPPaintManager.obj
 0001:000e2a70       ?TxImmReleaseContext@XTextHost@CXTPRichRender@@UAEXPAUXTP_HIMC__@@@Z 004e3a70 f   ToolkitPro1501vc60S:XTPPaintManager.obj
 0001:000e2a70       ?OnMouseMove@CXTPMarkupInputElement@@UAEXPAVCXTPMarkupMouseEventArgs@@@Z 004e3a70 f   ToolkitPro1501vc60S:XTPPaintManager.obj
 0001:000e2a70       ?AdjustResizeRect@CXTPResize@@MAEXAAVCSize@@@Z 004e3a70 f   ToolkitPro1501vc60S:XTPPaintManager.obj
 0001:000e2a70       ?DoDataExchange@CShowNum@@MAEXPAVCDataExchange@@@Z 004e3a70 f   ToolkitPro1501vc60S:XTPPaintManager.obj
 0001:000e2a70       ?SetPaintManager@CXTPDockingPaneTabbedContainer@@MAEXPAVCXTPTabPaintManager@@@Z 004e3a70 f   ToolkitPro1501vc60S:XTPPaintManager.obj
 0001:000e2a70       ?OnMouseWheel@CXTPMarkupInputElement@@UAEXPAVCXTPMarkupMouseWheelEventArgs@@@Z 004e3a70 f   ToolkitPro1501vc60S:XTPPaintManager.obj
 0001:000e2a70       ?DoDataExchange@CWebCamDlg@@MAEXPAVCDataExchange@@@Z 004e3a70 f   ToolkitPro1501vc60S:XTPPaintManager.obj
 0001:000e2a70       ?TxViewChange@XTextHost@CXTPRichRender@@UAEXH@Z 004e3a70 f   ToolkitPro1501vc60S:XTPPaintManager.obj
 0001:000e2a70       ?DoDataExchange@CXTPPropertySheet@@MAEXPAVCDataExchange@@@Z 004e3a70 f   ToolkitPro1501vc60S:XTPPaintManager.obj
 0001:000e2a70       ?BeforeCustomizeControlAdd@CXTPToolBar@@MAEXPAVCXTPControl@@@Z 004e3a70 f   ToolkitPro1501vc60S:XTPPaintManager.obj
 0001:000e2a70       ?DoDataExchange@CFileTransferModeDlg@@MAEXPAVCDataExchange@@@Z 004e3a70 f   ToolkitPro1501vc60S:XTPPaintManager.obj
 0001:000e2a70       ?OnMouseLeftButtonDown@CXTPMarkupInputElement@@UAEXPAVCXTPMarkupMouseButtonEventArgs@@@Z 004e3a70 f   ToolkitPro1501vc60S:XTPPaintManager.obj
 0001:000e2a70       ?DoDataExchange@CXTPPropertyPage@@MAEXPAVCDataExchange@@@Z 004e3a70 f   ToolkitPro1501vc60S:XTPPaintManager.obj
 0001:000e2a70       ?OnParentContainerChanged@CXTPDockingPaneBase@@MAEXPAV1@@Z 004e3a70 f   ToolkitPro1501vc60S:XTPPaintManager.obj
 0001:000e2a70       ?OnMouseRightButtonUp@CXTPMarkupInputElement@@UAEXPAVCXTPMarkupMouseButtonEventArgs@@@Z 004e3a70 f   ToolkitPro1501vc60S:XTPPaintManager.obj
 0001:000e2a70       ?OnSelChanged@CBrowseForFolder@@MBEXQAU_ITEMIDLIST@@@Z 004e3a70 f   ToolkitPro1501vc60S:XTPPaintManager.obj
 0001:000e2a70       ?OnDraw@CGh0stView@@UAEXPAVCDC@@@Z 004e3a70 f   ToolkitPro1501vc60S:XTPPaintManager.obj
 0001:000e2a70       ?DoDataExchange@Cproxy@@MAEXPAVCDataExchange@@@Z 004e3a70 f   ToolkitPro1501vc60S:XTPPaintManager.obj
 0001:000e2a70       ?OnSetFocus@CXTPCommandBarScrollBarCtrl@@IAEXPAVCWnd@@@Z 004e3a70 f   ToolkitPro1501vc60S:XTPPaintManager.obj
 0001:000e2a70       ?OnLostMouseCapture@CXTPMarkupInputElement@@UAEXPAVCXTPMarkupMouseEventArgs@@@Z 004e3a70 f   ToolkitPro1501vc60S:XTPPaintManager.obj
 0001:000e2a70       ?OnMouseLeftButtonUp@CXTPMarkupInputElement@@UAEXPAVCXTPMarkupMouseButtonEventArgs@@@Z 004e3a70 f   ToolkitPro1501vc60S:XTPPaintManager.obj
 0001:000e2a70       ?DoDataExchange@CScreenSpyDlg@@MAEXPAVCDataExchange@@@Z 004e3a70 f   ToolkitPro1501vc60S:XTPPaintManager.obj
 0001:000e2a70       ?UpdateRTLCaption@CXTPPaintManager@@UAEXAAVCString@@@Z 004e3a70 f   ToolkitPro1501vc60S:XTPPaintManager.obj
 0001:000e2a70       ?Focus@CXTPMarkupKeyboardNavigation@@QAEXPAVCXTPMarkupInputElement@@@Z 004e3a70 f   ToolkitPro1501vc60S:XTPPaintManager.obj
 0001:000e2a70       ?SetEnabled@CXTPRibbonControlTab@@MAEXH@Z 004e3a70 f   ToolkitPro1501vc60S:XTPPaintManager.obj
 0001:000e2a70       ?ReleaseDC@CXTPMarkupDeviceContext@@UAEXPAUHDC__@@@Z 004e3a70 f   ToolkitPro1501vc60S:XTPPaintManager.obj
 0001:000e2a70       ?PrepareMeasure@CXTPMarkupInline@@UAEXPAVCXTPMarkupDrawingContext@@@Z 004e3a70 f   ToolkitPro1501vc60S:XTPPaintManager.obj
 0001:000e2a70       ?RemovePane@CXTPDockingPaneBase@@MAEXPAV1@@Z 004e3a70 f   ToolkitPro1501vc60S:XTPPaintManager.obj
 0001:000e2a70       ?Serialize@CGh0stDoc@@UAEXAAVCArchive@@@Z 004e3a70 f   ToolkitPro1501vc60S:XTPPaintManager.obj
 0001:000e2a70       ?OnGroupsScroll@CXTPRibbonGroupPopupToolBar@@UAEXH@Z 004e3a70 f   ToolkitPro1501vc60S:XTPPaintManager.obj
 0001:000e2a70       ?OnChildContainerChanged@CXTPDockingPaneBase@@MAEXPAV1@@Z 004e3a70 f   ToolkitPro1501vc60S:XTPPaintManager.obj
 0001:000e2a70       ?OnDraw@CLogView@@MAEXPAVCDC@@@Z 004e3a70 f   ToolkitPro1501vc60S:XTPPaintManager.obj
 0001:000e2a70       ?OnSetFocus@CXTPSizeIcon@@IAEXPAVCWnd@@@Z 004e3a70 f   ToolkitPro1501vc60S:XTPPaintManager.obj
 0001:000e2a70       ?SetCommandBarRegion@CXTPPaintManager@@UAEXPAVCXTPCommandBar@@@Z 004e3a70 f   ToolkitPro1501vc60S:XTPPaintManager.obj
 0001:000e2a70       ?Draw@CXTPRibbonControlTab@@MAEXPAVCDC@@@Z 004e3a70 f   ToolkitPro1501vc60S:XTPPaintManager.obj
 0001:000e2a70       ?OnMouseRightButtonDown@CXTPMarkupInputElement@@UAEXPAVCXTPMarkupMouseButtonEventArgs@@@Z 004e3a70 f   ToolkitPro1501vc60S:XTPPaintManager.obj
 0001:000e2a70       ?TxSetCapture@XTextHost@CXTPRichRender@@UAEXH@Z 004e3a70 f   ToolkitPro1501vc60S:XTPPaintManager.obj
 0001:000e2a70       ?OnDraw@CPcView@@MAEXPAVCDC@@@Z 004e3a70 f   ToolkitPro1501vc60S:XTPPaintManager.obj
 0001:000e2a70       ?MeasureItem@CXTPControlComboBox@@MAEXPAUtagMEASUREITEMSTRUCT@@@Z 004e3a70 f   ToolkitPro1501vc60S:XTPPaintManager.obj
 0001:000e2a70       ?TxKillTimer@XTextHost@CXTPRichRender@@UAEXI@Z 004e3a70 f   ToolkitPro1501vc60S:XTPPaintManager.obj
 0001:000e2a80       ?DrawStatusBarButtonFace@CXTPPaintManager@@UAEXPAVCDC@@VCRect@@PAVCXTPStatusBarPane@@@Z 004e3a80 f   ToolkitPro1501vc60S:XTPPaintManager.obj
 0001:000e2b10       ?DrawStatusBarPaneBorder@CXTPPaintManager@@UAEXPAVCDC@@VCRect@@PAVCXTPStatusBarPane@@H@Z 004e3b10 f   ToolkitPro1501vc60S:XTPPaintManager.obj
 0001:000e2ba0       ?DrawStatusBarPaneSeparator@CXTPPaintManager@@UAEXPAVCDC@@VCRect@@PAVCXTPStatusBarPane@@@Z 004e3ba0 f   ToolkitPro1501vc60S:XTPPaintManager.obj
 0001:000e2be0       ?DrawStatusBarPaneEntry@CXTPPaintManager@@UAEXPAVCDC@@VCRect@@PAVCXTPStatusBarPane@@@Z 004e3be0 f   ToolkitPro1501vc60S:XTPPaintManager.obj
 0001:000e2fd0       ?DrawStatusBarSwitchPane@CXTPPaintManager@@UAEHPAVCDC@@VCRect@@PAVCXTPStatusBarSwitchPane@@@Z 004e3fd0 f   ToolkitPro1501vc60S:XTPPaintManager.obj
 0001:000e3190       ?DrawCommandBarGripper@CXTPPaintManager@@UAE?AVCSize@@PAVCDC@@PAVCXTPCommandBar@@H@Z 004e4190 f   ToolkitPro1501vc60S:XTPPaintManager.obj
 0001:000e3360       ?IsFlatToolBar@CXTPPaintManager@@MAEHPAVCXTPCommandBar@@@Z 004e4360 f   ToolkitPro1501vc60S:XTPPaintManager.obj
 0001:000e3380       ?Arrange@CXTPMarkupInline@@UAEXVCRect@@PAU__POSITION@@1@Z 004e4380 f   ToolkitPro1501vc60S:XTPPaintManager.obj
 0001:000e3380       ?DrawPopupBarGripper@CXTPPaintManager@@UAEXPAVCDC@@HHHHH@Z 004e4380 f   ToolkitPro1501vc60S:XTPPaintManager.obj
 0001:000e3380       ?OnDrawItem@CXTPControlSelector@@MAEXPAVCDC@@VCRect@@K@Z 004e4380 f   ToolkitPro1501vc60S:XTPPaintManager.obj
 0001:000e3390       ?FillWorkspace@CXTPPaintManager@@UAEXPAVCDC@@VCRect@@1@Z 004e4390 f   ToolkitPro1501vc60S:XTPPaintManager.obj
 0001:000e33b0       ?FillCompositeAlpha@CXTPPaintManager@@SAXPAVCDC@@VCRect@@@Z 004e43b0 f   ToolkitPro1501vc60S:XTPPaintManager.obj
 0001:000e34e0       ?DrawKeyboardTip@CXTPPaintManager@@UAEXPAVCDC@@PAVCXTPCommandBarKeyboardTip@@H@Z 004e44e0 f   ToolkitPro1501vc60S:XTPPaintManager.obj
 0001:000e35d0       ?GetAutoIconSize@CXTPPaintManager@@QBE?AVCSize@@H@Z 004e45d0 f   ToolkitPro1501vc60S:XTPPaintManager.obj
 0001:000e3670       ?DrawControlMDIButton@CXTPPaintManager@@UAEXPAVCDC@@PAVCXTPControlButton@@@Z 004e4670 f   ToolkitPro1501vc60S:XTPPaintManager.obj
 0001:000e3790       ??0CXTPDockingPane@@IAE@PAVCXTPDockingPaneLayout@@@Z 004e4790 f   ToolkitPro1501vc60S:XTPDockingPane.obj
 0001:000e3880       ?SetDockingSite@CXTPDockingPaneBase@@MAEXPAVCWnd@@@Z 004e4880 f i ToolkitPro1501vc60S:XTPDockingPane.obj
 0001:000e3890       ?IsCaptionButtonVisible@CXTPDockingPaneBase@@MAEHPAVCXTPDockingPaneCaptionButton@@@Z 004e4890 f i ToolkitPro1501vc60S:XTPDockingPane.obj
 0001:000e38a0       ??_ECXTPDockingPane@@MAEPAXI@Z 004e48a0 f i ToolkitPro1501vc60S:XTPDockingPane.obj
 0001:000e38a0       ??_GCXTPDockingPane@@MAEPAXI@Z 004e48a0 f i ToolkitPro1501vc60S:XTPDockingPane.obj
 0001:000e38c0       ??1CXTPDockingPane@@MAE@XZ 004e48c0 f   ToolkitPro1501vc60S:XTPDockingPane.obj
 0001:000e3970       ?SetID@CXTPDockingPane@@IAEXH@Z 004e4970 f   ToolkitPro1501vc60S:XTPDockingPane.obj
 0001:000e39e0       ?SetWindowRect@CXTPDockingPane@@IAEXVCRect@@@Z 004e49e0 f   ToolkitPro1501vc60S:XTPDockingPane.obj
 0001:000e3a20       ?GetEnabled@CXTPDockingPane@@QBE?AW4XTPDockingPaneEnableOptions@@XZ 004e4a20 f   ToolkitPro1501vc60S:XTPDockingPane.obj
 0001:000e3a40       ?OnSizeParent@CXTPDockingPane@@MAEXPAVCWnd@@VCRect@@PAX@Z 004e4a40 f   ToolkitPro1501vc60S:XTPDockingPane.obj
 0001:000e3b10       ?SetFocus@CXTPDockingPane@@UAEXXZ 004e4b10 f   ToolkitPro1501vc60S:XTPDockingPane.obj
 0001:000e3b40       ?IsFocus@CXTPDockingPane@@QBEHXZ 004e4b40 f   ToolkitPro1501vc60S:XTPDockingPane.obj
 0001:000e3b70       ?SetParentContainer@CXTPDockingPane@@MAEXPAVCXTPDockingPaneBase@@@Z 004e4b70 f   ToolkitPro1501vc60S:XTPDockingPane.obj
 0001:000e3bd0       ?ShowWindow@CXTPDockingPane@@IAEXH@Z 004e4bd0 f   ToolkitPro1501vc60S:XTPDockingPane.obj
 0001:000e3c10       ?Close@CXTPDockingPane@@QAEXXZ 004e4c10 f   ToolkitPro1501vc60S:XTPDockingPane.obj
 0001:000e3c30       ?Hide@CXTPDockingPane@@QAEXXZ 004e4c30 f   ToolkitPro1501vc60S:XTPDockingPane.obj
 0001:000e3c60       ?Select@CXTPDockingPane@@QAEXXZ 004e4c60 f   ToolkitPro1501vc60S:XTPDockingPane.obj
 0001:000e3c80       ?GetDockingSite@CXTPDockingPane@@UBEPAVCWnd@@XZ 004e4c80 f   ToolkitPro1501vc60S:XTPDockingPane.obj
 0001:000e3c90       ?Copy@CXTPDockingPane@@EAEXPAVCXTPDockingPaneBase@@PAV?$CMap@PAVCXTPDockingPaneBase@@PAV1@PAV1@PAV1@@@K@Z 004e4c90 f   ToolkitPro1501vc60S:XTPDockingPane.obj
 0001:000e3cc0       ?Copy@CXTPDockingPane@@MAEXPAV1@@Z 004e4cc0 f   ToolkitPro1501vc60S:XTPDockingPane.obj
 0001:000e3d70       ?IsValid@CXTPDockingPane@@QBEHXZ 004e4d70 f   ToolkitPro1501vc60S:XTPDockingPane.obj
 0001:000e3d80       ?Attach@CXTPDockingPane@@QAEXPAVCWnd@@@Z 004e4d80 f   ToolkitPro1501vc60S:XTPDockingPane.obj
 0001:000e3e00       ?GetTitle@CXTPDockingPane@@UBE?AVCString@@XZ 004e4e00 f   ToolkitPro1501vc60S:XTPDockingPane.obj
 0001:000e3e20       ?GetTitleToolTip@CXTPDockingPane@@UBE?AVCString@@XZ 004e4e20 f   ToolkitPro1501vc60S:XTPDockingPane.obj
 0001:000e3e20       ?GetCaption@CXTPPropertyPage@@QBE?AVCString@@XZ 004e4e20 f   ToolkitPro1501vc60S:XTPDockingPane.obj
 0001:000e3e50       ?GetTabCaption@CXTPDockingPane@@UBE?AVCString@@XZ 004e4e50 f   ToolkitPro1501vc60S:XTPDockingPane.obj
 0001:000e3ea0       ?SetTitle@CXTPDockingPane@@QAEXPBD@Z 004e4ea0 f   ToolkitPro1501vc60S:XTPDockingPane.obj
 0001:000e3f60       ?IsClosed@CXTPDockingPane@@QBEHXZ 004e4f60 f   ToolkitPro1501vc60S:XTPDockingPane.obj
 0001:000e3f60       ?IsVisible@CXTPStatusBarPane@@QBEHXZ 004e4f60 f   ToolkitPro1501vc60S:XTPDockingPane.obj
 0001:000e3f70       ?IsHidden@CXTPDockingPane@@UBEHXZ 004e4f70 f   ToolkitPro1501vc60S:XTPDockingPane.obj
 0001:000e3f80       ?IsSelected@CXTPDockingPane@@QBEHXZ 004e4f80 f   ToolkitPro1501vc60S:XTPDockingPane.obj
 0001:000e3fa0       ?IsFloating@CXTPDockingPane@@QBEHXZ 004e4fa0 f   ToolkitPro1501vc60S:XTPDockingPane.obj
 0001:000e3ff0       ?GetIcon@CXTPDockingPane@@UBEPAVCXTPImageManagerIcon@@H@Z 004e4ff0 f   ToolkitPro1501vc60S:XTPDockingPane.obj
 0001:000e4020       ?GetItemColor@CXTPDockingPane@@UBEKXZ 004e5020 f   ToolkitPro1501vc60S:XTPDockingPane.obj
 0001:000e4060       ?GetMinMaxInfo@CXTPDockingPane@@UBEXPAUtagMINMAXINFO@@@Z 004e5060 f   ToolkitPro1501vc60S:XTPDockingPane.obj
 0001:000e40a0       ?GetOptions@CXTPDockingPane@@QBEKXZ 004e50a0 f   ToolkitPro1501vc60S:XTPDockingPane.obj
 0001:000e40c0       ?GetAccessible@CXTPDockingPane@@MAEPAVCCmdTarget@@XZ 004e50c0 f   ToolkitPro1501vc60S:XTPDockingPane.obj
 0001:000e40d0       ?GetAccessibleParent@CXTPDockingPane@@MAEJPAPAUIDispatch@@@Z 004e50d0 f   ToolkitPro1501vc60S:XTPDockingPane.obj
 0001:000e4100       ?GetAccessibleChildCount@CXTPDockingPane@@MAEJPAJ@Z 004e5100 f   ToolkitPro1501vc60S:XTPDockingPane.obj
 0001:000e4130       ?GetAccessibleChild@CXTPDockingPane@@MAEJUtagVARIANT@@PAPAUIDispatch@@@Z 004e5130 f   ToolkitPro1501vc60S:XTPDockingPane.obj
 0001:000e4170       ?GetAccessibleName@CXTPDockingPane@@MAEJUtagVARIANT@@PAPAG@Z 004e5170 f   ToolkitPro1501vc60S:XTPDockingPane.obj
 0001:000e4200       ?GetAccessibleDescription@CXTPDockingPane@@MAEJUtagVARIANT@@PAPAG@Z 004e5200 f   ToolkitPro1501vc60S:XTPDockingPane.obj
 0001:000e4290       ?GetAccessibleRole@CXTPDockingPane@@MAEJUtagVARIANT@@PAU2@@Z 004e5290 f   ToolkitPro1501vc60S:XTPDockingPane.obj
 0001:000e42d0       ?AccessibleSelect@CXTPDockingPane@@MAEJJUtagVARIANT@@@Z 004e52d0 f   ToolkitPro1501vc60S:XTPDockingPane.obj
 0001:000e4300       ?GetAccessibleState@CXTPDockingPane@@MAEJUtagVARIANT@@PAU2@@Z 004e5300 f   ToolkitPro1501vc60S:XTPDockingPane.obj
 0001:000e4360       ?GetAccessibleDefaultAction@CXTPDockingPane@@MAEJUtagVARIANT@@PAPAG@Z 004e5360 f   ToolkitPro1501vc60S:XTPDockingPane.obj
 0001:000e4390       ?AccessibleDoDefaultAction@CXTPDockingPane@@MAEJUtagVARIANT@@@Z 004e5390 f   ToolkitPro1501vc60S:XTPDockingPane.obj
 0001:000e43c0       ?AccessibleLocation@CXTPDockingPane@@MAEJPAJ000UtagVARIANT@@@Z 004e53c0 f   ToolkitPro1501vc60S:XTPDockingPane.obj
 0001:000e44e0       ?AccessibleHitTest@CXTPDockingPane@@MAEJJJPAUtagVARIANT@@@Z 004e54e0 f   ToolkitPro1501vc60S:XTPDockingPane.obj
 0001:000e4500       ?GetInterfaceMap@CXTPDockingPane@@MBEPBUAFX_INTERFACEMAP@@XZ 004e5500 f   ToolkitPro1501vc60S:XTPDockingPane.obj
 0001:000e4510       ??_ECXTPDockingPane@@OBM@AEPAXI@Z 004e5510 f i ToolkitPro1501vc60S:XTPDockingPane.obj
 0001:000e4520       ??_ECXTPDockingPane@@OFE@AEPAXI@Z 004e5520 f i ToolkitPro1501vc60S:XTPDockingPane.obj
 0001:000e4530       ??0CXTPEmptyRect@@QAE@XZ   004e5530 f   ToolkitPro1501vc60S:XTPDrawHelpers.obj
 0001:000e4540       ??0CXTPWindowRect@@QAE@PAUHWND__@@@Z 004e5540 f   ToolkitPro1501vc60S:XTPDrawHelpers.obj
 0001:000e4570       ??0CXTPWindowRect@@QAE@PBVCWnd@@@Z 004e5570 f   ToolkitPro1501vc60S:XTPDrawHelpers.obj
 0001:000e45d0       ??0CXTPClientRect@@QAE@PBVCWnd@@@Z 004e55d0 f   ToolkitPro1501vc60S:XTPDrawHelpers.obj
 0001:000e4630       ??0CXTPBufferDC@@QAE@PAUHDC__@@ABVCRect@@@Z 004e5630 f   ToolkitPro1501vc60S:XTPDrawHelpers.obj
 0001:000e4700       ??_ECXTPBufferDC@@UAEPAXI@Z 004e5700 f i ToolkitPro1501vc60S:XTPDrawHelpers.obj
 0001:000e4700       ??_GCXTPBufferDC@@UAEPAXI@Z 004e5700 f i ToolkitPro1501vc60S:XTPDrawHelpers.obj
 0001:000e4720       ??0CXTPBufferDC@@QAE@AAVCPaintDC@@@Z 004e5720 f   ToolkitPro1501vc60S:XTPDrawHelpers.obj
 0001:000e4850       ??1CXTPBufferDC@@UAE@XZ    004e5850 f   ToolkitPro1501vc60S:XTPDrawHelpers.obj
 0001:000e4900       ??0CXTPFontDC@@QAE@PAVCDC@@PAVCFont@@@Z 004e5900 f   ToolkitPro1501vc60S:XTPDrawHelpers.obj
 0001:000e4940       ??_GCXTPFontDC@@UAEPAXI@Z  004e5940 f i ToolkitPro1501vc60S:XTPDrawHelpers.obj
 0001:000e4940       ??_ECXTPFontDC@@UAEPAXI@Z  004e5940 f i ToolkitPro1501vc60S:XTPDrawHelpers.obj
 0001:000e4960       ??1CXTPFontDC@@UAE@XZ      004e5960 f   ToolkitPro1501vc60S:XTPDrawHelpers.obj
 0001:000e4980       ?SetFont@CXTPFontDC@@QAEXPAVCFont@@@Z 004e5980 f   ToolkitPro1501vc60S:XTPDrawHelpers.obj
 0001:000e49b0       ?ReleaseFont@CXTPFontDC@@QAEXXZ 004e59b0 f   ToolkitPro1501vc60S:XTPDrawHelpers.obj
 0001:000e49d0       ?ReleaseColor@CXTPFontDC@@QAEXXZ 004e59d0 f   ToolkitPro1501vc60S:XTPDrawHelpers.obj
 0001:000e4a00       ??0CXTPPenDC@@QAE@PAVCDC@@PAVCPen@@@Z 004e5a00 f   ToolkitPro1501vc60S:XTPDrawHelpers.obj
 0001:000e4a60       ??_GCXTPPenDC@@UAEPAXI@Z   004e5a60 f i ToolkitPro1501vc60S:XTPDrawHelpers.obj
 0001:000e4a60       ??_ECXTPPenDC@@UAEPAXI@Z   004e5a60 f i ToolkitPro1501vc60S:XTPDrawHelpers.obj
 0001:000e4a80       ??0CXTPPenDC@@QAE@PAUHDC__@@K@Z 004e5a80 f   ToolkitPro1501vc60S:XTPDrawHelpers.obj
 0001:000e4b10       ??1CXTPPenDC@@UAE@XZ       004e5b10 f   ToolkitPro1501vc60S:XTPDrawHelpers.obj
 0001:000e4b70       ?Color@CXTPPenDC@@QAEXK@Z  004e5b70 f   ToolkitPro1501vc60S:XTPDrawHelpers.obj
 0001:000e4bd0       ??0CXTPBrushDC@@QAE@PAUHDC__@@K@Z 004e5bd0 f   ToolkitPro1501vc60S:XTPDrawHelpers.obj
 0001:000e4c50       ??_ECXTPBrushDC@@UAEPAXI@Z 004e5c50 f i ToolkitPro1501vc60S:XTPDrawHelpers.obj
 0001:000e4c50       ??_GCXTPBrushDC@@UAEPAXI@Z 004e5c50 f i ToolkitPro1501vc60S:XTPDrawHelpers.obj
 0001:000e4c70       ??1CXTPBrushDC@@UAE@XZ     004e5c70 f   ToolkitPro1501vc60S:XTPDrawHelpers.obj
 0001:000e4cd0       ??0CXTPCompatibleDC@@QAE@PAVCDC@@PAVCBitmap@@@Z 004e5cd0 f   ToolkitPro1501vc60S:XTPDrawHelpers.obj
 0001:000e4d60       ??_GCXTPCompatibleDC@@UAEPAXI@Z 004e5d60 f i ToolkitPro1501vc60S:XTPDrawHelpers.obj
 0001:000e4d60       ??_ECXTPCompatibleDC@@UAEPAXI@Z 004e5d60 f i ToolkitPro1501vc60S:XTPDrawHelpers.obj
 0001:000e4d80       ??0CXTPCompatibleDC@@QAE@PAVCDC@@PAUHBITMAP__@@@Z 004e5d80 f   ToolkitPro1501vc60S:XTPDrawHelpers.obj
 0001:000e4e00       ??1CXTPCompatibleDC@@UAE@XZ 004e5e00 f   ToolkitPro1501vc60S:XTPDrawHelpers.obj
 0001:000e4e70       ??0CXTPSplitterTracker@@QAE@HH@Z 004e5e70 f   ToolkitPro1501vc60S:XTPDrawHelpers.obj
 0001:000e4ed0       ?OnInvertTracker@CXTPSplitterTracker@@AAEXVCRect@@@Z 004e5ed0 f   ToolkitPro1501vc60S:XTPDrawHelpers.obj
 0001:000e4f80       ?Track@CXTPSplitterTracker@@QAEHPAVCWnd@@VCRect@@AAV3@VCPoint@@H@Z 004e5f80 f   ToolkitPro1501vc60S:XTPDrawHelpers.obj
 0001:000e5400       ??0CXTPDrawHelpers@@QAE@XZ 004e6400 f   ToolkitPro1501vc60S:XTPDrawHelpers.obj
 0001:000e5460       ??_ECXTPDrawHelpers@@UAEPAXI@Z 004e6460 f i ToolkitPro1501vc60S:XTPDrawHelpers.obj
 0001:000e5460       ??_GCXTPDrawHelpers@@UAEPAXI@Z 004e6460 f i ToolkitPro1501vc60S:XTPDrawHelpers.obj
 0001:000e5480       ?XTPDrawHelpers@@YAPAVCXTPDrawHelpers@@XZ 004e6480 f   ToolkitPro1501vc60S:XTPDrawHelpers.obj
 0001:000e54d0       ??1CXTPDrawHelpers@@UAE@XZ 004e64d0 f   ToolkitPro1501vc60S:XTPDrawHelpers.obj
 0001:000e54e0       ?GradientFill@CXTPDrawHelpers@@QAEHPAUHDC__@@PAU_TRIVERTEX@@KPAXKK@Z 004e64e0 f   ToolkitPro1501vc60S:XTPDrawHelpers.obj
 0001:000e5510       ?GradientFillSlow@CXTPDrawHelpers@@AAEXPAVCDC@@PBUtagRECT@@KKH@Z 004e6510 f   ToolkitPro1501vc60S:XTPDrawHelpers.obj
 0001:000e5680       ?GradientFillFast@CXTPDrawHelpers@@AAEXPAVCDC@@PBUtagRECT@@KKH@Z 004e6680 f   ToolkitPro1501vc60S:XTPDrawHelpers.obj
 0001:000e5750       ?GradientFill@CXTPDrawHelpers@@QAEXPAVCDC@@PBUtagRECT@@KKH@Z 004e6750 f   ToolkitPro1501vc60S:XTPDrawHelpers.obj
 0001:000e5820       ?GradientFill@CXTPDrawHelpers@@QAEXPAVCDC@@PBUtagRECT@@KKH1@Z 004e6820 f   ToolkitPro1501vc60S:XTPDrawHelpers.obj
 0001:000e5a30       ?GradientFill@CXTPDrawHelpers@@QAEXPAVCDC@@PBUtagRECT@@ABVCXTPPaintManagerColorGradient@@H1@Z 004e6a30 f   ToolkitPro1501vc60S:XTPDrawHelpers.obj
 0001:000e5bf0       ?ExcludeCorners@CXTPOffice2003Theme@@QAEXPAVCDC@@VCRect@@@Z 004e6bf0 f   ToolkitPro1501vc60S:XTPDrawHelpers.obj
 0001:000e5bf0       ?ExcludeCorners@CXTPDrawHelpers@@QAEXPAVCDC@@VCRect@@@Z 004e6bf0 f   ToolkitPro1501vc60S:XTPDrawHelpers.obj
 0001:000e5c60       ?StripMnemonics@CXTPDrawHelpers@@SAXAAVCString@@@Z 004e6c60 f   ToolkitPro1501vc60S:XTPDrawHelpers.obj
 0001:000e5c90       ?StripMnemonics@CXTPDrawHelpers@@SAXPAD@Z 004e6c90 f   ToolkitPro1501vc60S:XTPDrawHelpers.obj
 0001:000e5cc0       ?BlendColors@CXTPDrawHelpers@@SAKKKN@Z 004e6cc0 f   ToolkitPro1501vc60S:XTPDrawHelpers.obj
 0001:000e5db0       ?DarkenColor@CXTPDrawHelpers@@SAKJK@Z 004e6db0 f   ToolkitPro1501vc60S:XTPDrawHelpers.obj
 0001:000e5e20       ?Dlu2Pix@CXTPDrawHelpers@@SA?AVCPoint@@HH@Z 004e6e20 f   ToolkitPro1501vc60S:XTPDrawHelpers.obj
 0001:000e5e60       ?RGBtoHSL@CXTPDrawHelpers@@SAKK@Z 004e6e60 f   ToolkitPro1501vc60S:XTPDrawHelpers.obj
 0001:000e6000       ?HueToRGB@CXTPDrawHelpers@@CAHHHH@Z 004e7000 f   ToolkitPro1501vc60S:XTPDrawHelpers.obj
 0001:000e60d0       ?HSLtoRGB@CXTPDrawHelpers@@SAKK@Z 004e70d0 f   ToolkitPro1501vc60S:XTPDrawHelpers.obj
 0001:000e6200       ?FontExists@CXTPDrawHelpers@@SAHPBD@Z 004e7200 f   ToolkitPro1501vc60S:XTPDrawHelpers.obj
 0001:000e62e0       ?GetVerticalFontName@CXTPDrawHelpers@@SA?AVCString@@H@Z 004e72e0 f   ToolkitPro1501vc60S:XTPDrawHelpers.obj
 0001:000e63f0       ?IsContextRTL@CXTPDrawHelpers@@SAHPAVCDC@@@Z 004e73f0 f   ToolkitPro1501vc60S:XTPDrawHelpers.obj
 0001:000e6420       ?IsContextRTL@CXTPDrawHelpers@@SAHPAUHDC__@@@Z 004e7420 f   ToolkitPro1501vc60S:XTPDrawHelpers.obj
 0001:000e6470       ?SetContextRTL@CXTPDrawHelpers@@SAXPAVCDC@@H@Z 004e7470 f   ToolkitPro1501vc60S:XTPDrawHelpers.obj
 0001:000e6490       ?SetContextRTL@CXTPDrawHelpers@@SAXPAUHDC__@@H@Z 004e7490 f   ToolkitPro1501vc60S:XTPDrawHelpers.obj
 0001:000e64e0       ?KeyToLayout@CXTPDrawHelpers@@SAXPAVCWnd@@AAI@Z 004e74e0 f   ToolkitPro1501vc60S:XTPDrawHelpers.obj
 0001:000e6530       ?Triangle@CXTPDrawHelpers@@SAXPAVCDC@@VCPoint@@11K@Z 004e7530 f   ToolkitPro1501vc60S:XTPDrawHelpers.obj
 0001:000e6600       ?IsLowResolution@CXTPDrawHelpers@@SAHPAUHDC__@@@Z 004e7600 f   ToolkitPro1501vc60S:XTPDrawHelpers.obj
 0001:000e6620       ?IsTopParentActive@CXTPDrawHelpers@@SAHPAUHWND__@@@Z 004e7620 f   ToolkitPro1501vc60S:XTPDrawHelpers.obj
 0001:000e6660       ?ScreenToWindow@CXTPDrawHelpers@@SAXPAVCWnd@@PAUtagPOINT@@@Z 004e7660 f   ToolkitPro1501vc60S:XTPDrawHelpers.obj
 0001:000e66d0       ?RegisterWndClass@CXTPDrawHelpers@@SAHPAUHINSTANCE__@@PBDIPAUHICON__@@PAUHBRUSH__@@@Z 004e76d0 f   ToolkitPro1501vc60S:XTPDrawHelpers.obj
 0001:000e6750       ?GetWindowCaption@CXTPDrawHelpers@@SAXPAUHWND__@@AAVCString@@@Z 004e7750 f   ToolkitPro1501vc60S:XTPDrawHelpers.obj
 0001:000e6790       ?GetIconLogFont@CXTPDrawHelpers@@SAHPAUtagLOGFONTA@@@Z 004e7790 f   ToolkitPro1501vc60S:XTPDrawHelpers.obj
 0001:000e6800       ?GetRuntimeClass@CXTPCustomizeSheet@@UBEPAUCRuntimeClass@@XZ 004e7800 f   ToolkitPro1501vc60S:XTPCustomizeSheet.obj
 0001:000e6810       ??0CXTPCustomizeSheet@@QAE@PAVCXTPCommandBars@@I@Z 004e7810 f   ToolkitPro1501vc60S:XTPCustomizeSheet.obj
 0001:000e6a30       ??_GCXTPCustomizeSheet@@UAEPAXI@Z 004e7a30 f i ToolkitPro1501vc60S:XTPCustomizeSheet.obj
 0001:000e6a30       ??_ECXTPCustomizeSheet@@UAEPAXI@Z 004e7a30 f i ToolkitPro1501vc60S:XTPCustomizeSheet.obj
 0001:000e6a50       ??1CXTPCustomizeSheet@@UAE@XZ 004e7a50 f   ToolkitPro1501vc60S:XTPCustomizeSheet.obj
 0001:000e6ae0       ?CreateContextMenu@CXTPCustomizeSheet@@AAEXXZ 004e7ae0 f   ToolkitPro1501vc60S:XTPCustomizeSheet.obj
 0001:000e6e40       ?GetCustomizeMinWidth@CXTPControlEdit@@MBEHXZ 004e7e40 f i ToolkitPro1501vc60S:XTPCustomizeSheet.obj
 0001:000e6e50       ?OnThemeChanged@CXTPControlEdit@@MAEXXZ 004e7e50 f i ToolkitPro1501vc60S:XTPCustomizeSheet.obj
 0001:000e6e60       ?OnExecute@CCustomizeButton@CXTPCustomizeSheet@@EAEXXZ 004e7e60 f i ToolkitPro1501vc60S:XTPCustomizeSheet.obj
 0001:000e6ec0       ?OnSetSelected@CCustomizeEdit@CXTPCustomizeSheet@@EAEHH@Z 004e7ec0 f i ToolkitPro1501vc60S:XTPCustomizeSheet.obj
 0001:000e6f40       ?OnExecute@CCustomizeEdit@CXTPCustomizeSheet@@EAEXXZ 004e7f40 f i ToolkitPro1501vc60S:XTPCustomizeSheet.obj
 0001:000e6fa0       ??_GCCustomizeEdit@CXTPCustomizeSheet@@UAEPAXI@Z 004e7fa0 f i ToolkitPro1501vc60S:XTPCustomizeSheet.obj
 0001:000e6fa0       ??_ECCustomizeEdit@CXTPCustomizeSheet@@UAEPAXI@Z 004e7fa0 f i ToolkitPro1501vc60S:XTPCustomizeSheet.obj
 0001:000e6fc0       ??1CCustomizeEdit@CXTPCustomizeSheet@@UAE@XZ 004e7fc0 f i ToolkitPro1501vc60S:XTPCustomizeSheet.obj
 0001:000e6fd0       ?AddPage@CXTPCustomizeSheet@@QAEXPAVCXTPPropertyPage@@@Z 004e7fd0 f   ToolkitPro1501vc60S:XTPCustomizeSheet.obj
 0001:000e7000       ?GetMessageMap@CXTPCustomizeSheet@@MBEPBUAFX_MSGMAP@@XZ 004e8000 f   ToolkitPro1501vc60S:XTPCustomizeSheet.obj
 0001:000e7010       ?CreateClient@CXTPCustomizeSheet@@EAEHXZ 004e8010 f   ToolkitPro1501vc60S:XTPCustomizeSheet.obj
 0001:000e7020       ?OnInitDialog@CXTPCustomizeSheet@@MAEHXZ 004e8020 f   ToolkitPro1501vc60S:XTPCustomizeSheet.obj
 0001:000e70e0       ?ContextMenu@CXTPCustomizeSheet@@QAEXVCPoint@@@Z 004e80e0 f   ToolkitPro1501vc60S:XTPCustomizeSheet.obj
 0001:000e7130       ?DoModal@CXTPCustomizeSheet@@UAEHXZ 004e8130 f   ToolkitPro1501vc60S:XTPCustomizeSheet.obj
 0001:000e7440       ??0CXTPCustomizeHook@@QAE@PAVCXTPCustomizeSheet@@P81@AEHIJ@Z@Z 004e8440 f i ToolkitPro1501vc60S:XTPCustomizeSheet.obj
 0001:000e7460       ?Unhook@CXTPCustomizeHook@@QAEXXZ 004e8460 f i ToolkitPro1501vc60S:XTPCustomizeSheet.obj
 0001:000e7460       ??1CXTPCustomizeHook@@QAE@XZ 004e8460 f i ToolkitPro1501vc60S:XTPCustomizeSheet.obj
 0001:000e7480       ??1CXTPCustomizeHooks@@QAE@XZ 004e8480 f i ToolkitPro1501vc60S:XTPCustomizeSheet.obj
 0001:000e74f0       ?MouseProc@CXTPCustomizeHooks@@SGJHIJ@Z 004e84f0 f i ToolkitPro1501vc60S:XTPCustomizeSheet.obj
 0001:000e7540       ?KeyProc@CXTPCustomizeHooks@@SGJHIJ@Z 004e8540 f i ToolkitPro1501vc60S:XTPCustomizeSheet.obj
 0001:000e7590       ?MessageProc@CXTPCustomizeHooks@@SGJHIJ@Z 004e8590 f i ToolkitPro1501vc60S:XTPCustomizeSheet.obj
 0001:000e75e0       ?FilterMouse@CXTPCustomizeSheet@@AAEHIJ@Z 004e85e0 f   ToolkitPro1501vc60S:XTPCustomizeSheet.obj
 0001:000e7800       ?FilterKey@CXTPCustomizeSheet@@AAEHIJ@Z 004e8800 f   ToolkitPro1501vc60S:XTPCustomizeSheet.obj
 0001:000e78a0       ?FilterMessage@CXTPCustomizeSheet@@AAEHIJ@Z 004e88a0 f   ToolkitPro1501vc60S:XTPCustomizeSheet.obj
 0001:000e78f0       ?GetDragControl@CXTPCustomizeSheet@@QBEPAVCXTPControl@@XZ 004e88f0 f   ToolkitPro1501vc60S:XTPCustomizeSheet.obj
 0001:000e7910       ?OnCustomizeDefaultStyle@CXTPCustomizeSheet@@IAEXXZ 004e8910 f   ToolkitPro1501vc60S:XTPCustomizeSheet.obj
 0001:000e7940       ?OnCustomizeImageAndText@CXTPCustomizeSheet@@IAEXXZ 004e8940 f   ToolkitPro1501vc60S:XTPCustomizeSheet.obj
 0001:000e7970       ?OnCustomizeTextOnly@CXTPCustomizeSheet@@IAEXXZ 004e8970 f   ToolkitPro1501vc60S:XTPCustomizeSheet.obj
 0001:000e79a0       ?OnCustomizeBeginGroup@CXTPCustomizeSheet@@IAEXXZ 004e89a0 f   ToolkitPro1501vc60S:XTPCustomizeSheet.obj
 0001:000e79d0       ?OnCustomizeDelete@CXTPCustomizeSheet@@IAEXXZ 004e89d0 f   ToolkitPro1501vc60S:XTPCustomizeSheet.obj
 0001:000e7a10       ?OnCustomizeEditImage@CXTPCustomizeSheet@@IAEXXZ 004e8a10 f   ToolkitPro1501vc60S:XTPCustomizeSheet.obj
 0001:000e7da0       ??1CDlgToolBar@CXTPImageEditorDlg@@UAE@XZ 004e8da0 f i ToolkitPro1501vc60S:XTPCustomizeSheet.obj
 0001:000e7db0       ??1CXTPImageEditorDlg@@UAE@XZ 004e8db0 f i ToolkitPro1501vc60S:XTPCustomizeSheet.obj
 0001:000e7eb0       ??1CXTPImageEditorPicker@@UAE@XZ 004e8eb0 f i ToolkitPro1501vc60S:XTPCustomizeSheet.obj
 0001:000e7eb0       ??1CXTPImageEditorPreview@@UAE@XZ 004e8eb0 f i ToolkitPro1501vc60S:XTPCustomizeSheet.obj
 0001:000e7ec0       ?OnCustomizeCopyImage@CXTPCustomizeSheet@@IAEXXZ 004e8ec0 f   ToolkitPro1501vc60S:XTPCustomizeSheet.obj
 0001:000e8220       ?OnCustomizePasteImage@CXTPCustomizeSheet@@IAEXXZ 004e9220 f   ToolkitPro1501vc60S:XTPCustomizeSheet.obj
 0001:000e8440       ?OnCustomizeResetImage@CXTPCustomizeSheet@@IAEXXZ 004e9440 f   ToolkitPro1501vc60S:XTPCustomizeSheet.obj
 0001:000e8470       ?OnCustomizeReset@CXTPCustomizeSheet@@IAEXXZ 004e9470 f   ToolkitPro1501vc60S:XTPCustomizeSheet.obj
 0001:000e8490       ?OnInitCommandsPopup@CXTPCustomizeSheet@@IAEXPAVCXTPPopupBar@@@Z 004e9490 f   ToolkitPro1501vc60S:XTPCustomizeSheet.obj
 0001:000e85b0       ?OnCmdMsg@CXTPCustomizeSheet@@MAEHIHPAXPAUAFX_CMDHANDLERINFO@@@Z 004e95b0 f   ToolkitPro1501vc60S:XTPCustomizeSheet.obj
 0001:000e8630       ?OnCustomizeName@CXTPCustomizeSheet@@IAEJIJ@Z 004e9630 f   ToolkitPro1501vc60S:XTPCustomizeSheet.obj
 0001:000e8820       ?IsAllowChangeStyle@CXTPCustomizeSheet@@ABEHPAVCXTPControl@@@Z 004e9820 f   ToolkitPro1501vc60S:XTPCustomizeSheet.obj
 0001:000e88b0       ?OnUpdateCustomizeDefaultStyle@CXTPCustomizeSheet@@IAEXPAVCCmdUI@@@Z 004e98b0 f   ToolkitPro1501vc60S:XTPCustomizeSheet.obj
 0001:000e8920       ?OnUpdateCustomizeImageAndText@CXTPCustomizeSheet@@IAEXPAVCCmdUI@@@Z 004e9920 f   ToolkitPro1501vc60S:XTPCustomizeSheet.obj
 0001:000e8970       ?OnUpdateCustomizeTextOnly@CXTPCustomizeSheet@@IAEXPAVCCmdUI@@@Z 004e9970 f   ToolkitPro1501vc60S:XTPCustomizeSheet.obj
 0001:000e89c0       ?OnUpdateCustomizePasteImage@CXTPCustomizeSheet@@IAEXPAVCCmdUI@@@Z 004e99c0 f   ToolkitPro1501vc60S:XTPCustomizeSheet.obj
 0001:000e8a20       ?OnUpdateCustomizeCopyImage@CXTPCustomizeSheet@@IAEXPAVCCmdUI@@@Z 004e9a20 f   ToolkitPro1501vc60S:XTPCustomizeSheet.obj
 0001:000e8a20       ?OnUpdateCustomizeEditImage@CXTPCustomizeSheet@@IAEXPAVCCmdUI@@@Z 004e9a20 f   ToolkitPro1501vc60S:XTPCustomizeSheet.obj
 0001:000e8ab0       ?OnUpdateCustomizeResetImage@CXTPCustomizeSheet@@IAEXPAVCCmdUI@@@Z 004e9ab0 f   ToolkitPro1501vc60S:XTPCustomizeSheet.obj
 0001:000e8ae0       ?OnUpdateCustomizeReset@CXTPCustomizeSheet@@IAEXPAVCCmdUI@@@Z 004e9ae0 f   ToolkitPro1501vc60S:XTPCustomizeSheet.obj
 0001:000e8b30       ?OnUpdateCustomizeBeginGroup@CXTPCustomizeSheet@@IAEXPAVCCmdUI@@@Z 004e9b30 f   ToolkitPro1501vc60S:XTPCustomizeSheet.obj
 0001:000e8b70       ?OnUpdateCustomizeName@CXTPCustomizeSheet@@IAEXPAVCCmdUI@@@Z 004e9b70 f   ToolkitPro1501vc60S:XTPCustomizeSheet.obj
 0001:000e8c60       ?OnGrabFocus@CXTPCustomizeSheet@@IAEXXZ 004e9c60 f   ToolkitPro1501vc60S:XTPCustomizeSheet.obj
 0001:000e8c70       ?PreTranslateMessage@CXTPCustomizeSheet@@MAEHPAUtagMSG@@@Z 004e9c70 f   ToolkitPro1501vc60S:XTPCustomizeSheet.obj
 0001:000e8c80       ?MessageBoxA@CXTPCustomizeSheet@@QAEHPBDI@Z 004e9c80 f   ToolkitPro1501vc60S:XTPCustomizeSheet.obj
 0001:000e8d70       ??1COleDataObject@@QAE@XZ  004e9d70 f i ToolkitPro1501vc60S:XTPCustomizeSheet.obj
 0001:000e8d80       ??_ECCustomizeEdit@CXTPCustomizeSheet@@WBM@AEPAXI@Z 004e9d80 f i ToolkitPro1501vc60S:XTPCustomizeSheet.obj
 0001:000e8d90       ??0CXTPGroupLine@@QAE@XZ   004e9d90 f   ToolkitPro1501vc60S:XTPCustomizeOptionsPage.obj
 0001:000e8e00       ??_ECXTPGroupLine@@UAEPAXI@Z 004e9e00 f i ToolkitPro1501vc60S:XTPCustomizeOptionsPage.obj
 0001:000e8e00       ??_GCXTPGroupLine@@UAEPAXI@Z 004e9e00 f i ToolkitPro1501vc60S:XTPCustomizeOptionsPage.obj
 0001:000e8e20       ??1CXTPGroupLine@@UAE@XZ   004e9e20 f i ToolkitPro1501vc60S:XTPCustomizeOptionsPage.obj
 0001:000e8e70       ?GetMessageMap@CXTPGroupLine@@MBEPBUAFX_MSGMAP@@XZ 004e9e70 f   ToolkitPro1501vc60S:XTPCustomizeOptionsPage.obj
 0001:000e8e80       ?OnPaint@CXTPGroupLine@@IAEXXZ 004e9e80 f   ToolkitPro1501vc60S:XTPCustomizeOptionsPage.obj
 0001:000e9140       ??0CXTPCustomizeOptionsPage@@QAE@PAVCXTPCustomizeSheet@@@Z 004ea140 f   ToolkitPro1501vc60S:XTPCustomizeOptionsPage.obj
 0001:000e9220       ??_GCXTPCustomizeOptionsPage@@UAEPAXI@Z 004ea220 f i ToolkitPro1501vc60S:XTPCustomizeOptionsPage.obj
 0001:000e9220       ??_ECXTPCustomizeOptionsPage@@UAEPAXI@Z 004ea220 f i ToolkitPro1501vc60S:XTPCustomizeOptionsPage.obj
 0001:000e9240       ??1CXTPCustomizeOptionsPage@@UAE@XZ 004ea240 f   ToolkitPro1501vc60S:XTPCustomizeOptionsPage.obj
 0001:000e92f0       ?GetCommandBars@CXTPCustomizeOptionsPage@@QBEPAVCXTPCommandBars@@XZ 004ea2f0 f   ToolkitPro1501vc60S:XTPCustomizeOptionsPage.obj
 0001:000e9310       ?DoDataExchange@CXTPCustomizeOptionsPage@@MAEXPAVCDataExchange@@@Z 004ea310 f   ToolkitPro1501vc60S:XTPCustomizeOptionsPage.obj
 0001:000e9390       ?GetMessageMap@CXTPCustomizeOptionsPage@@MBEPBUAFX_MSGMAP@@XZ 004ea390 f   ToolkitPro1501vc60S:XTPCustomizeOptionsPage.obj
 0001:000e93a0       ?AddComboString@CXTPCustomizeOptionsPage@@IAEXI@Z 004ea3a0 f   ToolkitPro1501vc60S:XTPCustomizeOptionsPage.obj
 0001:000e9420       ?OnInitDialog@CXTPCustomizeOptionsPage@@MAEHXZ 004ea420 f   ToolkitPro1501vc60S:XTPCustomizeOptionsPage.obj
 0001:000e95a0       ?OnCheckFullMenus@CXTPCustomizeOptionsPage@@IAEXXZ 004ea5a0 f   ToolkitPro1501vc60S:XTPCustomizeOptionsPage.obj
 0001:000e95e0       ?OnAnimationChanged@CXTPCustomizeOptionsPage@@IAEXXZ 004ea5e0 f   ToolkitPro1501vc60S:XTPCustomizeOptionsPage.obj
 0001:000e9610       ?OnCheckAfterdelay@CXTPCustomizeOptionsPage@@IAEXXZ 004ea610 f   ToolkitPro1501vc60S:XTPCustomizeOptionsPage.obj
 0001:000e9630       ?OnCheckLargeicons@CXTPCustomizeOptionsPage@@IAEXXZ 004ea630 f   ToolkitPro1501vc60S:XTPCustomizeOptionsPage.obj
 0001:000e9660       ?OnCheckScreenttips@CXTPCustomizeOptionsPage@@IAEXXZ 004ea660 f   ToolkitPro1501vc60S:XTPCustomizeOptionsPage.obj
 0001:000e96a0       ?OnCheckShortcuts@CXTPCustomizeOptionsPage@@IAEXXZ 004ea6a0 f   ToolkitPro1501vc60S:XTPCustomizeOptionsPage.obj
 0001:000e96c0       ?OnResetData@CXTPCustomizeOptionsPage@@IAEXXZ 004ea6c0 f   ToolkitPro1501vc60S:XTPCustomizeOptionsPage.obj
 0001:000e9760       ??_ECXTPCustomizeOptionsPage@@WIM@AEPAXI@Z 004ea760 f i ToolkitPro1501vc60S:XTPCustomizeOptionsPage.obj
 0001:000e9770       ??0XTP_COMMANDBARS_CATEGORYINFO@@QAE@PBDPAVCXTPCommandBars@@@Z 004ea770 f   ToolkitPro1501vc60S:XTPCustomizeCommandsPage.obj
 0001:000e9800       ??1XTP_COMMANDBARS_CATEGORYINFO@@QAE@XZ 004ea800 f   ToolkitPro1501vc60S:XTPCustomizeCommandsPage.obj
 0001:000e9850       ?DrawItem@CXTPCustomizeCommandsListBox@@MAEXPAUtagDRAWITEMSTRUCT@@@Z 004ea850 f   ToolkitPro1501vc60S:XTPCustomizeCommandsPage.obj
 0001:000e98d0       ?GetMessageMap@CXTPCustomizeCommandsListBox@@MBEPBUAFX_MSGMAP@@XZ 004ea8d0 f   ToolkitPro1501vc60S:XTPCustomizeCommandsPage.obj
 0001:000e98e0       ?WindowProc@CXTPCustomizeCommandsListBox@@MAEJIIJ@Z 004ea8e0 f   ToolkitPro1501vc60S:XTPCustomizeCommandsPage.obj
 0001:000e9aa0       ?OnSetFocus@CXTPCustomizeCommandsListBox@@IAEXPAVCWnd@@@Z 004eaaa0 f   ToolkitPro1501vc60S:XTPCustomizeCommandsPage.obj
 0001:000e9af0       ?OnLButtonDown@CXTPCustomizeCommandsListBox@@IAEXIVCPoint@@@Z 004eaaf0 f   ToolkitPro1501vc60S:XTPCustomizeCommandsPage.obj
 0001:000e9c40       ?CreateObject@CXTPCustomizeCommandsPage@@SGPAVCObject@@XZ 004eac40 f   ToolkitPro1501vc60S:XTPCustomizeCommandsPage.obj
 0001:000e9ca0       ?GetRuntimeClass@CXTPCustomizeCommandsPage@@UBEPAUCRuntimeClass@@XZ 004eaca0 f   ToolkitPro1501vc60S:XTPCustomizeCommandsPage.obj
 0001:000e9cb0       ??0CXTPCustomizeCommandsPage@@QAE@PAVCXTPCustomizeSheet@@@Z 004eacb0 f   ToolkitPro1501vc60S:XTPCustomizeCommandsPage.obj
 0001:000e9d70       ??_GCCheckListBox@@UAEPAXI@Z 004ead70 f i ToolkitPro1501vc60S:XTPCustomizeCommandsPage.obj
 0001:000e9d70       ??_ECXTPCustomizeCommandsListBox@@UAEPAXI@Z 004ead70 f i ToolkitPro1501vc60S:XTPCustomizeCommandsPage.obj
 0001:000e9d70       ??_ECCheckListBox@@UAEPAXI@Z 004ead70 f i ToolkitPro1501vc60S:XTPCustomizeCommandsPage.obj
 0001:000e9d70       ??_GCXTPCustomizeCommandsListBox@@UAEPAXI@Z 004ead70 f i ToolkitPro1501vc60S:XTPCustomizeCommandsPage.obj
 0001:000e9d90       ??1CXTPCustomizeCommandsListBox@@UAE@XZ 004ead90 f i ToolkitPro1501vc60S:XTPCustomizeCommandsPage.obj
 0001:000e9d90       ??1CCheckListBox@@UAE@XZ   004ead90 f i ToolkitPro1501vc60S:XTPCustomizeCommandsPage.obj
 0001:000e9da0       ??_ECXTPCustomizeCommandsPage@@UAEPAXI@Z 004eada0 f i ToolkitPro1501vc60S:XTPCustomizeCommandsPage.obj
 0001:000e9da0       ??_GCXTPCustomizeCommandsPage@@UAEPAXI@Z 004eada0 f i ToolkitPro1501vc60S:XTPCustomizeCommandsPage.obj
 0001:000e9dc0       ??1CXTPCustomizeCommandsPage@@UAE@XZ 004eadc0 f   ToolkitPro1501vc60S:XTPCustomizeCommandsPage.obj
 0001:000e9ea0       ?DoDataExchange@CXTPCustomizeCommandsPage@@MAEXPAVCDataExchange@@@Z 004eaea0 f   ToolkitPro1501vc60S:XTPCustomizeCommandsPage.obj
 0001:000e9ee0       ?FindCategory@CXTPCustomizeCommandsPage@@QBEPAUXTP_COMMANDBARS_CATEGORYINFO@@PBD@Z 004eaee0 f   ToolkitPro1501vc60S:XTPCustomizeCommandsPage.obj
 0001:000e9f30       ?GetCategoryInfo@CXTPCustomizeCommandsPage@@QBEPAUXTP_COMMANDBARS_CATEGORYINFO@@H@Z 004eaf30 f   ToolkitPro1501vc60S:XTPCustomizeCommandsPage.obj
 0001:000e9f60       ?AddCategory@CXTPCustomizeCommandsPage@@QAEHPBDPAVCMenu@@H@Z 004eaf60 f   ToolkitPro1501vc60S:XTPCustomizeCommandsPage.obj
 0001:000ea020       ?AddCategories@CXTPCustomizeCommandsPage@@QAEHIH@Z 004eb020 f   ToolkitPro1501vc60S:XTPCustomizeCommandsPage.obj
 0001:000ea1a0       ?InsertBuiltInMenus@CXTPCustomizeCommandsPage@@QAEHIIH@Z 004eb1a0 f   ToolkitPro1501vc60S:XTPCustomizeCommandsPage.obj
 0001:000ea370       ?InsertNewMenuCategory@CXTPCustomizeCommandsPage@@QAEXIH@Z 004eb370 f   ToolkitPro1501vc60S:XTPCustomizeCommandsPage.obj
 0001:000ea4c0       ?InsertCategory@CXTPCustomizeCommandsPage@@QAEPAVCXTPControls@@PBDH@Z 004eb4c0 f   ToolkitPro1501vc60S:XTPCustomizeCommandsPage.obj
 0001:000ea710       ?InsertAllCommandsCategory@CXTPCustomizeCommandsPage@@QAEXIHH@Z 004eb710 f   ToolkitPro1501vc60S:XTPCustomizeCommandsPage.obj
 0001:000ea9d0       ?GetMessageMap@CXTPCustomizeCommandsPage@@MBEPBUAFX_MSGMAP@@XZ 004eb9d0 f   ToolkitPro1501vc60S:XTPCustomizeCommandsPage.obj
 0001:000ea9e0       ?OnInitDialog@CXTPCustomizeCommandsPage@@MAEHXZ 004eb9e0 f   ToolkitPro1501vc60S:XTPCustomizeCommandsPage.obj
 0001:000eabb0       ?OnDestroy@CXTPCustomizeCommandsPage@@IAEXXZ 004ebbb0 f   ToolkitPro1501vc60S:XTPCustomizeCommandsPage.obj
 0001:000eabe0       ?OnCategoriesSelectionChanged@CXTPCustomizeCommandsPage@@IAEXXZ 004ebbe0 f   ToolkitPro1501vc60S:XTPCustomizeCommandsPage.obj
 0001:000eaca0       ??1?$CArray@PAUXTP_COMMANDBARS_CATEGORYINFO@@PAU1@@@UAE@XZ 004ebca0 f i ToolkitPro1501vc60S:XTPCustomizeCommandsPage.obj
 0001:000eacf0       ??_G?$CArray@PAUXTP_COMMANDBARS_CATEGORYINFO@@PAU1@@@UAEPAXI@Z 004ebcf0 f i ToolkitPro1501vc60S:XTPCustomizeCommandsPage.obj
 0001:000eacf0       ??_E?$CArray@PAUXTP_COMMANDBARS_CATEGORYINFO@@PAU1@@@UAEPAXI@Z 004ebcf0 f i ToolkitPro1501vc60S:XTPCustomizeCommandsPage.obj
 0001:000ead10       ??_ECXTPCustomizeCommandsPage@@WIM@AEPAXI@Z 004ebd10 f i ToolkitPro1501vc60S:XTPCustomizeCommandsPage.obj
 0001:000ead20       ??0CXTPShortcutManagerAccel@@QAE@XZ 004ebd20 f   ToolkitPro1501vc60S:XTPShortcutManager.obj
 0001:000ead50       ??0CXTPShortcutManagerAccel@@QAE@PAUtagACCEL@@@Z 004ebd50 f   ToolkitPro1501vc60S:XTPShortcutManager.obj
 0001:000ead90       ??0CXTPShortcutManagerAccel@@QAE@ABUXTP_SHORTCUTMANAGER_ACCEL@@@Z 004ebd90 f   ToolkitPro1501vc60S:XTPShortcutManager.obj
 0001:000eadc0       ??0CXTPShortcutManagerAccelTable@@QAE@PAVCXTPShortcutManager@@@Z 004ebdc0 f   ToolkitPro1501vc60S:XTPShortcutManager.obj
 0001:000eade0       ??1CXTPShortcutManagerAccelTable@@QAE@XZ 004ebde0 f   ToolkitPro1501vc60S:XTPShortcutManager.obj
 0001:000eae40       ?RemoveAll@CXTPShortcutManagerAccelTable@@QAEXXZ 004ebe40 f   ToolkitPro1501vc60S:XTPShortcutManager.obj
 0001:000eae90       ?Add@CXTPShortcutManagerAccelTable@@QAEXABUXTP_SHORTCUTMANAGER_ACCEL@@@Z 004ebe90 f   ToolkitPro1501vc60S:XTPShortcutManager.obj
 0001:000eb050       ?CopyAccelTable@CXTPShortcutManagerAccelTable@@QAEXPAUtagACCEL@@H@Z 004ec050 f   ToolkitPro1501vc60S:XTPShortcutManager.obj
 0001:000eb0d0       ?CopyAccels@CXTPShortcutManagerAccelTable@@QBEPAUXTP_SHORTCUTMANAGER_ACCEL@@XZ 004ec0d0 f   ToolkitPro1501vc60S:XTPShortcutManager.obj
 0001:000eb140       ?GetAt@CXTPShortcutManagerAccelTable@@QBEPAVCXTPShortcutManagerAccel@@H@Z 004ec140 f   ToolkitPro1501vc60S:XTPShortcutManager.obj
 0001:000eb160       ?CopyAccelTable@CXTPShortcutManagerAccelTable@@QAEXPAV1@@Z 004ec160 f   ToolkitPro1501vc60S:XTPShortcutManager.obj
 0001:000eb1b0       ??0CKeyNameText@CXTPShortcutManager@@QAE@XZ 004ec1b0 f   ToolkitPro1501vc60S:XTPShortcutManager.obj
 0001:000eb230       ?Parse@CKeyNameText@CXTPShortcutManager@@QAEGPBD@Z 004ec230 f   ToolkitPro1501vc60S:XTPShortcutManager.obj
 0001:000eb330       ?Translate@CKeyNameText@CXTPShortcutManager@@QAE?AVCString@@I@Z 004ec330 f   ToolkitPro1501vc60S:XTPShortcutManager.obj
 0001:000eb400       ?SetAt@CKeyNameText@CXTPShortcutManager@@QAEXIPBD@Z 004ec400 f   ToolkitPro1501vc60S:XTPShortcutManager.obj
 0001:000eb430       ??0CXTPShortcutManager@@QAE@PAVCXTPCommandBars@@@Z 004ec430 f   ToolkitPro1501vc60S:XTPShortcutManager.obj
 0001:000eb4e0       ?GetDefaultAccelerator@CXTPShortcutManager@@UBEPAVCXTPShortcutManagerAccelTable@@XZ 004ec4e0 f i ToolkitPro1501vc60S:XTPShortcutManager.obj
 0001:000eb4f0       ??_GCXTPShortcutManager@@UAEPAXI@Z 004ec4f0 f i ToolkitPro1501vc60S:XTPShortcutManager.obj
 0001:000eb4f0       ??_ECXTPShortcutManager@@UAEPAXI@Z 004ec4f0 f i ToolkitPro1501vc60S:XTPShortcutManager.obj
 0001:000eb510       ??1CXTPShortcutManager@@UAE@XZ 004ec510 f   ToolkitPro1501vc60S:XTPShortcutManager.obj
 0001:000eb620       ?Reset@CXTPShortcutManager@@UAEXXZ 004ec620 f   ToolkitPro1501vc60S:XTPShortcutManager.obj
 0001:000eb640       ?Format@CXTPShortcutManager@@UAE?AVCString@@PAVCXTPShortcutManagerAccel@@PAH@Z 004ec640 f   ToolkitPro1501vc60S:XTPShortcutManager.obj
 0001:000eb6f0       ?OnPreviewEditKey@CXTPShortcutManager@@UAEHPAVCXTPShortcutManagerAccel@@@Z 004ec6f0 f   ToolkitPro1501vc60S:XTPShortcutManager.obj
 0001:000eb720       ?DisableShortcuts@CXTPShortcutManager@@QAEXH@Z 004ec720 f   ToolkitPro1501vc60S:XTPShortcutManager.obj
 0001:000eb740       ?IsAccelMessage@CXTPShortcutManager@@ABEHAAUSHORTCUTACCEL@XTP_SHORTCUTMANAGER_ACCEL@@HPAUtagMSG@@@Z 004ec740 f   ToolkitPro1501vc60S:XTPShortcutManager.obj
 0001:000eb7c0       ?GetAccelKeyState@CXTPShortcutManager@@ABEHXZ 004ec7c0 f   ToolkitPro1501vc60S:XTPShortcutManager.obj
 0001:000eb830       ?TranslateAcceleratorA@CXTPShortcutManager@@QAEHPAUtagMSG@@@Z 004ec830 f   ToolkitPro1501vc60S:XTPShortcutManager.obj
 0001:000ebbf0       ?FindDefaultFrameAccelerator@CXTPShortcutManager@@QAEHHAAVCString@@@Z 004ecbf0 f   ToolkitPro1501vc60S:XTPShortcutManager.obj
 0001:000ebdb0       ?FindDefaultAccelerator@CXTPShortcutManager@@UAEHHAAVCString@@@Z 004ecdb0 f   ToolkitPro1501vc60S:XTPShortcutManager.obj
 0001:000ebf50       ??0CKeyHelper@CXTPShortcutManager@@QAE@PBVCXTPShortcutManagerAccel@@PAV1@@Z 004ecf50 f   ToolkitPro1501vc60S:XTPShortcutManager.obj
 0001:000ebf70       ??_GCKeyHelper@CXTPShortcutManager@@UAEPAXI@Z 004ecf70 f i ToolkitPro1501vc60S:XTPShortcutManager.obj
 0001:000ebf70       ??_ECKeyHelper@CXTPShortcutManager@@UAEPAXI@Z 004ecf70 f i ToolkitPro1501vc60S:XTPShortcutManager.obj
 0001:000ebf90       ??1CKeyHelper@CXTPShortcutManager@@UAE@XZ 004ecf90 f   ToolkitPro1501vc60S:XTPShortcutManager.obj
 0001:000ebfa0       ?Priority@CKeyHelper@CXTPShortcutManager@@QAEHXZ 004ecfa0 f   ToolkitPro1501vc60S:XTPShortcutManager.obj
 0001:000ebfd0       ?Format@CKeyHelper@CXTPShortcutManager@@QBEXAAVCString@@@Z 004ecfd0 f   ToolkitPro1501vc60S:XTPShortcutManager.obj
 0001:000ec0c0       ?Format@CKeyHelper@CXTPShortcutManager@@QBE?AVCString@@PBUSHORTCUTACCEL@XTP_SHORTCUTMANAGER_ACCEL@@@Z 004ed0c0 f   ToolkitPro1501vc60S:XTPShortcutManager.obj
 0001:000ec240       ?AddVirtKeyStr@CKeyHelper@CXTPShortcutManager@@IBEXAAVCString@@IH@Z 004ed240 f   ToolkitPro1501vc60S:XTPShortcutManager.obj
 0001:000ec350       ?GetLocalKeyNameText@CKeyHelper@CXTPShortcutManager@@SA?AVCString@@I@Z 004ed350 f   ToolkitPro1501vc60S:XTPShortcutManager.obj
 0001:000ec490       ?FindAccelPos@CXTPShortcutManager@@SAHPBD@Z 004ed490 f   ToolkitPro1501vc60S:XTPShortcutManager.obj
 0001:000ec4d0       ?CompareAccelKey@CXTPShortcutManager@@SAHDI@Z 004ed4d0 f   ToolkitPro1501vc60S:XTPShortcutManager.obj
 0001:000ec740       ?GetKeyNameTextA@CXTPShortcutManager@@UAE?AVCString@@I@Z 004ed740 f   ToolkitPro1501vc60S:XTPShortcutManager.obj
 0001:000ec860       ?ToUpper@CXTPShortcutManager@@SADD@Z 004ed860 f   ToolkitPro1501vc60S:XTPShortcutManager.obj
 0001:000ec880       ?UpdateAcellTable@CXTPShortcutManager@@QAEXPAUtagACCEL@@H@Z 004ed880 f   ToolkitPro1501vc60S:XTPShortcutManager.obj
 0001:000ec8a0       ?UpdateAcellTable@CXTPShortcutManager@@QAEXPAUXTP_SHORTCUTMANAGER_ACCEL@@H@Z 004ed8a0 f   ToolkitPro1501vc60S:XTPShortcutManager.obj
 0001:000ec8d0       ?SaveShortcuts@CXTPShortcutManager@@QAEXPBD@Z 004ed8d0 f   ToolkitPro1501vc60S:XTPShortcutManager.obj
 0001:000ec940       ?LoadShortcuts@CXTPShortcutManager@@QAEXPBD@Z 004ed940 f   ToolkitPro1501vc60S:XTPShortcutManager.obj
 0001:000eca30       ?ParseShortcutVirtKey@CXTPShortcutManager@@ABEHAAVCString@@H@Z 004eda30 f   ToolkitPro1501vc60S:XTPShortcutManager.obj
 0001:000ecb60       ?ParseShortcut@CXTPShortcutManager@@ABEHVCString@@AAEAAG@Z 004edb60 f   ToolkitPro1501vc60S:XTPShortcutManager.obj
 0001:000ecc70       ?ParseShortcut@CXTPShortcutManager@@QAEHVCString@@PAVCXTPShortcutManagerAccel@@@Z 004edc70 f   ToolkitPro1501vc60S:XTPShortcutManager.obj
 0001:000ecdc0       ?DoPropExchange@CXTPShortcutManager@@UAEXPAVCXTPPropExchange@@@Z 004eddc0 f   ToolkitPro1501vc60S:XTPShortcutManager.obj
 0001:000ed270       ??1?$CArray@PAVCXTPShortcutManagerAccel@@PAV1@@@UAE@XZ 004ee270 f i ToolkitPro1501vc60S:XTPShortcutManager.obj
 0001:000ed2c0       ?SetAt@?$CMap@GGVCString@@V1@@@QAEXGVCString@@@Z 004ee2c0 f i ToolkitPro1501vc60S:XTPShortcutManager.obj
 0001:000ed400       ??1?$CMap@GGVCString@@V1@@@UAE@XZ 004ee400 f i ToolkitPro1501vc60S:XTPShortcutManager.obj
 0001:000ed4a0       ?Serialize@?$CMap@GGVCString@@V1@@@UAEXAAVCArchive@@@Z 004ee4a0 f i ToolkitPro1501vc60S:XTPShortcutManager.obj
 0001:000ed5d0       ??1?$CArray@PAUHKL__@@AAPAU1@@@UAE@XZ 004ee5d0 f i ToolkitPro1501vc60S:XTPShortcutManager.obj
 0001:000ed620       ??1?$CArray@UtagACCEL@@AAU1@@@UAE@XZ 004ee620 f i ToolkitPro1501vc60S:XTPShortcutManager.obj
 0001:000ed670       ?Serialize@?$CArray@UtagACCEL@@AAU1@@@UAEXAAVCArchive@@@Z 004ee670 f i ToolkitPro1501vc60S:XTPShortcutManager.obj
 0001:000ed820       ??_G?$CArray@PAVCXTPShortcutManagerAccel@@PAV1@@@UAEPAXI@Z 004ee820 f i ToolkitPro1501vc60S:XTPShortcutManager.obj
 0001:000ed820       ??_E?$CArray@PAVCXTPShortcutManagerAccel@@PAV1@@@UAEPAXI@Z 004ee820 f i ToolkitPro1501vc60S:XTPShortcutManager.obj
 0001:000ed840       ??_E?$CMap@GGVCString@@V1@@@UAEPAXI@Z 004ee840 f i ToolkitPro1501vc60S:XTPShortcutManager.obj
 0001:000ed840       ??_G?$CMap@GGVCString@@V1@@@UAEPAXI@Z 004ee840 f i ToolkitPro1501vc60S:XTPShortcutManager.obj
 0001:000ed860       ??_E?$CArray@PAUHKL__@@AAPAU1@@@UAEPAXI@Z 004ee860 f i ToolkitPro1501vc60S:XTPShortcutManager.obj
 0001:000ed860       ??_G?$CArray@PAUHKL__@@AAPAU1@@@UAEPAXI@Z 004ee860 f i ToolkitPro1501vc60S:XTPShortcutManager.obj
 0001:000ed880       ??_G?$CArray@UtagACCEL@@AAU1@@@UAEPAXI@Z 004ee880 f i ToolkitPro1501vc60S:XTPShortcutManager.obj
 0001:000ed880       ??_E?$CArray@UtagACCEL@@AAU1@@@UAEPAXI@Z 004ee880 f i ToolkitPro1501vc60S:XTPShortcutManager.obj
 0001:000ed8a0       ?SetSize@?$CArray@UtagACCEL@@AAU1@@@QAEXHH@Z 004ee8a0 f i ToolkitPro1501vc60S:XTPShortcutManager.obj
 0001:000eda00       ??0CToolBarInfo@CXTPToolBar@@QAE@XZ 004eea00 f   ToolkitPro1501vc60S:XTPDockState.obj
 0001:000eda60       ?SaveState@CToolBarInfo@CXTPToolBar@@QAEHPBDH@Z 004eea60 f   ToolkitPro1501vc60S:XTPDockState.obj
 0001:000edc50       ?LoadState@CToolBarInfo@CXTPToolBar@@QAEHPBDHPAVCXTPDockState@@@Z 004eec50 f   ToolkitPro1501vc60S:XTPDockState.obj
 0001:000ede90       ?ScalePoint@CXTPDockState@@QAEXAAVCPoint@@@Z 004eee90 f   ToolkitPro1501vc60S:XTPDockState.obj
 0001:000edf20       ?ScaleRectPos@CXTPDockState@@QAEXAAVCRect@@@Z 004eef20 f   ToolkitPro1501vc60S:XTPDockState.obj
 0001:000edfd0       ??0CXTPDockState@@QAE@XZ   004eefd0 f   ToolkitPro1501vc60S:XTPDockState.obj
 0001:000ee010       ??1CXTPDockState@@QAE@XZ   004ef010 f   ToolkitPro1501vc60S:XTPDockState.obj
 0001:000ee070       ?Clear@CXTPDockState@@AAEXXZ 004ef070 f   ToolkitPro1501vc60S:XTPDockState.obj
 0001:000ee0c0       ?SaveState@CXTPDockState@@QAEXPBD@Z 004ef0c0 f   ToolkitPro1501vc60S:XTPDockState.obj
 0001:000ee170       ?LoadState@CXTPDockState@@QAEXPBD@Z 004ef170 f   ToolkitPro1501vc60S:XTPDockState.obj
 0001:000ee390       ?GetScreenSize@CXTPDockState@@AAE?AVCSize@@XZ 004ef390 f   ToolkitPro1501vc60S:XTPDockState.obj
 0001:000ee3b0       ?SetScreenSize@CXTPDockState@@AAEXAAVCSize@@@Z 004ef3b0 f   ToolkitPro1501vc60S:XTPDockState.obj
 0001:000ee400       ?GetBarInfo@CXTPToolBar@@QAEXPAVCToolBarInfo@1@@Z 004ef400 f   ToolkitPro1501vc60S:XTPDockState.obj
 0001:000ee510       ?SetBarInfo@CXTPToolBar@@QAEXPAVCToolBarInfo@1@@Z 004ef510 f   ToolkitPro1501vc60S:XTPDockState.obj
 0001:000ee600       ?GetIsolatedFileName@CXTPCommandBars@@IAE?AVCString@@ABV2@@Z 004ef600 f   ToolkitPro1501vc60S:XTPDockState.obj
 0001:000ee810       ?GetControlsFileName@CXTPCommandBars@@IAEHAAVCString@@PBD@Z 004ef810 f   ToolkitPro1501vc60S:XTPDockState.obj
 0001:000ee930       ?SaveBarState@CXTPCommandBars@@QAEXPBDH@Z 004ef930 f   ToolkitPro1501vc60S:XTPDockState.obj
 0001:000eecc0       ?_LoadControlsPart@CXTPCommandBars@@IAEXAAVCFile@@PAUXTP_COMMANDBARS_PROPEXCHANGE_PARAM@@@Z 004efcc0 f   ToolkitPro1501vc60S:XTPDockState.obj
 0001:000eedf0       ?LoadBarState@CXTPCommandBars@@QAEXPBDH@Z 004efdf0 f   ToolkitPro1501vc60S:XTPDockState.obj
 0001:000ef0e0       ?GetStatusBar@CXTPCommandBars@@QBEPAVCXTPStatusBar@@XZ 004f00e0 f   ToolkitPro1501vc60S:XTPDockState.obj
 0001:000ef100       ?SaveDockBarsState@CXTPCommandBars@@IAEXPBD@Z 004f0100 f   ToolkitPro1501vc60S:XTPDockState.obj
 0001:000ef260       ?LoadDockBarsState@CXTPCommandBars@@IAEXPBD@Z 004f0260 f   ToolkitPro1501vc60S:XTPDockState.obj
 0001:000ef5b0       ?GetDockState@CXTPCommandBars@@IAEXAAVCXTPDockState@@@Z 004f05b0 f   ToolkitPro1501vc60S:XTPDockState.obj
 0001:000ef780       ?SetDockState@CXTPCommandBars@@IAEXAAVCXTPDockState@@@Z 004f0780 f   ToolkitPro1501vc60S:XTPDockState.obj
 0001:000ef7f0       ?GenerateCommandBarList@CXTPCommandBars@@MAEXPAVCXTPCommandBarList@@PAUXTP_COMMANDBARS_PROPEXCHANGE_PARAM@@@Z 004f07f0 f   ToolkitPro1501vc60S:XTPDockState.obj
 0001:000ef8c0       ?GenerateCommandBarList@CXTPCommandBar@@MAEXAAKPAVCXTPCommandBarList@@PAUXTP_COMMANDBARS_PROPEXCHANGE_PARAM@@@Z 004f08c0 f   ToolkitPro1501vc60S:XTPDockState.obj
 0001:000ef930       ?GenerateCommandBarList@CXTPMenuBar@@MAEXAAKPAVCXTPCommandBarList@@PAUXTP_COMMANDBARS_PROPEXCHANGE_PARAM@@@Z 004f0930 f   ToolkitPro1501vc60S:XTPDockState.obj
 0001:000ef9a0       ?GenerateCommandBarList@CXTPControl@@MAEXAAKPAVCXTPCommandBarList@@PAUXTP_COMMANDBARS_PROPEXCHANGE_PARAM@@@Z 004f09a0 f   ToolkitPro1501vc60S:XTPDockState.obj
 0001:000ef9d0       ?GenerateCommandBarList@CXTPControls@@IAEXAAKPAVCXTPCommandBarList@@PAUXTP_COMMANDBARS_PROPEXCHANGE_PARAM@@@Z 004f09d0 f   ToolkitPro1501vc60S:XTPDockState.obj
 0001:000efa40       ?SaveCommandBarList@CXTPCommandBars@@MAEHPAVCXTPPropExchange@@PAVCXTPCommandBarList@@@Z 004f0a40 f   ToolkitPro1501vc60S:XTPDockState.obj
 0001:000efb70       ?LoadCommandBarList@CXTPCommandBars@@MAEHPAVCXTPPropExchange@@PAVCXTPCommandBarList@@@Z 004f0b70 f   ToolkitPro1501vc60S:XTPDockState.obj
 0001:000efce0       ?MergeToolBar@CXTPToolBar@@MAEXPAVCXTPCommandBar@@H@Z 004f0ce0 f   ToolkitPro1501vc60S:XTPDockState.obj
 0001:000efe80       ?RestoreCommandBarList@CXTPCommandBars@@MAEXPAVCXTPCommandBarList@@H@Z 004f0e80 f   ToolkitPro1501vc60S:XTPDockState.obj
 0001:000f0040       ?RestoreCommandBarList@CXTPCommandBar@@MAEXPAVCXTPCommandBarList@@@Z 004f1040 f   ToolkitPro1501vc60S:XTPDockState.obj
 0001:000f0060       ?RestoreCommandBarList@CXTPMenuBar@@MAEXPAVCXTPCommandBarList@@@Z 004f1060 f   ToolkitPro1501vc60S:XTPDockState.obj
 0001:000f00c0       ?RestoreCommandBarList@CXTPControlPopup@@MAEXPAVCXTPCommandBarList@@@Z 004f10c0 f   ToolkitPro1501vc60S:XTPDockState.obj
 0001:000f0110       ?RestoreCommandBarList@CXTPControls@@IAEXPAVCXTPCommandBarList@@@Z 004f1110 f   ToolkitPro1501vc60S:XTPDockState.obj
 0001:000f0160       ?DoPropExchange@CXTPCommandBar@@UAEXPAVCXTPPropExchange@@@Z 004f1160 f   ToolkitPro1501vc60S:XTPDockState.obj
 0001:000f0330       ?DoPropExchange@CXTPToolBar@@MAEXPAVCXTPPropExchange@@@Z 004f1330 f   ToolkitPro1501vc60S:XTPDockState.obj
 0001:000f03f0       ?DoPropExchange@CXTPMenuBar@@MAEXPAVCXTPPropExchange@@@Z 004f13f0 f   ToolkitPro1501vc60S:XTPDockState.obj
 0001:000f06d0       ?DoPropExchange@CXTPPopupBar@@MAEXPAVCXTPPropExchange@@@Z 004f16d0 f   ToolkitPro1501vc60S:XTPDockState.obj
 0001:000f07e0       ?ShouldSerializeControl@CXTPControls@@UAEHPAVCXTPControl@@@Z 004f17e0 f   ToolkitPro1501vc60S:XTPDockState.obj
 0001:000f0800       ?DoPropExchange@CXTPControls@@UAEXPAVCXTPPropExchange@@@Z 004f1800 f   ToolkitPro1501vc60S:XTPDockState.obj
 0001:000f0c00       ?DoPropExchange@CXTPControl@@UAEXPAVCXTPPropExchange@@@Z 004f1c00 f   ToolkitPro1501vc60S:XTPDockState.obj
 0001:000f0fc0       ?DoPropExchange@CXTPControlButton@@UAEXPAVCXTPPropExchange@@@Z 004f1fc0 f   ToolkitPro1501vc60S:XTPDockState.obj
 0001:000f0ff0       ?DoPropExchange@CXTPControlPopup@@UAEXPAVCXTPPropExchange@@@Z 004f1ff0 f   ToolkitPro1501vc60S:XTPDockState.obj
 0001:000f1080       ?DoPropExchange@CXTPControlComboBox@@UAEXPAVCXTPPropExchange@@@Z 004f2080 f   ToolkitPro1501vc60S:XTPDockState.obj
 0001:000f11b0       ?DoPropExchange@CXTPControlEdit@@UAEXPAVCXTPPropExchange@@@Z 004f21b0 f   ToolkitPro1501vc60S:XTPDockState.obj
 0001:000f12f0       ??1?$CArray@PAVCToolBarInfo@CXTPToolBar@@PAV12@@@UAE@XZ 004f22f0 f i ToolkitPro1501vc60S:XTPDockState.obj
 0001:000f1340       ??_G?$CArray@PAVCToolBarInfo@CXTPToolBar@@PAV12@@@UAEPAXI@Z 004f2340 f i ToolkitPro1501vc60S:XTPDockState.obj
 0001:000f1340       ??_E?$CArray@PAVCToolBarInfo@CXTPToolBar@@PAV12@@@UAEPAXI@Z 004f2340 f i ToolkitPro1501vc60S:XTPDockState.obj
 0001:000f1360       ??0CXTPSystemVersion@@AAE@XZ 004f2360 f   ToolkitPro1501vc60S:XTPSystemHelpers.obj
 0001:000f1390       ?XTPSystemVersion@@YGPAVCXTPSystemVersion@@XZ 004f2390 f   ToolkitPro1501vc60S:XTPSystemHelpers.obj
 0001:000f13e0       ?IsWin95@CXTPSystemVersion@@QBE_NXZ 004f23e0 f   ToolkitPro1501vc60S:XTPSystemHelpers.obj
 0001:000f1400       ?IsWin98@CXTPSystemVersion@@QBE_NXZ 004f2400 f   ToolkitPro1501vc60S:XTPSystemHelpers.obj
 0001:000f1420       ?IsWin9x@CXTPSystemVersion@@QBE_NXZ 004f2420 f   ToolkitPro1501vc60S:XTPSystemHelpers.obj
 0001:000f1430       ?IsWinNT4@CXTPSystemVersion@@QBE_NXZ 004f2430 f   ToolkitPro1501vc60S:XTPSystemHelpers.obj
 0001:000f1450       ?IsWin2K@CXTPSystemVersion@@QBE_NXZ 004f2450 f   ToolkitPro1501vc60S:XTPSystemHelpers.obj
 0001:000f1470       ?IsWinXP@CXTPSystemVersion@@QBE_NXZ 004f2470 f   ToolkitPro1501vc60S:XTPSystemHelpers.obj
 0001:000f1490       ?IsWin2KOrGreater@CXTPSystemVersion@@QBE_NXZ 004f2490 f   ToolkitPro1501vc60S:XTPSystemHelpers.obj
 0001:000f14b0       ?IsWinXPOrGreater@CXTPSystemVersion@@QBE_NXZ 004f24b0 f   ToolkitPro1501vc60S:XTPSystemHelpers.obj
 0001:000f14d0       ?IsWinVistaOrGreater@CXTPSystemVersion@@QBE_NXZ 004f24d0 f   ToolkitPro1501vc60S:XTPSystemHelpers.obj
 0001:000f14f0       ?IsWin7OrGreater@CXTPSystemVersion@@QBE_NXZ 004f24f0 f   ToolkitPro1501vc60S:XTPSystemHelpers.obj
 0001:000f1510       ?GreaterThanEqualTo@CXTPSystemVersion@@ABE_NKK@Z 004f2510 f   ToolkitPro1501vc60S:XTPSystemHelpers.obj
 0001:000f1540       ?EqualTo@CXTPSystemVersion@@ABE_NKK@Z 004f2540 f   ToolkitPro1501vc60S:XTPSystemHelpers.obj
 0001:000f1570       ?GetComCtlVersion@CXTPSystemVersion@@QBEKXZ 004f2570 f   ToolkitPro1501vc60S:XTPSystemHelpers.obj
 0001:000f15f0       ?IsClearTypeTextQualitySupported@CXTPSystemVersion@@QBEHXZ 004f25f0 f   ToolkitPro1501vc60S:XTPSystemHelpers.obj
 0001:000f1600       ?GetMaxCharSize@CXTPSystemVersion@@QBEHXZ 004f2600 f   ToolkitPro1501vc60S:XTPSystemHelpers.obj
 0001:000f1630       ?XTPMultiMonitor@@YAPAVCXTPMultiMonitor@@XZ 004f2630 f   ToolkitPro1501vc60S:XTPSystemHelpers.obj
 0001:000f1680       ??1CXTPMultiMonitor@@QAE@XZ 004f2680 f i ToolkitPro1501vc60S:XTPSystemHelpers.obj
 0001:000f1690       ??0CXTPMultiMonitor@@AAE@XZ 004f2690 f   ToolkitPro1501vc60S:XTPSystemHelpers.obj
 0001:000f1760       ?GetMonitorInfoA@CXTPMultiMonitor@@AAEHPAUXTP_HMONITOR__@1@PAUXTP_MONITORINFO@1@@Z 004f2760 f   ToolkitPro1501vc60S:XTPSystemHelpers.obj
 0001:000f1790       ?GetWorkArea@CXTPMultiMonitor@@AAE?AVCRect@@PAUXTP_HMONITOR__@1@@Z 004f2790 f   ToolkitPro1501vc60S:XTPSystemHelpers.obj
 0001:000f17f0       ?GetScreenArea@CXTPMultiMonitor@@AAE?AVCRect@@PAUXTP_HMONITOR__@1@@Z 004f27f0 f   ToolkitPro1501vc60S:XTPSystemHelpers.obj
 0001:000f1860       ?GetScreenArea@CXTPMultiMonitor@@QAE?AVCRect@@ABUtagPOINT@@@Z 004f2860 f   ToolkitPro1501vc60S:XTPSystemHelpers.obj
 0001:000f18c0       ?GetScreenArea@CXTPMultiMonitor@@QAE?AVCRect@@PBUtagRECT@@@Z 004f28c0 f   ToolkitPro1501vc60S:XTPSystemHelpers.obj
