 Gh0st

 Timestamp is 615c09ed (Tue Oct 05 16:16:45 2021)

 Preferred load address is 00400000

 Start         Length     Name                   Class
 0001:00000000 001f544bH .text                   CODE
 0001:001f544b 000015a1H .text$AFX_AUX           CODE
 0001:001f69ec 000012f8H .text$AFX_CMNCTL        CODE
 0001:001f7ce4 00000910H .text$AFX_COL1          CODE
 0001:001f85f4 00000682H .text$AFX_COL2          CODE
 0001:001f8c76 00008406H .text$AFX_CORE1         CODE
 0001:0020107c 00004b91H .text$AFX_CORE2         CODE
 0001:00205c0d 000062e1H .text$AFX_CORE3         CODE
 0001:0020beee 000060bdH .text$AFX_CORE4         CODE
 0001:00211fab 0000111aH .text$AFX_INET          CODE
 0001:002130c5 00003edfH .text$AFX_INIT          CODE
 0001:00216fa4 0000061dH .text$AFX_OLE1          CODE
 0001:002175c1 00000222H .text$AFX_OLE2          CODE
 0001:002177e3 00000555H .text$AFX_OLE3          CODE
 0001:00217d38 00000ba6H .text$AFX_OLE4          CODE
 0001:002188de 0000183bH .text$AFX_OLE5          CODE
 0001:0021a119 00000000H .text$AFX_PRNT          CODE
 0001:0021a119 00000266H .text$AFX_TERM          CODE
 0001:0021a380 00014fa2H .text$x                 CODE
 0002:00000000 00002e50H .rodata                 CODE
 0003:00000000 0001b257H .rotext                 CODE
 0004:00000000 00041790H .rdata                  DATA
 0004:00041790 0000431cH .rdata$r                DATA
 0004:00045ab0 0001b780H .xdata$x                DATA
 0004:00061230 00000000H .edata                  DATA
 0005:00000000 00000004H .CRT$XCA                DATA
 0005:00000004 00000030H .CRT$XCC                DATA
 0005:00000034 0000001cH .CRT$XCL                DATA
 0005:00000050 000006b4H .CRT$XCU                DATA
 0005:00000704 00000004H .CRT$XCZ                DATA
 0005:00000708 00000004H .CRT$XIA                DATA
 0005:0000070c 0000000cH .CRT$XIC                DATA
 0005:00000718 00000004H .CRT$XIY                DATA
 0005:0000071c 00000004H .CRT$XIZ                DATA
 0005:00000720 00000004H .CRT$XPA                DATA
 0005:00000724 00000004H .CRT$XPX                DATA
 0005:00000728 00000004H .CRT$XPZ                DATA
 0005:0000072c 00000004H .CRT$XTA                DATA
 0005:00000730 00000004H .CRT$XTB                DATA
 0005:00000734 00000004H .CRT$XTZ                DATA
 0005:00000740 00188f01H .data                   DATA
 0005:00189648 00074440H .bss                    DATA
 0006:00000000 000001a4H .idata$2                DATA
 0006:000001a4 00000014H .idata$3                DATA
 0006:000001b8 00000ac8H .idata$4                DATA
 0006:00000c80 00000ac8H .idata$5                DATA
 0006:00001748 00002bc8H .idata$6                DATA
 0007:00000000 0000bc84H .rsrc$01                DATA
 0007:0000bc90 0027c400H .rsrc$02                DATA

  Address         Publics by Value              Rva+Base     Lib:Object

 0001:00000000       ??0CAudio@@QAE@XZ          00401000 f   Audio.obj
 0001:000000bf       ??1CAudio@@UAE@XZ          004010bf f   Audio.obj
 0001:00000187       ?getRecordBuffer@CAudio@@QAEPAEPAK@Z 00401187 f   Audio.obj
 0001:000001cb       ?playBuffer@CAudio@@QAE_NPAEK@Z 004011cb f   Audio.obj
 0001:00000233       ?InitializeWaveIn@CAudio@@AAE_NXZ 00401233 f   Audio.obj
 0001:000002f0       ?FindMixernIndex@@YAHPAD@Z 004012f0 f   Audio.obj
 0001:0000040e       ?ActiveMixerInputChannel@CAudio@@QAE_NPADH@Z 0040140e f   Audio.obj
 0001:00000621       ?EnumerateInputLines@CAudio@@QAEHPAD0@Z 00401621 f   Audio.obj
 0001:0000095f       ?SetDeviceType@CAudio@@QAEXPAUtWAVEFORMATEX@@@Z 0040195f f   Audio.obj
 0001:0000099c       ?InitializeWaveOut@CAudio@@AAE_NXZ 0040199c f   Audio.obj
 0001:00000a37       ?waveInCallBack@CAudio@@CGKPAX@Z 00401a37 f   Audio.obj
 0001:00000ac9       ?Compress@CAudio@@QAEHPAD0H@Z 00401ac9 f   Audio.obj
 0001:00000b0a       ?DeCompress@CAudio@@QAEHPAD0H@Z 00401b0a f   Audio.obj
 0001:00000b58       ??_ECAudio@@UAEPAXI@Z      00401b58 f i Audio.obj
 0001:00000b58       ??_GCAudio@@UAEPAXI@Z      00401b58 f i Audio.obj
 0001:00000bf2       ??0CAudioDlg@@QAE@PAVCWnd@@PAVCIOCPServer@@PAUClientContext@@@Z 00401bf2 f   AudioDlg.obj
 0001:00000d3c       ?DoDataExchange@CAudioDlg@@MAEXPAVCDataExchange@@@Z 00401d3c f   AudioDlg.obj
 0001:00000da0       ?GetMessageMap@CAudioDlg@@MBEPBUAFX_MSGMAP@@XZ 00401da0 f   AudioDlg.obj
 0001:00000da6       ?OnInitDialog@CAudioDlg@@MAEHXZ 00401da6 f   AudioDlg.obj
 0001:00000fec       ?ShowLinesCombox@CAudioDlg@@QAEXVCString@@H@Z 00401fec f   AudioDlg.obj
 0001:000010df       ?OnReceiveComplete@CAudioDlg@@QAEXXZ 004020df f   AudioDlg.obj
 0001:00001224       ?OnClose@CAudioDlg@@IAEXXZ 00402224 f   AudioDlg.obj
 0001:00001275       ?OnSendLocalaudio@CAudioDlg@@IAEXXZ 00402275 f   AudioDlg.obj
 0001:0000127d       ?WorkThread@CAudioDlg@@KGKPAX@Z 0040227d f   AudioDlg.obj
 0001:000013a7       ?OnCheckRec@CAudioDlg@@IAEXXZ 004023a7 f   AudioDlg.obj
 0001:0000152d       ?OnSelchangeComboDriveIn@CAudioDlg@@IAEXXZ 0040252d f   AudioDlg.obj
 0001:000015e2       ?OnSelchangeComboInputlines@CAudioDlg@@IAEXXZ 004025e2 f   AudioDlg.obj
 0001:000016a2       ?PostNcDestroy@CAudioDlg@@MAEXXZ 004026a2 f   AudioDlg.obj
 0001:000016c4       ?BeginModalState@CWnd@@UAEXXZ 004026c4 f i AudioDlg.obj
 0001:000016d0       ?EndModalState@CWnd@@UAEXXZ 004026d0 f i AudioDlg.obj
 0001:000016dc       ??_ECComboBox@@UAEPAXI@Z   004026dc f i AudioDlg.obj
 0001:000016dc       ??_GCComboBox@@UAEPAXI@Z   004026dc f i AudioDlg.obj
 0001:000016f8       ??_GCAudioDlg@@UAEPAXI@Z   004026f8 f i AudioDlg.obj
 0001:000016f8       ??_ECAudioDlg@@UAEPAXI@Z   004026f8 f i AudioDlg.obj
 0001:00001714       ??1CAudioDlg@@UAE@XZ       00402714 f i AudioDlg.obj
 0001:000017a6       ??1CFileDialog@@UAE@XZ     004027a6 f i AudioDlg.obj
 0001:000017de       ??0CBmpToAvi@@QAE@XZ       004027de f   BmpToAvi.obj
 0001:000017f8       ??1CBmpToAvi@@UAE@XZ       004027f8 f   BmpToAvi.obj
 0001:00001803       ?Open@CBmpToAvi@@QAE_NPBDPAUtagBITMAPINFO@@@Z 00402803 f   BmpToAvi.obj
 0001:0000189f       ?Write@CBmpToAvi@@QAE_NPAX@Z 0040289f f   BmpToAvi.obj
 0001:000018dc       ?Close@CBmpToAvi@@QAEXXZ   004028dc f   BmpToAvi.obj
 0001:00001903       ??_GCBmpToAvi@@UAEPAXI@Z   00402903 f i BmpToAvi.obj
 0001:00001903       ??_ECBmpToAvi@@UAEPAXI@Z   00402903 f i BmpToAvi.obj
 0001:0000199d       ??0CBuffer@@QAE@XZ         0040299d f   Buffer.obj
 0001:000019b1       ??1CBuffer@@UAE@XZ         004029b1 f   Buffer.obj
 0001:000019cd       ?Write@CBuffer@@QAEHPAEI@Z 004029cd f   Buffer.obj
 0001:00001a05       ?Insert@CBuffer@@QAEHPAEI@Z 00402a05 f   Buffer.obj
 0001:00001a56       ?Read@CBuffer@@QAEIPAEI@Z  00402a56 f   Buffer.obj
 0001:00001ad6       ?GetMemSize@CBuffer@@IAEIXZ 00402ad6 f   Buffer.obj
 0001:00001ada       ?GetBufferLen@CBuffer@@QAEIXZ 00402ada f   Buffer.obj
 0001:00001aea       ?ReAllocateBuffer@CBuffer@@IAEII@Z 00402aea f   Buffer.obj
 0001:00001ba6       ?DeAllocateBuffer@CBuffer@@IAEII@Z 00402ba6 f   Buffer.obj
 0001:00001c65       ?Scan@CBuffer@@QAEHPAEI@Z  00402c65 f   Buffer.obj
 0001:00001ca9       ?ClearBuffer@CBuffer@@QAEXXZ 00402ca9 f   Buffer.obj
 0001:00001ccf       ?Write@CBuffer@@QAEHAAVCString@@@Z 00402ccf f   Buffer.obj
 0001:00001cee       ?Insert@CBuffer@@QAEHAAVCString@@@Z 00402cee f   Buffer.obj
 0001:00001d0d       ?Copy@CBuffer@@QAEXAAV1@@Z 00402d0d f   Buffer.obj
 0001:00001d6a       ?GetBuffer@CBuffer@@QAEPAEI@Z 00402d6a f   Buffer.obj
 0001:00001d74       ?FileWrite@CBuffer@@QAEXABVCString@@@Z 00402d74 f   Buffer.obj
 0001:00001ddf       ?Delete@CBuffer@@QAEII@Z   00402ddf f   Buffer.obj
 0001:00001e3b       ??_GCBuffer@@UAEPAXI@Z     00402e3b f i Buffer.obj
 0001:00001e3b       ??_ECBuffer@@UAEPAXI@Z     00402e3b f i Buffer.obj
 0001:00001ed5       ??0CBuildDlg@@QAE@PAVCWnd@@@Z 00402ed5 f   BuildDlg.obj
 0001:00002205       ?DoDataExchange@CBuildDlg@@MAEXPAVCDataExchange@@@Z 00403205 f   BuildDlg.obj
 0001:000022f8       ?GetMessageMap@CBuildDlg@@MBEPBUAFX_MSGMAP@@XZ 004032f8 f   BuildDlg.obj
 0001:000022fe       ?LogOut@CBuildDlg@@IAEXPBD@Z 004032fe f   BuildDlg.obj
 0001:00002343       ?MemFindStr@@YAHPBD0HH@Z   00403343 f   BuildDlg.obj
 0001:00002393       ?OnInitDialog@CBuildDlg@@MAEHXZ 00403393 f   BuildDlg.obj
 0001:00002644       ?memfind@@YAHPBD0HH@Z      00403644 f   BuildDlg.obj
 0001:00002694       ?ReplaceExeIco@@YAXPBD0@Z  00403694 f   BuildDlg.obj
 0001:000027bd       ?OnCtlColor@CBuildDlg@@IAEPAUHBRUSH__@@PAVCDC@@PAVCWnd@@I@Z 004037bd f   BuildDlg.obj
 0001:0000280f       ?CreateServer@CBuildDlg@@IAEHPAUDLL_INFO@@PAD1@Z 0040380f f   BuildDlg.obj
 0001:000028e2       ?CreateLink@@YAHPAD0PBDG@Z 004038e2 f   BuildDlg.obj
 0001:00002993       ?OnOK@CBuildDlg@@MAEXXZ    00403993 f   BuildDlg.obj
 0001:00003174       ?OnCheckNoinstall@CBuildDlg@@IAEXXZ 00404174 f   BuildDlg.obj
 0001:000031fc       ?OnPaint@CBuildDlg@@IAEXXZ 004041fc f   BuildDlg.obj
 0001:00003215       ?OnButtonTestConnect@CBuildDlg@@IAEXXZ 00404215 f   BuildDlg.obj
 0001:00003284       ?TestMaster@CBuildDlg@@QAEXPADI@Z 00404284 f   BuildDlg.obj
 0001:000033f9       ?GetRandChar@@YADHH@Z      004043f9 f   BuildDlg.obj
 0001:0000342c       ?OnRandom@CBuildDlg@@IAEXXZ 0040442c f   BuildDlg.obj
 0001:00003554       ?OnPattern@CBuildDlg@@IAEXXZ 00404554 f   BuildDlg.obj
 0001:00003587       ?CheckFileExist@@YAHPBD@Z  00404587 f   BuildDlg.obj
 0001:000035a8       ?OpenFile@@YA_NPBDH@Z      004045a8 f   BuildDlg.obj
 0001:00003730       ?OnKbtest@CBuildDlg@@IAEXXZ 00404730 f   BuildDlg.obj
 0001:00003832       ?OnKbcheck@CBuildDlg@@IAEXXZ 00404832 f   BuildDlg.obj
 0001:00003888       ?AfxGetApp@@YGPAVCWinApp@@XZ 00404888 f i BuildDlg.obj
 0001:00003891       ??_ECEdit@@UAEPAXI@Z       00404891 f i BuildDlg.obj
 0001:00003891       ??_GCEdit@@UAEPAXI@Z       00404891 f i BuildDlg.obj
 0001:000038ad       ??_ECBuildDlg@@UAEPAXI@Z   004048ad f i BuildDlg.obj
 0001:000038ad       ??_GCBuildDlg@@UAEPAXI@Z   004048ad f i BuildDlg.obj
 0001:000038c9       ??1CBuildDlg@@UAE@XZ       004048c9 f i BuildDlg.obj
 0001:000039e8       ??0CChangeGroupDlg@@QAE@PAVCWnd@@@Z 004049e8 f   ChangeGroupDlg.obj
 0001:00003a34       ?DoDataExchange@CChangeGroupDlg@@MAEXPAVCDataExchange@@@Z 00404a34 f   ChangeGroupDlg.obj
 0001:00003a49       ?GetMessageMap@CChangeGroupDlg@@MBEPBUAFX_MSGMAP@@XZ 00404a49 f   ChangeGroupDlg.obj
 0001:00003a4f       ?OnInitDialog@CChangeGroupDlg@@MAEHXZ 00404a4f f   ChangeGroupDlg.obj
 0001:00003b6e       ?OnOK@CChangeGroupDlg@@MAEXXZ 00404b6e f   ChangeGroupDlg.obj
 0001:00003c8d       ??_GCChangeGroupDlg@@UAEPAXI@Z 00404c8d f i ChangeGroupDlg.obj
 0001:00003c8d       ??_ECChangeGroupDlg@@UAEPAXI@Z 00404c8d f i ChangeGroupDlg.obj
 0001:00003ca9       ??1CChangeGroupDlg@@UAE@XZ 00404ca9 f i ChangeGroupDlg.obj
 0001:00003d6e       ?dbg_dump@@YAXPAU_EXCEPTION_POINTERS@@@Z 00404d6e f   Client.obj
 0001:00003dfe       ?bad_exception@@YGJPAU_EXCEPTION_POINTERS@@@Z 00404dfe f   Client.obj
 0001:00003e0e       ?GetMessageMap@CClientApp@@MBEPBUAFX_MSGMAP@@XZ 00404e0e f   Client.obj
 0001:00003e14       ?GetRand@CClientApp@@QAEKXZ 00404e14 f   Client.obj
 0001:00003e2c       ??0CClientApp@@QAE@XZ      00404e2c f   Client.obj
 0001:00003fb4       ?InitInstance@CClientApp@@UAEHXZ 00404fb4 f   Client.obj
 0001:00004224       ??0CAboutDlg@@QAE@XZ       00405224 f   Client.obj
 0001:0000423a       ?DoDataExchange@CAboutDlg@@MAEXPAVCDataExchange@@@Z 0040523a f   Client.obj
 0001:0000423d       ?GetMessageMap@CAboutDlg@@MBEPBUAFX_MSGMAP@@XZ 0040523d f   Client.obj
 0001:00004243       ?OnAppAbout@CClientApp@@QAEXXZ 00405243 f   Client.obj
 0001:0000427c       ?ExitInstance@CClientApp@@UAEHXZ 0040527c f   Client.obj
 0001:00004281       ??_GCClientApp@@UAEPAXI@Z  00405281 f i Client.obj
 0001:00004281       ??_ECClientApp@@UAEPAXI@Z  00405281 f i Client.obj
 0001:0000429d       ??1CClientApp@@UAE@XZ      0040529d f i Client.obj
 0001:000042d5       ??3CObject@@SGXPAX@Z       004052d5 f i Client.obj
 0001:000042e2       ??_GCAboutDlg@@UAEPAXI@Z   004052e2 f i Client.obj
 0001:000042e2       ??_ECSettingDlg@@UAEPAXI@Z 004052e2 f i Client.obj
 0001:000042e2       ??_GCSettingDlg@@UAEPAXI@Z 004052e2 f i Client.obj
 0001:000042e2       ??_ECAboutDlg@@UAEPAXI@Z   004052e2 f i Client.obj
 0001:0000437c       ?CreateObject@CClientDoc@@SGPAVCObject@@XZ 0040537c f   ClientDoc.obj
 0001:000043ae       ?GetRuntimeClass@CClientDoc@@UBEPAUCRuntimeClass@@XZ 004053ae f   ClientDoc.obj
 0001:000043b4       ?GetMessageMap@CClientDoc@@MBEPBUAFX_MSGMAP@@XZ 004053b4 f   ClientDoc.obj
 0001:000043ba       ??0CClientDoc@@IAE@XZ      004053ba f   ClientDoc.obj
 0001:000043cc       ??1CClientDoc@@UAE@XZ      004053cc f   ClientDoc.obj
 0001:000043d7       ?Serialize@CClientDoc@@UAEXAAVCArchive@@@Z 004053d7 f   ClientDoc.obj
 0001:000043da       ?IsModified@CDocument@@UAEHXZ 004053da f i ClientDoc.obj
 0001:000043de       ?SetModifiedFlag@CDocument@@UAEXH@Z 004053de f i ClientDoc.obj
 0001:000043e8       ??_ECClientDoc@@UAEPAXI@Z  004053e8 f i ClientDoc.obj
 0001:000043e8       ??_GCClientDoc@@UAEPAXI@Z  004053e8 f i ClientDoc.obj
 0001:00004482       ?CreateObject@CClientView@@SGPAVCObject@@XZ 00405482 f   ClientView.obj
 0001:000044b7       ?GetRuntimeClass@CClientView@@UBEPAUCRuntimeClass@@XZ 004054b7 f   ClientView.obj
 0001:000044bd       ?GetMessageMap@CClientView@@MBEPBUAFX_MSGMAP@@XZ 004054bd f   ClientView.obj
 0001:000044c3       ??0CClientView@@IAE@XZ     004054c3 f   ClientView.obj
 0001:00004561       ??1CClientView@@UAE@XZ     00405561 f   ClientView.obj
 0001:000045b1       ?PreCreateWindow@CClientView@@UAEHAAUtagCREATESTRUCTA@@@Z 004055b1 f   ClientView.obj
 0001:000045c2       ?OnDraw@CClientView@@UAEXPAVCDC@@@Z 004055c2 f   ClientView.obj
 0001:000045c5       ?OnCreate@CClientView@@IAEHPAUtagCREATESTRUCTA@@@Z 004055c5 f   ClientView.obj
 0001:00004662       ?AddGroup@CClientView@@QAEHPBD@Z 00405662 f   ClientView.obj
 0001:00004673       ?AddView@CClientView@@QAEHPAUCRuntimeClass@@PBD@Z 00405673 f   ClientView.obj
 0001:00004751       ?UpdateDocTitle@CClientView@@QAEXXZ 00405751 f   ClientView.obj
 0001:0000475c       ?OnSelectedChanged@CClientView@@IAEXPAUtagNMHDR@@PAJ@Z 0040575c f   ClientView.obj
 0001:000047a2       ?OnAddFindGroup@CClientView@@IAEJIJ@Z 004057a2 f   ClientView.obj
 0001:000049a8       ?UpDateNumber@CClientView@@QAEHXZ 004059a8 f   ClientView.obj
 0001:00004b0e       ?OnEraseBkgnd@CClientView@@IAEHPAVCDC@@@Z 00405b0e f   ClientView.obj
 0001:00004b14       ?OnContextMenu@CClientView@@IAEXPAVCWnd@@VCPoint@@@Z 00405b14 f   ClientView.obj
 0001:00004c38       ?OnSize@CClientView@@IAEXIHH@Z 00405c38 f   ClientView.obj
 0001:00004c64       ?OnMenuitemGroupAdd@CClientView@@IAEXXZ 00405c64 f   ClientView.obj
 0001:00004e3c       ?OnMenuitemGroupDel@CClientView@@IAEXXZ 00405e3c f   ClientView.obj
 0001:00004f5d       ?OnMenuitemChange@CClientView@@IAEXXZ 00405f5d f   ClientView.obj
 0001:00005157       ?OnMenuitemSelectNum@CClientView@@IAEXXZ 00406157 f   ClientView.obj
 0001:0000523a       ??_GCClientView@@UAEPAXI@Z 0040623a f i ClientView.obj
 0001:0000523a       ??_ECClientView@@UAEPAXI@Z 0040623a f i ClientView.obj
 0001:00005256       ??1AFX_EXCEPTION_LINK@@QAE@XZ 00406256 f i ClientView.obj
 0001:0000525b       ??_GCMenu@@UAEPAXI@Z       0040625b f i ClientView.obj
 0001:0000525b       ??_ECMenu@@UAEPAXI@Z       0040625b f i ClientView.obj
 0001:00005277       ??1CMenu@@UAE@XZ           00406277 f i ClientView.obj
 0001:00005282       ?LoadMenuA@CMenu@@QAEHI@Z  00406282 f i ClientView.obj
 0001:000052a6       ??0CInputDialog@@QAE@XZ    004062a6 f i ClientView.obj
 0001:000052ee       ??1CInputDialog@@UAE@XZ    004062ee f i ClientView.obj
 0001:00005338       ?DoDataExchange@CInputDialog@@MAEXPAVCDataExchange@@@Z 00406338 f i ClientView.obj
 0001:0000534a       ??_GCInputDialog@@UAEPAXI@Z 0040634a f i ClientView.obj
 0001:0000534a       ??_ECInputDialog@@UAEPAXI@Z 0040634a f i ClientView.obj
 0001:000053e4       ??0CDialogbar@@QAE@PAVCWnd@@PAUClientContext@@@Z 004063e4 f   Dialogbar.obj
 0001:0000549b       ?DoDataExchange@CDialogbar@@MAEXPAVCDataExchange@@@Z 0040649b f   Dialogbar.obj
 0001:000054b3       ?GetMessageMap@CDialogbar@@MBEPBUAFX_MSGMAP@@XZ 004064b3 f   Dialogbar.obj
 0001:000054b9       ?GetUpdateInfo@@YAHPAD000@Z 004064b9 f   Dialogbar.obj
 0001:0000557e       ?htmlmap@CDialogbar@@QAE?AVCString@@XZ 0040657e f   Dialogbar.obj
 0001:000057ee       ?ConvUtf8ToAnsi@@YAHAAVCString@@0@Z 004067ee f   Dialogbar.obj
 0001:000058f9       ?OnInitDialog@CDialogbar@@IAEJIJ@Z 004068f9 f   Dialogbar.obj
 0001:00005c08       ?DeleteList@CDialogbar@@QAEXXZ 00406c08 f   Dialogbar.obj
 0001:00005c59       ?ShowSysinfoList@CDialogbar@@QAEXPAUClientContext@@@Z 00406c59 f   Dialogbar.obj
 0001:0000623e       ?ShowSysinfoListDel@CDialogbar@@QAEXXZ 0040723e f   Dialogbar.obj
 0001:00006320       ??_ECListCtrl@@UAEPAXI@Z   00407320 f i Dialogbar.obj
 0001:00006320       ??_GCListCtrl@@UAEPAXI@Z   00407320 f i Dialogbar.obj
 0001:0000633c       ??_GCDialogbar@@UAEPAXI@Z  0040733c f i Dialogbar.obj
 0001:0000633c       ??_ECDialogbar@@UAEPAXI@Z  0040733c f i Dialogbar.obj
 0001:00006358       ??1CHtmlCtrl@@UAE@XZ       00407358 f i Dialogbar.obj
 0001:00006358       ??1CMyHtmlCtrl@@UAE@XZ     00407358 f i Dialogbar.obj
 0001:00006363       ??1CDialogbar@@UAE@XZ      00407363 f i Dialogbar.obj
 0001:0000641c       ??_GCMyHtmlCtrl@@UAEPAXI@Z 0040741c f i Dialogbar.obj
 0001:0000641c       ??_GCHtmlCtrl@@UAEPAXI@Z   0040741c f i Dialogbar.obj
 0001:0000641c       ??_ECHtmlCtrl@@UAEPAXI@Z   0040741c f i Dialogbar.obj
 0001:0000641c       ??_ECMyHtmlCtrl@@UAEPAXI@Z 0040741c f i Dialogbar.obj
 0001:000064b6       ??0CFileManagerDlg@@QAE@PAVCWnd@@PAVCIOCPServer@@PAUClientContext@@@Z 004074b6 f   FileManagerDlg.obj
 0001:0000678d       ?DoDataExchange@CFileManagerDlg@@MAEXPAVCDataExchange@@@Z 0040778d f   FileManagerDlg.obj
 0001:000067be       ?GetMessageMap@CFileManagerDlg@@MBEPBUAFX_MSGMAP@@XZ 004077be f   FileManagerDlg.obj
 0001:000067c4       ?GetIconIndex@@YAHPBDK@Z   004077c4 f   FileManagerDlg.obj
 0001:00006801       ?SortColumn1@CFileManagerDlg@@IAEXH_N@Z 00407801 f   FileManagerDlg.obj
 0001:00006865       ?SortColumn2@CFileManagerDlg@@IAEXH_N@Z 00407865 f   FileManagerDlg.obj
 0001:0000687c       ?SortColumn3@CFileManagerDlg@@IAEXH_N@Z 0040787c f   FileManagerDlg.obj
 0001:00006893       ?SortColumn4@CFileManagerDlg@@IAEXH_N@Z 00407893 f   FileManagerDlg.obj
 0001:000068aa       ?OnNotify@CFileManagerDlg@@MAEHIJPAJ@Z 004078aa f   FileManagerDlg.obj
 0001:000068ed       ?MyShell_GetImageLists@CFileManagerDlg@@IAEHXZ 004078ed f   FileManagerDlg.obj
 0001:00006ac2       ?OnInitDialog@CFileManagerDlg@@MAEHXZ 00407ac2 f   FileManagerDlg.obj
 0001:00006dda       ?OnSize@CFileManagerDlg@@IAEXIHH@Z 00407dda f   FileManagerDlg.obj
 0001:00006e90       ?DropItemOnList@CFileManagerDlg@@IAEXPAVCListCtrl@@0@Z 00407e90 f   FileManagerDlg.obj
 0001:00006ee2       ?OnQueryDragIcon@CFileManagerDlg@@IAEPAUHICON__@@XZ 00407ee2 f   FileManagerDlg.obj
 0001:00006ee9       ?OnBeginDragListLocal@CFileManagerDlg@@IAEXPAUtagNMHDR@@PAJ@Z 00407ee9 f   FileManagerDlg.obj
 0001:00006fb5       ?OnBeginDragListRemote@CFileManagerDlg@@IAEXPAUtagNMHDR@@PAJ@Z 00407fb5 f   FileManagerDlg.obj
 0001:00007087       ?OnMouseMove@CFileManagerDlg@@IAEXIVCPoint@@@Z 00408087 f   FileManagerDlg.obj
 0001:000071f0       ?OnLButtonUp@CFileManagerDlg@@IAEXIVCPoint@@@Z 004081f0 f   FileManagerDlg.obj
 0001:0000726b       ?PreTranslateMessage@CFileManagerDlg@@UAEHPAUtagMSG@@@Z 0040826b f   FileManagerDlg.obj
 0001:0000732a       ?OnTimer@CFileManagerDlg@@IAEXI@Z 0040832a f   FileManagerDlg.obj
 0001:00007350       ?FixedRemoteDriveList@CFileManagerDlg@@QAEXXZ 00408350 f   FileManagerDlg.obj
 0001:00007686       ?OnClose@CFileManagerDlg@@IAEXXZ 00408686 f   FileManagerDlg.obj
 0001:000076cf       ?GetParentDirectory@CFileManagerDlg@@QAE?AVCString@@V2@@Z 004086cf f   FileManagerDlg.obj
 0001:000077f0       ?OnReceiveComplete@CFileManagerDlg@@QAEXXZ 004087f0 f   FileManagerDlg.obj
 0001:000078e6       ?GetRemoteFileList@CFileManagerDlg@@QAEXVCString@@@Z 004088e6 f   FileManagerDlg.obj
 0001:00007af6       ?OnDblclkListRemote@CFileManagerDlg@@IAEXPAUtagNMHDR@@PAJ@Z 00408af6 f   FileManagerDlg.obj
 0001:00007b5d       ?FixedRemoteFileList@CFileManagerDlg@@QAEXPAEK@Z 00408b5d f   FileManagerDlg.obj
 0001:00007f72       ?ShowMessage@CFileManagerDlg@@QAAXPADZZ 00408f72 f   FileManagerDlg.obj
 0001:00007fd3       ?OnRemotePrev@CFileManagerDlg@@IAEXXZ 00408fd3 f   FileManagerDlg.obj
 0001:00007ff2       ?OnRemoteHome@CFileManagerDlg@@IAEXXZ 00408ff2 f   FileManagerDlg.obj
 0001:00007ff7       ?OnToolTipNotify@CFileManagerDlg@@IAEHIPAUtagNMHDR@@PAJ@Z 00408ff7 f   FileManagerDlg.obj
 0001:000080dc       ?OnLocalList@CFileManagerDlg@@IAEXXZ 004090dc f   FileManagerDlg.obj
 0001:000080ee       ?OnLocalReport@CFileManagerDlg@@IAEXXZ 004090ee f   FileManagerDlg.obj
 0001:00008100       ?OnLocalBigicon@CFileManagerDlg@@IAEXXZ 00409100 f   FileManagerDlg.obj
 0001:00008112       ?OnLocalSmallicon@CFileManagerDlg@@IAEXXZ 00409112 f   FileManagerDlg.obj
 0001:00008124       ?OnRemoteList@CFileManagerDlg@@IAEXXZ 00409124 f   FileManagerDlg.obj
 0001:00008136       ?OnRemoteReport@CFileManagerDlg@@IAEXXZ 00409136 f   FileManagerDlg.obj
 0001:00008148       ?OnRemoteBigicon@CFileManagerDlg@@IAEXXZ 00409148 f   FileManagerDlg.obj
 0001:0000815a       ?OnRemoteSmallicon@CFileManagerDlg@@IAEXXZ 0040915a f   FileManagerDlg.obj
 0001:0000816c       ?OnRemoteView@CFileManagerDlg@@IAEXXZ 0040916c f   FileManagerDlg.obj
 0001:0000817e       ?OnRemoteDesktop@CFileManagerDlg@@IAEXXZ 0040917e f   FileManagerDlg.obj
 0001:000081c0       ?OnUpdateRemotePrev@CFileManagerDlg@@IAEXPAVCCmdUI@@@Z 004091c0 f   FileManagerDlg.obj
 0001:000081ee       ?OnUpdateRemoteHome@CFileManagerDlg@@IAEXPAVCCmdUI@@@Z 004091ee f   FileManagerDlg.obj
 0001:0000821c       ?OnUpdateRemoteStop@CFileManagerDlg@@IAEXPAVCCmdUI@@@Z 0040921c f   FileManagerDlg.obj
 0001:00008245       ?OnUpdateRemoteNewfolder@CFileManagerDlg@@IAEXPAVCCmdUI@@@Z 00409245 f   FileManagerDlg.obj
 0001:00008273       ?OnUpdateRemoteDelete@CFileManagerDlg@@IAEXPAVCCmdUI@@@Z 00409273 f   FileManagerDlg.obj
 0001:000082be       ?OnUpdateRemoteSend@CFileManagerDlg@@IAEXPAVCCmdUI@@@Z 004092be f   FileManagerDlg.obj
 0001:000082ec       ?OnUpdateRemoteRecv@CFileManagerDlg@@IAEXPAVCCmdUI@@@Z 004092ec f   FileManagerDlg.obj
 0001:0000831a       ?OnUpdateRemoteRefresh@CFileManagerDlg@@IAEXPAVCCmdUI@@@Z 0040931a f   FileManagerDlg.obj
 0001:00008337       ?OnUpdateRemoteDesktop@CFileManagerDlg@@IAEXPAVCCmdUI@@@Z 00409337 f   FileManagerDlg.obj
 0001:00008354       ?FixedUploadDirectory@CFileManagerDlg@@QAE_NPBD@Z 00409354 f   FileManagerDlg.obj
 0001:00008483       ?EnableControl@CFileManagerDlg@@AAEXH@Z 00409483 f   FileManagerDlg.obj
 0001:000084a8       ?ExtractNameFromFullPath@CFileManagerDlg@@QAE?AVCString@@V2@@Z 004094a8 f   FileManagerDlg.obj
 0001:00008565       ?OnLocalCopy@CFileManagerDlg@@IAEXXZ 00409565 f   FileManagerDlg.obj
 0001:00008674       ?GetDirectoryPath@CFileManagerDlg@@QAE?AVCString@@H@Z 00409674 f   FileManagerDlg.obj
 0001:0000876b       ?OnRemoteCopy@CFileManagerDlg@@IAEXXZ 0040976b f   FileManagerDlg.obj
 0001:00008935       ?SendDownloadJob@CFileManagerDlg@@QAEHXZ 00409935 f   FileManagerDlg.obj
 0001:00008a10       ?SendUploadJob@CFileManagerDlg@@QAEHXZ 00409a10 f   FileManagerDlg.obj
 0001:00008c64       ?SendDeleteJob@CFileManagerDlg@@QAEHXZ 00409c64 f   FileManagerDlg.obj
 0001:00008d62       ?CreateLocalRecvFile@CFileManagerDlg@@QAEXXZ 00409d62 f   FileManagerDlg.obj
 0001:0000907f       ?WriteLocalRecvFile@CFileManagerDlg@@QAEXXZ 0040a07f f   FileManagerDlg.obj
 0001:00009206       ?EndLocalRecvFile@CFileManagerDlg@@QAEXXZ 0040a206 f   FileManagerDlg.obj
 0001:000092da       ?EndLocalUploadFile@CFileManagerDlg@@AAEXXZ 0040a2da f   FileManagerDlg.obj
 0001:000093d6       ?EndRemoteDeleteFile@CFileManagerDlg@@QAEXXZ 0040a3d6 f   FileManagerDlg.obj
 0001:000094ae       ?SendException@CFileManagerDlg@@QAEXXZ 0040a4ae f   FileManagerDlg.obj
 0001:000094d1       ?SendContinue@CFileManagerDlg@@QAEXXZ 0040a4d1 f   FileManagerDlg.obj
 0001:000094f4       ?SendStop@CFileManagerDlg@@QAEXH@Z 0040a4f4 f   FileManagerDlg.obj
 0001:00009536       ?ShowProgress@CFileManagerDlg@@QAEXXZ 0040a536 f   FileManagerDlg.obj
 0001:00009740       ?OnRemoteDelete@CFileManagerDlg@@IAEXXZ 0040a740 f   FileManagerDlg.obj
 0001:000098e2       ?OnRemoteStop@CFileManagerDlg@@IAEXXZ 0040a8e2 f   FileManagerDlg.obj
 0001:000098e7       ?PostNcDestroy@CFileManagerDlg@@MAEXXZ 0040a8e7 f   FileManagerDlg.obj
 0001:0000990c       ?SendTransferMode@CFileManagerDlg@@AAEXXZ 0040a90c f   FileManagerDlg.obj
 0001:000099f3       ?SendFileData@CFileManagerDlg@@AAEXXZ 0040a9f3 f   FileManagerDlg.obj
 0001:00009aec       ?DeleteDirectory@CFileManagerDlg@@AAE_NPBD@Z 0040aaec f   FileManagerDlg.obj
 0001:00009bbb       ?OnRemoteNewFolder@CFileManagerDlg@@IAEXXZ 0040abbb f   FileManagerDlg.obj
 0001:00009d07       ?OnTransferRecv@CFileManagerDlg@@IAEXXZ 0040ad07 f   FileManagerDlg.obj
 0001:00009d0c       ?OnRename@CFileManagerDlg@@IAEXXZ 0040ad0c f   FileManagerDlg.obj
 0001:00009d40       ?OnEndLabelEditListLocal@CFileManagerDlg@@IAEXPAUtagNMHDR@@PAJ@Z 0040ad40 f   FileManagerDlg.obj
 0001:00009e47       ?OnEndLabelEditListRemote@CFileManagerDlg@@IAEXPAUtagNMHDR@@PAJ@Z 0040ae47 f   FileManagerDlg.obj
 0001:00009fed       ?OnDelete@CFileManagerDlg@@IAEXXZ 0040afed f   FileManagerDlg.obj
 0001:00009ff2       ?OnNewFolder@CFileManagerDlg@@IAEXXZ 0040aff2 f   FileManagerDlg.obj
 0001:00009ff7       ?OnRefresh@CFileManagerDlg@@IAEXXZ 0040aff7 f   FileManagerDlg.obj
 0001:0000a016       ?OnUseAdmin@CFileManagerDlg@@IAEXXZ 0040b016 f   FileManagerDlg.obj
 0001:0000a021       ?OnRemoteOpenShow@CFileManagerDlg@@IAEXXZ 0040b021 f   FileManagerDlg.obj
 0001:0000a145       ?OnRemoteOpenHide@CFileManagerDlg@@IAEXXZ 0040b145 f   FileManagerDlg.obj
 0001:0000a269       ?OnRclickListRemote@CFileManagerDlg@@IAEXPAUtagNMHDR@@PAJ@Z 0040b269 f   FileManagerDlg.obj
 0001:0000a450       ?MakeSureDirectoryPathExists@CFileManagerDlg@@AAE_NPBD@Z 0040b450 f   FileManagerDlg.obj
 0001:0000a5a7       ?OnTransferSend@CFileManagerDlg@@IAEXXZ 0040b5a7 f   FileManagerDlg.obj
 0001:0000a5ac       ?OnCompress@CFileManagerDlg@@IAEXXZ 0040b5ac f   FileManagerDlg.obj
 0001:0000a78b       ?OnUncompress@CFileManagerDlg@@IAEXXZ 0040b78b f   FileManagerDlg.obj
 0001:0000a8b8       ?OnSetfocusRemotePath@CFileManagerDlg@@IAEXXZ 0040b8b8 f   FileManagerDlg.obj
 0001:0000a8ce       ??_GCFileManagerDlg@@UAEPAXI@Z 0040b8ce f i FileManagerDlg.obj
 0001:0000a8ce       ??_ECFileManagerDlg@@UAEPAXI@Z 0040b8ce f i FileManagerDlg.obj
 0001:0000a8ea       ??1CFileManagerDlg@@UAE@XZ 0040b8ea f i FileManagerDlg.obj
 0001:0000aa95       ??_ECProgressCtrl@@UAEPAXI@Z 0040ba95 f i FileManagerDlg.obj
 0001:0000aa95       ??_GCProgressCtrl@@UAEPAXI@Z 0040ba95 f i FileManagerDlg.obj
 0001:0000aab1       ?GetFirstSelectedItemPosition@CListCtrl@@QBEPAU__POSITION@@XZ 0040bab1 f i FileManagerDlg.obj
 0001:0000aac5       ?GetNextSelectedItem@CListCtrl@@QBEHAAPAU__POSITION@@@Z 0040bac5 f i FileManagerDlg.obj
 0001:0000aae9       ??1CFileTransferModeDlg@@UAE@XZ 0040bae9 f i FileManagerDlg.obj
 0001:0000ab1e       ?GetEditControl@CListCtrl@@QBEPAVCEdit@@XZ 0040bb1e f i FileManagerDlg.obj
 0001:0000ab37       ?RemoveHead@?$CList@VCString@@AAV1@@@QAE?AVCString@@XZ 0040bb37 f i FileManagerDlg.obj
 0001:0000abab       ?AddTail@?$CList@VCString@@AAV1@@@QAEPAU__POSITION@@AAVCString@@@Z 0040bbab f i FileManagerDlg.obj
 0001:0000abdf       ?RemoveAll@?$CList@VCString@@AAV1@@@QAEXXZ 0040bbdf f i FileManagerDlg.obj
 0001:0000ac17       ??1?$CList@VCString@@AAV1@@@UAE@XZ 0040bc17 f i FileManagerDlg.obj
 0001:0000ac22       ?Serialize@?$CList@VCString@@AAV1@@@UAEXAAVCArchive@@@Z 0040bc22 f i FileManagerDlg.obj
 0001:0000acae       ??_E?$CList@VCString@@AAV1@@@UAEPAXI@Z 0040bcae f i FileManagerDlg.obj
 0001:0000acae       ??_G?$CList@VCString@@AAV1@@@UAEPAXI@Z 0040bcae f i FileManagerDlg.obj
 0001:0000acca       ?NewNode@?$CList@VCString@@AAV1@@@IAEPAUCNode@1@PAU21@0@Z 0040bcca f i FileManagerDlg.obj
 0001:0000ad31       ?FreeNode@?$CList@VCString@@AAV1@@@IAEXPAUCNode@1@@Z 0040bd31 f i FileManagerDlg.obj
 0001:0000addb       ??0CFileTransferModeDlg@@QAE@PAVCWnd@@@Z 0040bddb f   FileTransferModeDlg.obj
 0001:0000ae00       ?DoDataExchange@CFileTransferModeDlg@@MAEXPAVCDataExchange@@@Z 0040be00 f   FileTransferModeDlg.obj
 0001:0000ae03       ?GetMessageMap@CFileTransferModeDlg@@MBEPBUAFX_MSGMAP@@XZ 0040be03 f   FileTransferModeDlg.obj
 0001:0000ae09       ?OnEndDialog@CFileTransferModeDlg@@IAEXI@Z 0040be09 f   FileTransferModeDlg.obj
 0001:0000ae0e       ?OnInitDialog@CFileTransferModeDlg@@MAEHXZ 0040be0e f   FileTransferModeDlg.obj
 0001:0000ae8e       ??_GCFileTransferModeDlg@@UAEPAXI@Z 0040be8e f i FileTransferModeDlg.obj
 0001:0000ae8e       ??_ECFileTransferModeDlg@@UAEPAXI@Z 0040be8e f i FileTransferModeDlg.obj
 0001:0000af28       ?GetRuntimeClass@CHtmlCtrl@@UBEPAUCRuntimeClass@@XZ 0040bf28 f   HtmlCtrl.obj
 0001:0000af2e       ?GetMessageMap@CHtmlCtrl@@MBEPBUAFX_MSGMAP@@XZ 0040bf2e f   HtmlCtrl.obj
 0001:0000af34       ?CreateFromStatic@CHtmlCtrl@@QAEHIPAVCWnd@@@Z 0040bf34 f   HtmlCtrl.obj
 0001:0000afc5       ?OnDestroy@CHtmlCtrl@@QAEXXZ 0040bfc5 f   HtmlCtrl.obj
 0001:0000afd8       ?OnMouseActivate@CHtmlCtrl@@QAEHPAVCWnd@@II@Z 0040bfd8 f   HtmlCtrl.obj
 0001:0000afe0       ?OnBeforeNavigate2@CHtmlCtrl@@UAEXPBDK0AAVCByteArray@@0PAH@Z 0040bfe0 f   HtmlCtrl.obj
 0001:0000b035       ?OnAppCmd@CHtmlCtrl@@UAEXPBD@Z 0040c035 f   HtmlCtrl.obj
 0001:0000b038       ??_GCStatic@@UAEPAXI@Z     0040c038 f i HtmlCtrl.obj
 0001:0000b038       ??_ECStatic@@UAEPAXI@Z     0040c038 f i HtmlCtrl.obj
 0001:0000b0d2       ??0CIniFile@@QAE@XZ        0040c0d2 f   IniFile.obj
 0001:0000b16e       ??1CIniFile@@UAE@XZ        0040c16e f   IniFile.obj
 0001:0000b17c       ?GetString@CIniFile@@QAE?AVCString@@V2@00@Z 0040c17c f   IniFile.obj
 0001:0000b200       ?GetInt@CIniFile@@QAEHVCString@@0H@Z 0040c200 f   IniFile.obj
 0001:0000b248       ?GetDWORD@CIniFile@@QAEKVCString@@0K@Z 0040c248 f   IniFile.obj
 0001:0000b2e1       ?SetString@CIniFile@@QAEHVCString@@00@Z 0040c2e1 f   IniFile.obj
 0001:0000b338       ?SetInt@CIniFile@@QAEHVCString@@0H@Z 0040c338 f   IniFile.obj
 0001:0000b3b3       ?SetDouble@CIniFile@@QAEHVCString@@0N@Z 0040c3b3 f   IniFile.obj
 0001:0000b433       ?SetDWORD@CIniFile@@QAEHVCString@@0K@Z 0040c433 f   IniFile.obj
 0001:0000b4ae       ??_GCIniFile@@UAEPAXI@Z    0040c4ae f i IniFile.obj
 0001:0000b4ae       ??_ECIniFile@@UAEPAXI@Z    0040c4ae f i IniFile.obj
 0001:0000b548       ??0CDlgTemplateBuilder@@QAE@I@Z 0040c548 f   InputDlg.obj
 0001:0000b56b       ??1CDlgTemplateBuilder@@QAE@XZ 0040c56b f   InputDlg.obj
 0001:0000b574       ?Begin@CDlgTemplateBuilder@@QAEPAUDLGTEMPLATE@@KABVCRect@@PBDK@Z 0040c574 f   InputDlg.obj
 0001:0000b5e3       ?AddItemTemplate@CDlgTemplateBuilder@@IAEXGKABVCRect@@GK@Z 0040c5e3 f   InputDlg.obj
 0001:0000b64f       ?AddItem@CDlgTemplateBuilder@@QAEXGKABVCRect@@PBDGK@Z 0040c64f f   InputDlg.obj
 0001:0000b685       ?AddItem@CDlgTemplateBuilder@@QAEXGKABVCRect@@GGK@Z 0040c685 f   InputDlg.obj
 0001:0000b6bf       ?AddText@CDlgTemplateBuilder@@QAEPAGPAGPBD@Z 0040c6bf f   InputDlg.obj
 0001:0000b718       ?Init@CInputDialog@@QAEHPBD0PAVCWnd@@HVCString@@G@Z 0040c718 f   InputDlg.obj
 0001:0000b8e8       ?OnInitDialog@CInputDialog@@MAEHXZ 0040c8e8 f   InputDlg.obj
 0001:0000b913       ?OnOK@CInputDialog@@MAEXXZ 0040c913 f   InputDlg.obj
 0001:0000b9c0       ??0CIOCPServer@@QAE@XZ     0040c9c0 f   IOCPServer.obj
 0001:0000babc       ??1CIOCPServer@@UAE@XZ     0040cabc f   IOCPServer.obj
 0001:0000bb1f       ?Initialize@CIOCPServer@@QAE_NP6GXPAUClientContext@@I@ZHH@Z 0040cb1f f   IOCPServer.obj
 0001:0000bbec       ?ThreadHeartbeat@CIOCPServer@@SGIPAX@Z 0040cbec f   IOCPServer.obj
 0001:0000bc65       ?ListenThreadProc@CIOCPServer@@SGIPAX@Z 0040cc65 f   IOCPServer.obj
 0001:0000bcc9       ?OnAccept@CIOCPServer@@IAEXXZ 0040ccc9 f   IOCPServer.obj
 0001:0000be55       ?InitializeIOCP@CIOCPServer@@IAE_NXZ 0040ce55 f   IOCPServer.obj
 0001:0000bf1d       ?ThreadPoolFunc@CIOCPServer@@SGIPAX@Z 0040cf1d f   IOCPServer.obj
 0001:0000bfc5       ?Stop@CIOCPServer@@IAEXXZ  0040cfc5 f   IOCPServer.obj
 0001:0000bff4       ?GetHostName@CIOCPServer@@IAE?AVCString@@I@Z 0040cff4 f   IOCPServer.obj
 0001:0000c046       ?PostRecv@CIOCPServer@@QAEXPAUClientContext@@@Z 0040d046 f   IOCPServer.obj
 0001:0000c0c3       ?encrypt@@YAPADPADH@Z      0040d0c3 f   IOCPServer.obj
 0001:0000c0e3       ?Send@CIOCPServer@@QAEXPAUClientContext@@PAEIH@Z 0040d0e3 f   IOCPServer.obj
 0001:0000c33d       ?OnClientInitializing@CIOCPServer@@QAE_NPAUClientContext@@K@Z 0040d33d f   IOCPServer.obj
 0001:0000c342       ?decrypt@@YAPADPADH@Z      0040d342 f   IOCPServer.obj
 0001:0000c362       ?OnClientReading@CIOCPServer@@UAE_NPAUClientContext@@K@Z 0040d362 f   IOCPServer.obj
 0001:0000c731       ?PostSend@CIOCPServer@@QAEXPAUClientContext@@@Z 0040d731 f   IOCPServer.obj
 0001:0000c7d7       ?OnClientWriting@CIOCPServer@@QAE_NPAUClientContext@@K@Z 0040d7d7 f   IOCPServer.obj
 0001:0000c892       ?CloseCompletionPort@CIOCPServer@@IAEXXZ 0040d892 f   IOCPServer.obj
 0001:0000c8e3       ?AssociateSocketWithCompletionPort@CIOCPServer@@IAEHIPAXK@Z 0040d8e3 f   IOCPServer.obj
 0001:0000c903       ?RemoveStaleClient@CIOCPServer@@IAEXPAUClientContext@@H@Z 0040d903 f   IOCPServer.obj
 0001:0000c9e3       ?Shutdown@CIOCPServer@@QAEXXZ 0040d9e3 f   IOCPServer.obj
 0001:0000ca4f       ?MoveToFreePool@CIOCPServer@@IAEXPAUClientContext@@@Z 0040da4f f   IOCPServer.obj
 0001:0000cb2b       ?AllocateContext@CIOCPServer@@IAEPAUClientContext@@I@Z 0040db2b f   IOCPServer.obj
 0001:0000cc62       ?ResetConnection@CIOCPServer@@QAEXPAUClientContext@@@Z 0040dc62 f   IOCPServer.obj
 0001:0000cd13       ?DisconnectAll@CIOCPServer@@QAEXXZ 0040dd13 f   IOCPServer.obj
 0001:0000cdc3       ?IsRunning@CIOCPServer@@QAE_NXZ 0040ddc3 f   IOCPServer.obj
 0001:0000cdc7       ?SetKeepAlive@CIOCPServer@@IAEHIII@Z 0040ddc7 f   IOCPServer.obj
 0001:0000ce32       ??_ECIOCPServer@@UAEPAXI@Z 0040de32 f i IOCPServer.obj
 0001:0000ce32       ??_GCIOCPServer@@UAEPAXI@Z 0040de32 f i IOCPServer.obj
 0001:0000ce4e       ??1CLock@@QAE@XZ           0040de4e f i IOCPServer.obj
 0001:0000ce81       ?Unlock@CLock@@QAEXXZ      0040de81 f i IOCPServer.obj
 0001:0000ce8a       ?Lock@CLock@@QAEXXZ        0040de8a f i IOCPServer.obj
 0001:0000ce93       ??1ClientContext@@QAE@XZ   0040de93 f i IOCPServer.obj
 0001:0000cee4       ?ProcessIOMessage@CIOCPServer@@QAE_NW4IOType@@PAUClientContext@@K@Z 0040dee4 f i IOCPServer.obj
 0001:0000cf28       ??0ClientContext@@QAE@XZ   0040df28 f i IOCPServer.obj
 0001:0000cf74       ?RemoveHead@?$CList@PAUClientContext@@PAU1@@@QAEPAUClientContext@@XZ 0040df74 f i IOCPServer.obj
 0001:0000cf98       ?RemoveTail@?$CList@PAUClientContext@@PAU1@@@QAEPAUClientContext@@XZ 0040df98 f i IOCPServer.obj
 0001:0000cfbc       ?AddTail@?$CList@PAUClientContext@@PAU1@@@QAEPAU__POSITION@@PAUClientContext@@@Z 0040dfbc f i IOCPServer.obj
 0001:0000cfe5       ?RemoveAll@?$CList@PAUClientContext@@PAU1@@@QAEXXZ 0040dfe5 f i IOCPServer.obj
 0001:0000d010       ?RemoveAt@?$CList@PAUClientContext@@PAU1@@@QAEXPAU__POSITION@@@Z 0040e010 f i IOCPServer.obj
 0001:0000d043       ??1?$CList@PAUClientContext@@PAU1@@@UAE@XZ 0040e043 f i IOCPServer.obj
 0001:0000d04e       ?Serialize@?$CList@PAUClientContext@@PAU1@@@UAEXAAVCArchive@@@Z 0040e04e f i IOCPServer.obj
 0001:0000d0b0       ??_G?$CList@PAUClientContext@@PAU1@@@UAEPAXI@Z 0040e0b0 f i IOCPServer.obj
 0001:0000d0b0       ??_E?$CList@PAUClientContext@@PAU1@@@UAEPAXI@Z 0040e0b0 f i IOCPServer.obj
 0001:0000d0cc       ?NewNode@?$CList@PAUClientContext@@PAU1@@@IAEPAUCNode@1@PAU21@0@Z 0040e0cc f i IOCPServer.obj
 0001:0000d12e       ?FreeNode@?$CList@PAUClientContext@@PAU1@@@IAEXPAUCNode@1@@Z 0040e12e f i IOCPServer.obj
 0001:0000d1c5       ??0CKeyBoardDlg@@QAE@PAVCWnd@@PAVCIOCPServer@@PAUClientContext@@@Z 0040e1c5 f   KeyBoardDlg.obj
 0001:0000d2cb       ?DoDataExchange@CKeyBoardDlg@@MAEXPAVCDataExchange@@@Z 0040e2cb f   KeyBoardDlg.obj
 0001:0000d2e0       ?GetMessageMap@CKeyBoardDlg@@MBEPBUAFX_MSGMAP@@XZ 0040e2e0 f   KeyBoardDlg.obj
 0001:0000d2e6       ?OnInitDialog@CKeyBoardDlg@@MAEHXZ 0040e2e6 f   KeyBoardDlg.obj
 0001:0000d353       ?OnSysCommand@CKeyBoardDlg@@IAEXIJ@Z 0040e353 f   KeyBoardDlg.obj
 0001:0000d40c       ?OnReceiveComplete@CKeyBoardDlg@@QAEXXZ 0040e40c f   KeyBoardDlg.obj
 0001:0000d431       ?SendException@CKeyBoardDlg@@AAEXXZ 0040e431 f   KeyBoardDlg.obj
 0001:0000d454       ?OnClose@CKeyBoardDlg@@IAEXXZ 0040e454 f   KeyBoardDlg.obj
 0001:0000d471       ?AddKeyBoardData@CKeyBoardDlg@@AAEXXZ 0040e471 f   KeyBoardDlg.obj
 0001:0000d4d6       ?OnSize@CKeyBoardDlg@@IAEXIHH@Z 0040e4d6 f   KeyBoardDlg.obj
 0001:0000d4de       ?ResizeEdit@CKeyBoardDlg@@AAEXXZ 0040e4de f   KeyBoardDlg.obj
 0001:0000d4df       ?PostNcDestroy@CKeyBoardDlg@@MAEXXZ 0040e4df f   KeyBoardDlg.obj
 0001:0000d4f5       ?SaveRecord@CKeyBoardDlg@@AAE_NXZ 0040e4f5 f   KeyBoardDlg.obj
 0001:0000d67f       ?PreTranslateMessage@CKeyBoardDlg@@UAEHPAUtagMSG@@@Z 0040e67f f   KeyBoardDlg.obj
 0001:0000d6a7       ?UpdateTitle@CKeyBoardDlg@@AAEXXZ 0040e6a7 f   KeyBoardDlg.obj
 0001:0000d6fb       ?OnSendkey@CKeyBoardDlg@@IAEXXZ 0040e6fb f   KeyBoardDlg.obj
 0001:0000d740       ?OnDelkey@CKeyBoardDlg@@IAEXXZ 0040e740 f   KeyBoardDlg.obj
 0001:0000d785       ?OnSavekey@CKeyBoardDlg@@IAEXXZ 0040e785 f   KeyBoardDlg.obj
 0001:0000d78a       ??_GCKeyBoardDlg@@UAEPAXI@Z 0040e78a f i KeyBoardDlg.obj
 0001:0000d78a       ??_ECKeyBoardDlg@@UAEPAXI@Z 0040e78a f i KeyBoardDlg.obj
 0001:0000d7a6       ??1CKeyBoardDlg@@UAE@XZ    0040e7a6 f i KeyBoardDlg.obj
 0001:0000d86b       ??0LFileName@@QAE@PAG@Z    0040e86b f   LFileName.obj
 0001:0000d8e7       ??0LFileName@@QAE@PAD@Z    0040e8e7 f   LFileName.obj
 0001:0000da07       ??0LFileName@@QAE@XZ       0040ea07 f   LFileName.obj
 0001:0000da57       ??1LFileName@@QAE@XZ       0040ea57 f   LFileName.obj
 0001:0000da58       ?getFileName@LFileName@@QAEPAGXZ 0040ea58 f   LFileName.obj
 0001:0000da5f       ?getFilePath@LFileName@@QAEPAGXZ 0040ea5f f   LFileName.obj
 0001:0000da66       ?init@LFileName@@QAEXPAG@Z 0040ea66 f   LFileName.obj
 0001:0000dab8       ?init@LFileName@@QAEXPAD@Z 0040eab8 f   LFileName.obj
 0001:0000db93       ?initFileName@LFileName@@QAEXPAD@Z 0040eb93 f   LFileName.obj
 0001:0000dc21       ?getFileNameA@LFileName@@QAEPADXZ 0040ec21 f   LFileName.obj
 0001:0000dc28       ?getFilePathA@LFileName@@QAEPADXZ 0040ec28 f   LFileName.obj
 0001:0000dc2f       ?getFileExpand@LFileName@@QAEPADXZ 0040ec2f f   LFileName.obj
 0001:0000dc36       ?getNameA@LFileName@@QAEPADXZ 0040ec36 f   LFileName.obj
 0001:0000dcbb       ??0CLocalUpload@@QAE@PAVCWnd@@@Z 0040ecbb f   LocalUpload.obj
 0001:0000dd35       ?DoDataExchange@CLocalUpload@@MAEXPAVCDataExchange@@@Z 0040ed35 f   LocalUpload.obj
 0001:0000dd75       ?GetMessageMap@CLocalUpload@@MBEPBUAFX_MSGMAP@@XZ 0040ed75 f   LocalUpload.obj
 0001:0000dd7b       ?OnInitDialog@CLocalUpload@@MAEHXZ 0040ed7b f   LocalUpload.obj
 0001:0000dde7       ?OnButtonPath@CLocalUpload@@IAEXXZ 0040ede7 f   LocalUpload.obj
 0001:0000de88       ?OnOK@CLocalUpload@@MAEXXZ 0040ee88 f   LocalUpload.obj
 0001:0000e074       ?OnSelchangeComboType@CLocalUpload@@IAEXXZ 0040f074 f   LocalUpload.obj
 0001:0000e0dd       ??_ECLocalUpload@@UAEPAXI@Z 0040f0dd f i LocalUpload.obj
 0001:0000e0dd       ??_GCLocalUpload@@UAEPAXI@Z 0040f0dd f i LocalUpload.obj
 0001:0000e0f9       ??1CLocalUpload@@UAE@XZ    0040f0f9 f i LocalUpload.obj
 0001:0000e1cd       ?CreateObject@CLogView@@SGPAVCObject@@XZ 0040f1cd f   LogView.obj
 0001:0000e202       ?GetRuntimeClass@CLogView@@UBEPAUCRuntimeClass@@XZ 0040f202 f   LogView.obj
 0001:0000e208       ??0CLogView@@IAE@XZ        0040f208 f   LogView.obj
 0001:0000e273       ??1CLogView@@MAE@XZ        0040f273 f   LogView.obj
 0001:0000e2e1       ?GetMessageMap@CLogView@@MBEPBUAFX_MSGMAP@@XZ 0040f2e1 f   LogView.obj
 0001:0000e2e7       ?OnDraw@CLogView@@MAEXPAVCDC@@@Z 0040f2e7 f   LogView.obj
 0001:0000e2ea       ?OnInitialUpdate@CLogView@@UAEXXZ 0040f2ea f   LogView.obj
 0001:0000e503       ?PreCreateWindow@CLogView@@MAEHAAUtagCREATESTRUCTA@@@Z 0040f503 f   LogView.obj
 0001:0000e514       ?OnSize@CLogView@@IAEXIHH@Z 0040f514 f   LogView.obj
 0001:0000e5a1       ?g_ColumnWidth@CLogView@@IAEXXZ 0040f5a1 f   LogView.obj
 0001:0000e5a2       ?InsertLogItem@CLogView@@QAEXPBDHH@Z 0040f5a2 f   LogView.obj
 0001:0000e65f       ?OnRclick@CLogView@@IAEXPAUtagNMHDR@@PAJ@Z 0040f65f f   LogView.obj
 0001:0000e6e7       ?OnEventDelete@CLogView@@IAEXXZ 0040f6e7 f   LogView.obj
 0001:0000e750       ?OnAllDelete@CLogView@@IAEXXZ 0040f750 f   LogView.obj
 0001:0000e769       ?OnEventSave@CLogView@@IAEXXZ 0040f769 f   LogView.obj
 0001:0000e9f4       ?OnEventCopy@CLogView@@IAEXXZ 0040f9f4 f   LogView.obj
 0001:0000eb68       ??_ECFont@@UAEPAXI@Z       0040fb68 f i LogView.obj
 0001:0000eb68       ??_GCFont@@UAEPAXI@Z       0040fb68 f i LogView.obj
 0001:0000eb84       ??1CFont@@UAE@XZ           0040fb84 f i LogView.obj
 0001:0000ebad       ??_GCListView@@UAEPAXI@Z   0040fbad f i LogView.obj
 0001:0000ebad       ??_ECListView@@UAEPAXI@Z   0040fbad f i LogView.obj
 0001:0000ebc9       ??1CListView@@UAE@XZ       0040fbc9 f i LogView.obj
 0001:0000ebfe       ??_ECLogView@@MAEPAXI@Z    0040fbfe f i LogView.obj
 0001:0000ebfe       ??_GCLogView@@MAEPAXI@Z    0040fbfe f i LogView.obj
 0001:0000ecec       ?FILESaveFile@@YA_NPAD@Z   0040fcec f   MainFrm.obj
 0001:0000ed33       ?SHELLSaveFile@@YA_NPAD@Z  0040fd33 f   MainFrm.obj
 0001:0000ed7a       ?SCREENSaveFile@@YA_NPAD@Z 0040fd7a f   MainFrm.obj
 0001:0000edc1       ?VIDEOSaveFile@@YA_NPAD@Z  0040fdc1 f   MainFrm.obj
 0001:0000ee08       ?LISTENSaveFile@@YA_NPAD@Z 0040fe08 f   MainFrm.obj
 0001:0000ee4f       ?SYSTEMSaveFile@@YA_NPAD@Z 0040fe4f f   MainFrm.obj
 0001:0000ee96       ?KEYLOGSaveFile@@YA_NPAD@Z 0040fe96 f   MainFrm.obj
 0001:0000eedd       ?SERVICESaveFile@@YA_NPAD@Z 0040fedd f   MainFrm.obj
 0001:0000ef24       ?REGEDITSaveFile@@YA_NPAD@Z 0040ff24 f   MainFrm.obj
 0001:0000ef6b       ?CHATSaveFile@@YA_NPAD@Z   0040ff6b f   MainFrm.obj
 0001:0000efb2       ?PROXYMAPSaveFile@@YA_NPAD@Z 0040ffb2 f   MainFrm.obj
 0001:0000eff9       ?CreateObject@CMainFrame@@SGPAVCObject@@XZ 0040fff9 f   MainFrm.obj
 0001:0000f02e       ?GetRuntimeClass@CMainFrame@@UBEPAUCRuntimeClass@@XZ 0041002e f   MainFrm.obj
 0001:0000f034       ?GetMessageMap@CMainFrame@@MBEPBUAFX_MSGMAP@@XZ 00410034 f   MainFrm.obj
 0001:0000f03a       ??0CMainFrame@@IAE@XZ      0041003a f   MainFrm.obj
 0001:0000f0ee       ??1CMainFrame@@UAE@XZ      004100ee f   MainFrm.obj
 0001:0000f18a       ?OnCreate@CMainFrame@@IAEHPAUtagCREATESTRUCTA@@@Z 0041018a f   MainFrm.obj
 0001:0000f72d       ?PreCreateWindow@CMainFrame@@UAEHAAUtagCREATESTRUCTA@@@Z 0041072d f   MainFrm.obj
 0001:0000f82c       ?Activate@CMainFrame@@QAEXHH@Z 0041082c f   MainFrm.obj
 0001:0000fabc       ?NotifyProc@CMainFrame@@SGXPAUClientContext@@I@Z 00410abc f   MainFrm.obj
 0001:0000fafe       ?ProcessReceiveComplete@CMainFrame@@SAXPAUClientContext@@@Z 00410afe f   MainFrm.obj
 0001:0000fce6       ?ProcessReceive@CMainFrame@@SAXPAUClientContext@@@Z 00410ce6 f   MainFrm.obj
 0001:0000fd0a       ?ShowToolTips@CMainFrame@@QAEXPBD@Z 00410d0a f   MainFrm.obj
 0001:0000fd25       ?ShowConnectionsNumber@CMainFrame@@QAEXXZ 00410d25 f   MainFrm.obj
 0001:0000fe6a       ?OnCustomize@CMainFrame@@IAEXXZ 00410e6a f   MainFrm.obj
 0001:0000ff39       ?OnSysCommand@CMainFrame@@IAEXIJ@Z 00410f39 f   MainFrm.obj
 0001:0000ff70       ?OnMenuitemShow@CMainFrame@@IAEXXZ 00410f70 f   MainFrm.obj
 0001:0000ff95       ?OnMenuitemHide@CMainFrame@@IAEXXZ 00410f95 f   MainFrm.obj
 0001:0000ffa2       ?OnClose@CMainFrame@@IAEXXZ 00410fa2 f   MainFrm.obj
 0001:0001017b       ?OnMenuitemSetting@CMainFrame@@IAEXXZ 0041117b f   MainFrm.obj
 0001:000101b6       ?OnMenuitemBuild@CMainFrame@@IAEXXZ 004111b6 f   MainFrm.obj
 0001:000101fd       ?OnRemoveFromList@CMainFrame@@IAEJIJ@Z 004111fd f   MainFrm.obj
 0001:00010561       ?OnOpenScreenSpyDialog@CMainFrame@@IAEJIJ@Z 00411561 f   MainFrm.obj
 0001:000105e0       ?OnOpenChatDialog@CMainFrame@@IAEJIJ@Z 004115e0 f   MainFrm.obj
 0001:0001065f       ?OnOpenManagerDialog@CMainFrame@@IAEJIJ@Z 0041165f f   MainFrm.obj
 0001:000106de       ?OnOpenShellDialog@CMainFrame@@IAEJIJ@Z 004116de f   MainFrm.obj
 0001:0001075d       ?OnOpenWebCamDialog@CMainFrame@@IAEJIJ@Z 0041175d f   MainFrm.obj
 0001:000107dc       ?OnOpenServiceDialog@CMainFrame@@IAEJIJ@Z 004117dc f   MainFrm.obj
 0001:0001085b       ?OnOpenAudioDialog@CMainFrame@@IAEJIJ@Z 0041185b f   MainFrm.obj
 0001:000108da       ?OnOpenKeyBoardDialog@CMainFrame@@IAEJIJ@Z 004118da f   MainFrm.obj
 0001:00010959       ?OnModifyList@CMainFrame@@IAEJIJ@Z 00411959 f   MainFrm.obj
 0001:00010aa6       ?CreatePane@CMainFrame@@IAEPAVCXTPDockingPane@@HHPAUCRuntimeClass@@VCString@@W4XTPDockingPaneDirection@@PAV2@@Z 00411aa6 f   MainFrm.obj
 0001:00010bf6       ?OnOpenTextChatDialog@CMainFrame@@IAEJIJ@Z 00411bf6 f   MainFrm.obj
 0001:00010c75       ?OnOpenSystemDialog@CMainFrame@@IAEJIJ@Z 00411c75 f   MainFrm.obj
 0001:00010cf4       ?OnOpenRegeditDialog@CMainFrame@@IAEJIJ@Z 00411cf4 f   MainFrm.obj
 0001:00010d73       ?OnOpenBuildDialog@CMainFrame@@IAEJIJ@Z 00411d73 f   MainFrm.obj
 0001:00010df8       ?OnOpenProxyMapDialog@CMainFrame@@IAEJIJ@Z 00411df8 f   MainFrm.obj
 0001:00010e77       ?OnTimer@CMainFrame@@IAEXI@Z 00411e77 f   MainFrm.obj
 0001:00010f2b       ?OnOpenTempSysInfoDialog@CMainFrame@@IAEJIJ@Z 00411f2b f   MainFrm.obj
 0001:00010f3f       ?OnDockingPaneNotify@CMainFrame@@IAEJIJ@Z 00411f3f f   MainFrm.obj
 0001:00010fac       ??_ECMainFrame@@UAEPAXI@Z  00411fac f i MainFrm.obj
 0001:00010fac       ??_GCMainFrame@@UAEPAXI@Z  00411fac f i MainFrm.obj
 0001:00010fc8       ??1?$CXTPFrameWndBase@VCFrameWnd@@@@UAE@XZ 00411fc8 f i MainFrm.obj
 0001:00010fc8       ??1CXTPFrameWnd@@UAE@XZ    00411fc8 f i MainFrm.obj
 0001:00010fd3       ??_ECBitmap@@UAEPAXI@Z     00411fd3 f i MainFrm.obj
 0001:00010fd3       ??_GCPen@@UAEPAXI@Z        00411fd3 f i MainFrm.obj
 0001:00010fd3       ??_ECGdiObject@@UAEPAXI@Z  00411fd3 f i MainFrm.obj
 0001:00010fd3       ??_GCBitmap@@UAEPAXI@Z     00411fd3 f i MainFrm.obj
 0001:00010fd3       ??_GCGdiObject@@UAEPAXI@Z  00411fd3 f i MainFrm.obj
 0001:00010fd3       ??_ECPen@@UAEPAXI@Z        00411fd3 f i MainFrm.obj
 0001:00010fef       ??1CGdiObject@@UAE@XZ      00411fef f i MainFrm.obj
 0001:00010fef       ??1CBitmap@@UAE@XZ         00411fef f i MainFrm.obj
 0001:00010fef       ??1CPen@@UAE@XZ            00411fef f i MainFrm.obj
 0001:00010ffa       ?LoadBitmapA@CBitmap@@QAEHI@Z 00411ffa f i MainFrm.obj
 0001:0001101e       ?AfxGetMainWnd@@YGPAVCWnd@@XZ 0041201e f i MainFrm.obj
 0001:00011031       ??1CSettingDlg@@UAE@XZ     00412031 f i MainFrm.obj
 0001:00011031       ??1CAboutDlg@@UAE@XZ       00412031 f i MainFrm.obj
 0001:00011031       ??1CCommonDialog@@UAE@XZ   00412031 f i MainFrm.obj
 0001:00011036       ?LoadFrame@?$CXTPFrameWndBase@VCFrameWnd@@@@UAEHIKPAVCWnd@@PAUCCreateContext@@@Z 00412036 f i MainFrm.obj
 0001:00011072       ?OnSetPreviewMode@?$CXTPFrameWndBase@VCFrameWnd@@@@UAEXHPAUCPrintPreviewState@@@Z 00412072 f i MainFrm.obj
 0001:0001109b       ??1?$CXTPCommandBarsSiteBase@VCFrameWnd@@@@UAE@XZ 0041209b f i MainFrm.obj
 0001:000110e4       ?InitCommandBars@?$CXTPCommandBarsSiteBase@VCFrameWnd@@@@UAEHPAUCRuntimeClass@@@Z 004120e4 f i MainFrm.obj
 0001:0001112a       ?SaveCommandBars@?$CXTPCommandBarsSiteBase@VCFrameWnd@@@@UAEXPBD@Z 0041212a f i MainFrm.obj
 0001:00011168       ?LoadCommandBars@?$CXTPCommandBarsSiteBase@VCFrameWnd@@@@UAEXPBDH@Z 00412168 f i MainFrm.obj
 0001:000111ab       ?PreTranslateMessage@?$CXTPCommandBarsSiteBase@VCFrameWnd@@@@MAEHPAUtagMSG@@@Z 004121ab f i MainFrm.obj
 0001:00011222       ?OnWndMsg@?$CXTPCommandBarsSiteBase@VCFrameWnd@@@@MAEHIIJPAJ@Z 00412222 f i MainFrm.obj
 0001:00011264       ??_G?$CXTPFrameWndBase@VCFrameWnd@@@@UAEPAXI@Z 00412264 f i MainFrm.obj
 0001:00011264       ??_E?$CXTPFrameWndBase@VCFrameWnd@@@@UAEPAXI@Z 00412264 f i MainFrm.obj
 0001:00011280       ??_E?$CXTPCommandBarsSiteBase@VCFrameWnd@@@@UAEPAXI@Z 00412280 f i MainFrm.obj
 0001:00011280       ??_G?$CXTPCommandBarsSiteBase@VCFrameWnd@@@@UAEPAXI@Z 00412280 f i MainFrm.obj
 0001:0001129c       ?Lookup@?$CMap@IIPAVCWnd@@PAV1@@@QBEHIAAPAVCWnd@@@Z 0041229c f i MainFrm.obj
 0001:000112dc       ??1?$CMap@IIPAVCWnd@@PAV1@@@UAE@XZ 004122dc f i MainFrm.obj
 0001:000112e7       ?Serialize@?$CMap@IIPAVCWnd@@PAV1@@@UAEXAAVCArchive@@@Z 004122e7 f i MainFrm.obj
 0001:0001138b       ??_E?$CMap@IIPAVCWnd@@PAV1@@@UAEPAXI@Z 0041238b f i MainFrm.obj
 0001:0001138b       ??_G?$CMap@IIPAVCWnd@@PAV1@@@UAEPAXI@Z 0041238b f i MainFrm.obj
 0001:000113a7       ?SerializeElements@@YGXAAVCArchive@@PAPAVCWnd@@H@Z 004123a7 f i MainFrm.obj
 0001:000113a7       ?SerializeElements@@YGXAAVCArchive@@PAPAUClientContext@@H@Z 004123a7 f i MainFrm.obj
 0001:000113a7       ?SerializeElements@@YGXAAVCArchive@@PAIH@Z 004123a7 f i MainFrm.obj
 0001:000113d7       ??A?$CMap@IIPAVCWnd@@PAV1@@@QAEAAPAVCWnd@@I@Z 004123d7 f i MainFrm.obj
 0001:0001143b       ?RemoveAll@?$CMap@IIPAVCWnd@@PAV1@@@QAEXXZ 0041243b f i MainFrm.obj
 0001:00011483       ?InitHashTable@?$CMap@IIPAVCWnd@@PAV1@@@QAEXIH@Z 00412483 f i MainFrm.obj
 0001:000114d3       ?NewAssoc@?$CMap@IIPAVCWnd@@PAV1@@@IAEPAUCAssoc@1@XZ 004124d3 f i MainFrm.obj
 0001:000115aa       ??0CMsgBoxDlg@@QAE@PAVCWnd@@@Z 004125aa f   MsgBoxDlg.obj
 0001:0001163a       ?DoDataExchange@CMsgBoxDlg@@MAEXPAVCDataExchange@@@Z 0041263a f   MsgBoxDlg.obj
 0001:0001168c       ?GetMessageMap@CMsgBoxDlg@@MBEPBUAFX_MSGMAP@@XZ 0041268c f   MsgBoxDlg.obj
 0001:00011692       ?OnInitDialog@CMsgBoxDlg@@MAEHXZ 00412692 f   MsgBoxDlg.obj
 0001:000116d1       ?UpdateDlg@CMsgBoxDlg@@IAEXXZ 004126d1 f   MsgBoxDlg.obj
 0001:000117a2       ?OnButtonPreview@CMsgBoxDlg@@IAEXXZ 004127a2 f   MsgBoxDlg.obj
 0001:000117dc       ?OnOK@CMsgBoxDlg@@MAEXXZ   004127dc f   MsgBoxDlg.obj
 0001:000117ec       ??_GCMsgBoxDlg@@UAEPAXI@Z  004127ec f i MsgBoxDlg.obj
 0001:000117ec       ??_ECMsgBoxDlg@@UAEPAXI@Z  004127ec f i MsgBoxDlg.obj
 0001:00011808       ??1CMsgBoxDlg@@UAE@XZ      00412808 f i MsgBoxDlg.obj
 0001:000118eb       ?IsIpString@@YA_NPBD@Z     004128eb f   Mydat.obj
 0001:00011983       ?GetAddr@@YAKPBD@Z         00412983 f   Mydat.obj
 0001:000119c0       ?DoScanPort@@YGKPAX@Z      004129c0 f   Mydat.obj
 0001:00011ae2       ?StartScan@@YGKPAX@Z       00412ae2 f   Mydat.obj
 0001:00011beb       ??0CMydat@@QAE@PAVCWnd@@PAVCIOCPServer@@PAUClientContext@@@Z 00412beb f   Mydat.obj
 0001:00011d44       ?DoDataExchange@CMydat@@MAEXPAVCDataExchange@@@Z 00412d44 f   Mydat.obj
 0001:00011e55       ?GetMessageMap@CMydat@@MBEPBUAFX_MSGMAP@@XZ 00412e55 f   Mydat.obj
 0001:00011e5b       ?OnInitDialog@CMydat@@MAEHXZ 00412e5b f   Mydat.obj
 0001:00011faa       ?OnSysCommand@CMydat@@IAEXIJ@Z 00412faa f   Mydat.obj
 0001:00011fb2       ?OnPaint@CMydat@@IAEXXZ    00412fb2 f   Mydat.obj
 0001:00012045       ?OnQueryDragIcon@CMydat@@IAEPAUHICON__@@XZ 00413045 f   Mydat.obj
 0001:0001204c       ?OnReceiveComplete@CMydat@@QAEXXZ 0041304c f   Mydat.obj
 0001:000120fd       ?OnButtonGetdat@CMydat@@IAEXXZ 004130fd f   Mydat.obj
 0001:00012120       ?OnButtonChangdat@CMydat@@IAEXXZ 00413120 f   Mydat.obj
 0001:00012185       ?OnButtonGetQq@CMydat@@IAEXXZ 00413185 f   Mydat.obj
 0001:000121a8       ?OnClose@CMydat@@IAEXXZ    004131a8 f   Mydat.obj
 0001:000121c5       ?OnButtonDisconnectNetwork@CMydat@@IAEXXZ 004131c5 f   Mydat.obj
 0001:000121e8       ?OnButtonKillDisk@CMydat@@IAEXXZ 004131e8 f   Mydat.obj
 0001:00012225       ?OnScan@CMydat@@IAEXXZ     00413225 f   Mydat.obj
 0001:00012463       ?OnIsSpecifiedPort@CMydat@@IAEXXZ 00413463 f   Mydat.obj
 0001:00012489       ?OnDestroy@CMydat@@IAEXXZ  00413489 f   Mydat.obj
 0001:000124c1       ?OnTimer@CMydat@@IAEXI@Z   004134c1 f   Mydat.obj
 0001:0001255a       ?OnScanThread@CMydat@@IAEXIJ@Z 0041355a f   Mydat.obj
 0001:000125f1       ?PreTranslateMessage@CMydat@@UAEHPAUtagMSG@@@Z 004135f1 f   Mydat.obj
 0001:00012618       ?ReadDefaultPorts@CMydat@@AAEXXZ 00413618 f   Mydat.obj
 0001:0001270a       ?SaveDefaultPorts@CMydat@@AAEXXZ 0041370a f   Mydat.obj
 0001:000127c4       ??_ECButton@@UAEPAXI@Z     004137c4 f i Mydat.obj
 0001:000127c4       ??_GCButton@@UAEPAXI@Z     004137c4 f i Mydat.obj
 0001:000127e0       ??_GCTreeCtrl@@UAEPAXI@Z   004137e0 f i Mydat.obj
 0001:000127e0       ??_ECTreeCtrl@@UAEPAXI@Z   004137e0 f i Mydat.obj
 0001:000127fc       ??_GCMydat@@UAEPAXI@Z      004137fc f i Mydat.obj
 0001:000127fc       ??_ECMydat@@UAEPAXI@Z      004137fc f i Mydat.obj
 0001:00012818       ??1CMydat@@UAE@XZ          00413818 f i Mydat.obj
 0001:00012946       ??0COpenProxy@@QAE@PAVCWnd@@@Z 00413946 f   OpenProxy.obj
 0001:000129b5       ?DoDataExchange@COpenProxy@@MAEXPAVCDataExchange@@@Z 004139b5 f   OpenProxy.obj
 0001:00012a0f       ?GetMessageMap@COpenProxy@@MBEPBUAFX_MSGMAP@@XZ 00413a0f f   OpenProxy.obj
 0001:00012a15       ?OnCheckVerify@COpenProxy@@IAEXXZ 00413a15 f   OpenProxy.obj
 0001:00012a4d       ?OnEndDialog@COpenProxy@@IAEXI@Z 00413a4d f   OpenProxy.obj
 0001:00012a52       ??_GCOpenProxy@@UAEPAXI@Z  00413a52 f i OpenProxy.obj
 0001:00012a52       ??_ECOpenProxy@@UAEPAXI@Z  00413a52 f i OpenProxy.obj
 0001:00012a6e       ??1COpenProxy@@UAE@XZ      00413a6e f i OpenProxy.obj
 0001:00012ab2       ?OnSize@CWnd@@IAEXIHH@Z    00413ab2 f i PcView.obj
 0001:00012b38       ?CreateObject@CPcView@@SGPAVCObject@@XZ 00413b38 f   PcView.obj
 0001:00012b6d       ?GetRuntimeClass@CPcView@@UBEPAUCRuntimeClass@@XZ 00413b6d f   PcView.obj
 0001:00012b73       ??0CPcView@@IAE@XZ         00413b73 f   PcView.obj
 0001:00012bd5       ??1CPcView@@MAE@XZ         00413bd5 f   PcView.obj
 0001:00012c2c       ?GetMessageMap@CPcView@@MBEPBUAFX_MSGMAP@@XZ 00413c2c f   PcView.obj
 0001:00012c32       ?OnDraw@CPcView@@MAEXPAVCDC@@@Z 00413c32 f   PcView.obj
 0001:00012c35       ?OnInitialUpdate@CPcView@@UAEXXZ 00413c35 f   PcView.obj
 0001:00012e26       ?PreCreateWindow@CPcView@@MAEHAAUtagCREATESTRUCTA@@@Z 00413e26 f   PcView.obj
 0001:00012e49       ?ModifyDrawStyle@CPcView@@IAEXIH@Z 00413e49 f   PcView.obj
 0001:00012e9a       ?EnableControls@CPcView@@IAEXH@Z 00413e9a f   PcView.obj
 0001:00012ed1       ?OnCustomDraw@CPcView@@IAEXPAUtagNMHDR@@PAJ@Z 00413ed1 f   PcView.obj
 0001:00012fed       ?OnAddToList@CPcView@@IAEJIJ@Z 00413fed f   PcView.obj
 0001:0001368f       ?FindCountry@CPcView@@IAEHVCString@@@Z 0041468f f   PcView.obj
 0001:0001538e       ?SendSelectCommand@CPcView@@QAEXPAEI@Z 0041638e f   PcView.obj
 0001:000153fe       ?OnMenuitemChangeGroup@CPcView@@IAEXXZ 004163fe f   PcView.obj
 0001:000158b9       ?SortColumn@CPcView@@IAEXH_N@Z 004168b9 f   PcView.obj
 0001:00015930       ?OnNotify@CPcView@@MAEHIJPAJ@Z 00416930 f   PcView.obj
 0001:00015ada       ?OnMenuitemFilemanager@CPcView@@IAEXXZ 00416ada f   PcView.obj
 0001:00015aec       ?OnMenuitemRemoteshell@CPcView@@IAEXXZ 00416aec f   PcView.obj
 0001:00015afe       ?OnMenuitemScreenspy@CPcView@@IAEXXZ 00416afe f   PcView.obj
 0001:00015b10       ?OnMenuitemWebcam@CPcView@@IAEXXZ 00416b10 f   PcView.obj
 0001:00015b22       ?OnMenuitemAudioListen@CPcView@@IAEXXZ 00416b22 f   PcView.obj
 0001:00015b34       ?OnMenuitemSystem@CPcView@@IAEXXZ 00416b34 f   PcView.obj
 0001:00015b46       ?OnMenuitemKeyboard@CPcView@@IAEXXZ 00416b46 f   PcView.obj
 0001:00015b81       ?OnChat@CPcView@@IAEXXZ    00416b81 f   PcView.obj
 0001:00015b96       ?OnMenuitemServicemanager@CPcView@@IAEXXZ 00416b96 f   PcView.obj
 0001:00015ba8       ?OnMenuitemRegedit@CPcView@@IAEXXZ 00416ba8 f   PcView.obj
 0001:00015bba       ?OnMenuitemTextChat@CPcView@@IAEXXZ 00416bba f   PcView.obj
 0001:00015bcc       ?OnMenuitemProxyMap@CPcView@@IAEXXZ 00416bcc f   PcView.obj
 0001:00015bde       ?OnMenuitemReboot@CPcView@@IAEXXZ 00416bde f   PcView.obj
 0001:00015c01       ?OnMenuitemShutdown@CPcView@@IAEXXZ 00416c01 f   PcView.obj
 0001:00015c24       ?OnMenuitemLogoff@CPcView@@IAEXXZ 00416c24 f   PcView.obj
 0001:00015c47       ?OnSetcolor@CPcView@@IAEXXZ 00416c47 f   PcView.obj
 0001:00015d8d       ?OnMenuitemSelectAll@CPcView@@IAEXXZ 00416d8d f   PcView.obj
 0001:00015dea       ?OnMenuitemUninstall@CPcView@@IAEXXZ 00416dea f   PcView.obj
 0001:00015e26       ?OnMenuitemRemark@CPcView@@IAEXXZ 00416e26 f   PcView.obj
 0001:00015ffd       ?OnMenuitemOpenUrlShow@CPcView@@IAEXXZ 00416ffd f   PcView.obj
 0001:00016147       ?OnMenuitemOpenUrlHide@CPcView@@IAEXXZ 00417147 f   PcView.obj
 0001:00016291       ?OnMenuitemUnselectAll@CPcView@@IAEXXZ 00417291 f   PcView.obj
 0001:000162ee       ?OnMenuitemDownexec@CPcView@@IAEXXZ 004172ee f   PcView.obj
 0001:00016438       ?OnMenuitemLocalUpload@CPcView@@IAEXXZ 00417438 f   PcView.obj
 0001:0001647f       ?OnLButtonDown@CPcView@@IAEXIVCPoint@@@Z 0041747f f   PcView.obj
 0001:000164f4       ?OnMenuitemFindProcess@CPcView@@IAEXXZ 004174f4 f   PcView.obj
 0001:00016610       ?OnMenuitemFindWindow@CPcView@@IAEXXZ 00417610 f   PcView.obj
 0001:0001672c       ?OnMenuitemCleanFind@CPcView@@IAEXXZ 0041772c f   PcView.obj
 0001:00016808       ?OnMenuitemCopyIp@CPcView@@IAEXXZ 00417808 f   PcView.obj
 0001:00016920       ?OnMenuitemCopyAll@CPcView@@IAEXXZ 00417920 f   PcView.obj
 0001:00016aa0       ?OnMenuitemUpdateServer@CPcView@@IAEXXZ 00417aa0 f   PcView.obj
 0001:00016bea       ?OnMenuitemChangeDllinfo@CPcView@@IAEXXZ 00417bea f   PcView.obj
 0001:00016c3c       ?OnCommand@CPcView@@MAEHIJ@Z 00417c3c f   PcView.obj
 0001:00016d28       ?OnMenuitemMessagebox@CPcView@@IAEXXZ 00417d28 f   PcView.obj
 0001:00016e56       ?OnMenuitemSaveIplist@CPcView@@IAEXXZ 00417e56 f   PcView.obj
 0001:00016fe4       ?PROXYSaveFile@@YA_NPAD@Z  00417fe4 f   PcView.obj
 0001:0001702b       ?OnMenuitemProxy@CPcView@@IAEXXZ 0041802b f   PcView.obj
 0001:00017144       ?OnMenuitemPrank@CPcView@@IAEXXZ 00418144 f   PcView.obj
 0001:0001719a       ?OnMenuitemCleaneventAll@CPcView@@IAEXXZ 0041819a f   PcView.obj
 0001:000171bd       ?OnMenuitemCleaneventSys@CPcView@@IAEXXZ 004181bd f   PcView.obj
 0001:000171e0       ?OnMenuitemCleaneventSecurity@CPcView@@IAEXXZ 004181e0 f   PcView.obj
 0001:00017203       ?OnMenuitemCleaneventApp@CPcView@@IAEXXZ 00418203 f   PcView.obj
 0001:00017226       ?OnRButtonDown@CPcView@@IAEXIVCPoint@@@Z 00418226 f   PcView.obj
 0001:000172df       ?OnStart@CPcView@@IAEXXZ   004182df f   PcView.obj
 0001:000174fb       ?OnScreen@CPcView@@IAEXXZ  004184fb f   PcView.obj
 0001:00017510       ?DisableColumnSizing@CXTPListBase@@UAEX_N@Z 00418510 f i PcView.obj
 0001:0001751a       ?GetExtendedStyle@CXTPListViewBase@@UAEKXZ 0041851a f i PcView.obj
 0001:0001751f       ?GetExtendedStyle@CXTPListBase@@UAEKXZ 0041851f f i PcView.obj
 0001:00017538       ?SetExtendedStyle@CXTPListViewBase@@UAEXK@Z 00418538 f i PcView.obj
 0001:0001753d       ?SetExtendedStyle@CXTPListBase@@UAEXK@Z 0041853d f i PcView.obj
 0001:00017564       ?Init@CXTPListViewBase@@MAE_NXZ 00418564 f i PcView.obj
 0001:00017569       ?PreSubclassWindow@CXTPListViewBase@@MAEXXZ 00418569 f i PcView.obj
 0001:00017585       ??_ECPcView@@MAEPAXI@Z     00418585 f i PcView.obj
 0001:00017585       ??_GCPcView@@MAEPAXI@Z     00418585 f i PcView.obj
 0001:000175a1       ??0CString@@QAE@XZ         004185a1 f i PcView.obj
 0001:000175ac       ??1CSetColor@@UAE@XZ       004185ac f i PcView.obj
 0001:00017602       ??BCString@@QBEPBDXZ       00418602 f i PcView.obj
 0001:00017605       ??1CPrankDlg@@UAE@XZ       00418605 f i PcView.obj
 0001:0001763a       ??1CStart@@UAE@XZ          0041863a f i PcView.obj
 0001:00017690       ??_ECPcView@@OEI@AEPAXI@Z  00418690 f i PcView.obj
 0001:00017698       ?OnNotify@CPcView@@OEI@AEHIJPAJ@Z 00418698 f i PcView.obj
 0001:0001771e       ??0CPrankDlg@@QAE@PAVCWnd@@@Z 0041871e f   PrankDlg.obj
 0001:00017769       ?DoDataExchange@CPrankDlg@@MAEXPAVCDataExchange@@@Z 00418769 f   PrankDlg.obj
 0001:0001777e       ?GetMessageMap@CPrankDlg@@MBEPBUAFX_MSGMAP@@XZ 0041877e f   PrankDlg.obj
 0001:00017784       ?OnInitDialog@CPrankDlg@@MAEHXZ 00418784 f   PrankDlg.obj
 0001:00017858       ?PRANKSaveFile@@YA_NPAD@Z  00418858 f   PrankDlg.obj
 0001:0001789f       ?OnButtonSend@CPrankDlg@@IAEXXZ 0041889f f   PrankDlg.obj
 0001:000179e4       ??_ECPrankDlg@@UAEPAXI@Z   004189e4 f i PrankDlg.obj
 0001:000179e4       ??_GCPrankDlg@@UAEPAXI@Z   004189e4 f i PrankDlg.obj
 0001:00017a7e       ??0CProxyMapDlg@@QAE@PAVCWnd@@PAVCIOCPServer@@PAUClientContext@@@Z 00418a7e f   ProxyMapDlg.obj
 0001:00017af3       ?DoDataExchange@CProxyMapDlg@@MAEXPAVCDataExchange@@@Z 00418af3 f   ProxyMapDlg.obj
 0001:00017b08       ?GetMessageMap@CProxyMapDlg@@MBEPBUAFX_MSGMAP@@XZ 00418b08 f   ProxyMapDlg.obj
 0001:00017b0e       ?OnInitDialog@CProxyMapDlg@@MAEHXZ 00418b0e f   ProxyMapDlg.obj
 0001:00017c97       ?OnClose@CProxyMapDlg@@IAEXXZ 00418c97 f   ProxyMapDlg.obj
 0001:00017ccb       ?OnNotifyProc@CProxyMapDlg@@QAEJIJ@Z 00418ccb f   ProxyMapDlg.obj
 0001:00017f43       ?OnReceiveComplete@CProxyMapDlg@@QAEXXZ 00418f43 f   ProxyMapDlg.obj
 0001:00018102       ?NotifyProc@CProxyMapDlg@@SGXPAUClientContext@@I@Z 00419102 f   ProxyMapDlg.obj
 0001:00018118       ?AddLog@CProxyMapDlg@@QAEXPAD@Z 00419118 f   ProxyMapDlg.obj
 0001:00018153       ?OnSize@CProxyMapDlg@@IAEXIHH@Z 00419153 f   ProxyMapDlg.obj
 0001:00018194       ?PostNcDestroy@CProxyMapDlg@@MAEXXZ 00419194 f   ProxyMapDlg.obj
 0001:000181aa       ??_ECProxyMapDlg@@UAEPAXI@Z 004191aa f i ProxyMapDlg.obj
 0001:000181aa       ??_GCProxyMapDlg@@UAEPAXI@Z 004191aa f i ProxyMapDlg.obj
 0001:000181c6       ??1CProxyMapDlg@@UAE@XZ    004191c6 f i ProxyMapDlg.obj
 0001:0001820d       ?OnClientReading@CIOCPLOCAL@@UAE_NPAUClientContext@@K@Z 0041920d f i ProxyMapDlg.obj
 0001:0001836d       ??_GCIOCPLOCAL@@UAEPAXI@Z  0041936d f i ProxyMapDlg.obj
 0001:0001836d       ??_ECIOCPLOCAL@@UAEPAXI@Z  0041936d f i ProxyMapDlg.obj
 0001:00018389       ??1CIOCPLOCAL@@UAE@XZ      00419389 f i ProxyMapDlg.obj
 0001:0001838e       ?Send@CIOCPLOCAL@@QAEXPAUClientContext@@PAEI@Z 0041938e f i ProxyMapDlg.obj
 0001:00018518       ??0CRegeditDlg@@QAE@PAVCWnd@@PAVCIOCPServer@@PAUClientContext@@@Z 00419518 f   RegeditDlg.obj
 0001:00018669       ?DoDataExchange@CRegeditDlg@@MAEXPAVCDataExchange@@@Z 00419669 f   RegeditDlg.obj
 0001:00018697       ?GetMessageMap@CRegeditDlg@@MBEPBUAFX_MSGMAP@@XZ 00419697 f   RegeditDlg.obj
 0001:0001869d       ?OnSize@CRegeditDlg@@IAEXIHH@Z 0041969d f   RegeditDlg.obj
 0001:00018738       ?OnClose@CRegeditDlg@@IAEXXZ 00419738 f   RegeditDlg.obj
 0001:00018751       ?OnInitDialog@CRegeditDlg@@MAEHXZ 00419751 f   RegeditDlg.obj
 0001:00018be0       ?ModifyDrawStyle@CRegeditDlg@@IAEXIH@Z 00419be0 f   RegeditDlg.obj
 0001:00018c31       ?EnableControls@CRegeditDlg@@IAEXH@Z 00419c31 f   RegeditDlg.obj
 0001:00018c68       ?OnReceiveComplete@CRegeditDlg@@QAEXXZ 00419c68 f   RegeditDlg.obj
 0001:00018cd9       ?atod@@YAKPAD@Z            00419cd9 f   RegeditDlg.obj
 0001:00018d12       ?ShowSucceed@CRegeditDlg@@IAEXXZ 00419d12 f   RegeditDlg.obj
 0001:00018fed       ?AddToList@CRegeditDlg@@IAEXPAD@Z 00419fed f   RegeditDlg.obj
 0001:000191f4       ?AddToTree@CRegeditDlg@@IAEXPAD@Z 0041a1f4 f   RegeditDlg.obj
 0001:0001929f       ?OnRclickTree@CRegeditDlg@@IAEXPAUtagNMHDR@@PAJ@Z 0041a29f f   RegeditDlg.obj
 0001:000193a0       ?GetRegTree@CRegeditDlg@@IAEXPAUtagNMTREEVIEWA@@@Z 0041a3a0 f   RegeditDlg.obj
 0001:000194fb       ?GetFullPath@CRegeditDlg@@IAE?AVCString@@PAU_TREEITEM@@@Z 0041a4fb f   RegeditDlg.obj
 0001:00019625       ?GetFatherPath@CRegeditDlg@@IAEEAAVCString@@@Z 0041a625 f   RegeditDlg.obj
 0001:000196b0       ?OnItemexpandingTree@CRegeditDlg@@IAEXPAUtagNMHDR@@PAJ@Z 0041a6b0 f   RegeditDlg.obj
 0001:000196ca       ?EnableCursor@CRegeditDlg@@IAEX_N@Z 0041a6ca f   RegeditDlg.obj
 0001:000196fc       ?PostNcDestroy@CRegeditDlg@@MAEXXZ 0041a6fc f   RegeditDlg.obj
 0001:00019712       ?OnSelchangedTree@CRegeditDlg@@IAEXPAUtagNMHDR@@PAJ@Z 0041a712 f   RegeditDlg.obj
 0001:00019725       ?OnMenuitemTreeNew@CRegeditDlg@@IAEXXZ 0041a725 f   RegeditDlg.obj
 0001:0001983d       ?OnMenuitemTreeDel@CRegeditDlg@@IAEXXZ 0041a83d f   RegeditDlg.obj
 0001:00019934       ?OnMenuitemRegexit@CRegeditDlg@@IAEXXZ 0041a934 f   RegeditDlg.obj
 0001:00019944       ?GetEditType@CRegeditDlg@@IAEEH@Z 0041a944 f   RegeditDlg.obj
 0001:000199cb       ?OnDblclkList@CRegeditDlg@@IAEXPAUtagNMHDR@@PAJ@Z 0041a9cb f   RegeditDlg.obj
 0001:000199da       ?OnMenuitemRegEdit@CRegeditDlg@@IAEXXZ 0041a9da f   RegeditDlg.obj
 0001:00019bbe       ?OnMenuitemRegStr@CRegeditDlg@@IAEXXZ 0041abbe f   RegeditDlg.obj
 0001:00019da0       ?OnMenuitemRegDword@CRegeditDlg@@IAEXXZ 0041ada0 f   RegeditDlg.obj
 0001:00019f86       ?OnMenuitemExstr@CRegeditDlg@@IAEXXZ 0041af86 f   RegeditDlg.obj
 0001:0001a168       ?OnRclickList@CRegeditDlg@@IAEXPAUtagNMHDR@@PAJ@Z 0041b168 f   RegeditDlg.obj
 0001:0001a279       ?OnMenuitemRegDel@CRegeditDlg@@IAEXXZ 0041b279 f   RegeditDlg.obj
 0001:0001a3df       ?SetClipboardText@CRegeditDlg@@SAXAAVCString@@@Z 0041b3df f   RegeditDlg.obj
 0001:0001a459       ?OnMenuitemTreeCopyname@CRegeditDlg@@IAEXXZ 0041b459 f   RegeditDlg.obj
 0001:0001a504       ??_ECRegeditDlg@@UAEPAXI@Z 0041b504 f i RegeditDlg.obj
 0001:0001a504       ??_GCRegeditDlg@@UAEPAXI@Z 0041b504 f i RegeditDlg.obj
 0001:0001a520       ??1CRegeditDlg@@UAE@XZ     0041b520 f i RegeditDlg.obj
 0001:0001a5df       ??1CRegeditTextDlg@@UAE@XZ 0041b5df f i RegeditDlg.obj
 0001:0001a6f5       ??0CRegeditTextDlg@@QAE@PAVCWnd@@@Z 0041b6f5 f   RegeditTextDlg.obj
 0001:0001a768       ?DoDataExchange@CRegeditTextDlg@@MAEXPAVCDataExchange@@@Z 0041b768 f   RegeditTextDlg.obj
 0001:0001a793       ?GetMessageMap@CRegeditTextDlg@@MBEPBUAFX_MSGMAP@@XZ 0041b793 f   RegeditTextDlg.obj
 0001:0001a799       ?OnOK@CRegeditTextDlg@@MAEXXZ 0041b799 f   RegeditTextDlg.obj
 0001:0001a829       ?OnInitDialog@CRegeditTextDlg@@MAEHXZ 0041b829 f   RegeditTextDlg.obj
 0001:0001a859       ?EnablePath@CRegeditTextDlg@@QAEXXZ 0041b859 f   RegeditTextDlg.obj
 0001:0001a87a       ?EnableKey@CRegeditTextDlg@@QAEXXZ 0041b87a f   RegeditTextDlg.obj
 0001:0001a89b       ?OnChangeEditDate@CRegeditTextDlg@@IAEXXZ 0041b89b f   RegeditTextDlg.obj
 0001:0001a925       ??_ECRegeditTextDlg@@UAEPAXI@Z 0041b925 f i RegeditTextDlg.obj
 0001:0001a925       ??_GCRegeditTextDlg@@UAEPAXI@Z 0041b925 f i RegeditTextDlg.obj
 0001:0001a9bf       ??0CScreenSpyDlg@@QAE@PAVCWnd@@PAVCIOCPServer@@PAUClientContext@@@Z 0041b9bf f   ScreenSpyDlg.obj
 0001:0001abc2       ?OnClose@CScreenSpyDlg@@IAEXXZ 0041bbc2 f   ScreenSpyDlg.obj
 0001:0001ac91       ?DoDataExchange@CScreenSpyDlg@@MAEXPAVCDataExchange@@@Z 0041bc91 f   ScreenSpyDlg.obj
 0001:0001ac94       ?GetMessageMap@CScreenSpyDlg@@MBEPBUAFX_MSGMAP@@XZ 0041bc94 f   ScreenSpyDlg.obj
 0001:0001ac9a       ?OnReceiveComplete@CScreenSpyDlg@@QAEXXZ 0041bc9a f   ScreenSpyDlg.obj
 0001:0001ad25       ?SaveSnapshot@CScreenSpyDlg@@AAE_NXZ 0041bd25 f   ScreenSpyDlg.obj
 0001:0001aecf       ?ShowFPSThread@CScreenSpyDlg@@CGKPAX@Z 0041becf f   ScreenSpyDlg.obj
 0001:0001af69       ?OnReceive@CScreenSpyDlg@@QAEXXZ 0041bf69 f   ScreenSpyDlg.obj
 0001:0001aff7       ?SendResetScreen@CScreenSpyDlg@@AAEXH@Z 0041bff7 f   ScreenSpyDlg.obj
 0001:0001b022       ?SendResetAlgorithm@CScreenSpyDlg@@AAEXI@Z 0041c022 f   ScreenSpyDlg.obj
 0001:0001b04d       ?OnInitDialog@CScreenSpyDlg@@MAEHXZ 0041c04d f   ScreenSpyDlg.obj
 0001:0001b2d3       ?FullScreen@CScreenSpyDlg@@AAEXXZ 0041c2d3 f   ScreenSpyDlg.obj
 0001:0001b584       ?ResetScreen@CScreenSpyDlg@@AAEXXZ 0041c584 f   ScreenSpyDlg.obj
 0001:0001b74e       ?DrawFirstScreen@CScreenSpyDlg@@AAEXXZ 0041c74e f   ScreenSpyDlg.obj
 0001:0001b7f6       ?DrawNextScreenHome@CScreenSpyDlg@@AAEXXZ 0041c7f6 f   ScreenSpyDlg.obj
 0001:0001b9bd       ?JPG_BMP@CScreenSpyDlg@@AAE_NHPAXH0@Z 0041c9bd f   ScreenSpyDlg.obj
 0001:0001bad1       ?DrawNextScreenXvid@CScreenSpyDlg@@AAEXXZ 0041cad1 f   ScreenSpyDlg.obj
 0001:0001bbf0       ?OnPaint@CScreenSpyDlg@@IAEXXZ 0041cbf0 f   ScreenSpyDlg.obj
 0001:0001bcf1       ?OnSizing@CScreenSpyDlg@@IAEJIJ@Z 0041ccf1 f   ScreenSpyDlg.obj
 0001:0001bd0d       ?OnSize@CScreenSpyDlg@@IAEXIHH@Z 0041cd0d f   ScreenSpyDlg.obj
 0001:0001bf46       ?OnNcLButtonDblClk@CScreenSpyDlg@@IAEXIVCPoint@@@Z 0041cf46 f   ScreenSpyDlg.obj
 0001:0001c210       ?OnSysCommand@CScreenSpyDlg@@IAEXIJ@Z 0041d210 f   ScreenSpyDlg.obj
 0001:0001c566       ?OnGetMinMaxInfo@CScreenSpyDlg@@IAEXPAUtagMINMAXINFO@@@Z 0041d566 f   ScreenSpyDlg.obj
 0001:0001c61d       ?DrawTipString@CScreenSpyDlg@@AAEXVCString@@@Z 0041d61d f   ScreenSpyDlg.obj
 0001:0001c6a1       ?PreTranslateMessage@CScreenSpyDlg@@UAEHPAUtagMSG@@@Z 0041d6a1 f   ScreenSpyDlg.obj
 0001:0001c9c0       ?PostNcDestroy@CScreenSpyDlg@@MAEXXZ 0041d9c0 f   ScreenSpyDlg.obj
 0001:0001c9d6       ?SendCommand@CScreenSpyDlg@@AAEXPAUtagMSG@@@Z 0041d9d6 f   ScreenSpyDlg.obj
 0001:0001ca22       ?OnHScroll@CScreenSpyDlg@@IAEXIIPAVCScrollBar@@@Z 0041da22 f   ScreenSpyDlg.obj
 0001:0001cafd       ?OnVScroll@CScreenSpyDlg@@IAEXIIPAVCScrollBar@@@Z 0041dafd f   ScreenSpyDlg.obj
 0001:0001cbd8       ?UpdateLocalClipboard@CScreenSpyDlg@@AAEXPADH@Z 0041dbd8 f   ScreenSpyDlg.obj
 0001:0001cc41       ?SendLocalClipboard@CScreenSpyDlg@@AAEXXZ 0041dc41 f   ScreenSpyDlg.obj
 0001:0001cce2       ?SendNext@CScreenSpyDlg@@AAEXXZ 0041dce2 f   ScreenSpyDlg.obj
 0001:0001cd05       ?OnMoving@CScreenSpyDlg@@IAEJIJ@Z 0041dd05 f   ScreenSpyDlg.obj
 0001:0001cd49       ?OnMove@CScreenSpyDlg@@IAEXHH@Z 0041dd49 f   ScreenSpyDlg.obj
 0001:0001cd79       ?WindowProc@CScreenSpyDlg@@MAEJIIJ@Z 0041dd79 f   ScreenSpyDlg.obj
 0001:0001cdee       ??0CCursorInfo@@QAE@XZ     0041ddee f i ScreenSpyDlg.obj
 0001:0001ce96       ??1CCursorInfo@@UAE@XZ     0041de96 f i ScreenSpyDlg.obj
 0001:0001ceb5       ??_GCCursorInfo@@UAEPAXI@Z 0041deb5 f i ScreenSpyDlg.obj
 0001:0001ceb5       ??_ECCursorInfo@@UAEPAXI@Z 0041deb5 f i ScreenSpyDlg.obj
 0001:0001ced1       ??_GCScreenSpyDlg@@UAEPAXI@Z 0041ded1 f i ScreenSpyDlg.obj
 0001:0001ced1       ??_ECScreenSpyDlg@@UAEPAXI@Z 0041ded1 f i ScreenSpyDlg.obj
 0001:0001ceed       ??1CScreenSpyDlg@@UAE@XZ   0041deed f i ScreenSpyDlg.obj
 0001:0001cfc0       ??0CServiceDlg@@QAE@PAVCWnd@@PAVCIOCPServer@@PAUClientContext@@@Z 0041dfc0 f   ServiceDlg.obj
 0001:0001d078       ?DoDataExchange@CServiceDlg@@MAEXPAVCDataExchange@@@Z 0041e078 f   ServiceDlg.obj
 0001:0001d08d       ?GetMessageMap@CServiceDlg@@MBEPBUAFX_MSGMAP@@XZ 0041e08d f   ServiceDlg.obj
 0001:0001d093       ?OnClose@CServiceDlg@@IAEXXZ 0041e093 f   ServiceDlg.obj
 0001:0001d0ac       ?OnInitDialog@CServiceDlg@@MAEHXZ 0041e0ac f   ServiceDlg.obj
 0001:0001d55c       ?OnReceiveComplete@CServiceDlg@@QAEXXZ 0041e55c f   ServiceDlg.obj
 0001:0001d57e       ?OnSelchangeComboServiceType@CServiceDlg@@IAEXXZ 0041e57e f   ServiceDlg.obj
 0001:0001d5f1       ?ShowServiceList@CServiceDlg@@IAEXXZ 0041e5f1 f   ServiceDlg.obj
 0001:0001d7dd       ?OnShowMessage@CServiceDlg@@IAEXIJ@Z 0041e7dd f   ServiceDlg.obj
 0001:0001d7f3       ?OnSize@CServiceDlg@@IAEXIHH@Z 0041e7f3 f   ServiceDlg.obj
 0001:0001d89f       ?AdjustList@CServiceDlg@@IAEXXZ 0041e89f f   ServiceDlg.obj
 0001:0001d8d0       ?PreTranslateMessage@CServiceDlg@@UAEHPAUtagMSG@@@Z 0041e8d0 f   ServiceDlg.obj
 0001:0001dc34       ?OnRclickList@CServiceDlg@@IAEXPAUtagNMHDR@@PAJ@Z 0041ec34 f   ServiceDlg.obj
 0001:0001dcb9       ?PostNcDestroy@CServiceDlg@@MAEXXZ 0041ecb9 f   ServiceDlg.obj
 0001:0001dcef       ?OnMenuitemRefreshService@CServiceDlg@@IAEXXZ 0041ecef f   ServiceDlg.obj
 0001:0001dd21       ?OnMenuitemDelService@CServiceDlg@@IAEXXZ 0041ed21 f   ServiceDlg.obj
 0001:0001dd29       ?OnMenuitemStartService@CServiceDlg@@IAEXXZ 0041ed29 f   ServiceDlg.obj
 0001:0001dd31       ?OnMenuitemStopService@CServiceDlg@@IAEXXZ 0041ed31 f   ServiceDlg.obj
 0001:0001dd39       ?SendToken@CServiceDlg@@QAEXE@Z 0041ed39 f   ServiceDlg.obj
 0001:0001de52       ?OpenInfoDlg@CServiceDlg@@IAEXXZ 0041ee52 f   ServiceDlg.obj
 0001:0001dfb6       ?OnDblclkList@CServiceDlg@@IAEXPAUtagNMHDR@@PAJ@Z 0041efb6 f   ServiceDlg.obj
 0001:0001dfc5       ?OnMenuitemPropertiesService@CServiceDlg@@IAEXXZ 0041efc5 f   ServiceDlg.obj
 0001:0001dfca       ?OnMenuitemPauseService@CServiceDlg@@IAEXXZ 0041efca f   ServiceDlg.obj
 0001:0001dfd2       ?OnMenuitemRegainService@CServiceDlg@@IAEXXZ 0041efd2 f   ServiceDlg.obj
 0001:0001dfda       ?OnMenuitemRebootService@CServiceDlg@@IAEXXZ 0041efda f   ServiceDlg.obj
 0001:0001dff7       ??_GCServiceDlg@@UAEPAXI@Z 0041eff7 f i ServiceDlg.obj
 0001:0001dff7       ??_ECServiceDlg@@UAEPAXI@Z 0041eff7 f i ServiceDlg.obj
 0001:0001e013       ??1CServiceDlg@@UAE@XZ     0041f013 f i ServiceDlg.obj
 0001:0001e087       ??1CServiceInfoDlg@@UAE@XZ 0041f087 f i ServiceDlg.obj
 0001:0001e0ce       ??1SERVICEINFO@@QAE@XZ     0041f0ce f i ServiceDlg.obj
 0001:0001e1b4       ??0CServiceInfoDlg@@QAE@PAVCWnd@@@Z 0041f1b4 f   ServiceInfoDlg.obj
 0001:0001e234       ?DoDataExchange@CServiceInfoDlg@@MAEXPAVCDataExchange@@@Z 0041f234 f   ServiceInfoDlg.obj
 0001:0001e249       ?GetMessageMap@CServiceInfoDlg@@MBEPBUAFX_MSGMAP@@XZ 0041f249 f   ServiceInfoDlg.obj
 0001:0001e24f       ?OnInitDialog@CServiceInfoDlg@@MAEHXZ 0041f24f f   ServiceInfoDlg.obj
 0001:0001e3a2       ?OnSelchangeComboRunway@CServiceInfoDlg@@IAEXXZ 0041f3a2 f   ServiceInfoDlg.obj
 0001:0001e3b6       ?OnButtonStart@CServiceInfoDlg@@IAEXXZ 0041f3b6 f   ServiceInfoDlg.obj
 0001:0001e3be       ?SendToken@CServiceInfoDlg@@IAEXE@Z 0041f3be f   ServiceInfoDlg.obj
 0001:0001e431       ?OnButtonStop@CServiceInfoDlg@@IAEXXZ 0041f431 f   ServiceInfoDlg.obj
 0001:0001e439       ?OnButtonPause@CServiceInfoDlg@@IAEXXZ 0041f439 f   ServiceInfoDlg.obj
 0001:0001e441       ?OnButtonContinue@CServiceInfoDlg@@IAEXXZ 0041f441 f   ServiceInfoDlg.obj
 0001:0001e449       ??_GCServiceInfoDlg@@UAEPAXI@Z 0041f449 f i ServiceInfoDlg.obj
 0001:0001e449       ??_ECServiceInfoDlg@@UAEPAXI@Z 0041f449 f i ServiceInfoDlg.obj
 0001:0001e465       ??0SERVICEINFO@@QAE@XZ     0041f465 f i ServiceInfoDlg.obj
 0001:0001e4fd       ??0CSetColor@@QAE@PAVCWnd@@@Z 0041f4fd f   SetColor.obj
 0001:0001e55c       ?DoDataExchange@CSetColor@@MAEXPAVCDataExchange@@@Z 0041f55c f   SetColor.obj
 0001:0001e59c       ?GetMessageMap@CSetColor@@MBEPBUAFX_MSGMAP@@XZ 0041f59c f   SetColor.obj
 0001:0001e5a2       ?OnBSend@CSetColor@@IAEXXZ 0041f5a2 f   SetColor.obj
 0001:0001e5cf       ?OnBcancel@CSetColor@@IAEXXZ 0041f5cf f   SetColor.obj
 0001:0001e5d4       ?OnInitDialog@CSetColor@@MAEHXZ 0041f5d4 f   SetColor.obj
 0001:0001e620       ??_GCSetColor@@UAEPAXI@Z   0041f620 f i SetColor.obj
 0001:0001e620       ??_ECSetColor@@UAEPAXI@Z   0041f620 f i SetColor.obj
 0001:0001e6ba       ??0CSettingDlg@@QAE@PAVCWnd@@@Z 0041f6ba f   SettingDlg.obj
 0001:0001e81f       ?DoDataExchange@CSettingDlg@@MAEXPAVCDataExchange@@@Z 0041f81f f   SettingDlg.obj
 0001:0001e894       ?GetMessageMap@CSettingDlg@@MBEPBUAFX_MSGMAP@@XZ 0041f894 f   SettingDlg.obj
 0001:0001e89a       ?Base64Encode@CSettingDlg@@QAE?AVCString@@PBD@Z 0041f89a f   SettingDlg.obj
 0001:0001eb19       ?Base64Decode@CSettingDlg@@QAE?AVCString@@PBD@Z 0041fb19 f   SettingDlg.obj
 0001:0001f356       ?OnOK@CSettingDlg@@MAEXXZ  00420356 f   SettingDlg.obj
 0001:0001f5a8       ?OnDisableHostlist@CSettingDlg@@IAEXXZ 004205a8 f   SettingDlg.obj
 0001:0001f68e       ?OnCustomSkin@CSettingDlg@@IAEXXZ 0042068e f   SettingDlg.obj
 0001:0001f885       ??0SEU_QQwry@@QAE@XZ       00420885 f   SEU_QQwry.obj
 0001:0001f8bf       ??1SEU_QQwry@@UAE@XZ       004208bf f   SEU_QQwry.obj
 0001:0001f907       ?OpenQQwry@SEU_QQwry@@QAE_NVCString@@@Z 00420907 f   SEU_QQwry.obj
 0001:0001f94b       ?CloseQQwry@SEU_QQwry@@QAEXXZ 0042094b f   SEU_QQwry.obj
 0001:0001f95a       ?GetBE@SEU_QQwry@@QAE_NXZ  0042095a f   SEU_QQwry.obj
 0001:0001f98a       ?GetStartIPInfo@SEU_QQwry@@QAEHH@Z 0042098a f   SEU_QQwry.obj
 0001:0001fb5d       ?GetRecordCount@SEU_QQwry@@QAEHXZ 00420b5d f   SEU_QQwry.obj
 0001:0001fb76       ?GetStr@SEU_QQwry@@QAE?AVCString@@H@Z 00420b76 f   SEU_QQwry.obj
 0001:0001fc16       ?GetCountryLocal@SEU_QQwry@@QAE?AVCString@@H@Z 00420c16 f   SEU_QQwry.obj
 0001:0001fc65       ?GetCountryLocal@SEU_QQwry@@QAE?AVCString@@EH@Z 00420c65 f   SEU_QQwry.obj
 0001:0001ffb1       ?GetStr@SEU_QQwry@@QAE?AVCString@@XZ 00420fb1 f   SEU_QQwry.obj
 0001:00020030       ?SaveToFile@SEU_QQwry@@QAEXVCString@@@Z 00421030 f   SEU_QQwry.obj
 0001:000201ff       ?IPtoAdd@SEU_QQwry@@QAE?AVCString@@V2@@Z 004211ff f   SEU_QQwry.obj
 0001:00020281       ?GetIndex@SEU_QQwry@@QAEHVCString@@@Z 00421281 f   SEU_QQwry.obj
 0001:0002034d       ?GetSIP@SEU_QQwry@@QAEKH@Z 0042134d f   SEU_QQwry.obj
 0001:000203d6       ?IPtoDWORD@SEU_QQwry@@QAEKVCString@@@Z 004213d6 f   SEU_QQwry.obj
 0001:000204a1       ?SetPath@SEU_QQwry@@QAEXVCString@@@Z 004214a1 f   SEU_QQwry.obj
 0001:000204ee       ??_GSEU_QQwry@@UAEPAXI@Z   004214ee f i SEU_QQwry.obj
 0001:000204ee       ??_ESEU_QQwry@@UAEPAXI@Z   004214ee f i SEU_QQwry.obj
 0001:00020588       ??0CShellDlg@@QAE@PAVCWnd@@PAVCIOCPServer@@PAUClientContext@@@Z 00421588 f   ShellDlg.obj
 0001:00020611       ?DoDataExchange@CShellDlg@@MAEXPAVCDataExchange@@@Z 00421611 f   ShellDlg.obj
 0001:00020626       ?GetMessageMap@CShellDlg@@MBEPBUAFX_MSGMAP@@XZ 00421626 f   ShellDlg.obj
 0001:0002062c       ?PreTranslateMessage@CShellDlg@@UAEHPAUtagMSG@@@Z 0042162c f   ShellDlg.obj
 0001:00020776       ?OnInitDialog@CShellDlg@@MAEHXZ 00421776 f   ShellDlg.obj
 0001:0002086e       ?OnReceiveComplete@CShellDlg@@QAEXXZ 0042186e f   ShellDlg.obj
 0001:00020886       ?AddKeyBoardData@CShellDlg@@AAEXXZ 00421886 f   ShellDlg.obj
 0001:00020942       ?OnClose@CShellDlg@@IAEXXZ 00421942 f   ShellDlg.obj
 0001:00020965       ?ResizeEdit@CShellDlg@@AAEXXZ 00421965 f   ShellDlg.obj
 0001:00020992       ?OnSize@CShellDlg@@IAEXIHH@Z 00421992 f   ShellDlg.obj
 0001:000209b2       ?OnChangeEdit@CShellDlg@@IAEXXZ 004219b2 f   ShellDlg.obj
 0001:000209cb       ?OnCtlColor@CShellDlg@@IAEPAUHBRUSH__@@PAVCDC@@PAVCWnd@@I@Z 004219cb f   ShellDlg.obj
 0001:00020a1d       ?PostNcDestroy@CShellDlg@@MAEXXZ 00421a1d f   ShellDlg.obj
 0001:00020a3f       ??_ECShellDlg@@UAEPAXI@Z   00421a3f f i ShellDlg.obj
 0001:00020a3f       ??_GCShellDlg@@UAEPAXI@Z   00421a3f f i ShellDlg.obj
 0001:00020a5b       ??1CShellDlg@@UAE@XZ       00421a5b f i ShellDlg.obj
 0001:00020b0e       ??0CShowWave@@QAE@XZ       00421b0e f   ShowWave.obj
 0001:00020b77       ??1CShowWave@@UAE@XZ       00421b77 f   ShowWave.obj
 0001:00020bbb       ?GetMessageMap@CShowWave@@MBEPBUAFX_MSGMAP@@XZ 00421bbb f   ShowWave.obj
 0001:00020bc1       ?OnPaint@CShowWave@@IAEXXZ 00421bc1 f   ShowWave.obj
 0001:00020e32       ?SetSoundInBuffer@CShowWave@@QAEXPAEHH@Z 00421e32 f   ShowWave.obj
 0001:00020e5e       ?SetHwnd@CShowWave@@QAEXPAUHWND__@@@Z 00421e5e f   ShowWave.obj
 0001:00020e6b       ??_ECBrush@@UAEPAXI@Z      00421e6b f i ShowWave.obj
 0001:00020e6b       ??_GCBrush@@UAEPAXI@Z      00421e6b f i ShowWave.obj
 0001:00020e87       ??1CBrush@@UAE@XZ          00421e87 f i ShowWave.obj
 0001:00020eb0       ??_ECShowWave@@UAEPAXI@Z   00421eb0 f i ShowWave.obj
 0001:00020eb0       ??_GCShowWave@@UAEPAXI@Z   00421eb0 f i ShowWave.obj
 0001:00020f4a       ??0CSoundToWav@@QAE@XZ     00421f4a f   SoundToWav.obj
 0001:00020f94       ??1CSoundToWav@@UAE@XZ     00421f94 f   SoundToWav.obj
 0001:00020faa       ?SetWaveFormat@CSoundToWav@@QAEXPAUtWAVEFORMATEX@@@Z 00421faa f   SoundToWav.obj
 0001:00020fbe       ?WriteWavFileHeader@CSoundToWav@@QAEKXZ 00421fbe f   SoundToWav.obj
 0001:0002103f       ?WriteWavData@CSoundToWav@@QAEKPAEK@Z 0042203f f   SoundToWav.obj
 0001:00021056       ?close@CSoundToWav@@QAEHXZ 00422056 f   SoundToWav.obj
 0001:00021069       ?Open@CSoundToWav@@QAEHPBDK@Z 00422069 f   SoundToWav.obj
 0001:00021098       ?SeekToBegin@CSoundToWav@@QAEKXZ 00422098 f   SoundToWav.obj
 0001:000210a7       ?SeekToEnd@CSoundToWav@@QAEKXZ 004220a7 f   SoundToWav.obj
 0001:000210b7       ?Write@CSoundToWav@@QAEKPAXK@Z 004220b7 f   SoundToWav.obj
 0001:000210d6       ??_GCSoundToWav@@UAEPAXI@Z 004220d6 f i SoundToWav.obj
 0001:000210d6       ??_ECSoundToWav@@UAEPAXI@Z 004220d6 f i SoundToWav.obj
 0001:00021170       ??0CStart@@QAE@PAVCWnd@@@Z 00422170 f   Start.obj
 0001:0002127f       ?DoDataExchange@CStart@@MAEXPAVCDataExchange@@@Z 0042227f f   Start.obj
 0001:000212bf       ?GetMessageMap@CStart@@MBEPBUAFX_MSGMAP@@XZ 004222bf f   Start.obj
 0001:000212c5       ?OnInitDialog@CStart@@MAEHXZ 004222c5 f   Start.obj
 0001:00021336       ?OnOK@CStart@@MAEXXZ       00422336 f   Start.obj
 0001:00021492       ??_ECStart@@UAEPAXI@Z      00422492 f i Start.obj
 0001:00021492       ??_GCStart@@UAEPAXI@Z      00422492 f i Start.obj
 0001:0002152c       ??0CStartupDlg@@QAE@PAVCWnd@@@Z 0042252c f   StartupDlg.obj
 0001:00021580       ?DoDataExchange@CStartupDlg@@MAEXPAVCDataExchange@@@Z 00422580 f   StartupDlg.obj
 0001:00021595       ?GetMessageMap@CStartupDlg@@MBEPBUAFX_MSGMAP@@XZ 00422595 f   StartupDlg.obj
 0001:0002159b       ?OnInitDialog@CStartupDlg@@MAEHXZ 0042259b f   StartupDlg.obj
 0001:000215e1       ?PreTranslateMessage@CStartupDlg@@UAEHPAUtagMSG@@@Z 004225e1 f   StartupDlg.obj
 0001:000215fc       ?OnTimer@CStartupDlg@@IAEXI@Z 004225fc f   StartupDlg.obj
 0001:000217b6       ?OnPaint@CStartupDlg@@IAEXXZ 004227b6 f   StartupDlg.obj
 0001:000217cf       ??_GCStartupDlg@@UAEPAXI@Z 004227cf f i StartupDlg.obj
 0001:000217cf       ??_ECStartupDlg@@UAEPAXI@Z 004227cf f i StartupDlg.obj
 0001:000217eb       ??1CStartupDlg@@UAE@XZ     004227eb f i StartupDlg.obj
 0001:00021820       ??0CGdiObject@@QAE@XZ      00422820 f i StartupDlg.obj
 0001:00021a00       ?termsrv_tSaveFile@@YA_NPAD@Z 00422a00 f   SystemDlg.obj
 0001:00021a47       ??0CSystemDlg@@QAE@PAVCWnd@@PAVCIOCPServer@@PAUClientContext@@@Z 00422a47 f   SystemDlg.obj
 0001:00021b15       ?DoDataExchange@CSystemDlg@@MAEXPAVCDataExchange@@@Z 00422b15 f   SystemDlg.obj
 0001:00021b43       ?GetMessageMap@CSystemDlg@@MBEPBUAFX_MSGMAP@@XZ 00422b43 f   SystemDlg.obj
 0001:00021b49       ?OnReceiveComplete@CSystemDlg@@QAEXXZ 00422b49 f   SystemDlg.obj
 0001:00021c3d       ?SendTermsrv_t@CSystemDlg@@IAEXXZ 00422c3d f   SystemDlg.obj
 0001:00021c95       ?OnInitDialog@CSystemDlg@@MAEHXZ 00422c95 f   SystemDlg.obj
 0001:00021f23       ?AdjustList@CSystemDlg@@IAEXXZ 00422f23 f   SystemDlg.obj
 0001:00021f9a       ?__MakePriority@@YA?AVCString@@K@Z 00422f9a f   SystemDlg.obj
 0001:00022045       ?ShowProcessList@CSystemDlg@@IAEXXZ 00423045 f   SystemDlg.obj
 0001:0002234d       ?PreTranslateMessage@CSystemDlg@@UAEHPAUtagMSG@@@Z 0042334d f   SystemDlg.obj
 0001:0002238b       ?OnClose@CSystemDlg@@IAEXXZ 0042338b f   SystemDlg.obj
 0001:000223ae       ?PostNcDestroy@CSystemDlg@@MAEXXZ 004233ae f   SystemDlg.obj
 0001:000223d0       ?OnSize@CSystemDlg@@IAEXIHH@Z 004233d0 f   SystemDlg.obj
 0001:000223f0       ?OnSelchangeTab@CSystemDlg@@IAEXPAUtagNMHDR@@PAJ@Z 004233f0 f   SystemDlg.obj
 0001:000223ff       ?DeleteList@CSystemDlg@@IAEXXZ 004233ff f   SystemDlg.obj
 0001:00022447       ?ShowSelectWindow@CSystemDlg@@IAEXXZ 00423447 f   SystemDlg.obj
 0001:000224b5       ?GetProcessList@CSystemDlg@@IAEXXZ 004234b5 f   SystemDlg.obj
 0001:000224d8       ?GetWindowsList@CSystemDlg@@IAEXXZ 004234d8 f   SystemDlg.obj
 0001:000224fb       ?GetSoftWareList@CSystemDlg@@IAEXXZ 004234fb f   SystemDlg.obj
 0001:0002251e       ?GetSysUserList@CSystemDlg@@IAEXXZ 0042351e f   SystemDlg.obj
 0001:00022541       ?GetSysInfoList@CSystemDlg@@IAEXXZ 00423541 f   SystemDlg.obj
 0001:00022564       ?GetUserStateList@CSystemDlg@@IAEXXZ 00423564 f   SystemDlg.obj
 0001:00022587       ?GetDialupassList@CSystemDlg@@IAEXXZ 00423587 f   SystemDlg.obj
 0001:0002262c       ?ShowSoftWareList@CSystemDlg@@IAEXXZ 0042362c f   SystemDlg.obj
 0001:0002274d       ?ShowDialupassList@CSystemDlg@@IAEXXZ 0042374d f   SystemDlg.obj
 0001:00022805       ?ShowWindowsList@CSystemDlg@@IAEXXZ 00423805 f   SystemDlg.obj
 0001:000229d5       ?OnMenuitemRefreshSlist@CSystemDlg@@IAEXXZ 004239d5 f   SystemDlg.obj
 0001:000229da       ?OnRclickList@CSystemDlg@@IAEXPAUtagNMHDR@@PAJ@Z 004239da f   SystemDlg.obj
 0001:00022cd8       ?SetClipboardText@CSystemDlg@@SAXAAVCString@@@Z 00423cd8 f   SystemDlg.obj
 0001:00022d52       ?OnMenuitemCopy@CSystemDlg@@IAEXXZ 00423d52 f   SystemDlg.obj
 0001:00022e9e       ?OnMenuitemWindowRestored@CSystemDlg@@IAEXXZ 00423e9e f   SystemDlg.obj
 0001:00022f2e       ?OnMenuitemWindowHide@CSystemDlg@@IAEXXZ 00423f2e f   SystemDlg.obj
 0001:00022fbb       ?OnMenuitemWindowClose@CSystemDlg@@IAEXXZ 00423fbb f   SystemDlg.obj
 0001:0002302c       ?OnMenuitemWindowMax@CSystemDlg@@IAEXXZ 0042402c f   SystemDlg.obj
 0001:000230bc       ?OnMenuitemWindowMin@CSystemDlg@@IAEXXZ 004240bc f   SystemDlg.obj
 0001:0002314c       ?OnMenuitemKillanddel@CSystemDlg@@IAEXXZ 0042414c f   SystemDlg.obj
 0001:00023154       ?OnMenuitemKillprocess@CSystemDlg@@IAEXXZ 00424154 f   SystemDlg.obj
 0001:0002315c       ?OnMenuitemKillprocesss@CSystemDlg@@IAEXH@Z 0042415c f   SystemDlg.obj
 0001:000232e1       ?ShowSysInfoList@CSystemDlg@@IAEXXZ 004242e1 f   SystemDlg.obj
 0001:00023592       ?ShowSysUserList@CSystemDlg@@IAEXXZ 00424592 f   SystemDlg.obj
 0001:000236da       ?ShowUserStateList@CSystemDlg@@IAEXXZ 004246da f   SystemDlg.obj
 0001:000238a8       ?OnTimer@CSystemDlg@@IAEXI@Z 004248a8 f   SystemDlg.obj
 0001:0002395e       ?OnCancel@CSystemDlg@@MAEXXZ 0042495e f   SystemDlg.obj
 0001:0002396e       ?OnChangeUserState@CSystemDlg@@IAEXI@Z 0042496e f   SystemDlg.obj
 0001:00023af9       ?OnChangeUser@CSystemDlg@@IAEXI@Z 00424af9 f   SystemDlg.obj
 0001:00023c50       ?OnMenuitemActiveUser@CSystemDlg@@IAEXXZ 00424c50 f   SystemDlg.obj
 0001:00023c58       ?OnMenuitemDisableUser@CSystemDlg@@IAEXXZ 00424c58 f   SystemDlg.obj
 0001:00023c60       ?OnMenuitemAddUser@CSystemDlg@@IAEXXZ 00424c60 f   SystemDlg.obj
 0001:00023e83       ?OnMenuitemChangePass@CSystemDlg@@IAEXXZ 00424e83 f   SystemDlg.obj
 0001:00024085       ?OnMenuitemDelUser@CSystemDlg@@IAEXXZ 00425085 f   SystemDlg.obj
 0001:0002408d       ?OnMenuitemDisconnectUser@CSystemDlg@@IAEXXZ 0042508d f   SystemDlg.obj
 0001:00024095       ?OnMenuitemLogoffUser@CSystemDlg@@IAEXXZ 00425095 f   SystemDlg.obj
 0001:0002409d       ?OnButtonMstsc@CSystemDlg@@IAEXXZ 0042509d f   SystemDlg.obj
 0001:00024209       ?OnButtonChanageport@CSystemDlg@@IAEXXZ 00425209 f   SystemDlg.obj
 0001:000242d0       ?OnButtonOpen3389@CSystemDlg@@IAEXXZ 004252d0 f   SystemDlg.obj
 0001:000242f3       ?OnMenuitemSLogoff@CSystemDlg@@IAEXXZ 004252f3 f   SystemDlg.obj
 0001:0002431a       ?OnMenuitemSReboot@CSystemDlg@@IAEXXZ 0042531a f   SystemDlg.obj
 0001:00024341       ?OnMenuitemSShutdown@CSystemDlg@@IAEXXZ 00425341 f   SystemDlg.obj
 0001:00024368       ?DestroyWindow@CSystemDlg@@UAEHXZ 00425368 f   SystemDlg.obj
 0001:0002437e       ??_ECSystemDlg@@UAEPAXI@Z  0042537e f i SystemDlg.obj
 0001:0002437e       ??_GCSystemDlg@@UAEPAXI@Z  0042537e f i SystemDlg.obj
 0001:0002439a       ??1CSystemDlg@@UAE@XZ      0042539a f i SystemDlg.obj
 0001:0002448c       ??0CTextChatDlg@@QAE@PAVCWnd@@PAVCIOCPServer@@PAUClientContext@@@Z 0042548c f   TextChatDlg.obj
 0001:0002458e       ?DoDataExchange@CTextChatDlg@@MAEXPAVCDataExchange@@@Z 0042558e f   TextChatDlg.obj
 0001:000245bc       ?GetMessageMap@CTextChatDlg@@MBEPBUAFX_MSGMAP@@XZ 004255bc f   TextChatDlg.obj
 0001:000245c2       ?OnOK@CTextChatDlg@@MAEXXZ 004255c2 f   TextChatDlg.obj
 0001:0002476a       ?OnCancel@CTextChatDlg@@MAEXXZ 0042576a f   TextChatDlg.obj
 0001:00024791       ?OnInitDialog@CTextChatDlg@@MAEHXZ 00425791 f   TextChatDlg.obj
 0001:0002487e       ?OnReceiveComplete@CTextChatDlg@@QAEXXZ 0042587e f   TextChatDlg.obj
 0001:000249e7       ?PreTranslateMessage@CTextChatDlg@@UAEHPAUtagMSG@@@Z 004259e7 f   TextChatDlg.obj
 0001:000249ff       ?OnSize@CTextChatDlg@@IAEXIHH@Z 004259ff f   TextChatDlg.obj
 0001:00024add       ?PostNcDestroy@CTextChatDlg@@MAEXXZ 00425add f   TextChatDlg.obj
 0001:00024af3       ??_GCTextChatDlg@@UAEPAXI@Z 00425af3 f i TextChatDlg.obj
 0001:00024af3       ??_ECTextChatDlg@@UAEPAXI@Z 00425af3 f i TextChatDlg.obj
 0001:00024b0f       ??1CTextChatDlg@@UAE@XZ    00425b0f f i TextChatDlg.obj
 0001:00024be3       ??0CTrueColorToolBar@@QAE@XZ 00425be3 f   TrueColorToolBar.obj
 0001:00024c15       ??1CTrueColorToolBar@@UAE@XZ 00425c15 f   TrueColorToolBar.obj
 0001:00024c53       ?GetMessageMap@CTrueColorToolBar@@MBEPBUAFX_MSGMAP@@XZ 00425c53 f   TrueColorToolBar.obj
 0001:00024c59       ?LoadTrueColorToolBar@CTrueColorToolBar@@QAEHHIII@Z 00425c59 f   TrueColorToolBar.obj
 0001:00024cb7       ?SetTrueColorToolBar@CTrueColorToolBar@@AAEHIIH@Z 00425cb7 f   TrueColorToolBar.obj
 0001:00024de6       ?AddDropDownButton@CTrueColorToolBar@@QAEXPAVCWnd@@II@Z 00425de6 f   TrueColorToolBar.obj
 0001:00024e4c       ?OnToolbarDropDown@CTrueColorToolBar@@IAEXPAUtagNMTOOLBARA@@PAJ@Z 00425e4c f   TrueColorToolBar.obj
 0001:00024f1e       ??_GCTrueColorToolBar@@UAEPAXI@Z 00425f1e f i TrueColorToolBar.obj
 0001:00024f1e       ??_ECTrueColorToolBar@@UAEPAXI@Z 00425f1e f i TrueColorToolBar.obj
 0001:00024f3a       ?Add@?$CArray@UstDropDownInfo@CTrueColorToolBar@@AAU12@@@QAEHAAUstDropDownInfo@CTrueColorToolBar@@@Z 00425f3a f i TrueColorToolBar.obj
 0001:00024f65       ??1?$CArray@UstDropDownInfo@CTrueColorToolBar@@AAU12@@@UAE@XZ 00425f65 f i TrueColorToolBar.obj
 0001:00024f7a       ?Serialize@?$CArray@UstDropDownInfo@CTrueColorToolBar@@AAU12@@@UAEXAAVCArchive@@@Z 00425f7a f i TrueColorToolBar.obj
 0001:00024fb7       ??_G?$CArray@UstDropDownInfo@CTrueColorToolBar@@AAU12@@@UAEPAXI@Z 00425fb7 f i TrueColorToolBar.obj
 0001:00024fb7       ??_E?$CArray@UstDropDownInfo@CTrueColorToolBar@@AAU12@@@UAEPAXI@Z 00425fb7 f i TrueColorToolBar.obj
 0001:00024fd3       ?SetSize@?$CArray@UstDropDownInfo@CTrueColorToolBar@@AAU12@@@QAEXHH@Z 00425fd3 f i TrueColorToolBar.obj
 0001:0002511e       ?SerializeElements@@YGXAAVCArchive@@PAUstDropDownInfo@CTrueColorToolBar@@H@Z 0042611e f i TrueColorToolBar.obj
 0001:000251cf       ??0CWebCamDlg@@QAE@PAVCWnd@@PAVCIOCPServer@@PAUClientContext@@@Z 004261cf f   WebCamDlg.obj
 0001:000252d6       ?DoDataExchange@CWebCamDlg@@MAEXPAVCDataExchange@@@Z 004262d6 f   WebCamDlg.obj
 0001:000252d9       ?GetMessageMap@CWebCamDlg@@MBEPBUAFX_MSGMAP@@XZ 004262d9 f   WebCamDlg.obj
 0001:000252df       ?OnReceive@CWebCamDlg@@QAEXXZ 004262df f   WebCamDlg.obj
 0001:00025345       ?OnReceiveComplete@CWebCamDlg@@QAEXXZ 00426345 f   WebCamDlg.obj
 0001:00025378       ?DrawDIB@CWebCamDlg@@IAEXXZ 00426378 f   WebCamDlg.obj
 0001:000253f1       ?OnClose@CWebCamDlg@@IAEXXZ 004263f1 f   WebCamDlg.obj
 0001:000254cb       ?OnInitDialog@CWebCamDlg@@MAEHXZ 004264cb f   WebCamDlg.obj
 0001:0002573d       ?InitMMI@CWebCamDlg@@IAEXXZ 0042673d f   WebCamDlg.obj
 0001:0002580d       ?ResetScreen@CWebCamDlg@@IAEXXZ 0042680d f   WebCamDlg.obj
 0001:000259ff       ?OnSize@CWebCamDlg@@IAEXIHH@Z 004269ff f   WebCamDlg.obj
 0001:00025ac9       ?PreTranslateMessage@CWebCamDlg@@UAEHPAUtagMSG@@@Z 00426ac9 f   WebCamDlg.obj
 0001:00025af1       ?OnGetMiniMaxInfo@CWebCamDlg@@IAEJIJ@Z 00426af1 f   WebCamDlg.obj
 0001:00025b12       ?SaveSnapshot@CWebCamDlg@@IAE_NXZ 00426b12 f   WebCamDlg.obj
 0001:00025cb9       ?SaveAvi@CWebCamDlg@@IAEXXZ 00426cb9 f   WebCamDlg.obj
 0001:00025e5f       ?OnSysCommand@CWebCamDlg@@IAEXIJ@Z 00426e5f f   WebCamDlg.obj
 0001:00025ed8       ?SendResetScreen@CWebCamDlg@@IAE_NHH@Z 00426ed8 f   WebCamDlg.obj
 0001:00025f48       ?OnPaint@CWebCamDlg@@IAEXXZ 00426f48 f   WebCamDlg.obj
 0001:0002600f       ?PostNcDestroy@CWebCamDlg@@MAEXXZ 0042700f f   WebCamDlg.obj
 0001:00026031       ?OnTimer@CWebCamDlg@@IAEXI@Z 00427031 f   WebCamDlg.obj
 0001:0002605c       ??_GCWebCamDlg@@UAEPAXI@Z  0042705c f i WebCamDlg.obj
 0001:0002605c       ??_ECWebCamDlg@@UAEPAXI@Z  0042705c f i WebCamDlg.obj
 0001:00026078       ??1CWebCamDlg@@UAE@XZ      00427078 f i WebCamDlg.obj
 0001:000260dd       ?GetMenuStringA@CMenu@@QBEHIAAVCString@@I@Z 004270dd f i WebCamDlg.obj
 0001:00026137       ??1?$vector@VResolutionInfo@@V?$allocator@VResolutionInfo@@@std@@@std@@QAE@XZ 00427137 f i WebCamDlg.obj
 0001:00026150       ?push_back@?$vector@VResolutionInfo@@V?$allocator@VResolutionInfo@@@std@@@std@@QAEXABVResolutionInfo@@@Z 00427150 f i WebCamDlg.obj
 0001:00026161       ?insert@?$vector@VResolutionInfo@@V?$allocator@VResolutionInfo@@@std@@@std@@QAEXPAVResolutionInfo@@IABV3@@Z 00427161 f i WebCamDlg.obj
 0001:00026376       ??0CXvidDec@@QAE@HIH@Z     00427376 f   XvidDec.obj
 0001:000263b8       ??1CXvidDec@@QAE@XZ        004273b8 f   XvidDec.obj
 0001:000263b9       ?AttachCaller@CXvidDec@@QAEXHH@Z 004273b9 f   XvidDec.obj
 0001:00026404       ?XVID_GLOBAL_INIT@CXvidDec@@SAXXZ 00427404 f   XvidDec.obj
 0001:00026431       ?Open@CXvidDec@@QAE_NHHH@Z 00427431 f   XvidDec.obj
 0001:000264d8       ?Decode@CXvidDec@@QAEHPAXH0@Z 004274d8 f   XvidDec.obj
 0001:0002650d       ?Close@CXvidDec@@QAE_NXZ   0042750d f   XvidDec.obj
 0001:00026535       ??0CXvidEnc@@QAE@HIH@Z     00427535 f   XvidEnc.obj
 0001:00026577       ??1CXvidEnc@@QAE@XZ        00427577 f   XvidEnc.obj
 0001:00026578       ?Open@CXvidEnc@@QAE_NHHHH@Z 00427578 f   XvidEnc.obj
 0001:00026642       ?Encode@CXvidEnc@@QAEHPAX0H@Z 00427642 f   XvidEnc.obj
 0001:00026683       ?Close@CXvidEnc@@QAE_NXZ   00427683 f   XvidEnc.obj
 0001:000266b0       _xvid_global               004276b0 f   libxvidcore:xvid.obj
 0001:000272c0       _xvid_decore               004282c0 f   libxvidcore:xvid.obj
 0001:00027310       _xvid_encore               00428310 f   libxvidcore:xvid.obj
 0001:00031810       _xvid_Init_QP              00432810 f   libxvidcore:qpel.obj
 0001:000319e0       _init_GMC                  004329e0 f   libxvidcore:gmc.obj
 0001:00032620       _generate_GMCparameters    00433620 f   libxvidcore:gmc.obj
 0001:00032de0       _generate_GMCimage         00433de0 f   libxvidcore:gmc.obj
 0001:00032f60       _sad16_c                   00433f60 f   libxvidcore:sad.obj
 0001:000330e0       _sad16bi_c                 004340e0 f   libxvidcore:sad.obj
 0001:00033170       _sad8bi_c                  00434170 f   libxvidcore:sad.obj
 0001:00033200       _sad8_c                    00434200 f   libxvidcore:sad.obj
 0001:000332f0       _dev16_c                   004342f0 f   libxvidcore:sad.obj
 0001:00033350       _sad16v_c                  00434350 f   libxvidcore:sad.obj
 0001:000333c0       _sad32v_c                  004343c0 f   libxvidcore:sad.obj
 0001:00033450       _sse8_16bit_c              00434450 f   libxvidcore:sad.obj
 0001:00033550       _sse8_8bit_c               00434550 f   libxvidcore:sad.obj
 0001:00033660       _coeff8_energy_c           00434660 f   libxvidcore:sad.obj
 0001:00033760       _sseh8_16bit_c             00434760 f   libxvidcore:sad.obj
 0001:00033850       _blocksum8_c               00434850 f   libxvidcore:sad.obj
 0001:00033900       _calc_cbp_c                00434900 f   libxvidcore:cbp.obj
 0001:000339d0       _rgb555_to_yv12_c          004349d0 f   libxvidcore:colorspace.obj
 0001:00033d70       _rgb565_to_yv12_c          00434d70 f   libxvidcore:colorspace.obj
 0001:00034110       _bgr_to_yv12_c             00435110 f   libxvidcore:colorspace.obj
 0001:00034450       _bgra_to_yv12_c            00435450 f   libxvidcore:colorspace.obj
 0001:000347a0       _rgb_to_yv12_c             004357a0 f   libxvidcore:colorspace.obj
 0001:00034ae0       _abgr_to_yv12_c            00435ae0 f   libxvidcore:colorspace.obj
 0001:00034e30       _rgba_to_yv12_c            00435e30 f   libxvidcore:colorspace.obj
 0001:00035180       _argb_to_yv12_c            00436180 f   libxvidcore:colorspace.obj
 0001:000354d0       _yuyv_to_yv12_c            004364d0 f   libxvidcore:colorspace.obj
 0001:00035660       _uyvy_to_yv12_c            00436660 f   libxvidcore:colorspace.obj
 0001:000357b0       _rgb555i_to_yv12_c         004367b0 f   libxvidcore:colorspace.obj
 0001:00035e30       _rgb565i_to_yv12_c         00436e30 f   libxvidcore:colorspace.obj
 0001:000364b0       _bgri_to_yv12_c            004374b0 f   libxvidcore:colorspace.obj
 0001:00036ae0       _bgrai_to_yv12_c           00437ae0 f   libxvidcore:colorspace.obj
 0001:00037120       _abgri_to_yv12_c           00438120 f   libxvidcore:colorspace.obj
 0001:00037760       _rgbi_to_yv12_c            00438760 f   libxvidcore:colorspace.obj
 0001:00037db0       _rgbai_to_yv12_c           00438db0 f   libxvidcore:colorspace.obj
 0001:00038400       _argbi_to_yv12_c           00439400 f   libxvidcore:colorspace.obj
 0001:00038a50       _yuyvi_to_yv12_c           00439a50 f   libxvidcore:colorspace.obj
 0001:00038cb0       _uyvyi_to_yv12_c           00439cb0 f   libxvidcore:colorspace.obj
 0001:00038ec0       _yv12_to_rgb555_c          00439ec0 f   libxvidcore:colorspace.obj
 0001:00039350       _yv12_to_rgb565_c          0043a350 f   libxvidcore:colorspace.obj
 0001:000397e0       _yv12_to_bgr_c             0043a7e0 f   libxvidcore:colorspace.obj
 0001:00039b40       _yv12_to_bgra_c            0043ab40 f   libxvidcore:colorspace.obj
 0001:00039ed0       _yv12_to_abgr_c            0043aed0 f   libxvidcore:colorspace.obj
 0001:0003a260       _yv12_to_rgb_c             0043b260 f   libxvidcore:colorspace.obj
 0001:0003a5c0       _yv12_to_rgba_c            0043b5c0 f   libxvidcore:colorspace.obj
 0001:0003a950       _yv12_to_argb_c            0043b950 f   libxvidcore:colorspace.obj
 0001:0003ace0       _yv12_to_yuyv_c            0043bce0 f   libxvidcore:colorspace.obj
 0001:0003ae00       _yv12_to_uyvy_c            0043be00 f   libxvidcore:colorspace.obj
 0001:0003af20       _yv12_to_rgb555i_c         0043bf20 f   libxvidcore:colorspace.obj
 0001:0003b780       _yv12_to_rgb565i_c         0043c780 f   libxvidcore:colorspace.obj
 0001:0003c020       _yv12_to_bgri_c            0043d020 f   libxvidcore:colorspace.obj
 0001:0003c610       _yv12_to_bgrai_c           0043d610 f   libxvidcore:colorspace.obj
 0001:0003cc50       _yv12_to_abgri_c           0043dc50 f   libxvidcore:colorspace.obj
 0001:0003d290       _yv12_to_rgbi_c            0043e290 f   libxvidcore:colorspace.obj
 0001:0003d880       _yv12_to_rgbai_c           0043e880 f   libxvidcore:colorspace.obj
 0001:0003dec0       _yv12_to_argbi_c           0043eec0 f   libxvidcore:colorspace.obj
 0001:0003e500       _yv12_to_yuyvi_c           0043f500 f   libxvidcore:colorspace.obj
 0001:0003e6f0       _yv12_to_uyvyi_c           0043f6f0 f   libxvidcore:colorspace.obj
 0001:0003e8d0       _yv12_to_yv12_c            0043f8d0 f   libxvidcore:colorspace.obj
 0001:0003ea70       _colorspace_init           0043fa70 f   libxvidcore:colorspace.obj
 0001:0003eae0       _init_postproc             0043fae0 f   libxvidcore:postprocessing.obj
 0001:0003eb00       _stripe_deblock_h          0043fb00 f   libxvidcore:postprocessing.obj
 0001:0003ecd0       _stripe_deblock_v          0043fcd0 f   libxvidcore:postprocessing.obj
 0001:0003eeb0       _image_postproc            0043feb0 f   libxvidcore:postprocessing.obj
 0001:0003eff0       _init_deblock              0043fff0 f   libxvidcore:postprocessing.obj
 0001:0003f040       _deblock8x8_h              00440040 f   libxvidcore:postprocessing.obj
 0001:00043950       _deblock8x8_v              00444950 f   libxvidcore:postprocessing.obj
 0001:00047e30       _init_noise                00448e30 f   libxvidcore:postprocessing.obj
 0001:00048080       _add_noise                 00449080 f   libxvidcore:postprocessing.obj
 0001:00048180       _image_brightness_c        00449180 f   libxvidcore:postprocessing.obj
 0001:000481e0       _interpolate8x8_avg2_c     004491e0 f   libxvidcore:interpolate8x8.obj
 0001:000482d0       _interpolate8x8_halfpel_add_c 004492d0 f   libxvidcore:interpolate8x8.obj
 0001:000482f0       _interpolate8x8_avg4_c     004492f0 f   libxvidcore:interpolate8x8.obj
 0001:000484e0       _interpolate8x8_halfpel_h_c 004494e0 f   libxvidcore:interpolate8x8.obj
 0001:000486a0       _interpolate8x4_halfpel_h_c 004496a0 f   libxvidcore:interpolate8x8.obj
 0001:00048860       _interpolate8x8_halfpel_h_add_c 00449860 f   libxvidcore:interpolate8x8.obj
 0001:00048ac0       _interpolate8x8_halfpel_v_c 00449ac0 f   libxvidcore:interpolate8x8.obj
 0001:00048c90       _interpolate8x4_halfpel_v_c 00449c90 f   libxvidcore:interpolate8x8.obj
 0001:00048e60       _interpolate8x8_halfpel_v_add_c 00449e60 f   libxvidcore:interpolate8x8.obj
 0001:000490f0       _interpolate8x8_halfpel_hv_c 0044a0f0 f   libxvidcore:interpolate8x8.obj
 0001:000493c0       _interpolate8x4_halfpel_hv_c 0044a3c0 f   libxvidcore:interpolate8x8.obj
 0001:00049690       _interpolate8x8_halfpel_hv_add_c 0044a690 f   libxvidcore:interpolate8x8.obj
 0001:00049a10       _interpolate8x8_6tap_lowpass_h_c 0044aa10 f   libxvidcore:interpolate8x8.obj
 0001:00049cc0       _interpolate16x16_lowpass_h_c 0044acc0 f   libxvidcore:interpolate8x8.obj
 0001:0004a2a0       _interpolate8x8_lowpass_h_c 0044b2a0 f   libxvidcore:interpolate8x8.obj
 0001:0004a5a0       _interpolate8x8_6tap_lowpass_v_c 0044b5a0 f   libxvidcore:interpolate8x8.obj
 0001:0004a8d0       _interpolate16x16_lowpass_v_c 0044b8d0 f   libxvidcore:interpolate8x8.obj
 0001:0004af90       _interpolate8x8_lowpass_v_c 0044bf90 f   libxvidcore:interpolate8x8.obj
 0001:0004b2d0       _interpolate16x16_lowpass_hv_c 0044c2d0 f   libxvidcore:interpolate8x8.obj
 0001:0004b8c0       _interpolate8x8_lowpass_hv_c 0044c8c0 f   libxvidcore:interpolate8x8.obj
 0001:0004bbd0       _MBTransQuantIntra         0044cbd0 f   libxvidcore:mbtransquant.obj
 0001:0004c1b0       _MBTransQuantInter         0044d1b0 f   libxvidcore:mbtransquant.obj
 0001:0004c590       _MBTransQuantInterBVOP     0044d590 f   libxvidcore:mbtransquant.obj
 0001:0004c990       _MBFieldTest_c             0044d990 f   libxvidcore:mbtransquant.obj
 0001:0004cb20       _MBFrameToField            0044db20 f   libxvidcore:mbtransquant.obj
 0001:0004d760       _transfer_8to16copy_c      0044e760 f   libxvidcore:mem_transfer.obj
 0001:0004d790       _transfer_16to8copy_c      0044e790 f   libxvidcore:mem_transfer.obj
 0001:0004d7e0       _transfer_8to16sub_c       0044e7e0 f   libxvidcore:mem_transfer.obj
 0001:0004d840       _transfer_8to16subro_c     0044e840 f   libxvidcore:mem_transfer.obj
 0001:0004d890       _transfer_8to16sub2_c      0044e890 f   libxvidcore:mem_transfer.obj
 0001:0004d920       _transfer_8to16sub2ro_c    0044e920 f   libxvidcore:mem_transfer.obj
 0001:0004d990       _transfer_16to8add_c       0044e990 f   libxvidcore:mem_transfer.obj
 0001:0004d9e0       _transfer8x8_copy_c        0044e9e0 f   libxvidcore:mem_transfer.obj
 0001:0004da20       _transfer8x4_copy_c        0044ea20 f   libxvidcore:mem_transfer.obj
 0001:0004da50       _quant_mpeg_intra_c        0044ea50 f   libxvidcore:quant_mpeg.obj
 0001:0004dac0       _quant_mpeg_inter_c        0044eac0 f   libxvidcore:quant_mpeg.obj
 0001:0004db70       _dequant_mpeg_intra_c      0044eb70 f   libxvidcore:quant_mpeg.obj
 0001:0004dc30       _dequant_mpeg_inter_c      0044ec30 f   libxvidcore:quant_mpeg.obj
 0001:0004dcf0       _quant_h263_intra_c        0044ecf0 f   libxvidcore:quant_h263.obj
 0001:0004dd90       _quant_h263_inter_c        0044ed90 f   libxvidcore:quant_h263.obj
 0001:0004de30       _dequant_h263_intra_c      0044ee30 f   libxvidcore:quant_h263.obj
 0001:0004ded0       _dequant_h263_inter_c      0044eed0 f   libxvidcore:quant_h263.obj
 0001:0004df40       _idct_int32                0044ef40 f   libxvidcore:idct.obj
 0001:0004e7c0       _fdct_int32                0044f7c0 f   libxvidcore:fdct.obj
 0001:0004eb40       _bs_put_spritetrajectory   0044fb40 f   libxvidcore:mbcoding.obj
 0001:0004ed70       _bs_get_spritetrajectory   0044fd70 f   libxvidcore:mbcoding.obj
 0001:0004ee30       _init_vlc_tables           0044fe30 f   libxvidcore:mbcoding.obj
 0001:0004f320       _CodeCoeffIntra_CalcBits   00450320 f   libxvidcore:mbcoding.obj
 0001:0004f3f0       _CodeCoeffInter_CalcBits   004503f0 f   libxvidcore:mbcoding.obj
 0001:0004f4b0       _MBCoding                  004504b0 f   libxvidcore:mbcoding.obj
 0001:000506d0       _MBCodingBVOP              004516d0 f   libxvidcore:mbcoding.obj
 0001:00050b50       _check_resync_marker       00451b50 f   libxvidcore:mbcoding.obj
 0001:00050c70       _get_mcbpc_intra           00451c70 f   libxvidcore:mbcoding.obj
 0001:00050d10       _get_mcbpc_inter           00451d10 f   libxvidcore:mbcoding.obj
 0001:00050de0       _get_cbpy                  00451de0 f   libxvidcore:mbcoding.obj
 0001:00050e90       _get_mv                    00451e90 f   libxvidcore:mbcoding.obj
 0001:00051130       _get_dc_dif                00452130 f   libxvidcore:mbcoding.obj
 0001:000511f0       _get_dc_size_lum           004521f0 f   libxvidcore:mbcoding.obj
 0001:000512f0       _get_dc_size_chrom         004522f0 f   libxvidcore:mbcoding.obj
 0001:00051410       _get_intra_block           00452410 f   libxvidcore:mbcoding.obj
 0001:000516a0       _get_inter_block_h263      004526a0 f   libxvidcore:mbcoding.obj
 0001:00051980       _get_inter_block_mpeg      00452980 f   libxvidcore:mbcoding.obj
 0001:00051c90       _image_create              00452c90 f   libxvidcore:image.obj
 0001:00051da0       _image_destroy             00452da0 f   libxvidcore:image.obj
 0001:00051e10       _image_swap                00452e10 f   libxvidcore:image.obj
 0001:00051e40       _image_copy                00452e40 f   libxvidcore:image.obj
 0001:00051ea0       _image_setedges            00452ea0 f   libxvidcore:image.obj
 0001:00052380       _image_interpolate         00453380 f   libxvidcore:image.obj
 0001:00052560       _image_chroma_optimize     00453560 f   libxvidcore:image.obj
 0001:00052730       _image_input               00453730 f   libxvidcore:image.obj
 0001:00052fc0       _image_output              00453fc0 f   libxvidcore:image.obj
 0001:00053470       _plane_sse                 00454470 f   libxvidcore:image.obj
 0001:00053720       _image_block_variance      00454720 f   libxvidcore:image.obj
 0001:00053b00       _output_slice              00454b00 f   libxvidcore:image.obj
 0001:00053c70       _image_clear               00454c70 f   libxvidcore:image.obj
 0001:00053da0       _decoder_create            00454da0 f   libxvidcore:decoder.obj
 0001:00054340       _decoder_destroy           00455340 f   libxvidcore:decoder.obj
 0001:00054420       _decoder_decode            00455420 f   libxvidcore:decoder.obj
 0001:0005a280       _enc_create                0045b280 f   libxvidcore:encoder.obj
 0001:0005b0a0       _enc_destroy               0045c0a0 f   libxvidcore:encoder.obj
 0001:0005b410       _enc_encode                0045c410 f   libxvidcore:encoder.obj
 0001:0005f280       _get_intra_matrix          00460280 f   libxvidcore:quant_matrix.obj
 0001:0005f290       _get_inter_matrix          00460290 f   libxvidcore:quant_matrix.obj
 0001:0005f2a0       _get_default_intra_matrix  004602a0 f   libxvidcore:quant_matrix.obj
 0001:0005f2b0       _get_default_inter_matrix  004602b0 f   libxvidcore:quant_matrix.obj
 0001:0005f2c0       _is_custom_intra_matrix    004602c0 f   libxvidcore:quant_matrix.obj
 0001:0005f300       _is_custom_inter_matrix    00460300 f   libxvidcore:quant_matrix.obj
 0001:0005f340       _set_intra_matrix          00460340 f   libxvidcore:quant_matrix.obj
 0001:0005f370       _init_intra_matrix         00460370 f   libxvidcore:quant_matrix.obj
 0001:0005f3b0       _set_inter_matrix          004603b0 f   libxvidcore:quant_matrix.obj
 0001:0005f460       _init_mpeg_matrix          00460460 f   libxvidcore:quant_matrix.obj
 0001:0005f480       _xvid_malloc               00460480 f   libxvidcore:mem_align.obj
 0001:0005f4e0       _xvid_free                 004604e0 f   libxvidcore:mem_align.obj
 0001:0005f500       _image_printf              00460500 f   libxvidcore:font.obj
 0001:0005f6c0       _read_video_packet_header  004606c0 f   libxvidcore:bitstream.obj
 0001:0005fec0       _BitstreamReadHeaders      00460ec0 f   libxvidcore:bitstream.obj
 0001:000634e0       _BitstreamWriteVolHeader   004644e0 f   libxvidcore:bitstream.obj
 0001:00064500       _BitstreamWriteVopHeader   00465500 f   libxvidcore:bitstream.obj
 0001:00064960       _BitstreamWriteUserData    00465960 f   libxvidcore:bitstream.obj
 0001:00064c60       _write_video_packet_header 00465c60 f   libxvidcore:bitstream.obj
 0001:00064fc0       _predict_acdc              00465fc0 f   libxvidcore:mbprediction.obj
 0001:00065320       _add_acdc                  00466320 f   libxvidcore:mbprediction.obj
 0001:00065490       _MBPrediction              00466490 f   libxvidcore:mbprediction.obj
 0001:00065940       _get_pmv2                  00466940 f   libxvidcore:mbprediction.obj
 0001:00065bb0       _get_pmv2_interlaced       00466bb0 f   libxvidcore:mbprediction.obj
 0001:00065df0       _get_qpmv2                 00466df0 f   libxvidcore:mbprediction.obj
 0001:00066080       _xvid_me_ChromaSAD         00467080 f   libxvidcore:estimation_common.obj
 0001:00066210       _xvid_me_interpolate8x8qpel 00467210 f   libxvidcore:estimation_common.obj
 0001:00066490       _xvid_me_interpolate16x16qpel 00467490 f   libxvidcore:estimation_common.obj
 0001:00066870       _xvid_me_AdvDiamondSearch  00467870 f   libxvidcore:estimation_common.obj
 0001:00066b10       _xvid_me_SquareSearch      00467b10 f   libxvidcore:estimation_common.obj
 0001:00066c10       _xvid_me_DiamondSearch     00467c10 f   libxvidcore:estimation_common.obj
 0001:00066ce0       _xvid_me_SubpelRefine      00467ce0 f   libxvidcore:estimation_common.obj
 0001:00066d80       _FullRefine_Fast           00467d80 f   libxvidcore:estimation_common.obj
 0001:00067620       _getMinFcode               00468620 f   libxvidcore:estimation_common.obj
 0001:00067640       _MEanalysis                00468640 f   libxvidcore:vop_type_decision.obj
 0001:00067e00       _xvid_me_SkipDecisionP     00468e00 f   libxvidcore:estimation_pvop.obj
 0001:00067e80       _MotionEstimation          00468e80 f   libxvidcore:estimation_pvop.obj
 0001:0006a6a0       _GMEanalysis               0046b6a0 f   libxvidcore:estimation_gmc.obj
 0001:0006aae0       _GlobalMotionEst           0046bae0 f   libxvidcore:estimation_gmc.obj
 0001:0006b520       _GlobalMotionEstRefine     0046c520 f   libxvidcore:estimation_gmc.obj
 0001:0006ba40       _globalSAD                 0046ca40 f   libxvidcore:estimation_gmc.obj
 0001:0006bb40       _MBMotionCompensation      0046cb40 f   libxvidcore:motion_comp.obj
 0001:0006c580       _MBMotionCompensationBVOP  0046d580 f   libxvidcore:motion_comp.obj
 0001:0006e1e0       _CheckCandidate16no4v      0046f1e0 f   libxvidcore:estimation_bvop.obj
 0001:0006e3a0       _MotionEstimationBVOP      0046f3a0 f   libxvidcore:estimation_bvop.obj
 0001:00070de0       _xvid_me_ModeDecision_RD   00471de0 f   libxvidcore:estimation_rd_based.obj
 0001:00073ff0       _xvid_me_ModeDecision_Fast 00474ff0 f   libxvidcore:estimation_rd_based.obj
 0001:00074b30       _ModeDecision_BVOP_RD      00475b30 f   libxvidcore:estimation_rd_based_bvop.obj
 0001:000774d0       _getParmFromBits           004784d0 f   va_g729a:intf_g729a.obj
 0001:00077560       _newCopyBits               00478560 f   va_g729a:intf_g729a.obj
 0001:000775f0       _va_g729a_init_encoder     004785f0 f   va_g729a:intf_g729a.obj
 0001:00077600       _va_g729a_encoder          00478600 f   va_g729a:intf_g729a.obj
 0001:00077660       _va_g729a_init_decoder     00478660 f   va_g729a:intf_g729a.obj
 0001:00077690       _va_g729a_decoder          00478690 f   va_g729a:intf_g729a.obj
 0001:00077780       _bin2prm_ld8k              00478780 f   va_g729a:intf_g729a.obj
 0001:000777d0       _prm2bin_ld8k              004787d0 f   va_g729a:intf_g729a.obj
 0001:00077810       _init_coder_ld8a           00478810 f   va_g729a:COD_LD8A.OBJ
 0001:000778d0       _coder_ld8a                004788d0 f   va_g729a:COD_LD8A.OBJ
 0001:00077e80       _init_pre_process          00478e80 f   va_g729a:PRE_PROC.OBJ
 0001:00077ee0       _pre_process               00478ee0 f   va_g729a:PRE_PROC.OBJ
 0001:00077f90       _init_post_process         00478f90 f   va_g729a:POST_PRO.OBJ
 0001:00077ff0       _post_process              00478ff0 f   va_g729a:POST_PRO.OBJ
 0001:000780a0       _init_post_filter          004790a0 f   va_g729a:POSTFILA.OBJ
 0001:000780d0       _post_filter               004790d0 f   va_g729a:POSTFILA.OBJ
 0001:000785d0       _init_decod_ld8a           004795d0 f   va_g729a:DEC_LD8A.OBJ
 0001:00078650       _decod_ld8a                00479650 f   va_g729a:DEC_LD8A.OBJ
 0001:00078920       _parity_pitch              00479920 f   va_g729a:P_PARITY.OBJ
 0001:00078950       _check_parity_pitch        00479950 f   va_g729a:P_PARITY.OBJ
 0001:00078980       _init_exc_err              00479980 f   va_g729a:TAMING.OBJ
 0001:000789b0       _test_err                  004799b0 f   va_g729a:TAMING.OBJ
 0001:00078a50       _update_exc_err            00479a50 f   va_g729a:TAMING.OBJ
 0001:00078b40       _qua_lsp                   00479b40 f   va_g729a:QUA_LSP.OBJ
 0001:00078bb0       _lsp_encw_reset            00479bb0 f   va_g729a:QUA_LSP.OBJ
 0001:00079230       _set_zero                  0047a230 f   va_g729a:UTIL.OBJ
 0001:00079250       _copy                      0047a250 f   va_g729a:UTIL.OBJ
 0001:00079280       _random_g729               0047a280 f   va_g729a:UTIL.OBJ
 0001:000792b0       _qua_gain                  0047a2b0 f   va_g729a:QUA_GAIN.OBJ
 0001:00079620       _corr_xy2                  0047a620 f   va_g729a:COR_FUNC.OBJ
 0001:000796a0       _cor_h_x                   0047a6a0 f   va_g729a:COR_FUNC.OBJ
 0001:000796f0       _ACELP_code_A              0047a6f0 f   va_g729a:ACELP_CA.OBJ
 0001:0007aa20       _pitch_ol_fast             0047ba20 f   va_g729a:PITCH_A.OBJ
 0001:0007ad40       _pitch_fr3_fast            0047bd40 f   va_g729a:PITCH_A.OBJ
 0001:0007aef0       _g_pitch                   0047bef0 f   va_g729a:PITCH_A.OBJ
 0001:0007af80       _enc_lag3                  0047bf80 f   va_g729a:PITCH_A.OBJ
 0001:0007aff0       _syn_filt                  0047bff0 f   va_g729a:FILTER.OBJ
 0001:0007b090       _residu                    0047c090 f   va_g729a:FILTER.OBJ
 0001:0007b0e0       _weight_az                 0047c0e0 f   va_g729a:LPCFUNCA.OBJ
 0001:0007b130       _int_qlpc                  0047c130 f   va_g729a:LPCFUNCA.OBJ
 0001:0007b2c0       _autocorr                  0047c2c0 f   va_g729a:LPCA.OBJ
 0001:0007b370       _lag_window                0047c370 f   va_g729a:LPCA.OBJ
 0001:0007b3a0       _levinson                  0047c3a0 f   va_g729a:LPCA.OBJ
 0001:0007b4a0       _az_lsp                    0047c4a0 f   va_g729a:LPCA.OBJ
 0001:0007b750       _lsp_decw_reset            0047c750 f   va_g729a:LSPDEC.OBJ
 0001:0007b7a0       _d_lsp                     0047c7a0 f   va_g729a:LSPDEC.OBJ
 0001:0007b8b0       _dec_gain                  0047c8b0 f   va_g729a:DEC_GAIN.OBJ
 0001:0007b9a0       _decod_ACELP               0047c9a0 f   va_g729a:DE_ACELP.OBJ
 0001:0007ba40       _pred_lt_3                 0047ca40 f   va_g729a:PRED_LT3.OBJ
 0001:0007bae0       _dec_lag3                  0047cae0 f   va_g729a:DEC_LAG3.OBJ
 0001:0007bb80       _lsp_get_quant             0047cb80 f   va_g729a:LSPGETQ.OBJ
 0001:0007bc50       _lsp_expand_1              0047cc50 f   va_g729a:LSPGETQ.OBJ
 0001:0007bc90       _lsp_expand_2              0047cc90 f   va_g729a:LSPGETQ.OBJ
 0001:0007bcd0       _lsp_expand_1_2            0047ccd0 f   va_g729a:LSPGETQ.OBJ
 0001:0007bd70       _lsp_prev_extract          0047cd70 f   va_g729a:LSPGETQ.OBJ
 0001:0007bdf0       _lsp_prev_update           0047cdf0 f   va_g729a:LSPGETQ.OBJ
 0001:0007bef0       _gain_predict              0047cef0 f   va_g729a:GAINPRED.OBJ
 0001:0007bf70       _gain_update               0047cf70 f   va_g729a:GAINPRED.OBJ
 0001:0007bfa0       _gain_update_erasure       0047cfa0 f   va_g729a:GAINPRED.OBJ
 0001:0007c000       _AVIFileInit@0             0047d000 f   vfw32:AVIFIL32.dll
 0001:0007c006       _AVIFileExit@0             0047d006 f   vfw32:AVIFIL32.dll
 0001:0007c00c       _AVIStreamSetFormat@16     0047d00c f   vfw32:AVIFIL32.dll
 0001:0007c012       _AVIFileCreateStreamA@12   0047d012 f   vfw32:AVIFIL32.dll
 0001:0007c018       _AVIFileOpenA@16           0047d018 f   vfw32:AVIFIL32.dll
 0001:0007c01e       _AVIStreamWrite@32         0047d01e f   vfw32:AVIFIL32.dll
 0001:0007c024       _AVIFileRelease@4          0047d024 f   vfw32:AVIFIL32.dll
 0001:0007c02a       _AVIStreamRelease@4        0047d02a f   vfw32:AVIFIL32.dll
 0001:0007c030       _DrawDibClose@4            0047d030 f   vfw32:MSVFW32.dll
 0001:0007c036       _DrawDibOpen@0             0047d036 f   vfw32:MSVFW32.dll
 0001:0007c03c       _DrawDibDraw@52            0047d03c f   vfw32:MSVFW32.dll
 0001:0007c042       ??_9@$BME@AE               0047d042 f i nafxcw:dlgcore.obj
 0001:0007c04a       ??_9@$BMI@AE               0047d04a f i nafxcw:dlgcore.obj
 0001:0007c052       ?AfxCheckError@@YGXJ@Z     0047d052 f   nafxcw:olevar.obj
 0001:0007c071       ?_AfxCompareSafeArrays@@YGHPAUtagSAFEARRAY@@0@Z 0047d071 f   nafxcw:olevar.obj
 0001:0007c2dd       ??0COleVariant@@QAE@ABV0@@Z 0047d2dd f   nafxcw:olevar.obj
 0001:0007c2dd       ??0COleVariant@@QAE@ABUtagVARIANT@@@Z 0047d2dd f   nafxcw:olevar.obj
 0001:0007c2dd       ??0COleVariant@@QAE@PBUtagVARIANT@@@Z 0047d2dd f   nafxcw:olevar.obj
 0001:0007c2fd       ??0COleVariant@@QAE@PBDG@Z 0047d2fd f   nafxcw:olevar.obj
 0001:0007c378       ??0COleVariant@@QAE@FG@Z   0047d378 f   nafxcw:olevar.obj
 0001:0007c3ae       ??0COleVariant@@QAE@JG@Z   0047d3ae f   nafxcw:olevar.obj
 0001:0007c3f0       ?ChangeType@COleVariant@@QAEXGPAUtagVARIANT@@@Z 0047d3f0 f   nafxcw:olevar.obj
 0001:0007c41b       ??8COleVariant@@QBEHABUtagVARIANT@@@Z 0047d41b f   nafxcw:olevar.obj
 0001:0007c537       ??4COleVariant@@QAEABV0@ABVCString@@@Z 0047d537 f   nafxcw:olevar.obj
 0001:0007c5a9       ??4COleVariant@@QAEABV0@ABVCOleDateTime@@@Z 0047d5a9 f   nafxcw:olevar.obj
 0001:0007c5cd       ?AfxVariantInit@@YGXPAUtagVARIANT@@@Z 0047d5cd f   nafxcw:olevar.obj
 0001:0007c5e0       ??6@YGAAVCArchive@@AAV0@VCOleVariant@@@Z 0047d5e0 f   nafxcw:olevar.obj
 0001:0007c7aa       ??5@YGAAVCArchive@@AAV0@AAVCOleVariant@@@Z 0047d7aa f   nafxcw:olevar.obj
 0001:0007c9db       ?_AfxOleDateFromTm@@YGHGGGGGGAAN@Z 0047d9db f   nafxcw:olevar.obj
 0001:0007cb18       ?_AfxTmFromOleDate@@YGHNAAUtm@@@Z 0047db18 f   nafxcw:olevar.obj
 0001:0007ccf3       ??6CArchive@@QAEAAV0@E@Z   0047dcf3 f i nafxcw:olevar.obj
 0001:0007cd16       ??6CArchive@@QAEAAV0@G@Z   0047dd16 f i nafxcw:olevar.obj
 0001:0007cd3d       ??6CArchive@@QAEAAV0@J@Z   0047dd3d f i nafxcw:olevar.obj
 0001:0007cd3d       ??6CArchive@@QAEAAV0@K@Z   0047dd3d f i nafxcw:olevar.obj
 0001:0007cd3d       ??6CArchive@@QAEAAV0@M@Z   0047dd3d f i nafxcw:olevar.obj
 0001:0007cd63       ??6CArchive@@QAEAAV0@N@Z   0047dd63 f i nafxcw:olevar.obj
 0001:0007cd90       ?_AfxTmConvertToStandardFormat@@YGXAAUtm@@@Z 0047dd90 f   nafxcw:olevar.obj
 0001:0007cda7       ?_AfxDoubleFromDate@@YGNN@Z 0047dda7 f   nafxcw:olevar.obj
 0001:0007cdcd       ??5CArchive@@QAEAAV0@AAE@Z 0047ddcd f i nafxcw:olevar.obj
 0001:0007cdfc       ??5CArchive@@QAEAAV0@AAG@Z 0047ddfc f i nafxcw:olevar.obj
 0001:0007ce2f       ??5CArchive@@QAEAAV0@AAM@Z 0047de2f f i nafxcw:olevar.obj
 0001:0007ce2f       ??5CArchive@@QAEAAV0@AAJ@Z 0047de2f f i nafxcw:olevar.obj
 0001:0007ce2f       ??5CArchive@@QAEAAV0@AAK@Z 0047de2f f i nafxcw:olevar.obj
 0001:0007ce61       ??5CArchive@@QAEAAV0@AAN@Z 0047de61 f i nafxcw:olevar.obj
 0001:0007ce99       ??4COleDateTime@@QAEABV0@N@Z 0047de99 f   nafxcw:olevar.obj
 0001:0007cea8       ??4COleDateTime@@QAEABV0@ABU_SYSTEMTIME@@@Z 0047dea8 f   nafxcw:olevar.obj
 0001:0007cee0       ??MCOleDateTime@@QBEHABV0@@Z 0047dee0 f   nafxcw:olevar.obj
 0001:0007cf16       ?SetDateTime@COleDateTime@@QAEHHHHHHH@Z 0047df16 f   nafxcw:olevar.obj
 0001:0007cf41       ?ParseDateTime@COleDateTime@@QAEHPBDKK@Z 0047df41 f   nafxcw:olevar.obj
 0001:0007d00b       ?Format@COleDateTime@@QBE?AVCString@@KK@Z 0047e00b f   nafxcw:olevar.obj
 0001:0007d116       ?Format@COleDateTime@@QBE?AVCString@@PBD@Z 0047e116 f   nafxcw:olevar.obj
 0001:0007d1da       ??6@YGAAVCArchive@@AAV0@VCOleDateTime@@@Z 0047e1da f   nafxcw:olevar.obj
 0001:0007d1fc       ??5@YGAAVCArchive@@AAV0@AAVCOleDateTime@@@Z 0047e1fc f   nafxcw:olevar.obj
 0001:0007d21c       ??0COleSafeArray@@QAE@PBUtagVARIANT@@@Z 0047e21c f   nafxcw:olevar.obj
 0001:0007d24e       ??4COleSafeArray@@QAEAAV0@PBUtagVARIANT@@@Z 0047e24e f   nafxcw:olevar.obj
 0001:0007d24e       ??4COleVariant@@QAEABV0@ABUtagVARIANT@@@Z 0047e24e f   nafxcw:olevar.obj
 0001:0007d24e       ??4COleVariant@@QAEABV0@ABV0@@Z 0047e24e f   nafxcw:olevar.obj
 0001:0007d268       ?CreateOneDim@COleSafeArray@@QAEXGKPBXJ@Z 0047e268 f   nafxcw:olevar.obj
 0001:0007d2c4       ?GetOneDimSize@COleSafeArray@@QAEKXZ 0047e2c4 f   nafxcw:olevar.obj
 0001:0007d2ee       ?Create@COleSafeArray@@QAEXGKPAUtagSAFEARRAYBOUND@@@Z 0047e2ee f   nafxcw:olevar.obj
 0001:0007d338       ?AccessData@COleSafeArray@@QAEXPAPAX@Z 0047e338 f   nafxcw:olevar.obj
 0001:0007d34e       ?UnaccessData@COleSafeArray@@QAEXXZ 0047e34e f   nafxcw:olevar.obj
 0001:0007d35e       ?GetLBound@COleSafeArray@@QAEXKPAJ@Z 0047e35e f   nafxcw:olevar.obj
 0001:0007d378       ?GetUBound@COleSafeArray@@QAEXKPAJ@Z 0047e378 f   nafxcw:olevar.obj
 0001:0007d392       ?AfxSafeArrayInit@@YGXPAVCOleSafeArray@@@Z 0047e392 f   nafxcw:olevar.obj
 0001:0007d3a5       ??_GCListBox@@UAEPAXI@Z    0047e3a5 f i nafxcw:winctrl1.obj
 0001:0007d3a5       ??_ECListBox@@UAEPAXI@Z    0047e3a5 f i nafxcw:winctrl1.obj
 0001:0007d3c1       ??_ECScrollBar@@UAEPAXI@Z  0047e3c1 f i nafxcw:winctrl1.obj
 0001:0007d3c1       ??_GCScrollBar@@UAEPAXI@Z  0047e3c1 f i nafxcw:winctrl1.obj
 0001:0007d3dd       _InitMultipleMonitorStubs  0047e3dd f   nafxcw:wincore.obj
 0001:0007d4b5       _xMonitorFromRect@8        0047e4b5 f   nafxcw:wincore.obj
 0001:0007d50b       _xMonitorFromWindow@8      0047e50b f   nafxcw:wincore.obj
 0001:0007d576       _xGetMonitorInfo@8         0047e576 f   nafxcw:wincore.obj
 0001:0007d609       ?GetOwner@CWnd@@QBEPAV1@XZ 0047e609 f i nafxcw:wincore.obj
 0001:0007d620       ??1CWaitCursor@@QAE@XZ     0047e620 f i nafxcw:wincore.obj
 0001:0007d62d       ?id@?$ctype@G@std@@$E      0047e62d f i nafxcw:filecore.obj
 0001:0007d62d       ?id@?$collate@D@std@@$E    0047e62d f i nafxcw:filecore.obj
 0001:0007d62d       ??1CException@@UAE@XZ      0047e62d f i nafxcw:filecore.obj
 0001:0007d62d       ??1COccManager@@UAE@XZ     0047e62d f i nafxcw:filecore.obj
 0001:0007d62d       ?PostNcDestroy@CHtmlCtrl@@UAEXXZ 0047e62d f i nafxcw:filecore.obj
 0001:0007d62d       ??1CObject@@UAE@XZ         0047e62d f i nafxcw:filecore.obj
 0001:0007d62d       ??1CNoTrackObject@@UAE@XZ  0047e62d f i nafxcw:filecore.obj
 0001:0007d62e       ??_GCFileException@@UAEPAXI@Z 0047e62e f i nafxcw:filecore.obj
 0001:0007d62e       ??_ECFileException@@UAEPAXI@Z 0047e62e f i nafxcw:filecore.obj
 0001:0007d64a       ??1CFileException@@UAE@XZ  0047e64a f i nafxcw:filecore.obj
 0001:0007d676       ?SetFilePath@CFile@@UAEXPBD@Z 0047e676 f i nafxcw:filecore.obj
 0001:0007d685       ??0CMemoryException@@QAE@HI@Z 0047e685 f i nafxcw:except.obj
 0001:0007d6af       ??_GCMemoryException@@UAEPAXI@Z 0047e6af f i nafxcw:except.obj
 0001:0007d6af       ??_ECMemoryException@@UAEPAXI@Z 0047e6af f i nafxcw:except.obj
 0001:0007d6cb       ??1CMemoryException@@UAE@XZ 0047e6cb f i nafxcw:except.obj
 0001:0007d6d2       ??0CNotSupportedException@@QAE@HI@Z 0047e6d2 f i nafxcw:except.obj
 0001:0007d6fc       ??_ECNotSupportedException@@UAEPAXI@Z 0047e6fc f i nafxcw:except.obj
 0001:0007d6fc       ??_GCNotSupportedException@@UAEPAXI@Z 0047e6fc f i nafxcw:except.obj
 0001:0007d718       ??1CNotSupportedException@@UAE@XZ 0047e718 f i nafxcw:except.obj
 0001:0007d71f       ??0CResourceException@@QAE@HI@Z 0047e71f f i nafxcw:wingdi.obj
 0001:0007d749       ??_GCResourceException@@UAEPAXI@Z 0047e749 f i nafxcw:wingdi.obj
 0001:0007d749       ??_ECResourceException@@UAEPAXI@Z 0047e749 f i nafxcw:wingdi.obj
 0001:0007d765       ??1CResourceException@@UAE@XZ 0047e765 f i nafxcw:wingdi.obj
 0001:0007d76c       ??0CUserException@@QAE@HI@Z 0047e76c f i nafxcw:wingdi.obj
 0001:0007d796       ??_GCUserException@@UAEPAXI@Z 0047e796 f i nafxcw:wingdi.obj
 0001:0007d796       ??_ECUserException@@UAEPAXI@Z 0047e796 f i nafxcw:wingdi.obj
 0001:0007d7b2       ??1CUserException@@UAE@XZ  0047e7b2 f i nafxcw:wingdi.obj
 0001:0007d7b9       ?PtVisible@CDC@@UBEHHH@Z   0047e7b9 f i nafxcw:wingdi.obj
 0001:0007d7cd       ?RectVisible@CDC@@UBEHPBUtagRECT@@@Z 0047e7cd f i nafxcw:wingdi.obj
 0001:0007d7dd       ?TextOutA@CDC@@UAEHHHPBDH@Z 0047e7dd f i nafxcw:wingdi.obj
 0001:0007d7f9       ?ExtTextOutA@CDC@@UAEHHHIPBUtagRECT@@PBDIPAH@Z 0047e7f9 f i nafxcw:wingdi.obj
 0001:0007d81e       ?TabbedTextOutA@CDC@@UAE?AVCSize@@HHPBDHHPAHH@Z 0047e81e f i nafxcw:wingdi.obj
 0001:0007d856       ?DrawTextA@CDC@@UAEHPBDHPAUtagRECT@@I@Z 0047e856 f i nafxcw:wingdi.obj
 0001:0007d872       ?GrayStringA@CDC@@UAEHPAVCBrush@@P6GHPAUHDC__@@JH@ZJHHHHH@Z 0047e872 f i nafxcw:wingdi.obj
 0001:0007d8a2       ?Escape@CDC@@UAEHHHPBDPAX@Z 0047e8a2 f i nafxcw:wingdi.obj
 0001:0007d8df       ??1?$CProcessLocal@VCOccManager@@@@QAE@XZ 0047e8df f i nafxcw:occmgr.obj
 0001:0007d8e4       ?AfxEnableControlContainer@@YAXPAVCOccManager@@@Z 0047e8e4 f   nafxcw:occmgr.obj
 0001:0007d90b       ?_AfxFindFirstDlgItem@@YGPAUDLGITEMTEMPLATE@@PBUDLGTEMPLATE@@@Z 0047e90b f   nafxcw:occmgr.obj
 0001:0007d991       ?_AfxFindNextDlgItem@@YGPAUDLGITEMTEMPLATE@@PAU1@H@Z 0047e991 f   nafxcw:occmgr.obj
 0001:0007d9e5       ?OnEvent@COccManager@@UAEHPAVCCmdTarget@@IPAUAFX_EVENT@@PAUAFX_CMDHANDLERINFO@@@Z 0047e9e5 f   nafxcw:occmgr.obj
 0001:0007d9fd       ?CreateContainer@COccManager@@UAEPAVCOleControlContainer@@PAVCWnd@@@Z 0047e9fd f   nafxcw:occmgr.obj
 0001:0007da34       ?CreateSite@COccManager@@UAEPAVCOleControlSite@@PAVCOleControlContainer@@@Z 0047ea34 f   nafxcw:occmgr.obj
 0001:0007da6e       ?PreCreateDialog@COccManager@@UAEPBUDLGTEMPLATE@@PAU_AFX_OCC_DIALOG_INFO@@PBU2@@Z 0047ea6e f   nafxcw:occmgr.obj
 0001:0007dab8       ?PostCreateDialog@COccManager@@UAEXPAU_AFX_OCC_DIALOG_INFO@@@Z 0047eab8 f   nafxcw:occmgr.obj
 0001:0007dadc       ?SplitDialogTemplate@COccManager@@UAEPAUDLGTEMPLATE@@PBU2@PAPAUDLGITEMTEMPLATE@@@Z 0047eadc f   nafxcw:occmgr.obj
 0001:0007dc1b       ?CreateDlgControls@COccManager@@UAEHPAVCWnd@@PBDPAU_AFX_OCC_DIALOG_INFO@@@Z 0047ec1b f   nafxcw:occmgr.obj
 0001:0007dc76       ?CreateDlgControls@COccManager@@UAEHPAVCWnd@@PAXPAU_AFX_OCC_DIALOG_INFO@@@Z 0047ec76 f   nafxcw:occmgr.obj
 0001:0007ddd1       ?BindControls@COccManager@@IAEXPAVCWnd@@@Z 0047edd1 f   nafxcw:occmgr.obj
 0001:0007deec       ?CreateDlgControl@COccManager@@IAEPAUHWND__@@PAVCWnd@@PAU2@HPAUDLGITEMTEMPLATE@@GPAEK@Z 0047eeec f   nafxcw:occmgr.obj
 0001:0007e1b7       ?CreateObject@?$CProcessLocal@VCOccManager@@@@SGPAVCNoTrackObject@@XZ 0047f1b7 f i nafxcw:occmgr.obj
 0001:0007e1cc       ??_GCOccManager@@UAEPAXI@Z 0047f1cc f i nafxcw:occmgr.obj
 0001:0007e1cc       ??_ECOccManager@@UAEPAXI@Z 0047f1cc f i nafxcw:occmgr.obj
 0001:0007e1e7       ??_9@$BOA@AE               0047f1e7 f i nafxcw:viewcore.obj
 0001:0007e1ef       ??1CPushRoutingView@@QAE@XZ 0047f1ef f i nafxcw:viewcore.obj
 0001:0007e1fb       ??1CPushRoutingFrame@@QAE@XZ 0047f1fb f i nafxcw:winfrm.obj
 0001:0007e207       ??_GCRgn@@UAEPAXI@Z        0047f207 f i nafxcw:winctrl2.obj
 0001:0007e207       ??_ECRgn@@UAEPAXI@Z        0047f207 f i nafxcw:winctrl2.obj
 0001:0007e223       ??1CRgn@@UAE@XZ            0047f223 f i nafxcw:winctrl2.obj
 0001:0007e24c       ??_ECHeaderCtrl@@UAEPAXI@Z 0047f24c f i nafxcw:winctrl2.obj
 0001:0007e24c       ??_GCHeaderCtrl@@UAEPAXI@Z 0047f24c f i nafxcw:winctrl2.obj
 0001:0007e268       ??_ECTabCtrl@@UAEPAXI@Z    0047f268 f i nafxcw:winctrl2.obj
 0001:0007e268       ??_GCTabCtrl@@UAEPAXI@Z    0047f268 f i nafxcw:winctrl2.obj
 0001:0007e284       ?GetMessageMap@CHtmlView@@MBEPBUAFX_MSGMAP@@XZ 0047f284 f   nafxcw:viewhtml.obj
 0001:0007e28a       ?GetEventSinkMap@CHtmlView@@MBEPBUAFX_EVENTSINKMAP@@XZ 0047f28a f   nafxcw:viewhtml.obj
 0001:0007e290       ??0CHtmlView@@IAE@XZ       0047f290 f   nafxcw:viewhtml.obj
 0001:0007e2d0       ??_GCHtmlView@@UAEPAXI@Z   0047f2d0 f i nafxcw:viewhtml.obj
 0001:0007e2d0       ??_ECHtmlView@@UAEPAXI@Z   0047f2d0 f i nafxcw:viewhtml.obj
 0001:0007e2ec       ??1CFormView@@UAE@XZ       0047f2ec f i nafxcw:viewhtml.obj
 0001:0007e2f1       ??1CHtmlView@@UAE@XZ       0047f2f1 f   nafxcw:viewhtml.obj
 0001:0007e343       ?OnFilePrint@CHtmlView@@QAEXXZ 0047f343 f   nafxcw:viewhtml.obj
 0001:0007e395       ?OnDestroy@CHtmlView@@IAEXXZ 0047f395 f   nafxcw:viewhtml.obj
 0001:0007e3a2       ?OnSize@CHtmlView@@IAEXIHH@Z 0047f3a2 f   nafxcw:viewhtml.obj
 0001:0007e416       ?OnPaint@CHtmlView@@IAEXXZ 0047f416 f   nafxcw:viewhtml.obj
 0001:0007e41b       ?Create@CHtmlView@@UAEHPBD0KABUtagRECT@@PAVCWnd@@IPAUCCreateContext@@@Z 0047f41b f   nafxcw:viewhtml.obj
 0001:0007e4c1       ?GetHtmlDocument@CHtmlView@@QBEPAUIDispatch@@XZ 0047f4c1 f   nafxcw:viewhtml.obj
 0001:0007e4da       ?Navigate2@CHtmlView@@QAEXPBDK00PAXK@Z 0047f4da f   nafxcw:viewhtml.obj
 0001:0007e5bc       ?NavigateComplete2@CHtmlView@@MAEXPAUIDispatch@@PAUtagVARIANT@@@Z 0047f5bc f   nafxcw:viewhtml.obj
 0001:0007e647       ?BeforeNavigate2@CHtmlView@@MAEXPAUIDispatch@@PAUtagVARIANT@@1111PAH@Z 0047f647 f   nafxcw:viewhtml.obj
 0001:0007e761       ?DocumentComplete@CHtmlView@@MAEXPAUIDispatch@@PAUtagVARIANT@@@Z 0047f761 f   nafxcw:viewhtml.obj
 0001:0007e7a8       ?OnProgressChange@CHtmlView@@UAEXJJ@Z 0047f7a8 f   nafxcw:viewhtml.obj
 0001:0007e7a8       ?OnNewWindow2@CHtmlView@@UAEXPAPAUIDispatch@@PAH@Z 0047f7a8 f   nafxcw:viewhtml.obj
 0001:0007e7a8       ?OnCommandStateChange@CHtmlView@@UAEXJH@Z 0047f7a8 f   nafxcw:viewhtml.obj
 0001:0007e7ab       ?OnDraw@CHtmlView@@UAEXPAVCDC@@@Z 0047f7ab f   nafxcw:viewhtml.obj
 0001:0007e7ab       ?OnTheaterMode@CHtmlView@@UAEXH@Z 0047f7ab f   nafxcw:viewhtml.obj
 0001:0007e7ab       ?OnTitleChange@CHtmlView@@UAEXPBD@Z 0047f7ab f   nafxcw:viewhtml.obj
 0001:0007e7ab       ?OnStatusBar@CHtmlView@@UAEXH@Z 0047f7ab f   nafxcw:viewhtml.obj
 0001:0007e7ab       ?OnNavigateComplete2@CHtmlView@@UAEXPBD@Z 0047f7ab f   nafxcw:viewhtml.obj
 0001:0007e7ab       ?OnDocumentComplete@CHtmlView@@UAEXPBD@Z 0047f7ab f   nafxcw:viewhtml.obj
 0001:0007e7ab       ?OnPropertyChange@CHtmlView@@UAEXPBD@Z 0047f7ab f   nafxcw:viewhtml.obj
 0001:0007e7ab       ?OnFullScreen@CHtmlView@@UAEXH@Z 0047f7ab f   nafxcw:viewhtml.obj
 0001:0007e7ab       ?OnVisible@CHtmlView@@UAEXH@Z 0047f7ab f   nafxcw:viewhtml.obj
 0001:0007e7ab       ?OnMenuBar@CHtmlView@@UAEXH@Z 0047f7ab f   nafxcw:viewhtml.obj
 0001:0007e7ab       ?OnToolBar@CHtmlView@@UAEXH@Z 0047f7ab f   nafxcw:viewhtml.obj
 0001:0007e7ae       ?OnBeforeNavigate2@CHtmlView@@UAEXPBDK0AAVCByteArray@@0PAH@Z 0047f7ae f   nafxcw:viewhtml.obj
 0001:0007e7b1       ?OnStatusTextChange@CHtmlView@@UAEXPBD@Z 0047f7b1 f   nafxcw:viewhtml.obj
 0001:0007e7c8       ??_9@$BBDM@AE              0047f7c8 f i nafxcw:viewhtml.obj
 0001:0007e7d0       ??_9@$BBBM@AE              0047f7d0 f i nafxcw:viewhtml.obj
 0001:0007e7d8       ??_9@$BBEA@AE              0047f7d8 f i nafxcw:viewhtml.obj
 0001:0007e7e0       ??_9@$BBCA@AE              0047f7e0 f i nafxcw:viewhtml.obj
 0001:0007e7e8       ??_9@$BBEE@AE              0047f7e8 f i nafxcw:viewhtml.obj
 0001:0007e7f0       ??_9@$BBCE@AE              0047f7f0 f i nafxcw:viewhtml.obj
 0001:0007e7f8       ??_9@$BBEI@AE              0047f7f8 f i nafxcw:viewhtml.obj
 0001:0007e800       ??_9@$BBCI@AE              0047f800 f i nafxcw:viewhtml.obj
 0001:0007e808       ??_9@$BBEM@AE              0047f808 f i nafxcw:viewhtml.obj
 0001:0007e810       ??_9@$BBCM@AE              0047f810 f i nafxcw:viewhtml.obj
 0001:0007e818       ??_9@$BBFA@AE              0047f818 f i nafxcw:viewhtml.obj
 0001:0007e820       ??_9@$BBBA@AE              0047f820 f i nafxcw:viewhtml.obj
 0001:0007e828       ??_9@$BBDE@AE              0047f828 f i nafxcw:viewhtml.obj
 0001:0007e830       ??_9@$BBFE@AE              0047f830 f i nafxcw:viewhtml.obj
 0001:0007e838       ??_9@$BBBE@AE              0047f838 f i nafxcw:viewhtml.obj
 0001:0007e840       ??_9@$BBDI@AE              0047f840 f i nafxcw:viewhtml.obj
 0001:0007e848       ??_9@$BBFI@AE              0047f848 f i nafxcw:viewhtml.obj
 0001:0007e850       ??_9@$BBBI@AE              0047f850 f i nafxcw:viewhtml.obj
 0001:0007e858       ??1COleVariant@@QAE@XZ     0047f858 f i nafxcw:viewhtml.obj
 0001:0007e858       ??1COleSafeArray@@QAE@XZ   0047f858 f i nafxcw:viewhtml.obj
 0001:0007e860       ??0CPoint@@QAE@K@Z         0047f860 f i nafxcw:barcore.obj
 0001:0007e877       ?OnCancelMode@CWnd@@IAEXXZ 0047f877 f i nafxcw:barcore.obj
 0001:0007e87c       ?OnEraseBkgnd@CWnd@@IAEHPAVCDC@@@Z 0047f87c f i nafxcw:barcore.obj
 0001:0007e884       ?OnShowWindow@CWnd@@IAEXHI@Z 0047f884 f i nafxcw:barcore.obj
 0001:0007e88c       ?Unlock@CSyncObject@@UAEHJPAJ@Z 0047f88c f i nafxcw:inet.obj
 0001:0007e892       ??_GCCriticalSection@@UAEPAXI@Z 0047f892 f i nafxcw:inet.obj
 0001:0007e892       ??_ECCriticalSection@@UAEPAXI@Z 0047f892 f i nafxcw:inet.obj
 0001:0007e8ae       ??1CCriticalSection@@UAE@XZ 0047f8ae f i nafxcw:inet.obj
 0001:0007e8ca       ?Lock@CCriticalSection@@UAEHK@Z 0047f8ca f i nafxcw:inet.obj
 0001:0007e8da       ?Unlock@CCriticalSection@@UAEHXZ 0047f8da f i nafxcw:inet.obj
 0001:0007e8e8       ??_GCGopherLocator@@UAEPAXI@Z 0047f8e8 f i nafxcw:inet.obj
 0001:0007e8e8       ??_ECGopherLocator@@UAEPAXI@Z 0047f8e8 f i nafxcw:inet.obj
 0001:0007e904       ??_GCOleException@@UAEPAXI@Z 0047f904 f i nafxcw:olemisc.obj
 0001:0007e904       ??_ECOleException@@UAEPAXI@Z 0047f904 f i nafxcw:olemisc.obj
 0001:0007e920       ??1COleException@@UAE@XZ   0047f920 f i nafxcw:olemisc.obj
 0001:0007e927       ??_ECHandleMap@@UAEPAXI@Z  0047f927 f i nafxcw:winhand.obj
 0001:0007e927       ??_GCHandleMap@@UAEPAXI@Z  0047f927 f i nafxcw:winhand.obj
 0001:0007e943       ??1CHandleMap@@UAE@XZ      0047f943 f i nafxcw:winhand.obj
 0001:0007e98b       ??0CFixedAlloc@@QAE@II@Z   0047f98b f   nafxcw:fixalloc.obj
 0001:0007e9b3       ??1CFixedAlloc@@QAE@XZ     0047f9b3 f   nafxcw:fixalloc.obj
 0001:0007e9c7       ?FreeAll@CFixedAlloc@@QAEXXZ 0047f9c7 f   nafxcw:fixalloc.obj
 0001:0007e9ef       ?Alloc@CFixedAlloc@@QAEPAXXZ 0047f9ef f   nafxcw:fixalloc.obj
 0001:0007ea7e       ?Free@CFixedAlloc@@QAEXPAX@Z 0047fa7e f   nafxcw:fixalloc.obj
 0001:0007eaaa       ?OnEvent@CCmdTarget@@QAEHIPAUAFX_EVENT@@PAUAFX_CMDHANDLERINFO@@@Z 0047faaa f   nafxcw:occevent.obj
 0001:0007ecbc       ?GetEventSinkEntry@CCmdTarget@@IAGPBUAFX_EVENTSINKMAP_ENTRY@@IPAUAFX_EVENT@@@Z 0047fcbc f   nafxcw:occevent.obj
 0001:0007ed31       ?CreateControl@CWnd@@QAEHABU_GUID@@PBDKABUtagRECT@@PAV1@IPAVCFile@@HPAG@Z 0047fd31 f   nafxcw:occcont.obj
 0001:0007ed8f       ?CreateControl@CWnd@@QAEHABU_GUID@@PBDKPBUtagPOINT@@PBUtagSIZE@@PAV1@IPAVCFile@@HPAG@Z 0047fd8f f   nafxcw:occcont.obj
 0001:0007edd8       ?InitControlContainer@CWnd@@IAEHXZ 0047fdd8 f   nafxcw:occcont.obj
 0001:0007ee81       ?GetInterfaceMap@COleControlContainer@@MBEPBUAFX_INTERFACEMAP@@XZ 0047fe81 f   nafxcw:occcont.obj
 0001:0007ee87       ?GetDispatchMap@COleControlContainer@@MBEPBUAFX_DISPMAP@@XZ 0047fe87 f   nafxcw:occcont.obj
 0001:0007ee8d       ??0COleControlContainer@@QAE@PAVCWnd@@@Z 0047fe8d f   nafxcw:occcont.obj
 0001:0007eeec       ??_GCOleControlContainer@@UAEPAXI@Z 0047feec f i nafxcw:occcont.obj
 0001:0007eeec       ??_ECOleControlContainer@@UAEPAXI@Z 0047feec f i nafxcw:occcont.obj
 0001:0007ef08       ??1COleControlContainer@@UAE@XZ 0047ff08 f   nafxcw:occcont.obj
 0001:0007efe6       ?CreateControl@COleControlContainer@@QAEHPAVCWnd@@ABU_GUID@@PBDKABUtagRECT@@IPAVCFile@@HPAGPAPAVCOleControlSite@@@Z 0047ffe6 f   nafxcw:occcont.obj
 0001:0007f047       ?CreateControl@COleControlContainer@@QAEHPAVCWnd@@ABU_GUID@@PBDKPBUtagPOINT@@PBUtagSIZE@@IPAVCFile@@HPAGPAPAVCOleControlSite@@@Z 00480047 f   nafxcw:occcont.obj
 0001:0007f102       ?FindItem@COleControlContainer@@UBEPAVCOleControlSite@@I@Z 00480102 f   nafxcw:occcont.obj
 0001:0007f14c       ?GetAmbientProp@COleControlContainer@@UAEHPAVCOleControlSite@@JPAUtagVARIANT@@@Z 0048014c f   nafxcw:occcont.obj
 0001:0007f354       ?CreateOleFont@COleControlContainer@@QAEXPAVCFont@@@Z 00480354 f   nafxcw:occcont.obj
 0001:0007f4cd       ?FreezeAllEvents@COleControlContainer@@QAEXH@Z 004804cd f   nafxcw:occcont.obj
 0001:0007f50e       ?ScrollChildren@COleControlContainer@@UAEXHH@Z 0048050e f   nafxcw:occcont.obj
 0001:0007f568       ?OnUIActivate@COleControlContainer@@UAEXPAVCOleControlSite@@@Z 00480568 f   nafxcw:occcont.obj
 0001:0007f586       ?OnUIDeactivate@COleControlContainer@@UAEXPAVCOleControlSite@@@Z 00480586 f   nafxcw:occcont.obj
 0001:0007f596       ?CheckDlgButton@COleControlContainer@@UAEXHI@Z 00480596 f   nafxcw:occcont.obj
 0001:0007f5d3       ?CheckRadioButton@COleControlContainer@@UAEXHHH@Z 004805d3 f   nafxcw:occcont.obj
 0001:0007f5fb       ?GetDlgItem@COleControlContainer@@UBEPAVCWnd@@H@Z 004805fb f   nafxcw:occcont.obj
 0001:0007f616       ?GetDlgItem@COleControlContainer@@UBEXHPAPAUHWND__@@@Z 00480616 f   nafxcw:occcont.obj
 0001:0007f652       ?GetDlgItemInt@COleControlContainer@@UBEIHPAHH@Z 00480652 f   nafxcw:occcont.obj
 0001:0007f700       ?GetDlgItemTextA@COleControlContainer@@UBEHHPADH@Z 00480700 f   nafxcw:occcont.obj
 0001:0007f71f       ?SendDlgItemMessageA@COleControlContainer@@UAEJHIIJ@Z 0048071f f   nafxcw:occcont.obj
 0001:0007f744       ?SetDlgItemInt@COleControlContainer@@UAEXHIH@Z 00480744 f   nafxcw:occcont.obj
 0001:0007f781       ?SetDlgItemTextA@COleControlContainer@@UAEXHPBD@Z 00480781 f   nafxcw:occcont.obj
 0001:0007f79c       ?IsDlgButtonChecked@COleControlContainer@@UBEIH@Z 0048079c f   nafxcw:occcont.obj
 0001:0007f818       ?QueryInterface@XOleIPFrame@COleControlContainer@@UAGJABU_GUID@@PAPAX@Z 00480818 f   nafxcw:occcont.obj
 0001:0007f82f       ?AddRef@XOleIPFrame@COleControlContainer@@UAGKXZ 0048082f f   nafxcw:occcont.obj
 0001:0007f840       ?Release@XOleIPFrame@COleControlContainer@@UAGKXZ 00480840 f   nafxcw:occcont.obj
 0001:0007f84f       ?GetWindow@XOleIPFrame@COleControlContainer@@UAGJPAPAUHWND__@@@Z 0048084f f   nafxcw:occcont.obj
 0001:0007f864       ?SetActiveObject@XOleIPFrame@COleControlContainer@@UAGJPAUIOleInPlaceActiveObject@@PBG@Z 00480864 f   nafxcw:occcont.obj
 0001:0007f89b       ?SetMenu@XOleIPFrame@COleControlContainer@@UAGJPAUHMENU__@@PAXPAUHWND__@@@Z 0048089b f   nafxcw:occcont.obj
 0001:0007f89b       ?GetMoniker@XOleClientSite@COleControlSite@@UAGJKKPAPAUIMoniker@@@Z 0048089b f   nafxcw:occcont.obj
 0001:0007f89b       ?GetTypeInfo@XEventSink@COleControlSite@@UAGJIKPAPAUITypeInfo@@@Z 0048089b f   nafxcw:occcont.obj
 0001:0007f89b       ?GetTypeInfo@XAmbientProps@COleControlSite@@UAGJIKPAPAUITypeInfo@@@Z 0048089b f   nafxcw:occcont.obj
 0001:0007f8a3       ?ContextSensitiveHelp@XOleIPFrame@COleControlContainer@@UAGJH@Z 004808a3 f   nafxcw:occcont.obj
 0001:0007f8a3       ?GetExtendedControl@XOleControlSite@COleControlSite@@UAGJPAPAUIDispatch@@@Z 004808a3 f   nafxcw:occcont.obj
 0001:0007f8a3       ?RemoveMenus@XOleIPFrame@COleControlContainer@@UAGJPAUHMENU__@@@Z 004808a3 f   nafxcw:occcont.obj
 0001:0007f8a3       ?SetBorderSpace@XOleIPFrame@COleControlContainer@@UAGJPBUtagRECT@@@Z 004808a3 f   nafxcw:occcont.obj
 0001:0007f8a3       ?ContextSensitiveHelp@XOleIPSite@COleControlSite@@UAGJH@Z 004808a3 f   nafxcw:occcont.obj
 0001:0007f8a3       ?GetTypeInfoCount@XAmbientProps@COleControlSite@@UAGJPAI@Z 004808a3 f   nafxcw:occcont.obj
 0001:0007f8a3       ?SetStatusText@XOleIPFrame@COleControlContainer@@UAGJPBG@Z 004808a3 f   nafxcw:occcont.obj
 0001:0007f8a3       ?GetBorder@XOleIPFrame@COleControlContainer@@UAGJPAUtagRECT@@@Z 004808a3 f   nafxcw:occcont.obj
 0001:0007f8a3       ?GetTypeInfoCount@XEventSink@COleControlSite@@UAGJPAI@Z 004808a3 f   nafxcw:occcont.obj
 0001:0007f8a3       ?RequestBorderSpace@XOleIPFrame@COleControlContainer@@UAGJPBUtagRECT@@@Z 004808a3 f   nafxcw:occcont.obj
 0001:0007f8a3       ?LockInPlaceActive@XOleControlSite@COleControlSite@@UAGJH@Z 004808a3 f   nafxcw:occcont.obj
 0001:0007f8a3       ?LockContainer@XOleContainer@COleControlContainer@@UAGJH@Z 004808a3 f   nafxcw:occcont.obj
 0001:0007f8ab       ?TranslateAcceleratorA@XOleIPFrame@COleControlContainer@@UAGJPAUtagMSG@@G@Z 004808ab f   nafxcw:occcont.obj
 0001:0007f8ab       ?InsertMenus@XOleIPFrame@COleControlContainer@@UAGJPAUHMENU__@@PAUtagOleMenuGroupWidths@@@Z 004808ab f   nafxcw:occcont.obj
 0001:0007f8ab       ?TranslateAcceleratorA@XOleControlSite@COleControlSite@@UAGJPAUtagMSG@@K@Z 004808ab f   nafxcw:occcont.obj
 0001:0007f8b3       ?GetInterfaceMap@CEnumUnknown@@MBEPBUAFX_INTERFACEMAP@@XZ 004808b3 f   nafxcw:occcont.obj
 0001:0007f8b9       ??1CEnumUnknown@@UAE@XZ    004808b9 f   nafxcw:occcont.obj
 0001:0007f90f       ??_GCEnumUnknown@@UAEPAXI@Z 0048090f f i nafxcw:occcont.obj
 0001:0007f90f       ??_ECEnumUnknown@@UAEPAXI@Z 0048090f f i nafxcw:occcont.obj
 0001:0007f92b       ?OnNext@CEnumUnknown@@MAEHPAX@Z 0048092b f   nafxcw:occcont.obj
 0001:0007f949       ?QueryInterface@XOleContainer@COleControlContainer@@UAGJABU_GUID@@PAPAX@Z 00480949 f   nafxcw:occcont.obj
 0001:0007f960       ?Release@XOleContainer@COleControlContainer@@UAGKXZ 00480960 f   nafxcw:occcont.obj
 0001:0007f96f       ?AddRef@XOleContainer@COleControlContainer@@UAGKXZ 0048096f f   nafxcw:occcont.obj
 0001:0007f980       ?ParseDisplayName@XOleContainer@COleControlContainer@@UAGJPAUIBindCtx@@PAGPAKPAPAUIMoniker@@@Z 00480980 f   nafxcw:occcont.obj
 0001:0007f988       ?EnumObjects@XOleContainer@COleControlContainer@@UAGJKPAPAUIEnumUnknown@@@Z 00480988 f   nafxcw:occcont.obj
 0001:0007fa96       ?GetFont@CWnd@@QBEPAVCFont@@XZ 00480a96 f i nafxcw:occcont.obj
 0001:0007faac       ?GetInterfaceMap@COleControlSite@@MBEPBUAFX_INTERFACEMAP@@XZ 00480aac f   nafxcw:occsite.obj
 0001:0007fab2       ??0COleControlSite@@QAE@PAVCOleControlContainer@@@Z 00480ab2 f   nafxcw:occsite.obj
 0001:0007fbb9       ??_GCOleControlSite@@UAEPAXI@Z 00480bb9 f i nafxcw:occsite.obj
 0001:0007fbb9       ??_ECOleControlSite@@UAEPAXI@Z 00480bb9 f i nafxcw:occsite.obj
 0001:0007fbd5       ??1COleControlSite@@UAE@XZ 00480bd5 f   nafxcw:occsite.obj
 0001:0007fd01       ?SetExtent@COleControlSite@@IAEHXZ 00480d01 f   nafxcw:occsite.obj
 0001:0007fda9       ?CreateControl@COleControlSite@@QAEJPAVCWnd@@ABU_GUID@@PBDKPBUtagPOINT@@PBUtagSIZE@@IPAVCFile@@HPAG@Z 00480da9 f   nafxcw:occsite.obj
 0001:00080046       ?DestroyControl@COleControlSite@@UAEHXZ 00481046 f   nafxcw:occsite.obj
 0001:00080075       ?_AfxCoCreateInstanceLic@@YGJABU_GUID@@PAUIUnknown@@K0PAPAXPAG@Z 00481075 f   nafxcw:occsite.obj
 0001:00080102       ?QuickActivate@COleControlSite@@UAEHXZ 00481102 f   nafxcw:occsite.obj
 0001:000802a3       ?CreateOrLoad@COleControlSite@@IAEJABU_GUID@@PAVCFile@@HPAG@Z 004812a3 f   nafxcw:occsite.obj
 0001:000805ad       ?DoVerb@COleControlSite@@UAEJJPAUtagMSG@@@Z 004815ad f   nafxcw:occsite.obj
 0001:000805d9       ?IsDefaultButton@COleControlSite@@QAEHXZ 004815d9 f   nafxcw:occsite.obj
 0001:000805ea       ?GetDefBtnCode@COleControlSite@@QAEKXZ 004815ea f   nafxcw:occsite.obj
 0001:00080602       ?SetDefaultButton@COleControlSite@@QAEXH@Z 00481602 f   nafxcw:occsite.obj
 0001:00080652       ?ConnectSink@COleControlSite@@IAEKABU_GUID@@PAUIUnknown@@@Z 00481652 f   nafxcw:occsite.obj
 0001:000806ba       ?DisconnectSink@COleControlSite@@IAEXABU_GUID@@K@Z 004816ba f   nafxcw:occsite.obj
 0001:00080718       ?GetEventIID@COleControlSite@@QAEHPAU_GUID@@@Z 00481718 f   nafxcw:occsite.obj
 0001:00080892       ?GetControlInfo@COleControlSite@@QAEXXZ 00481892 f   nafxcw:occsite.obj
 0001:000808e0       ?IsMatchingMnemonic@COleControlSite@@QAEHPAUtagMSG@@@Z 004818e0 f   nafxcw:occsite.obj
 0001:00080983       ?SendMnemonic@COleControlSite@@QAEXPAUtagMSG@@@Z 00481983 f   nafxcw:occsite.obj
 0001:000809cb       ?FreezeEvents@COleControlSite@@QAEXH@Z 004819cb f   nafxcw:occsite.obj
 0001:00080a01       ?AttachWindow@COleControlSite@@IAEXXZ 00481a01 f   nafxcw:occsite.obj
 0001:00080a3e       ?DetachWindow@COleControlSite@@IAEXXZ 00481a3e f   nafxcw:occsite.obj
 0001:00080a8c       ?OnEvent@COleControlSite@@IAEHPAUAFX_EVENT@@@Z 00481a8c f   nafxcw:occsite.obj
 0001:00080ac9       ?InvokeHelperV@COleControlSite@@UAEXJGGPAXPBEPAD@Z 00481ac9 f   nafxcw:occsite.obj
 0001:00080b1f       ?SetPropertyV@COleControlSite@@UAEXJGPAD@Z 00481b1f f   nafxcw:occsite.obj
 0001:00080b7a       ?InvokeHelper@COleControlSite@@UAAXJGGPAXPBEZZ 00481b7a f   nafxcw:occsite.obj
 0001:00080b9a       ?GetProperty@COleControlSite@@UBEXJGPAX@Z 00481b9a f   nafxcw:occsite.obj
 0001:00080bb6       ?SetProperty@COleControlSite@@UAAXJGZZ 00481bb6 f   nafxcw:occsite.obj
 0001:00080bcd       ?SafeSetProperty@COleControlSite@@UAAHJGZZ 00481bcd f   nafxcw:occsite.obj
 0001:00080c20       ?GetStyle@COleControlSite@@UBEKXZ 00481c20 f   nafxcw:occsite.obj
 0001:00080cd6       ?GetExStyle@COleControlSite@@UBEKXZ 00481cd6 f   nafxcw:occsite.obj
 0001:00080d3e       ?ModifyStyle@COleControlSite@@UAEHKKI@Z 00481d3e f   nafxcw:occsite.obj
 0001:00080dce       ?ModifyStyleEx@COleControlSite@@UAEHKKI@Z 00481dce f   nafxcw:occsite.obj
 0001:00080e1e       ?SetWindowTextA@COleControlSite@@UAEXPBD@Z 00481e1e f   nafxcw:occsite.obj
 0001:00080e51       ?GetWindowTextA@COleControlSite@@UBEXAAVCString@@@Z 00481e51 f   nafxcw:occsite.obj
 0001:00080ec0       ?GetWindowTextA@COleControlSite@@UBEHPADH@Z 00481ec0 f   nafxcw:occsite.obj
 0001:00080f1b       ?GetWindowTextLengthA@COleControlSite@@UBEHXZ 00481f1b f   nafxcw:occsite.obj
 0001:00080f60       ?GetDlgCtrlID@COleControlSite@@UBEHXZ 00481f60 f   nafxcw:occsite.obj
 0001:00080f60       ?GetID@COleControlSite@@QAEIXZ 00481f60 f   nafxcw:occsite.obj
 0001:00080f64       ?SetDlgCtrlID@COleControlSite@@UAEHH@Z 00481f64 f   nafxcw:occsite.obj
 0001:00080f71       ?MoveWindow@COleControlSite@@UAEXHHHHH@Z 00481f71 f   nafxcw:occsite.obj
 0001:00080feb       ?SetWindowPos@COleControlSite@@UAEHPBVCWnd@@HHHHI@Z 00481feb f   nafxcw:occsite.obj
 0001:000810a0       ?ShowWindow@COleControlSite@@UAEHH@Z 004820a0 f   nafxcw:occsite.obj
 0001:000810df       ?IsWindowEnabled@COleControlSite@@UBEHXZ 004820df f   nafxcw:occsite.obj
 0001:0008112d       ?EnableWindow@COleControlSite@@UAEHH@Z 0048212d f   nafxcw:occsite.obj
 0001:00081196       ?SetFocus@COleControlSite@@UAEPAVCWnd@@XZ 00482196 f   nafxcw:occsite.obj
 0001:000811cf       ?EnableDSC@COleControlSite@@UAEXXZ 004821cf f   nafxcw:occsite.obj
 0001:00081223       ?BindDefaultProperty@COleControlSite@@UAEXJGPBDPAVCWnd@@@Z 00482223 f   nafxcw:occsite.obj
 0001:000812c5       ?BindProperty@COleControlSite@@UAEXJPAVCWnd@@@Z 004822c5 f   nafxcw:occsite.obj
 0001:000813db       ?AddRef@XOleClientSite@COleControlSite@@UAGKXZ 004823db f   nafxcw:occsite.obj
 0001:000813ee       ?Release@XOleClientSite@COleControlSite@@UAGKXZ 004823ee f   nafxcw:occsite.obj
 0001:00081400       ?QueryInterface@XOleClientSite@COleControlSite@@UAGJABU_GUID@@PAPAX@Z 00482400 f   nafxcw:occsite.obj
 0001:0008141a       ?SaveObject@XOleClientSite@COleControlSite@@UAGJXZ 0048241a f   nafxcw:occsite.obj
 0001:0008141a       ?RequestNewObjectLayout@XOleClientSite@COleControlSite@@UAGJXZ 0048241a f   nafxcw:occsite.obj
 0001:0008141a       ?ShowPropertyFrame@XOleControlSite@COleControlSite@@UAGJXZ 0048241a f   nafxcw:occsite.obj
 0001:00081422       ?GetContainer@XOleClientSite@COleControlSite@@UAGJPAPAUIOleContainer@@@Z 00482422 f   nafxcw:occsite.obj
 0001:0008143d       ?ShowObject@XOleClientSite@COleControlSite@@UAGJXZ 0048243d f   nafxcw:occsite.obj
 0001:00081451       ?AddRef@XOleIPSite@COleControlSite@@UAGKXZ 00482451 f   nafxcw:occsite.obj
 0001:00081464       ?Release@XOleIPSite@COleControlSite@@UAGKXZ 00482464 f   nafxcw:occsite.obj
 0001:00081476       ?QueryInterface@XOleIPSite@COleControlSite@@UAGJABU_GUID@@PAPAX@Z 00482476 f   nafxcw:occsite.obj
 0001:00081490       ?GetWindow@XOleIPSite@COleControlSite@@UAGJPAPAUHWND__@@@Z 00482490 f   nafxcw:occsite.obj
 0001:000814bb       ?OnUIActivate@XOleIPSite@COleControlSite@@UAGJXZ 004824bb f   nafxcw:occsite.obj
 0001:000814d2       ?GetWindowContext@XOleIPSite@COleControlSite@@UAGJPAPAUIOleInPlaceFrame@@PAPAUIOleInPlaceUIWindow@@PAUtagRECT@@2PAUtagOIFI@@@Z 004824d2 f   nafxcw:occsite.obj
 0001:0008154a       ?Scroll@XOleIPSite@COleControlSite@@UAGJUtagSIZE@@@Z 0048254a f   nafxcw:occsite.obj
 0001:00081550       ?OnUIDeactivate@XOleIPSite@COleControlSite@@UAGJH@Z 00482550 f   nafxcw:occsite.obj
 0001:00081567       ?OnInPlaceDeactivate@XOleIPSite@COleControlSite@@UAGJXZ 00482567 f   nafxcw:occsite.obj
 0001:0008157b       ?DeactivateAndUndo@XOleIPSite@COleControlSite@@UAGJXZ 0048257b f   nafxcw:occsite.obj
 0001:0008158d       ?OnPosRectChange@XOleIPSite@COleControlSite@@UAGJPBUtagRECT@@@Z 0048258d f   nafxcw:occsite.obj
 0001:000815e0       ?AddRef@XOleControlSite@COleControlSite@@UAGKXZ 004825e0 f   nafxcw:occsite.obj
 0001:000815f3       ?Release@XOleControlSite@COleControlSite@@UAGKXZ 004825f3 f   nafxcw:occsite.obj
 0001:00081605       ?QueryInterface@XOleControlSite@COleControlSite@@UAGJABU_GUID@@PAPAX@Z 00482605 f   nafxcw:occsite.obj
 0001:0008161f       ?OnControlInfoChanged@XOleControlSite@COleControlSite@@UAGJXZ 0048261f f   nafxcw:occsite.obj
 0001:00081633       ?TransformCoords@XOleControlSite@COleControlSite@@UAGJPAU_POINTL@@PAUtagPOINTF@@K@Z 00482633 f   nafxcw:occsite.obj
 0001:00081735       ?EnableModeless@XOleIPFrame@COleControlContainer@@UAGJH@Z 00482735 f   nafxcw:occsite.obj
 0001:00081735       ?OnShowWindow@XOleClientSite@COleControlSite@@UAGJH@Z 00482735 f   nafxcw:occsite.obj
 0001:00081735       ?OnFocus@XOleControlSite@COleControlSite@@UAGJH@Z 00482735 f   nafxcw:occsite.obj
 0001:0008173a       ?AddRef@XAmbientProps@COleControlSite@@UAGKXZ 0048273a f   nafxcw:occsite.obj
 0001:0008174d       ?Release@XAmbientProps@COleControlSite@@UAGKXZ 0048274d f   nafxcw:occsite.obj
 0001:0008175f       ?QueryInterface@XAmbientProps@COleControlSite@@UAGJABU_GUID@@PAPAX@Z 0048275f f   nafxcw:occsite.obj
 0001:00081779       ?Invoke@XAmbientProps@COleControlSite@@UAGJJABU_GUID@@KGPAUtagDISPPARAMS@@PAUtagVARIANT@@PAUtagEXCEPINFO@@PAI@Z 00482779 f   nafxcw:occsite.obj
 0001:000817aa       ?QueryInterface@XPropertyNotifySink@COleControlSite@@UAGJABU_GUID@@PAPAX@Z 004827aa f   nafxcw:occsite.obj
 0001:000817f4       ?OnChanged@XPropertyNotifySink@COleControlSite@@UAGJJ@Z 004827f4 f   nafxcw:occsite.obj
 0001:0008190a       ?OnRequestEdit@XPropertyNotifySink@COleControlSite@@UAGJJ@Z 0048290a f   nafxcw:occsite.obj
 0001:0008195f       ?QueryInterface@XEventSink@COleControlSite@@UAGJABU_GUID@@PAPAX@Z 0048295f f   nafxcw:occsite.obj
 0001:000819c3       ?GetIDsOfNames@XAmbientProps@COleControlSite@@UAGJABU_GUID@@PAPAGIKPAJ@Z 004829c3 f   nafxcw:occsite.obj
 0001:000819c3       ?GetIDsOfNames@XEventSink@COleControlSite@@UAGJABU_GUID@@PAPAGIKPAJ@Z 004829c3 f   nafxcw:occsite.obj
 0001:000819cb       ?Invoke@XEventSink@COleControlSite@@UAGJJABU_GUID@@KGPAUtagDISPPARAMS@@PAUtagVARIANT@@PAUtagEXCEPINFO@@PAI@Z 004829cb f   nafxcw:occsite.obj
 0001:00081a20       ??0CDataSourceControl@@QAE@PAVCOleControlSite@@@Z 00482a20 f   nafxcw:occsite.obj
 0001:00081a6e       ??1CDataSourceControl@@QAE@XZ 00482a6e f   nafxcw:occsite.obj
 0001:00081c4e       ?ReleaseAccessors@CAccessorBase@ATL@@QAEJPAUIUnknown@@@Z 00482c4e f i nafxcw:occsite.obj
 0001:00081cd5       ??1CRowset@ATL@@QAE@XZ     00482cd5 f i nafxcw:occsite.obj
 0001:00081d20       ?Close@CRowset@ATL@@QAEXXZ 00482d20 f i nafxcw:occsite.obj
 0001:00081d4f       ?ReleaseRows@CRowset@ATL@@QAEJXZ 00482d4f f i nafxcw:occsite.obj
 0001:00081d6f       ?Close@CDynamicAccessor@ATL@@QAEXXZ 00482d6f f i nafxcw:occsite.obj
 0001:00081da9       ?Initialize@CDataSourceControl@@QAEJXZ 00482da9 f   nafxcw:occsite.obj
 0001:00081f4b       ?GetCursor@CDataSourceControl@@UAEPAUIUnknown@@XZ 00482f4b f   nafxcw:occsite.obj
 0001:00081fb4       ?GetMetaData@CDataSourceControl@@QAEJXZ 00482fb4 f   nafxcw:occsite.obj
 0001:000822d4       ??0CRowset@ATL@@QAE@PAUIRowset@@@Z 004832d4 f i nafxcw:occsite.obj
 0001:00082325       ?MoveFirst@CRowset@ATL@@QAEJXZ 00483325 f i nafxcw:occsite.obj
 0001:00082348       ?MoveNext@CRowset@ATL@@QAEJJ_N@Z 00483348 f i nafxcw:occsite.obj
 0001:000823a1       ?GetData@CRowset@ATL@@QAEJXZ 004833a1 f i nafxcw:occsite.obj
 0001:000823d5       ?GetData@CRowset@ATL@@QAEJH@Z 004833d5 f i nafxcw:occsite.obj
 0001:000823f8       ?SetupOptionalRowsetInterfaces@CRowset@ATL@@QAEXXZ 004833f8 f i nafxcw:occsite.obj
 0001:0008240d       ?BindColumns@CDynamicAccessor@ATL@@QAEJPAUIUnknown@@@Z 0048340d f i nafxcw:occsite.obj
 0001:000826be       ?AllocateAccessorMemory@CAccessorBase@ATL@@QAEJH@Z 004836be f i nafxcw:occsite.obj
 0001:0008271a       ?BindEntries@CAccessorBase@ATL@@SAJPAUtagDBBINDING@@HPAKKPAUIAccessor@@@Z 0048371a f i nafxcw:occsite.obj
 0001:00082764       ?Bind@CAccessorBase@ATL@@SAXPAUtagDBBINDING@@KGKEEKKKKPAUtagDBOBJECT@@@Z 00483764 f i nafxcw:occsite.obj
 0001:000827e3       ?CopyColumnID@CDataSourceControl@@QAEHPAUtagDBCOLUMNID@@PBU2@@Z 004837e3 f   nafxcw:occsite.obj
 0001:0008284f       ?BindProp@CDataSourceControl@@UAEXPAVCOleControlSite@@H@Z 0048384f f   nafxcw:occsite.obj
 0001:0008298b       ?TranslateColumnNo@CDynamicAccessor@ATL@@QBE_NAAK@Z 0048398b f i nafxcw:occsite.obj
 0001:000829de       ?BindProp@CDataSourceControl@@UAEXPAVCDataBoundProperty@@H@Z 004839de f   nafxcw:occsite.obj
 0001:00082a26       ?BindColumns@CDataSourceControl@@UAEXXZ 00483a26 f   nafxcw:occsite.obj
 0001:00082bd0       ?GetBoundClientRow@CDataSourceControl@@QAEJXZ 00483bd0 f   nafxcw:occsite.obj
 0001:00082c2d       ?ToVariant@CDataSourceControl@@QAE?AVCOleVariant@@H@Z 00483c2d f   nafxcw:occsite.obj
 0001:000833a9       ?GetStatus@CDynamicAccessor@ATL@@QBE_NKPAK@Z 004843a9 f i nafxcw:occsite.obj
 0001:000833ed       ?_GetDataPtr@CDynamicAccessor@ATL@@QBEPAXK@Z 004843ed f i nafxcw:occsite.obj
 0001:00083404       ?UpdateControls@CDataSourceControl@@UAEJXZ 00484404 f   nafxcw:occsite.obj
 0001:00083599       ?UpdateCursor@CDataSourceControl@@UAEJXZ 00484599 f   nafxcw:occsite.obj
 0001:00083edc       ?SetData@CRowset@ATL@@QBEJXZ 00484edc f i nafxcw:occsite.obj
 0001:00083f04       ?SetData@CRowset@ATL@@QBEJH@Z 00484f04 f i nafxcw:occsite.obj
 0001:00083f33       ??1CManualAccessor@ATL@@QAE@XZ 00484f33 f i nafxcw:occsite.obj
 0001:00083f4a       ?CreateAccessor@CManualAccessor@ATL@@QAEJHPAXK@Z 00484f4a f i nafxcw:occsite.obj
 0001:00083fc1       ?AddBindEntry@CManualAccessor@ATL@@QAEXKGKPAX00@Z 00484fc1 f i nafxcw:occsite.obj
 0001:00084015       ?BindColumns@CManualAccessor@ATL@@QAEJPAUIUnknown@@@Z 00485015 f i nafxcw:occsite.obj
 0001:000840ad       ??0CDataBoundProperty@@QAE@PAV0@JG@Z 004850ad f   nafxcw:occsite.obj
 0001:000840d3       ?SetClientSite@CDataBoundProperty@@QAEXPAVCOleControlSite@@@Z 004850d3 f   nafxcw:occsite.obj
 0001:000840dc       ?SetDSCSite@CDataBoundProperty@@QAEXPAVCOleControlSite@@@Z 004850dc f   nafxcw:occsite.obj
 0001:000840f0       ?GetNext@CDataBoundProperty@@QAEPAV1@XZ 004850f0 f   nafxcw:occsite.obj
 0001:000840f4       ?Notify@CDataBoundProperty@@QAEXXZ 004850f4 f   nafxcw:occsite.obj
 0001:00084177       ?GetCursor@CDataBoundProperty@@QAEPAUIUnknown@@XZ 00485177 f   nafxcw:occsite.obj
 0001:000841ad       ?GetCursor@COleControlSite@@IAEJJPAPAUIUnknown@@PAPAX@Z 004851ad f   nafxcw:occsite.obj
 0001:000841e4       ?AddRef@XBoundObjectSite@COleControlSite@@UAGKXZ 004851e4 f   nafxcw:occsite.obj
 0001:000841f6       ?Release@XBoundObjectSite@COleControlSite@@UAGKXZ 004851f6 f   nafxcw:occsite.obj
 0001:00084208       ?QueryInterface@XBoundObjectSite@COleControlSite@@UAGJABU_GUID@@PAPAX@Z 00485208 f   nafxcw:occsite.obj
 0001:00084222       ?GetCursor@XBoundObjectSite@COleControlSite@@UAGJJPAPAUICursor@@PAPAX@Z 00485222 f   nafxcw:occsite.obj
 0001:00084240       ?AddRef@XPropertyNotifySink@COleControlSite@@UAGKXZ 00485240 f   nafxcw:occsite.obj
 0001:00084240       ?AddRef@XEventSink@COleControlSite@@UAGKXZ 00485240 f   nafxcw:occsite.obj
 0001:00084240       ?AddRef@XNotifyDBEvents@COleControlSite@@UAGKXZ 00485240 f   nafxcw:occsite.obj
 0001:00084240       ?AddRef@XRowsetNotify@COleControlSite@@UAGKXZ 00485240 f   nafxcw:occsite.obj
 0001:00084246       ?QueryInterface@XNotifyDBEvents@COleControlSite@@UAGJABU_GUID@@PAPAX@Z 00485246 f   nafxcw:occsite.obj
 0001:00084290       ?OKToDo@XNotifyDBEvents@COleControlSite@@UAGJKKQAUtagDBNOTIFYREASON@@@Z 00485290 f   nafxcw:occsite.obj
 0001:000842ec       ?Cancelled@XNotifyDBEvents@COleControlSite@@UAGJKKQAUtagDBNOTIFYREASON@@@Z 004852ec f   nafxcw:occsite.obj
 0001:0008430c       ?SyncBefore@XNotifyDBEvents@COleControlSite@@UAGJKKQAUtagDBNOTIFYREASON@@@Z 0048530c f   nafxcw:occsite.obj
 0001:00084356       ?AboutToDo@XNotifyDBEvents@COleControlSite@@UAGJKKQAUtagDBNOTIFYREASON@@@Z 00485356 f   nafxcw:occsite.obj
 0001:00084376       ?FailedToDo@XNotifyDBEvents@COleControlSite@@UAGJKKQAUtagDBNOTIFYREASON@@@Z 00485376 f   nafxcw:occsite.obj
 0001:00084396       ?SyncAfter@XNotifyDBEvents@COleControlSite@@UAGJKKQAUtagDBNOTIFYREASON@@@Z 00485396 f   nafxcw:occsite.obj
 0001:000843ff       ?DidEvent@XNotifyDBEvents@COleControlSite@@UAGJKKQAUtagDBNOTIFYREASON@@@Z 004853ff f   nafxcw:occsite.obj
 0001:0008444d       ?FireEvent@XNotifyDBEvents@COleControlSite@@QAEJKKQAUtagDBNOTIFYREASON@@W4DSCSTATE@@@Z 0048544d f   nafxcw:occsite.obj
 0001:00084511       ?Release@XPropertyNotifySink@COleControlSite@@UAGKXZ 00485511 f   nafxcw:occsite.obj
 0001:00084511       ?CanInPlaceActivate@XOleIPSite@COleControlSite@@UAGJXZ 00485511 f   nafxcw:occsite.obj
 0001:00084511       ?Release@XNotifyDBEvents@COleControlSite@@UAGKXZ 00485511 f   nafxcw:occsite.obj
 0001:00084511       ?Release@XEventSink@COleControlSite@@UAGKXZ 00485511 f   nafxcw:occsite.obj
 0001:00084511       ?DiscardUndoState@XOleIPSite@COleControlSite@@UAGJXZ 00485511 f   nafxcw:occsite.obj
 0001:00084511       ?OnInPlaceActivate@XOleIPSite@COleControlSite@@UAGJXZ 00485511 f   nafxcw:occsite.obj
 0001:00084511       ?Release@XRowsetNotify@COleControlSite@@UAGKXZ 00485511 f   nafxcw:occsite.obj
 0001:00084516       ?QueryInterface@XRowsetNotify@COleControlSite@@UAGJABU_GUID@@PAPAX@Z 00485516 f   nafxcw:occsite.obj
 0001:00084560       ?OnFieldChange@XRowsetNotify@COleControlSite@@UAGJPAUIRowset@@KKQAKKKH@Z 00485560 f   nafxcw:occsite.obj
 0001:000845f1       ?OnRowChange@XRowsetNotify@COleControlSite@@UAGJPAUIRowset@@KQBKKKH@Z 004855f1 f   nafxcw:occsite.obj
 0001:00084706       ?OnRowsetChange@XRowsetNotify@COleControlSite@@UAGJPAUIRowset@@KKH@Z 00485706 f   nafxcw:occsite.obj
 0001:00084780       ??1?$CComPtr@UIRowset@@@ATL@@QAE@XZ 00485780 f i nafxcw:occsite.obj
 0001:00084780       ??1?$CComPtr@UIRowsetChange@@@ATL@@QAE@XZ 00485780 f i nafxcw:occsite.obj
 0001:00084780       ??1?$CComPtr@UIColumnsInfo@@@ATL@@QAE@XZ 00485780 f i nafxcw:occsite.obj
 0001:00084780       ??1?$CComPtr@UIAccessor@@@ATL@@QAE@XZ 00485780 f i nafxcw:occsite.obj
 0001:0008478d       ?AtlComPtrAssign@ATL@@YGPAUIUnknown@@PAPAU2@PAU2@@Z 0048578d f i nafxcw:occsite.obj
 0001:000847b6       ??1COleDispatchDriver@@QAE@XZ 004857b6 f i nafxcw:occsite.obj
 0001:000847bb       ??0AFX_EVENT@@QAE@H@Z      004857bb f i nafxcw:occsite.obj
 0001:000847de       ?_AfxGetDlgCode@@YGKPAVCWnd@@PAUtagMSG@@@Z 004857de f   nafxcw:occdlg.obj
 0001:0008480c       ?_AfxDlgSetFocus@@YGXPAVCWnd@@@Z 0048580c f   nafxcw:occdlg.obj
 0001:0008483a       ?_AfxGetChildControl@@YGPAVCWnd@@PAV1@0@Z 0048583a f   nafxcw:occdlg.obj
 0001:00084893       ?_AfxNextControl@@YGPAVCWnd@@PAV1@0I@Z 00485893 f   nafxcw:occdlg.obj
 0001:0008496f       ?IsMatchingMnemonic@COccManager@@SAHPAVCWnd@@PAUtagMSG@@@Z 0048596f f   nafxcw:occdlg.obj
 0001:0008498e       ?_AfxFindNextMnem@@YGPAVCWnd@@PAV1@0PAUtagMSG@@@Z 0048598e f   nafxcw:occdlg.obj
 0001:00084a13       ?IsLabelControl@COccManager@@SAHPAVCWnd@@@Z 00485a13 f   nafxcw:occdlg.obj
 0001:00084a39       ?_AfxGetNextMnem@@YGPAVCWnd@@PAV1@0PAUtagMSG@@@Z 00485a39 f   nafxcw:occdlg.obj
 0001:00084aae       ?UIActivateControl@COccManager@@KAXPAVCWnd@@@Z 00485aae f   nafxcw:occdlg.obj
 0001:00084b0b       ?UIDeactivateIfNecessary@COccManager@@KAXPAVCWnd@@0@Z 00485b0b f   nafxcw:occdlg.obj
 0001:00084b7e       ?_AfxFindDlgItem@@YGPAVCWnd@@PAV1@K@Z 00485b7e f   nafxcw:occdlg.obj
 0001:00084bd5       ?SetDefaultButton@COccManager@@SAXPAVCWnd@@H@Z 00485bd5 f   nafxcw:occdlg.obj
 0001:00084c22       ?GetDefBtnCode@COccManager@@SAKPAVCWnd@@@Z 00485c22 f   nafxcw:occdlg.obj
 0001:00084c43       ?_AfxRemoveDefaultButton@@YGXPAVCWnd@@0@Z 00485c43 f   nafxcw:occdlg.obj
 0001:00084ca5       ?_AfxOriginalDefButton@@YGHPAVCWnd@@@Z 00485ca5 f   nafxcw:occdlg.obj
 0001:00084cd2       ?_AfxCheckDefPushButton@@YGXPAVCWnd@@00@Z 00485cd2 f   nafxcw:occdlg.obj
 0001:00084dbf       ?IsDialogMessageA@COccManager@@UAEHPAVCWnd@@PAUtagMSG@@@Z 00485dbf f   nafxcw:occdlg.obj
 0001:000851aa       ??_GCArchiveException@@UAEPAXI@Z 004861aa f i nafxcw:arcex.obj
 0001:000851aa       ??_ECArchiveException@@UAEPAXI@Z 004861aa f i nafxcw:arcex.obj
 0001:000851c6       ??1CArchiveException@@UAE@XZ 004861c6 f i nafxcw:arcex.obj
 0001:000851f2       ??0CSyncObject@@QAE@PBD@Z  004861f2 f   nafxcw:mtcore.obj
 0001:00085201       ??_ECSyncObject@@UAEPAXI@Z 00486201 f i nafxcw:mtcore.obj
 0001:00085201       ??_GCSyncObject@@UAEPAXI@Z 00486201 f i nafxcw:mtcore.obj
 0001:0008521d       ??1CSyncObject@@UAE@XZ     0048621d f   nafxcw:mtcore.obj
 0001:0008523a       ?Lock@CSyncObject@@UAEHK@Z 0048623a f   nafxcw:mtcore.obj
 0001:0008524f       ?GetTypeInfoOfGuid@CCmdTarget@@QAEJKABU_GUID@@PAPAUITypeInfo@@@Z 0048624f f   nafxcw:oletyplb.obj
 0001:00085381       ?Lookup@CTypeLibCache@@QAEHKPAPAUITypeLib@@@Z 00486381 f   nafxcw:oletyplb.obj
 0001:000853b2       ?Cache@CTypeLibCache@@QAEXKPAUITypeLib@@@Z 004863b2 f   nafxcw:oletyplb.obj
 0001:000853f5       ?LookupTypeInfo@CTypeLibCache@@QAEHKABU_GUID@@PAPAUITypeInfo@@@Z 004863f5 f   nafxcw:oletyplb.obj
 0001:00085446       ?CacheTypeInfo@CTypeLibCache@@QAEXKABU_GUID@@PAUITypeInfo@@@Z 00486446 f   nafxcw:oletyplb.obj
 0001:0008547c       ?AfxOleUnlockAllControls@@YGXXZ 0048647c f   nafxcw:occlock.obj
 0001:000854b8       ??1type_info@@UAE@XZ       004864b8 f   LIBCMT:typinfo.obj
 0001:000854e1       ??_Etype_info@@UAEPAXI@Z   004864e1 f i LIBCMT:typinfo.obj
 0001:000854e1       ??_Gtype_info@@UAEPAXI@Z   004864e1 f i LIBCMT:typinfo.obj
 0001:000854fd       _free                      004864fd f   LIBCMT:free.obj
 0001:000855e6       _malloc                    004865e6 f   LIBCMT:malloc.obj
 0001:000855f8       __nh_malloc                004865f8 f   LIBCMT:malloc.obj
 0001:00085624       __heap_alloc               00486624 f   LIBCMT:malloc.obj
 0001:00085720       ?_JumpToContinuation@@YGXPAXPAUEHRegistrationNode@@@Z 00486720 f   LIBCMT:trnsctrl.obj
 0001:00085754       ?_CallMemberFunction0@@YGXPAX0@Z 00486754 f   LIBCMT:trnsctrl.obj
 0001:00085754       ?_CallMemberFunction1@@YGXPAX00@Z 00486754 f   LIBCMT:trnsctrl.obj
 0001:0008575b       ?_CallMemberFunction2@@YGXPAX00H@Z 0048675b f   LIBCMT:trnsctrl.obj
 0001:00085762       ?_UnwindNestedFrames@@YGXPAUEHRegistrationNode@@PAUEHExceptionRecord@@@Z 00486762 f   LIBCMT:trnsctrl.obj
 0001:000857b1       ___CxxFrameHandler         004867b1 f   LIBCMT:trnsctrl.obj
 0001:000857e7       ?_CallCatchBlock2@@YAPAXPAUEHRegistrationNode@@PBU_s_FuncInfo@@PAXHK@Z 004867e7 f   LIBCMT:trnsctrl.obj
 0001:00085860       ?_CallSETranslator@@YAHPAUEHExceptionRecord@@PAUEHRegistrationNode@@PAX2PBU_s_FuncInfo@@H1@Z 00486860 f   LIBCMT:trnsctrl.obj
 0001:0008598b       ?_GetRangeOfTrysToCheck@@YAPBU_s_TryBlockMapEntry@@PBU_s_FuncInfo@@HHPAI1@Z 0048698b f   LIBCMT:trnsctrl.obj
 0001:00085a08       __global_unwind2           00486a08 f   LIBCMT:exsup.obj
 0001:00085a4a       __local_unwind2            00486a4a f   LIBCMT:exsup.obj
 0001:00085aa2       __NLG_Return2              00486aa2 f   LIBCMT:exsup.obj
 0001:00085ab2       __abnormal_termination     00486ab2 f   LIBCMT:exsup.obj
 0001:00085ad5       __NLG_Notify1              00486ad5 f   LIBCMT:exsup.obj
 0001:00085ade       __NLG_Notify               00486ade f   LIBCMT:exsup.obj
 0001:00085af1       __NLG_Dispatch             00486af1 f   LIBCMT:exsup.obj
 0001:00085af8       __EH_prolog                00486af8 f   LIBCMT:ehprolog.obj
 0001:00085b20       _memmove                   00486b20 f   LIBCMT:memmove.obj
 0001:00085e55       _ceil                      00486e55 f   LIBCMT:ceil.obj
 0001:00085f24       __fpmath                   00486f24 f   LIBCMT:fpinit.obj
 0001:00085f3b       ?OnDownloadBegin@CHtmlView@@UAEXXZ 00486f3b f   LIBCMT:fpinit.obj
 0001:00085f3b       __fpclear                  00486f3b f   LIBCMT:fpinit.obj
 0001:00085f3b       ?OnQuit@CHtmlView@@UAEXXZ  00486f3b f   LIBCMT:fpinit.obj
 0001:00085f3b       ?OnDownloadComplete@CHtmlView@@UAEXXZ 00486f3b f   LIBCMT:fpinit.obj
 0001:00085f3c       __cfltcvt_init             00486f3c f   LIBCMT:fpinit.obj
 0001:00085f74       __ftol                     00486f74 f   LIBCMT:ftol.obj
 0001:00085fa0       _strstr                    00486fa0 f   LIBCMT:strstr.obj
 0001:00086020       _sprintf                   00487020 f   LIBCMT:sprintf.obj
 0001:00086080       _strrchr                   00487080 f   LIBCMT:strrchr.obj
 0001:000860a7       __mbscmp                   004870a7 f   LIBCMT:mbscmp.obj
 0001:00086156       __onexit                   00487156 f   LIBCMT:onexit.obj
 0001:000861d4       _atexit                    004871d4 f   LIBCMT:onexit.obj
 0001:000861e6       ___onexitinit              004871e6 f   LIBCMT:onexit.obj
 0001:00086215       _atol                      00487215 f   LIBCMT:atox.obj
 0001:000862a0       _atoi                      004872a0 f   LIBCMT:atox.obj
 0001:000862b0       __alldiv                   004872b0 f   LIBCMT:lldiv.obj
 0001:00086360       __allrem                   00487360 f   LIBCMT:llrem.obj
 0001:00086420       __allmul                   00487420 f   LIBCMT:llmul.obj
 0001:00086454       _vsprintf                  00487454 f   LIBCMT:vsprintf.obj
 0001:000864a5       __splitpath                004874a5 f   LIBCMT:splitpat.obj
 0001:000865f4       __except_handler3          004875f4 f   LIBCMT:exsup3.obj
 0001:000866b1       __seh_longjmp_unwind@4     004876b1 f   LIBCMT:exsup3.obj
 0001:000866cc       __mbsnbicmp                004876cc f   LIBCMT:mbsnbicm.obj
 0001:00086858       _wcslen                    00487858 f   LIBCMT:wcslen.obj
 0001:00086875       _wcscpy                    00487875 f   LIBCMT:wcscat.obj
 0001:000868a0       __alloca_probe             004878a0 f   LIBCMT:chkstk.obj
 0001:000868a0       __chkstk                   004878a0 f   LIBCMT:chkstk.obj
 0001:000868cf       __beginthreadex            004878cf f   LIBCMT:threadex.obj
 0001:00086a00       __endthreadex              00487a00 f   LIBCMT:threadex.obj
 0001:00086a32       __CxxThrowException@8      00487a32 f   LIBCMT:throw.obj
 0001:00086a6c       _fclose                    00487a6c f   LIBCMT:fclose.obj
 0001:00086a9d       __fclose_lk                00487a9d f   LIBCMT:fclose.obj
 0001:00086ae9       _fread                     00487ae9 f   LIBCMT:fread.obj
 0001:00086b18       __fread_lk                 00487b18 f   LIBCMT:fread.obj
 0001:00086c00       _ftell                     00487c00 f   LIBCMT:ftell.obj
 0001:00086c22       __ftell_lk                 00487c22 f   LIBCMT:ftell.obj
 0001:00086d83       _fseek                     00487d83 f   LIBCMT:fseek.obj
 0001:00086daf       __fseek_lk                 00487daf f   LIBCMT:fseek.obj
 0001:00086e3c       __fsopen                   00487e3c f   LIBCMT:fopen.obj
 0001:00086e6d       _fopen                     00487e6d f   LIBCMT:fopen.obj
 0001:00086e80       _strtok                    00487e80 f   LIBCMT:strtok.obj
 0001:00086f24       ??_M@YGXPAXIHP6EX0@Z@Z     00487f24 f   LIBCMT:ehvecdtr.obj
 0001:00086fa4       ?__ArrayUnwind@@YGXPAXIHP6EX0@Z@Z 00487fa4 f   LIBCMT:ehvecdtr.obj
 0001:00087018       ??_L@YGXPAXIHP6EX0@Z1@Z    00488018 f   LIBCMT:ehvecctr.obj
 0001:0008709a       __mbsrchr                  0048809a f   LIBCMT:mbsrchr.obj
 0001:0008710c       _sscanf                    0048810c f   LIBCMT:sscanf.obj
 0001:00087150       _strchr                    00488150 f   LIBCMT:strchr.obj
 0001:00087156       ___from_strstr_to_strchr   00488156 f   LIBCMT:strchr.obj
 0001:0008720c       _WinMainCRTStartup         0048820c f   LIBCMT:wincrt0.obj
 0001:00087314       __amsg_exit                00488314 f   LIBCMT:wincrt0.obj
 0001:0008735d       _srand                     0048835d f   LIBCMT:rand.obj
 0001:0008736a       _rand                      0048836a f   LIBCMT:rand.obj
 0001:0008738c       _fwrite                    0048838c f   LIBCMT:fwrite.obj
 0001:000873bb       __fwrite_lk                004883bb f   LIBCMT:fwrite.obj
 0001:000874d0       _strncmp                   004884d0 f   LIBCMT:strncmp.obj
 0001:00087510       __CIacos                   00488510 f   LIBCMT:acos.obj
 0001:00087524       _acos                      00488524 f   LIBCMT:acos.obj
 0001:000875db       __cinit                    004885db f   LIBCMT:crt0dat.obj
 0001:00087608       _exit                      00488608 f   LIBCMT:crt0dat.obj
 0001:00087619       __exit                     00488619 f   LIBCMT:crt0dat.obj
 0001:000876cf       __lockexit                 004886cf f   LIBCMT:crt0dat.obj
 0001:000876d8       __unlockexit               004886d8 f   LIBCMT:crt0dat.obj
 0001:000876fb       _printf                    004886fb f   LIBCMT:printf.obj
 0001:00087740       __CIpow                    00488740 f   LIBCMT:pow.obj
 0001:00087759       _pow                       00488759 f   LIBCMT:pow.obj
 0001:00087960       _memset                    00488960 f   LIBCMT:memset.obj
 0001:000879c0       _memcmp                    004889c0 f   LIBCMT:memcmp.obj
 0001:00087a70       _memcpy                    00488a70 f   LIBCMT:memcpy.obj
 0001:00087da5       _floor                     00488da5 f   LIBCMT:floor.obj
 0001:00087e74       _fabs                      00488e74 f   LIBCMT:fabs.obj
 0001:00087f29       _time                      00488f29 f   LIBCMT:time.obj
 0001:00088005       _localtime                 00489005 f   LIBCMT:localtim.obj
 0001:00088165       _strftime                  00489165 f   LIBCMT:strftime.obj
 0001:00088180       __Strftime                 00489180 f   LIBCMT:strftime.obj
 0001:00088a56       __mbsinc                   00489a56 f   LIBCMT:mbsinc.obj
 0001:00088ac9       __ltoa                     00489ac9 f   LIBCMT:xtoa.obj
 0001:00088af3       __ultoa                    00489af3 f   LIBCMT:xtoa.obj
 0001:00088b0e       __mbschr                   00489b0e f   LIBCMT:mbschr.obj
 0001:00088ba5       __mbspbrk                  00489ba5 f   LIBCMT:mbspbrk.obj
 0001:00088c3a       __mbsupr                   00489c3a f   LIBCMT:mbsupr.obj
 0001:00088cc4       __mbslwr                   00489cc4 f   LIBCMT:mbslwr.obj
 0001:00088d4e       _strtol                    00489d4e f   LIBCMT:strtol.obj
 0001:00088f6a       _strtoul                   00489f6a f   LIBCMT:strtol.obj
 0001:00088f81       __mbsstr                   00489f81 f   LIBCMT:mbsstr.obj
 0001:00088ff7       __mbclen                   00489ff7 f   LIBCMT:mbclen.obj
 0001:00089010       _strlen                    0048a010 f   LIBCMT:strlen.obj
 0001:0008908b       __mbsnbcmp                 0048a08b f   LIBCMT:mbsnbcmp.obj
 0001:0008917a       __ismbcdigit               0048a17a f   LIBCMT:ismbdgt.obj
 0001:00089209       __ismbcspace               0048a209 f   LIBCMT:ismbspc.obj
 0001:00089298       _mktime                    0048a298 f   LIBCMT:mktime.obj
 0001:0008948a       _gmtime                    0048a48a f   LIBCMT:gmtime.obj
 0001:00089594       __setmbcp                  0048a594 f   LIBCMT:mbctype.obj
 0001:0008996c       ___initmbctable            0048a96c f   LIBCMT:mbctype.obj
 0001:00089988       _abs                       0048a988 f   LIBCMT:abs.obj
 0001:00089993       __strdup                   0048a993 f   LIBCMT:strdup.obj
 0001:000899be       __purecall                 0048a9be f   LIBCMT:purevirt.obj
 0001:000899c7       _calloc                    0048a9c7 f   LIBCMT:calloc.obj
 0001:00089b04       __alloc_osfhnd             0048ab04 f   LIBCMT:osfinfo.obj
 0001:00089c27       __set_osfhnd               0048ac27 f   LIBCMT:osfinfo.obj
 0001:00089ca3       __free_osfhnd              0048aca3 f   LIBCMT:osfinfo.obj
 0001:00089d22       __get_osfhandle            0048ad22 f   LIBCMT:osfinfo.obj
 0001:00089d64       __open_osfhandle           0048ad64 f   LIBCMT:osfinfo.obj
 0001:00089e0b       __lock_fhandle             0048ae0b f   LIBCMT:osfinfo.obj
 0001:00089e6a       __unlock_fhandle           0048ae6a f   LIBCMT:osfinfo.obj
 0001:00089e8c       __dosmaperr                0048ae8c f   LIBCMT:dosmap.obj
 0001:00089eff       __errno                    0048aeff f   LIBCMT:dosmap.obj
 0001:00089f08       ___doserrno                0048af08 f   LIBCMT:dosmap.obj
 0001:00089f11       __fdopen                   0048af11 f   LIBCMT:fdopen.obj
 0001:0008a004       _clearerr                  0048b004 f   LIBCMT:clearerr.obj
 0001:0008a045       _fputs                     0048b045 f   LIBCMT:fputs.obj
 0001:0008a093       _fgets                     0048b093 f   LIBCMT:fgets.obj
 0001:0008a0f5       _fflush                    0048b0f5 f   LIBCMT:fflush.obj
 0001:0008a124       __fflush_lk                0048b124 f   LIBCMT:fflush.obj
 0001:0008a152       __flush                    0048b152 f   LIBCMT:fflush.obj
 0001:0008a1ae       __flushall                 0048b1ae f   LIBCMT:fflush.obj
 0001:0008a25b       __expand                   0048b25b f   LIBCMT:expand.obj
 0001:0008a3bf       __msize                    0048b3bf f   LIBCMT:msize.obj
 0001:0008a4ad       __mbsdec                   0048b4ad f   LIBCMT:mbsdec.obj
 0001:0008a51a       _wcsncpy                   0048b51a f   LIBCMT:wcsncpy.obj
 0001:0008a557       _realloc                   0048b557 f   LIBCMT:realloc.obj
 0001:0008a886       __mtinitlocks              0048b886 f   LIBCMT:mlock.obj
 0001:0008a8af       __lock                     0048b8af f   LIBCMT:mlock.obj
 0001:0008a910       __unlock                   0048b910 f   LIBCMT:mlock.obj
 0001:0008a930       _strcmp                    0048b930 f   LIBCMT:strcmp.obj
 0001:0008a9b4       __GetLinkerVersion         0048b9b4 f   LIBCMT:heapinit.obj
 0001:0008a9e1       ___heap_select             0048b9e1 f   LIBCMT:heapinit.obj
 0001:0008ab29       __heap_init                0048bb29 f   LIBCMT:heapinit.obj
 0001:0008ab86       ___sbh_heap_init           0048bb86 f   LIBCMT:sbheap.obj
 0001:0008abce       ___sbh_find_block          0048bbce f   LIBCMT:sbheap.obj
 0001:0008abf9       ___sbh_free_block          0048bbf9 f   LIBCMT:sbheap.obj
 0001:0008af22       ___sbh_alloc_block         0048bf22 f   LIBCMT:sbheap.obj
 0001:0008b22b       ___sbh_alloc_new_region    0048c22b f   LIBCMT:sbheap.obj
 0001:0008b2dc       ___sbh_alloc_new_group     0048c2dc f   LIBCMT:sbheap.obj
 0001:0008b3d7       ___sbh_resize_block        0048c3d7 f   LIBCMT:sbheap.obj
 0001:0008b6cd       ___old_sbh_new_region      0048c6cd f   LIBCMT:sbheap.obj
 0001:0008b811       ___old_sbh_release_region  0048c811 f   LIBCMT:sbheap.obj
 0001:0008b867       ___old_sbh_decommit_pages  0048c867 f   LIBCMT:sbheap.obj
 0001:0008b929       ___old_sbh_find_block      0048c929 f   LIBCMT:sbheap.obj
 0001:0008b980       ___old_sbh_free_block      0048c980 f   LIBCMT:sbheap.obj
 0001:0008b9c5       ___old_sbh_alloc_block     0048c9c5 f   LIBCMT:sbheap.obj
 0001:0008bbcd       ___old_sbh_alloc_block_from_page 0048cbcd f   LIBCMT:sbheap.obj
 0001:0008bcf1       ___old_sbh_resize_block    0048ccf1 f   LIBCMT:sbheap.obj
 0001:0008bd9a       __callnewh                 0048cd9a f   LIBCMT:handler.obj
 0001:0008bdb5       ___InternalCxxFrameHandler 0048cdb5 f   LIBCMT:frame.obj
 0001:0008c10a       ___FrameUnwindToState      0048d10a f   LIBCMT:frame.obj
 0001:0008c52c       ?_DestructExceptionObject@@YAXPAUEHExceptionRecord@@E@Z 0048d52c f   LIBCMT:frame.obj
 0001:0008c5c0       __CallSettingFrame@12      0048d5c0 f   LIBCMT:lowhelpr.obj
 0001:0008c5e7       __NLG_Return               0048d5e7 f   LIBCMT:lowhelpr.obj
 0001:0008c60c       __mtinit                   0048d60c f   LIBCMT:tidtable.obj
 0001:0008c660       __initptd                  0048d660 f   LIBCMT:tidtable.obj
 0001:0008c673       __getptd                   0048d673 f   LIBCMT:tidtable.obj
 0001:0008c6da       __freeptd                  0048d6da f   LIBCMT:tidtable.obj
 0001:0008c77a       ?terminate@@YAXXZ          0048d77a f   LIBCMT:hooks.obj
 0001:0008c7db       ?_inconsistency@@YAXXZ     0048d7db f   LIBCMT:hooks.obj
 0001:0008c831       __handle_qnan1             0048d831 f   LIBCMT:fpexcept.obj
 0001:0008c885       __except1                  0048d885 f   LIBCMT:fpexcept.obj
 0001:0008c91d       __raise_exc                0048d91d f   LIBCMT:fpexcept.obj
 0001:0008cbd0       __handle_exc               0048dbd0 f   LIBCMT:fpexcept.obj
 0001:0008cde7       __umatherr                 0048dde7 f   LIBCMT:fpexcept.obj
 0001:0008ce6f       __set_errno                0048de6f f   LIBCMT:fpexcept.obj
 0001:0008cebc       __errcode                  0048debc f   LIBCMT:fpexcept.obj
 0001:0008cee9       __frnd                     0048dee9 f   LIBCMT:frnd.obj
 0001:0008cefb       __set_exp                  0048defb f   LIBCMT:util.obj
 0001:0008cf24       __sptype                   0048df24 f   LIBCMT:util.obj
 0001:0008cf7e       __decomp                   0048df7e f   LIBCMT:util.obj
 0001:0008d03f       __statfp                   0048e03f f   LIBCMT:fpctrl.obj
 0001:0008d04d       __clrfp                    0048e04d f   LIBCMT:fpctrl.obj
 0001:0008d05c       __ctrlfp                   0048e05c f   LIBCMT:fpctrl.obj
 0001:0008d07f       __set_statfp               0048e07f f   LIBCMT:fpctrl.obj
 0001:0008d0d5       __setdefaultprecision      0048e0d5 f   LIBCMT:fp8.obj
 0001:0008d0e7       __ms_p5_test_fdiv          0048e0e7 f   LIBCMT:testfdiv.obj
 0001:0008d125       __ms_p5_mp_test_fdiv       0048e125 f   LIBCMT:testfdiv.obj
 0001:0008d14e       __forcdecpt                0048e14e f   LIBCMT:cvt.obj
 0001:0008d1a8       __cropzeros                0048e1a8 f   LIBCMT:cvt.obj
 0001:0008d1f6       __positive                 0048e1f6 f   LIBCMT:cvt.obj
 0001:0008d20e       __fassign                  0048e20e f   LIBCMT:cvt.obj
 0001:0008d24c       __cftoe                    0048e24c f   LIBCMT:cvt.obj
 0001:0008d36f       __cftof                    0048e36f f   LIBCMT:cvt.obj
 0001:0008d46b       __cftog                    0048e46b f   LIBCMT:cvt.obj
 0001:0008d4fe       __cfltcvt                  0048e4fe f   LIBCMT:cvt.obj
 0001:0008d574       __flsbuf                   0048e574 f   LIBCMT:_flsbuf.obj
 0001:0008d68c       __output                   0048e68c f   LIBCMT:output.obj
 0001:0008def3       __isctype                  0048eef3 f   LIBCMT:isctype.obj
 0001:0008df68       __mbsnbcpy                 0048ef68 f   LIBCMT:mbsnbcpy.obj
 0001:0008e010       __strnicmp                 0048f010 f   LIBCMT:strnicmp.obj
 0001:0008e111       __XcptFilter               0048f111 f   LIBCMT:winxfltr.obj
 0001:0008e289       ?__CxxUnhandledExceptionFilter@@YGJPAU_EXCEPTION_POINTERS@@@Z 0048f289 f   LIBCMT:unhandld.obj
 0001:0008e2cf       ?__CxxSetUnhandledExceptionFilter@@YAXXZ 0048f2cf f   LIBCMT:unhandld.obj
 0001:0008e2e0       ?__CxxRestoreUnhandledExceptionFilter@@YAXXZ 0048f2e0 f   LIBCMT:unhandld.obj
 0001:0008e2ed       ___initstdio               0048f2ed f   LIBCMT:_file.obj
 0001:0008e395       ___endstdio                0048f395 f   LIBCMT:_file.obj
 0001:0008e3a9       __lock_file                0048f3a9 f   LIBCMT:_file.obj
 0001:0008e3d8       __lock_file2               0048f3d8 f   LIBCMT:_file.obj
 0001:0008e3fb       __unlock_file              0048f3fb f   LIBCMT:_file.obj
 0001:0008e42a       __unlock_file2             0048f42a f   LIBCMT:_file.obj
 0001:0008e44d       __close                    0048f44d f   LIBCMT:close.obj
 0001:0008e4aa       __close_lk                 0048f4aa f   LIBCMT:close.obj
 0001:0008e52d       __freebuf                  0048f52d f   LIBCMT:_freebuf.obj
 0001:0008e558       __filbuf                   0048f558 f   LIBCMT:_filbuf.obj
 0001:0008e634       __read                     0048f634 f   LIBCMT:read.obj
 0001:0008e699       __read_lk                  0048f699 f   LIBCMT:read.obj
 0001:0008e872       __ioinit                   0048f872 f   LIBCMT:ioinit.obj
 0001:0008ea2e       __lseek                    0048fa2e f   LIBCMT:lseek.obj
 0001:0008ea93       __lseek_lk                 0048fa93 f   LIBCMT:lseek.obj
 0001:0008eb06       __openfile                 0048fb06 f   LIBCMT:_open.obj
 0001:0008ec76       __getstream                0048fc76 f   LIBCMT:stream.obj
 0001:0008ed3e       __input                    0048fd3e f   LIBCMT:input.obj
 0001:0008f7ef       __wincmdln                 004907ef f   LIBCMT:wincmdln.obj
 0001:0008f847       __setenvp                  00490847 f   LIBCMT:stdenvp.obj
 0001:0008f900       __setargv                  00490900 f   LIBCMT:stdargv.obj
 0001:0008fb4d       ___crtGetEnvironmentStringsA 00490b4d f   LIBCMT:a_env.obj
 0001:0008fc7f       __FF_MSGBANNER             00490c7f f   LIBCMT:crt0msg.obj
 0001:0008fcb8       __NMSG_WRITE               00490cb8 f   LIBCMT:crt0msg.obj
 0001:0008fe0b       __write                    00490e0b f   LIBCMT:write.obj
 0001:0008fe70       __write_lk                 00490e70 f   LIBCMT:write.obj
 0001:00090000       __trandisp1                00491000 f   LIBCMT:87disp.obj
 0001:00090067       __trandisp2                00491067 f   LIBCMT:87disp.obj
 0001:000900f3       __rttospopde               004910f3 f   LIBCMT:87disp.obj
 0001:000900f8       __rttospop                 004910f8 f   LIBCMT:87disp.obj
 0001:000900fa       __rtnospop                 004910fa f   LIBCMT:87disp.obj
 0001:000900fc       __rttosnpop                004910fc f   LIBCMT:87disp.obj
 0001:000900fd       __rtnospopde               004910fd f   LIBCMT:87disp.obj
 0001:00090104       __rtzeropop                00491104 f   LIBCMT:87disp.obj
 0001:00090106       __rtzeronpop               00491106 f   LIBCMT:87disp.obj
 0001:0009010b       __rtonepop                 0049110b f   LIBCMT:87disp.obj
 0001:0009010d       __rtonenpop                0049110d f   LIBCMT:87disp.obj
 0001:00090112       __tosnan1                  00491112 f   LIBCMT:87disp.obj
 0001:0009013d       __nosnan2                  0049113d f   LIBCMT:87disp.obj
 0001:0009013f       __tosnan2                  0049113f f   LIBCMT:87disp.obj
 0001:00090167       __nan2                     00491167 f   LIBCMT:87disp.obj
 0001:000901a6       __rtindfpop                004911a6 f   LIBCMT:87disp.obj
 0001:000901a8       __rtindfnpop               004911a8 f   LIBCMT:87disp.obj
 0001:000901b9       __rttosnpopde              004911b9 f   LIBCMT:87disp.obj
 0001:000901c3       __rtchsifneg               004911c3 f   LIBCMT:87disp.obj
 0001:000901d0       __startTwoArgErrorHandling 004911d0 f   LIBCMT:genexcep.obj
 0001:000901e7       __startOneArgErrorHandling 004911e7 f   LIBCMT:genexcep.obj
 0001:00090230       __twoToTOS                 00491230 f   LIBCMT:common.obj
 0001:00090245       __load_CW                  00491245 f   LIBCMT:common.obj
 0001:0009025c       __convertTOStoQNaN         0049125c f   LIBCMT:common.obj
 0001:00090275       __fload_withFB             00491275 f   LIBCMT:common.obj
 0001:000902b8       __checkTOS_withFB          004912b8 f   LIBCMT:common.obj
 0001:000902ce       __fast_exit                004912ce f   LIBCMT:common.obj
 0001:000902db       __math_exit                004912db f   LIBCMT:common.obj
 0001:00090305       __check_overflow_exit      00491305 f   LIBCMT:common.obj
 0001:00090319       __check_range_exit         00491319 f   LIBCMT:common.obj
 0001:000903bc       __stbuf                    004913bc f   LIBCMT:_sftbuf.obj
 0001:00090449       __ftbuf                    00491449 f   LIBCMT:_sftbuf.obj
 0001:00090491       __fFEXP                    00491491 f   LIBCMT:87tran.obj
 0001:000904f8       __rtinfpopse               004914f8 f   LIBCMT:87tran.obj
 0001:000904fa       __rtinfnpopse              004914fa f   LIBCMT:87tran.obj
 0001:0009050a       __fFLN                     0049150a f   LIBCMT:87tran.obj
 0001:000905bf       __rtinfpop                 004915bf f   LIBCMT:87tran.obj
 0001:000905c1       __rtinfnpop                004915c1 f   LIBCMT:87tran.obj
 0001:000905de       __ffexpm1                  004915de f   LIBCMT:87tran.obj
 0001:00090687       __powhlp                   00491687 f   LIBCMT:powhlp.obj
 0001:000907b7       __d_inttype                004917b7 f   LIBCMT:powhlp.obj
 0001:0009081c       ___loctotime_t             0049181c f   LIBCMT:dtoxtime.obj
 0001:000908de       ___tzset                   004918de f   LIBCMT:tzset.obj
 0001:00090b93       __isindst                  00491b93 f   LIBCMT:tzset.obj
 0001:00090ea0       _strcpy                    00491ea0 f   LIBCMT:strcat.obj
 0001:00090eb0       _strcat                    00491eb0 f   LIBCMT:strcat.obj
 0001:00090f90       __stricmp                  00491f90 f   LIBCMT:stricmp.obj
 0001:00090f90       __strcmpi                  00491f90 f   LIBCMT:stricmp.obj
 0001:00091060       __fpclass                  00492060 f   LIBCMT:ieeemisc.obj
 0001:00091100       __aulldiv                  00492100 f   LIBCMT:ulldiv.obj
 0001:00091170       __aullrem                  00492170 f   LIBCMT:ullrem.obj
 0001:000911f0       _strpbrk                   004921f0 f   LIBCMT:strpbrk.obj
 0001:0009122a       ___crtLCMapStringA         0049222a f   LIBCMT:a_map.obj
 0001:00091450       __strrev                   00492450 f   LIBCMT:strrev.obj
 0001:00091480       _toupper                   00492480 f   LIBCMT:toupper.obj
 0001:000914ef       __toupper_lk               004924ef f   LIBCMT:toupper.obj
 0001:000915c0       _strspn                    004925c0 f   LIBCMT:strspn.obj
 0001:00091600       _strcspn                   00492600 f   LIBCMT:strcspn.obj
 0001:0009163e       ___crtGetStringTypeA       0049263e f   LIBCMT:a_str.obj
 0001:00091787       __commit                   00492787 f   LIBCMT:commit.obj
 0001:0009181a       ?_ValidateRead@@YAHPBXI@Z  0049281a f   LIBCMT:validate.obj
 0001:00091836       ?_ValidateWrite@@YAHPAXI@Z 00492836 f   LIBCMT:validate.obj
 0001:00091852       ?_ValidateExecute@@YAHP6GHXZ@Z 00492852 f   LIBCMT:validate.obj
 0001:0009186a       _abort                     0049286a f   LIBCMT:abort.obj
 0001:00091881       __matherr                  00492881 f   LIBCMT:matherr.obj
 0001:00091884       __control87                00492884 f   LIBCMT:ieee87.obj
 0001:000918b9       __controlfp                004928b9 f   LIBCMT:ieee87.obj
 0001:000919ea       _tolower                   004929ea f   LIBCMT:tolower.obj
 0001:00091a59       __tolower_lk               00492a59 f   LIBCMT:tolower.obj
 0001:00091b24       __ZeroTail                 00492b24 f   LIBCMT:intrncvt.obj
 0001:00091b6d       __IncMan                   00492b6d f   LIBCMT:intrncvt.obj
 0001:00091bc3       __RoundMan                 00492bc3 f   LIBCMT:intrncvt.obj
 0001:00091c4f       __CopyMan                  00492c4f f   LIBCMT:intrncvt.obj
 0001:00091c6a       __FillZeroMan              00492c6a f   LIBCMT:intrncvt.obj
 0001:00091c76       __IsZeroMan                00492c76 f   LIBCMT:intrncvt.obj
 0001:00091c91       __ShrMan                   00492c91 f   LIBCMT:intrncvt.obj
 0001:00091d1e       __ld12cvt                  00492d1e f   LIBCMT:intrncvt.obj
 0001:00091e8a       __ld12tod                  00492e8a f   LIBCMT:intrncvt.obj
 0001:00091ea0       __ld12tof                  00492ea0 f   LIBCMT:intrncvt.obj
 0001:00091eb6       __atodbl                   00492eb6 f   LIBCMT:intrncvt.obj
 0001:00091ee3       __atoflt                   00492ee3 f   LIBCMT:intrncvt.obj
 0001:00091f10       __fptostr                  00492f10 f   LIBCMT:_fptostr.obj
 0001:00091f87       __fltout2                  00492f87 f   LIBCMT:cfout.obj
 0001:00091fe3       ___dtold                   00492fe3 f   LIBCMT:cfout.obj
 0001:00092099       __fptrap                   00493099 f   LIBCMT:crt0fp.obj
 0001:000920a2       __getbuf                   004930a2 f   LIBCMT:_getbuf.obj
 0001:000920e6       __isatty                   004930e6 f   LIBCMT:isatty.obj
 0001:0009210f       _wctomb                    0049310f f   LIBCMT:wctomb.obj
 0001:00092168       __wctomb_lk                00493168 f   LIBCMT:wctomb.obj
 0001:000921e0       _strncpy                   004931e0 f   LIBCMT:strncpy.obj
 0001:000922de       __fcloseall                004932de f   LIBCMT:closeall.obj
 0001:0009235f       __sopen                    0049335f f   LIBCMT:open.obj
 0001:0009262e       _mbtowc                    0049362e f   LIBCMT:mbtowc.obj
 0001:0009268b       __mbtowc_lk                0049368b f   LIBCMT:mbtowc.obj
 0001:00092754       _isspace                   00493754 f   LIBCMT:_ctype.obj
 0001:00092780       __allshl                   00493780 f   LIBCMT:llshl.obj
 0001:0009279f       _ungetc                    0049379f f   LIBCMT:ungetc.obj
 0001:000927c8       __ungetc_lk                004937c8 f   LIBCMT:ungetc.obj
 0001:00092836       __ismbblead                00493836 f   LIBCMT:ismbbyte.obj
 0001:00092878       ___crtMessageBoxA          00493878 f   LIBCMT:crtmbox.obj
 0001:00092901       __87except                 00493901 f   LIBCMT:87except.obj
 0001:000929e0       _fdiv_main_routine         004939e0 f   LIBCMT:adj_fdiv.obj
 0001:00092af7       __adj_fdiv_r               00493af7 f   LIBCMT:adj_fdiv.obj
 0001:00092f96       __fdivp_sti_st             00493f96 f   LIBCMT:adj_fdiv.obj
 0001:00092fa9       __fdivrp_sti_st            00493fa9 f   LIBCMT:adj_fdiv.obj
 0001:00092fbc       __adj_fdiv_m32             00493fbc f   LIBCMT:adj_fdiv.obj
 0001:00093008       __adj_fdiv_m64             00494008 f   LIBCMT:adj_fdiv.obj
 0001:00093054       __adj_fdiv_m16i            00494054 f   LIBCMT:adj_fdiv.obj
 0001:00093088       __adj_fdiv_m32i            00494088 f   LIBCMT:adj_fdiv.obj
 0001:000930bc       __adj_fdivr_m32            004940bc f   LIBCMT:adj_fdiv.obj
 0001:00093108       __adj_fdivr_m64            00494108 f   LIBCMT:adj_fdiv.obj
 0001:00093154       __adj_fdivr_m16i           00494154 f   LIBCMT:adj_fdiv.obj
 0001:00093188       __adj_fdivr_m32i           00494188 f   LIBCMT:adj_fdiv.obj
 0001:000931bc       __safe_fdiv                004941bc f   LIBCMT:adj_fdiv.obj
 0001:000931d1       __safe_fdivr               004941d1 f   LIBCMT:adj_fdiv.obj
 0001:000931e6       __fprem_common             004941e6 f   LIBCMT:adj_fdiv.obj
 0001:000933ec       __adj_fprem                004943ec f   LIBCMT:adj_fdiv.obj
 0001:0009349e       __fprem1_common            0049449e f   LIBCMT:adj_fdiv.obj
 0001:000936a4       __adj_fprem1               004946a4 f   LIBCMT:adj_fdiv.obj
 0001:00093759       __safe_fprem               00494759 f   LIBCMT:adj_fdiv.obj
 0001:0009375f       __safe_fprem1              0049475f f   LIBCMT:adj_fdiv.obj
 0001:00093765       __adj_fpatan               00494765 f   LIBCMT:adj_fdiv.obj
 0001:00093768       __adj_fptan                00494768 f   LIBCMT:adj_fdiv.obj
 0001:0009376b       _getenv                    0049476b f   LIBCMT:getenv.obj
 0001:0009378c       __getenv_lk                0049478c f   LIBCMT:getenv.obj
 0001:00093809       _fputwc                    00494809 f   LIBCMT:fputwc.obj
 0001:00093833       __putwc_lk                 00494833 f   LIBCMT:fputwc.obj
 0001:0009392c       _raise                     0049492c f   LIBCMT:winsig.obj
 0001:00093aeb       ___addl                    00494aeb f   LIBCMT:mantold.obj
 0001:00093b0c       ___add_12                  00494b0c f   LIBCMT:mantold.obj
 0001:00093b6a       ___shl_12                  00494b6a f   LIBCMT:mantold.obj
 0001:00093b98       ___shr_12                  00494b98 f   LIBCMT:mantold.obj
 0001:00093bc5       ___mtold12                 00494bc5 f   LIBCMT:mantold.obj
 0001:00093c8c       ___strgtold12              00494c8c f   LIBCMT:strgtold.obj
 0001:0009415d       _$I10_OUTPUT               0049515d f   LIBCMT:x10fout.obj
 0001:000943f0       __chsize_lk                004953f0 f   LIBCMT:chsize.obj
 0001:00094515       __mbsnbicoll               00495515 f   LIBCMT:mbsnbico.obj
 0001:00094554       ___wtomb_environ           00495554 f   LIBCMT:wtombenv.obj
 0001:000945c2       ___crtGetStringTypeW       004955c2 f   LIBCMT:w_str.obj
 0001:00094787       __flswbuf                  00495787 f   LIBCMT:_flswbuf.obj
 0001:000948ae       ___ld12mul                 004958ae f   LIBCMT:tenpow.obj
 0001:00094ace       ___multtenpow12            00495ace f   LIBCMT:tenpow.obj
 0001:00094b4a       __setmode_lk               00495b4a f   LIBCMT:setmode.obj
 0001:00094bab       ___crtCompareStringA       00495bab f   LIBCMT:a_cmp.obj
 0001:00094e53       ___crtsetenv               00495e53 f   LIBCMT:setenv.obj
 0001:0009509a       _RtlUnwind@16              0049609a f   kernel32:KERNEL32.dll
 0001:000950a0       _ReuseDDElParam@20         004960a0 f   user32:USER32.dll
 0001:000950a6       _UnpackDDElParam@16        004960a6 f   user32:USER32.dll
 0001:000950ac       _GetSaveFileNameA@4        004960ac f   comdlg32:comdlg32.dll
 0001:000950b2       _GetOpenFileNameA@4        004960b2 f   comdlg32:comdlg32.dll
 0001:000950b8       _GetFileTitleA@12          004960b8 f   comdlg32:comdlg32.dll
 0001:000950be       _ClosePrinter@4            004960be f   winspool:WINSPOOL.DRV
 0001:000950c4       _DocumentPropertiesA@24    004960c4 f   winspool:WINSPOOL.DRV
 0001:000950ca       _OpenPrinterA@12           004960ca f   winspool:WINSPOOL.DRV
 0001:000950d0       _OleUIBusyA@4              004960d0 f   oledlg:oledlg.dll
 0001:000950d6       _URLDownloadToFileA@20     004960d6 f   urlmon:urlmon.dll
 0001:000950e0       ?GetRuntimeClass@CXTPTabManagerItem@@UBEPAUCRuntimeClass@@XZ 004960e0 f   ToolkitPro1501vc60S:XTPTabManager.obj
 0001:000950f0       ??0CXTPTabManagerItem@@IAE@XZ 004960f0 f   ToolkitPro1501vc60S:XTPTabManager.obj
 0001:000951b0       ??_ECXTPTabManagerItem@@MAEPAXI@Z 004961b0 f i ToolkitPro1501vc60S:XTPTabManager.obj
 0001:000951b0       ??_GCXTPTabManagerItem@@MAEPAXI@Z 004961b0 f i ToolkitPro1501vc60S:XTPTabManager.obj
 0001:000951d0       ?OnRemoved@CXTPTabManagerItem@@MAEXXZ 004961d0 f   ToolkitPro1501vc60S:XTPTabManager.obj
 0001:000951e0       ??1CXTPTabManagerItem@@MAE@XZ 004961e0 f   ToolkitPro1501vc60S:XTPTabManager.obj
 0001:00095270       ?Reposition@CXTPTabManagerItem@@IAEXXZ 00496270 f   ToolkitPro1501vc60S:XTPTabManager.obj
 0001:00095280       ?SetCaption@CXTPTabManagerItem@@QAEXPBD@Z 00496280 f   ToolkitPro1501vc60S:XTPTabManager.obj
 0001:00095340       ?SetColor@CXTPTabManagerItem@@QAEXK@Z 00496340 f   ToolkitPro1501vc60S:XTPTabManager.obj
 0001:00095390       ?GetCaption@CXTPTabManagerItem@@QBE?AVCString@@XZ 00496390 f   ToolkitPro1501vc60S:XTPTabManager.obj
 0001:000953c0       ?GetColor@CXTPTabManagerItem@@QAEKXZ 004963c0 f   ToolkitPro1501vc60S:XTPTabManager.obj
 0001:000953d0       ?Remove@CXTPTabManagerItem@@QAEXXZ 004963d0 f   ToolkitPro1501vc60S:XTPTabManager.obj
 0001:000953f0       ?Select@CXTPTabManagerItem@@QAEXXZ 004963f0 f   ToolkitPro1501vc60S:XTPTabManager.obj
 0001:00095400       ?SetVisible@CXTPTabManagerItem@@UAEXH@Z 00496400 f   ToolkitPro1501vc60S:XTPTabManager.obj
 0001:00095420       ?SetEnabled@CXTPTabManagerItem@@QAEXH@Z 00496420 f   ToolkitPro1501vc60S:XTPTabManager.obj
 0001:00095440       ?DrawRotatedImage@CXTPTabManagerItem@@AAEHPAVCDC@@VCRect@@PAVCXTPImageManagerIcon@@@Z 00496440 f   ToolkitPro1501vc60S:XTPTabManager.obj
 0001:000956f0       ?DrawImage@CXTPTabManagerItem@@QAEXPAVCDC@@VCRect@@PAVCXTPImageManagerIcon@@@Z 004966f0 f   ToolkitPro1501vc60S:XTPTabManager.obj
 0001:000957e0       ?SetRect@CXTPTabManagerItem@@QAEXVCRect@@@Z 004967e0 f   ToolkitPro1501vc60S:XTPTabManager.obj
 0001:00095850       ??0CXTPTabManagerNavigateButtons@@QAE@XZ 00496850 f   ToolkitPro1501vc60S:XTPTabManager.obj
 0001:00095870       ??_GCXTPTabManagerNavigateButtons@@UAEPAXI@Z 00496870 f i ToolkitPro1501vc60S:XTPTabManager.obj
 0001:00095870       ??_ECXTPTabManagerNavigateButtons@@UAEPAXI@Z 00496870 f i ToolkitPro1501vc60S:XTPTabManager.obj
 0001:00095890       ??1CXTPTabManagerNavigateButtons@@UAE@XZ 00496890 f   ToolkitPro1501vc60S:XTPTabManager.obj
 0001:00095900       ?RemoveAll@CXTPTabManagerNavigateButtons@@QAEXXZ 00496900 f   ToolkitPro1501vc60S:XTPTabManager.obj
 0001:00095950       ??0CXTPTabManagerNavigateButton@@QAE@PAVCXTPTabManager@@IW4XTPTabNavigateButtonFlags@@@Z 00496950 f   ToolkitPro1501vc60S:XTPTabManager.obj
 0001:000959a0       ??_ECXTPTabManagerNavigateButton@@MAEPAXI@Z 004969a0 f i ToolkitPro1501vc60S:XTPTabManager.obj
 0001:000959a0       ??_GCXTPTabManagerNavigateButton@@MAEPAXI@Z 004969a0 f i ToolkitPro1501vc60S:XTPTabManager.obj
 0001:000959c0       ??1CXTPTabManagerNavigateButton@@MAE@XZ 004969c0 f   ToolkitPro1501vc60S:XTPTabManager.obj
 0001:000959e0       ?GetSize@CXTPTabManagerNavigateButton@@UBE?AVCSize@@XZ 004969e0 f   ToolkitPro1501vc60S:XTPTabManager.obj
 0001:00095a10       ?AdjustWidth@CXTPTabManagerNavigateButton@@UAEXAAH@Z 00496a10 f   ToolkitPro1501vc60S:XTPTabManager.obj
 0001:00095a80       ?SetRect@CXTPTabManagerNavigateButton@@QAEXVCRect@@@Z 00496a80 f   ToolkitPro1501vc60S:XTPTabManager.obj
 0001:00095ab0       ?Reposition@CXTPTabManagerNavigateButton@@UAEXAAVCRect@@@Z 00496ab0 f   ToolkitPro1501vc60S:XTPTabManager.obj
 0001:00095bb0       ?Draw@CXTPTabManagerNavigateButton@@QAEXPAVCDC@@@Z 00496bb0 f   ToolkitPro1501vc60S:XTPTabManager.obj
 0001:00095c10       ?PerformClick@CXTPTabManagerNavigateButton@@UAEXPAUHWND__@@VCPoint@@@Z 00496c10 f   ToolkitPro1501vc60S:XTPTabManager.obj
 0001:00095d80       ?OnExecute@CXTPTabManagerNavigateButton@@UAEXH@Z 00496d80 f   ToolkitPro1501vc60S:XTPTabManager.obj
 0001:00095da0       ??0CRowIndexer@CXTPTabManager@@QAE@PAV1@@Z 00496da0 f   ToolkitPro1501vc60S:XTPTabManager.obj
 0001:00095dd0       ??1SLIDERTICKS@CXTPScrollBase@@QAE@XZ 00496dd0 f   ToolkitPro1501vc60S:XTPTabManager.obj
 0001:00095dd0       ??1CRowIndexer@CXTPTabManager@@QAE@XZ 00496dd0 f   ToolkitPro1501vc60S:XTPTabManager.obj
 0001:00095df0       ?CreateIndexer@CRowIndexer@CXTPTabManager@@QAEPAUROW_ITEMS@2@H@Z 00496df0 f   ToolkitPro1501vc60S:XTPTabManager.obj
 0001:00095e50       ?DrawEntry@CNavigateButtonClose@CXTPTabManager@@MAEXPAVCDC@@VCRect@@@Z 00496e50 f   ToolkitPro1501vc60S:XTPTabManager.obj
 0001:00095f20       ?DrawEntry@CNavigateButtonArrowRight@CXTPTabManager@@MAEXPAVCDC@@VCRect@@@Z 00496f20 f   ToolkitPro1501vc60S:XTPTabManager.obj
 0001:00095fe0       ?AdjustWidth@CNavigateButtonArrow@CXTPTabManager@@MAEXAAH@Z 00496fe0 f   ToolkitPro1501vc60S:XTPTabManager.obj
 0001:00096040       ?Reposition@CNavigateButtonArrow@CXTPTabManager@@MAEXAAVCRect@@@Z 00497040 f   ToolkitPro1501vc60S:XTPTabManager.obj
 0001:00096160       ?Reposition@CNavigateButtonArrowRight@CXTPTabManager@@MAEXAAVCRect@@@Z 00497160 f   ToolkitPro1501vc60S:XTPTabManager.obj
 0001:00096260       ?OnExecute@CNavigateButtonArrowRight@CXTPTabManager@@MAEXH@Z 00497260 f   ToolkitPro1501vc60S:XTPTabManager.obj
 0001:00096280       ?OnScrollHeader@CXTPTabManager@@UAEXH@Z 00497280 f   ToolkitPro1501vc60S:XTPTabManager.obj
 0001:000962b0       ?DrawEntry@CNavigateButtonArrowLeft@CXTPTabManager@@MAEXPAVCDC@@VCRect@@@Z 004972b0 f   ToolkitPro1501vc60S:XTPTabManager.obj
 0001:00096370       ?Reposition@CNavigateButtonArrowLeft@CXTPTabManager@@MAEXAAVCRect@@@Z 00497370 f   ToolkitPro1501vc60S:XTPTabManager.obj
 0001:000963e0       ?OnExecute@CNavigateButtonArrowLeft@CXTPTabManager@@MAEXH@Z 004973e0 f   ToolkitPro1501vc60S:XTPTabManager.obj
 0001:00096400       ??0CXTPTabManager@@QAE@XZ  00497400 f   ToolkitPro1501vc60S:XTPTabManager.obj
 0001:000965f0       ?OnPropertyChanged@CXTPTabManagerAtom@@UAEXXZ 004975f0 f i ToolkitPro1501vc60S:XTPTabManager.obj
 0001:00096600       ??1CXTPTabManagerAtom@@MAE@XZ 00497600 f i ToolkitPro1501vc60S:XTPTabManager.obj
 0001:00096610       ??_GCXTPTabManagerAtom@@MAEPAXI@Z 00497610 f i ToolkitPro1501vc60S:XTPTabManager.obj
 0001:00096610       ??_ECXTPTabManagerAtom@@MAEPAXI@Z 00497610 f i ToolkitPro1501vc60S:XTPTabManager.obj
 0001:00096630       ?OnNavigateButtonClick@CXTPTabManager@@MAEXPAVCXTPTabManagerNavigateButton@@@Z 00497630 f i ToolkitPro1501vc60S:XTPTabManager.obj
 0001:00096650       ?IsAllowReorder@CXTPTabManager@@UBEHXZ 00497650 f i ToolkitPro1501vc60S:XTPTabManager.obj
 0001:00096660       ?SetAllowReorder@CXTPTabManager@@UAEXH@Z 00497660 f i ToolkitPro1501vc60S:XTPTabManager.obj
 0001:00096670       ?DrawParentBackground@CXTPTabManager@@UAEHPAVCDC@@VCRect@@@Z 00497670 f i ToolkitPro1501vc60S:XTPTabManager.obj
 0001:00096680       ?GetMarkupContext@CXTPTabManager@@UBEPAVCXTPMarkupContext@@XZ 00497680 f i ToolkitPro1501vc60S:XTPTabManager.obj
 0001:00096690       ?OnLButtonUp@CXTPControl@@MAEXVCPoint@@@Z 00497690 f i ToolkitPro1501vc60S:XTPTabManager.obj
 0001:00096690       ?OnMouseMove@CXTPControl@@MAEXVCPoint@@@Z 00497690 f i ToolkitPro1501vc60S:XTPTabManager.obj
 0001:00096690       ?GetText@CXTPControlComboBoxPopupBar@@UBEXHAAVCString@@@Z 00497690 f i ToolkitPro1501vc60S:XTPTabManager.obj
 0001:00096690       ?OnSwitchItem@CXTPTabManager@@MAEXPAVCXTPTabManagerItem@@0@Z 00497690 f i ToolkitPro1501vc60S:XTPTabManager.obj
 0001:00096690       ?DrawSingleButton@CAppearanceSet@CXTPTabPaintManager@@UAEXPAVCDC@@PAVCXTPTabManagerItem@@@Z 00497690 f i ToolkitPro1501vc60S:XTPTabManager.obj
 0001:000966a0       ?OnPopupRButtonUp@CXTPCommandBar@@UAEXPAV1@VCPoint@@@Z 004976a0 f i ToolkitPro1501vc60S:XTPTabManager.obj
 0001:000966a0       ?OnItemOrderChanged@CXTPTabManager@@MAEXPAVCXTPTabManagerItem@@HH@Z 004976a0 f i ToolkitPro1501vc60S:XTPTabManager.obj
 0001:000966a0       ?OnClick@CXTPControl@@UAEXHVCPoint@@@Z 004976a0 f i ToolkitPro1501vc60S:XTPTabManager.obj
 0001:000966a0       ?OnItemHandleChanged@CXTPTabManager@@MAEXPAVCXTPTabManagerItem@@PAUHWND__@@1@Z 004976a0 f i ToolkitPro1501vc60S:XTPTabManager.obj
 0001:000966b0       ??_ECNavigateButtonClose@CXTPTabManager@@UAEPAXI@Z 004976b0 f i ToolkitPro1501vc60S:XTPTabManager.obj
 0001:000966b0       ??_ECNavigateButtonArrowLeft@CXTPTabManager@@UAEPAXI@Z 004976b0 f i ToolkitPro1501vc60S:XTPTabManager.obj
 0001:000966b0       ??_GCNavigateButtonTabClose@CXTPTabManager@@UAEPAXI@Z 004976b0 f i ToolkitPro1501vc60S:XTPTabManager.obj
 0001:000966b0       ??_ECNavigateButtonArrowRight@CXTPTabManager@@UAEPAXI@Z 004976b0 f i ToolkitPro1501vc60S:XTPTabManager.obj
 0001:000966b0       ??_ECNavigateButtonTabClose@CXTPTabManager@@UAEPAXI@Z 004976b0 f i ToolkitPro1501vc60S:XTPTabManager.obj
 0001:000966b0       ??_GCNavigateButtonArrowRight@CXTPTabManager@@UAEPAXI@Z 004976b0 f i ToolkitPro1501vc60S:XTPTabManager.obj
 0001:000966b0       ??_GCNavigateButtonArrowLeft@CXTPTabManager@@UAEPAXI@Z 004976b0 f i ToolkitPro1501vc60S:XTPTabManager.obj
 0001:000966b0       ??_GCNavigateButtonClose@CXTPTabManager@@UAEPAXI@Z 004976b0 f i ToolkitPro1501vc60S:XTPTabManager.obj
 0001:000966d0       ??_GCXTPTabManager@@UAEPAXI@Z 004976d0 f i ToolkitPro1501vc60S:XTPTabManager.obj
 0001:000966d0       ??_ECXTPTabManager@@UAEPAXI@Z 004976d0 f i ToolkitPro1501vc60S:XTPTabManager.obj
 0001:000966f0       ??1CXTPTabManager@@UAE@XZ  004976f0 f   ToolkitPro1501vc60S:XTPTabManager.obj
 0001:000967d0       ?SetActive@CXTPTabManager@@QAEXH@Z 004977d0 f   ToolkitPro1501vc60S:XTPTabManager.obj
 0001:000967f0       ?IsNavigateButtonVisible@CXTPTabManager@@MAEHPAVCXTPTabManagerNavigateButton@@@Z 004977f0 f   ToolkitPro1501vc60S:XTPTabManager.obj
 0001:00096830       ?IsNavigateButtonAutomaticVisible@CXTPTabManager@@MAEHPAVCXTPTabManagerNavigateButton@@@Z 00497830 f   ToolkitPro1501vc60S:XTPTabManager.obj
 0001:00096870       ?FindNavigateButton@CXTPTabManager@@QBEPAVCXTPTabManagerNavigateButton@@I@Z 00497870 f   ToolkitPro1501vc60S:XTPTabManager.obj
 0001:000968b0       ?SetHeaderOffset@CXTPTabManager@@QAEXH@Z 004978b0 f   ToolkitPro1501vc60S:XTPTabManager.obj
 0001:000968d0       ?GetItemsLength@CXTPTabManager@@UBEHXZ 004978d0 f   ToolkitPro1501vc60S:XTPTabManager.obj
 0001:00096930       ?DeleteAllItems@CXTPTabManager@@QAEXXZ 00497930 f   ToolkitPro1501vc60S:XTPTabManager.obj
 0001:00096990       ?DeleteItem@CXTPTabManager@@QAEHH@Z 00497990 f   ToolkitPro1501vc60S:XTPTabManager.obj
 0001:00096a20       ?AddItem@CXTPTabManager@@IAEPAVCXTPTabManagerItem@@HPAV2@@Z 00497a20 f   ToolkitPro1501vc60S:XTPTabManager.obj
 0001:00096bf0       ??1CNavigateButtonClose@CXTPTabManager@@UAE@XZ 00497bf0 f i ToolkitPro1501vc60S:XTPTabManager.obj
 0001:00096bf0       ??1CNavigateButtonArrowLeft@CXTPTabManager@@UAE@XZ 00497bf0 f i ToolkitPro1501vc60S:XTPTabManager.obj
 0001:00096bf0       ??1CNavigateButtonArrowRight@CXTPTabManager@@UAE@XZ 00497bf0 f i ToolkitPro1501vc60S:XTPTabManager.obj
 0001:00096bf0       ??1CNavigateButtonTabClose@CXTPTabManager@@UAE@XZ 00497bf0 f i ToolkitPro1501vc60S:XTPTabManager.obj
 0001:00096c00       ?OnItemsChanged@CXTPTabManager@@UAEXXZ 00497c00 f   ToolkitPro1501vc60S:XTPTabManager.obj
 0001:00096c30       ?GetItemCaption@CXTPTabManager@@UBE?AVCString@@PBVCXTPTabManagerItem@@@Z 00497c30 f   ToolkitPro1501vc60S:XTPTabManager.obj
 0001:00096c60       ?GetItemIcon@CXTPTabManager@@UBEPAUHICON__@@PBVCXTPTabManagerItem@@@Z 00497c60 f   ToolkitPro1501vc60S:XTPTabManager.obj
 0001:00096c70       ?GetItemColor@CXTPTabManager@@UBEKPBVCXTPTabManagerItem@@@Z 00497c70 f   ToolkitPro1501vc60S:XTPTabManager.obj
 0001:00096ca0       ?SetCurSel@CXTPTabManager@@QAEXH@Z 00497ca0 f   ToolkitPro1501vc60S:XTPTabManager.obj
 0001:00096cf0       ?GetCurSel@CXTPTabManager@@QBEHXZ 00497cf0 f   ToolkitPro1501vc60S:XTPTabManager.obj
 0001:00096d00       ?SetSelectedItem@CXTPTabManager@@UAEXPAVCXTPTabManagerItem@@@Z 00497d00 f   ToolkitPro1501vc60S:XTPTabManager.obj
 0001:00096d30       ?EnsureVisible@CXTPTabManager@@QAEXPAVCXTPTabManagerItem@@@Z 00497d30 f   ToolkitPro1501vc60S:XTPTabManager.obj
 0001:00096d50       ?SetPosition@CXTPTabManager@@QAEXW4XTPTabPosition@@@Z 00497d50 f   ToolkitPro1501vc60S:XTPTabManager.obj
 0001:00096d70       ?HitTest@CXTPTabManager@@QBEPAVCXTPTabManagerItem@@VCPoint@@@Z 00497d70 f   ToolkitPro1501vc60S:XTPTabManager.obj
 0001:00096e40       ?GetPosition@CXTPTabManager@@UBE?AW4XTPTabPosition@@XZ 00497e40 f   ToolkitPro1501vc60S:XTPTabManager.obj
 0001:00096e50       ?GetLayout@CXTPTabManager@@QBE?AW4XTPTabLayoutStyle@@XZ 00497e50 f   ToolkitPro1501vc60S:XTPTabManager.obj
 0001:00096e60       ?TrackClick@CXTPTabManager@@IAEXPAUHWND__@@VCPoint@@PAVCXTPTabManagerItem@@@Z 00497e60 f   ToolkitPro1501vc60S:XTPTabManager.obj
 0001:00097020       ?ReOrder@CXTPTabManager@@MAEXPAUHWND__@@VCPoint@@PAVCXTPTabManagerItem@@@Z 00498020 f   ToolkitPro1501vc60S:XTPTabManager.obj
 0001:00097290       ?OnItemClick@CXTPTabManager@@MAEXPAVCXTPTabManagerItem@@@Z 00498290 f   ToolkitPro1501vc60S:XTPTabManager.obj
 0001:000972a0       ?SetFocusedItem@CXTPTabManager@@UAEXPAVCXTPTabManagerItem@@@Z 004982a0 f   ToolkitPro1501vc60S:XTPTabManager.obj
 0001:000972d0       ?FindNextFocusable@CXTPTabManager@@QBEPAVCXTPTabManagerItem@@HH@Z 004982d0 f   ToolkitPro1501vc60S:XTPTabManager.obj
 0001:00097320       ?PerformKeyDown@CXTPTabManager@@UAEHPAUHWND__@@I@Z 00498320 f   ToolkitPro1501vc60S:XTPTabManager.obj
 0001:00097460       ?HitTestNavigateButton@CXTPTabManager@@QBEPAVCXTPTabManagerNavigateButton@@VCPoint@@HPAH@Z 00498460 f   ToolkitPro1501vc60S:XTPTabManager.obj
 0001:00097530       ?PerformClick@CXTPTabManager@@QAEHPAUHWND__@@VCPoint@@H@Z 00498530 f   ToolkitPro1501vc60S:XTPTabManager.obj
 0001:00097600       ?PerformMouseMove@CXTPTabManager@@QAEXPAUHWND__@@VCPoint@@@Z 00498600 f   ToolkitPro1501vc60S:XTPTabManager.obj
 0001:00097800       ?GetItemTooltip@CXTPTabManager@@UBE?AVCString@@PBVCXTPTabManagerItem@@@Z 00498800 f   ToolkitPro1501vc60S:XTPTabManager.obj
 0001:00097830       ?PerformToolHitTest@CXTPTabManager@@UBEHPAUHWND__@@VCPoint@@PAUtagTOOLINFOA@@@Z 00498830 f   ToolkitPro1501vc60S:XTPTabManager.obj
 0001:00097a10       ?GetTooltip@CXTPTabManagerNavigateButton@@QBE?AVCString@@XZ 00498a10 f i ToolkitPro1501vc60S:XTPTabManager.obj
 0001:00097a10       ?GetCaption@CXTPControlGalleryItem@@QBE?AVCString@@XZ 00498a10 f i ToolkitPro1501vc60S:XTPTabManager.obj
 0001:00097a30       ?GetItemMetrics@CXTPTabManager@@UBEXPAVCSize@@00@Z 00498a30 f   ToolkitPro1501vc60S:XTPTabManager.obj
 0001:00097a80       ?IsDrawStaticFrame@CXTPTabManager@@UBEHXZ 00498a80 f   ToolkitPro1501vc60S:XTPTabManager.obj
 0001:00097a90       ?SetColor@CXTPTabManager@@QAEPAVCColorSet@CXTPTabPaintManager@@W4XTPTabColorStyle@@@Z 00498a90 f   ToolkitPro1501vc60S:XTPTabManager.obj
 0001:00097ac0       ??1?$CArray@PAVCXTPTabManagerNavigateButton@@PAV1@@@UAE@XZ 00498ac0 f i ToolkitPro1501vc60S:XTPTabManager.obj
 0001:00097b10       ??1?$CArray@PAVCXTPTabManagerItem@@PAV1@@@UAE@XZ 00498b10 f i ToolkitPro1501vc60S:XTPTabManager.obj
 0001:00097b60       ??1?$CArray@VCRect@@AAV1@@@UAE@XZ 00498b60 f i ToolkitPro1501vc60S:XTPTabManager.obj
 0001:00097bb0       ?Serialize@?$CArray@VCRect@@AAV1@@@UAEXAAVCArchive@@@Z 00498bb0 f i ToolkitPro1501vc60S:XTPTabManager.obj
 0001:00097d30       ??_G?$CArray@PAVCXTPTabManagerNavigateButton@@PAV1@@@UAEPAXI@Z 00498d30 f i ToolkitPro1501vc60S:XTPTabManager.obj
 0001:00097d30       ??_E?$CArray@PAVCXTPTabManagerNavigateButton@@PAV1@@@UAEPAXI@Z 00498d30 f i ToolkitPro1501vc60S:XTPTabManager.obj
 0001:00097d50       ??_G?$CArray@PAVCXTPTabManagerItem@@PAV1@@@UAEPAXI@Z 00498d50 f i ToolkitPro1501vc60S:XTPTabManager.obj
 0001:00097d50       ??_E?$CArray@PAVCXTPTabManagerItem@@PAV1@@@UAEPAXI@Z 00498d50 f i ToolkitPro1501vc60S:XTPTabManager.obj
 0001:00097d70       ??_G?$CArray@VCRect@@AAV1@@@UAEPAXI@Z 00498d70 f i ToolkitPro1501vc60S:XTPTabManager.obj
 0001:00097d70       ??_E?$CArray@VCRect@@AAV1@@@UAEPAXI@Z 00498d70 f i ToolkitPro1501vc60S:XTPTabManager.obj
 0001:00097d90       ?SetAtGrow@?$CArray@VCRect@@AAV1@@@QAEXHAAVCRect@@@Z 00498d90 f i ToolkitPro1501vc60S:XTPTabManager.obj
 0001:00097ef0       ?ConstructElements@@YGXPAVCRect@@H@Z 00498ef0 f i ToolkitPro1501vc60S:XTPTabManager.obj
 0001:00097f10       ??0CXTPComboBox@@QAE@XZ    00498f10 f   ToolkitPro1501vc60S:XTPComboBox.obj
 0001:00097fd0       ?SetBackColor@CXTPComboBox@@UAEXK@Z 00498fd0 f i ToolkitPro1501vc60S:XTPComboBox.obj
 0001:00097fe0       ?SetTextColor@CXTPComboBox@@UAEXK@Z 00498fe0 f i ToolkitPro1501vc60S:XTPComboBox.obj
 0001:00097ff0       ??_ECXTPComboBox@@UAEPAXI@Z 00498ff0 f i ToolkitPro1501vc60S:XTPComboBox.obj
 0001:00097ff0       ??_GCXTPComboBox@@UAEPAXI@Z 00498ff0 f i ToolkitPro1501vc60S:XTPComboBox.obj
 0001:00098010       ??1CXTPComboBox@@UAE@XZ    00499010 f   ToolkitPro1501vc60S:XTPComboBox.obj
 0001:00098080       ?GetRuntimeClass@CXTPComboBox@@UBEPAUCRuntimeClass@@XZ 00499080 f   ToolkitPro1501vc60S:XTPComboBox.obj
 0001:00098090       ?GetMessageMap@CXTPComboBox@@MBEPBUAFX_MSGMAP@@XZ 00499090 f   ToolkitPro1501vc60S:XTPComboBox.obj
 0001:000980a0       ?RefreshMetrics@CXTPComboBox@@QAEXXZ 004990a0 f   ToolkitPro1501vc60S:XTPComboBox.obj
 0001:00098800       ??4CXTPPaintManagerColor@@QAEABV0@ABV0@@Z 00499800 f i ToolkitPro1501vc60S:XTPComboBox.obj
 0001:00098820       ?Init@CXTPComboBox@@IAEXXZ 00499820 f   ToolkitPro1501vc60S:XTPComboBox.obj
 0001:00098870       ?PreSubclassWindow@CXTPComboBox@@MAEXXZ 00499870 f   ToolkitPro1501vc60S:XTPComboBox.obj
 0001:00098890       ?OnCreate@CXTPComboBox@@IAEHPAUtagCREATESTRUCTA@@@Z 00499890 f   ToolkitPro1501vc60S:XTPComboBox.obj
 0001:000988b0       ?PreCreateWindow@CXTPComboBox@@MAEHAAUtagCREATESTRUCTA@@@Z 004998b0 f   ToolkitPro1501vc60S:XTPComboBox.obj
 0001:000988e0       ?SetTheme@CXTPComboBox@@QAEXW4XTPControlTheme@@@Z 004998e0 f   ToolkitPro1501vc60S:XTPComboBox.obj
 0001:00098920       ?OnPaint@CXTPComboBox@@IAEXXZ 00499920 f   ToolkitPro1501vc60S:XTPComboBox.obj
 0001:00099980       ?FillSolidRect@CXTPComboBox@@IAEXPAUHDC__@@HHHHPAUHBRUSH__@@@Z 0049a980 f   ToolkitPro1501vc60S:XTPComboBox.obj
 0001:000999d0       ?DrawFrame@CXTPComboBox@@IAEXPAUHDC__@@PAUtagRECT@@HPAUHBRUSH__@@@Z 0049a9d0 f   ToolkitPro1501vc60S:XTPComboBox.obj
 0001:00099a60       ?GetClientBrush@CXTPComboBox@@IAEPAUHBRUSH__@@PAVCDC@@@Z 0049aa60 f   ToolkitPro1501vc60S:XTPComboBox.obj
 0001:00099af0       ?OnMouseLeave@CXTPComboBox@@IAEXXZ 0049aaf0 f   ToolkitPro1501vc60S:XTPComboBox.obj
 0001:00099ba0       ?SetHighlighted@CXTPComboBox@@IAEXH@Z 0049aba0 f   ToolkitPro1501vc60S:XTPComboBox.obj
 0001:00099bf0       ?OnMouseMove@CXTPComboBox@@IAEXIVCPoint@@@Z 0049abf0 f   ToolkitPro1501vc60S:XTPComboBox.obj
 0001:00099c50       ?GetMessageMap@CXTPComboBoxEditCtrl@@MBEPBUAFX_MSGMAP@@XZ 0049ac50 f   ToolkitPro1501vc60S:XTPComboBox.obj
 0001:00099c60       ?OnMouseLeave@CXTPComboBoxEditCtrl@@IAEXXZ 0049ac60 f   ToolkitPro1501vc60S:XTPComboBox.obj
 0001:00099cb0       ?OnMouseMove@CXTPComboBoxEditCtrl@@IAEXIVCPoint@@@Z 0049acb0 f   ToolkitPro1501vc60S:XTPComboBox.obj
 0001:00099d50       ?OnKillFocus@CXTPComboBoxEditCtrl@@IAEXPAVCWnd@@@Z 0049ad50 f   ToolkitPro1501vc60S:XTPComboBox.obj
 0001:00099da0       ?OnSetFocus@CXTPComboBoxEditCtrl@@IAEXPAVCWnd@@@Z 0049ada0 f   ToolkitPro1501vc60S:XTPComboBox.obj
 0001:00099de0       ?OnKillFocus@CXTPComboBox@@IAEXPAVCWnd@@@Z 0049ade0 f   ToolkitPro1501vc60S:XTPComboBox.obj
 0001:00099e10       ?OnSetFocus@CXTPComboBox@@IAEXPAVCWnd@@@Z 0049ae10 f   ToolkitPro1501vc60S:XTPComboBox.obj
 0001:00099e40       ?NeedRedraw@CXTPComboBox@@IAEHXZ 0049ae40 f   ToolkitPro1501vc60S:XTPComboBox.obj
 0001:00099e70       ?RedrawFocusedFrame@CXTPComboBox@@IAEXXZ 0049ae70 f   ToolkitPro1501vc60S:XTPComboBox.obj
 0001:00099ea0       ?OnSysColorChange@CXTPComboBox@@IAEXXZ 0049aea0 f   ToolkitPro1501vc60S:XTPComboBox.obj
 0001:00099ec0       ?PreTranslateMessage@CXTPComboBox@@MAEHPAUtagMSG@@@Z 0049aec0 f   ToolkitPro1501vc60S:XTPComboBox.obj
 0001:00099f80       ?OnEditUpdate@CXTPComboBox@@IAEHXZ 0049af80 f   ToolkitPro1501vc60S:XTPComboBox.obj
 0001:0009a0e0       ?OnEndSel@CXTPComboBox@@IAEHXZ 0049b0e0 f   ToolkitPro1501vc60S:XTPComboBox.obj
 0001:0009a100       ??0CXTPTabControl@@QAE@XZ  0049b100 f   ToolkitPro1501vc60S:XTPTabControl.obj
 0001:0009a270       ?GetPaintManager@CXTPTabControl@@UBEPAVCXTPTabPaintManager@@XZ 0049b270 f i ToolkitPro1501vc60S:XTPTabControl.obj
 0001:0009a280       ?OnDragOver@CTabControlDropTarget@CXTPTabControl@@UAEKPAVCWnd@@PAVCOleDataObject@@KVCPoint@@@Z 0049b280 f i ToolkitPro1501vc60S:XTPTabControl.obj
 0001:0009a330       ??1CContainerDropTarget@CXTPDockingPaneTabbedContainer@@UAE@XZ 0049b330 f i ToolkitPro1501vc60S:XTPTabControl.obj
 0001:0009a330       ??1CPanelDropTarget@CXTPDockingPaneAutoHidePanel@@UAE@XZ 0049b330 f i ToolkitPro1501vc60S:XTPTabControl.obj
 0001:0009a330       ??1CTabControlDropTarget@CXTPTabControl@@UAE@XZ 0049b330 f i ToolkitPro1501vc60S:XTPTabControl.obj
 0001:0009a340       ??_GCXTPTabControl@@UAEPAXI@Z 0049b340 f i ToolkitPro1501vc60S:XTPTabControl.obj
 0001:0009a340       ??_ECXTPTabControl@@UAEPAXI@Z 0049b340 f i ToolkitPro1501vc60S:XTPTabControl.obj
 0001:0009a360       ??1CXTPTabControl@@UAE@XZ  0049b360 f   ToolkitPro1501vc60S:XTPTabControl.obj
 0001:0009a420       ?Create@CXTPTabControl@@QAEHKABUtagRECT@@PAVCWnd@@I@Z 0049b420 f   ToolkitPro1501vc60S:XTPTabControl.obj
 0001:0009a480       ?InsertItem@CXTPTabControl@@QAEPAVCXTPTabManagerItem@@HPBDPAUHWND__@@HPAV2@@Z 0049b480 f   ToolkitPro1501vc60S:XTPTabControl.obj
 0001:0009a500       ?RedrawControl@CXTPTabControl@@UAEXPBUtagRECT@@H@Z 0049b500 f   ToolkitPro1501vc60S:XTPTabControl.obj
 0001:0009a530       ?Reposition@CXTPTabControl@@UAEXXZ 0049b530 f   ToolkitPro1501vc60S:XTPTabControl.obj
 0001:0009a670       ?OnItemClick@CXTPTabControl@@UAEXPAVCXTPTabManagerItem@@@Z 0049b670 f   ToolkitPro1501vc60S:XTPTabControl.obj
 0001:0009a6d0       ?SetSelectedItem@CXTPTabControl@@UAEXPAVCXTPTabManagerItem@@@Z 0049b6d0 f   ToolkitPro1501vc60S:XTPTabControl.obj
 0001:0009a7e0       ?PreSubclassWindow@CXTPTabControl@@MAEXXZ 0049b7e0 f   ToolkitPro1501vc60S:XTPTabControl.obj
 0001:0009a800       ?GetMessageMap@CXTPTabControl@@MBEPBUAFX_MSGMAP@@XZ 0049b800 f   ToolkitPro1501vc60S:XTPTabControl.obj
 0001:0009a810       ?DrawParentBackground@CXTPTabControl@@MAEHPAVCDC@@VCRect@@@Z 0049b810 f   ToolkitPro1501vc60S:XTPTabControl.obj
 0001:0009a880       ?OnPaint@CXTPTabControl@@IAEXXZ 0049b880 f   ToolkitPro1501vc60S:XTPTabControl.obj
 0001:0009a950       ?OnPrintClient@CXTPTabControl@@IAEJIJ@Z 0049b950 f   ToolkitPro1501vc60S:XTPTabControl.obj
 0001:0009a9e0       ?OnSize@CXTPTabControl@@IAEXIHH@Z 0049b9e0 f   ToolkitPro1501vc60S:XTPTabControl.obj
 0001:0009aa00       ?OnLButtonDown@CXTPTabControl@@IAEXIVCPoint@@@Z 0049ba00 f   ToolkitPro1501vc60S:XTPTabControl.obj
 0001:0009aa50       ?OnNavigateButtonClick@CXTPTabControl@@MAEXPAVCXTPTabManagerNavigateButton@@@Z 0049ba50 f   ToolkitPro1501vc60S:XTPTabControl.obj
 0001:0009aa80       ?OnSysColorChange@CXTPTabControl@@IAEXXZ 0049ba80 f   ToolkitPro1501vc60S:XTPTabControl.obj
 0001:0009aab0       ?OnToolHitTest@CXTPTabControl@@MBEHVCPoint@@PAUtagTOOLINFOA@@@Z 0049bab0 f   ToolkitPro1501vc60S:XTPTabControl.obj
 0001:0009aae0       ?OnMouseMove@CXTPTabControl@@IAEXIVCPoint@@@Z 0049bae0 f   ToolkitPro1501vc60S:XTPTabControl.obj
 0001:0009ab10       ?OnMouseLeave@CXTPTabControl@@IAEXXZ 0049bb10 f   ToolkitPro1501vc60S:XTPTabControl.obj
 0001:0009ab30       ?DrawIcon@CXTPTabControl@@UBEHPAVCDC@@VCPoint@@PAVCXTPTabManagerItem@@HAAVCSize@@@Z 0049bb30 f   ToolkitPro1501vc60S:XTPTabControl.obj
 0001:0009abd0       ?SetPaintManager@CXTPTabControl@@UAEXPAVCXTPTabPaintManager@@@Z 0049bbd0 f   ToolkitPro1501vc60S:XTPTabControl.obj
 0001:0009ac00       ?OnWndMsg@CXTPTabControl@@MAEHIIJPAJ@Z 0049bc00 f   ToolkitPro1501vc60S:XTPTabControl.obj
 0001:0009ac40       ?OnKeyDown@CXTPTabControl@@IAEXIII@Z 0049bc40 f   ToolkitPro1501vc60S:XTPTabControl.obj
 0001:0009ac60       ?OnGetDlgCode@CXTPTabControl@@IAEIXZ 0049bc60 f   ToolkitPro1501vc60S:XTPTabControl.obj
 0001:0009ac80       ?OnKillFocus@CXTPTabControl@@IAEXPAVCWnd@@@Z 0049bc80 f   ToolkitPro1501vc60S:XTPTabControl.obj
 0001:0009ac80       ?OnSetFocus@CXTPTabControl@@IAEXPAVCWnd@@@Z 0049bc80 f   ToolkitPro1501vc60S:XTPTabControl.obj
 0001:0009aca0       ?SetFocusedItem@CXTPTabControl@@UAEXPAVCXTPTabManagerItem@@@Z 0049bca0 f   ToolkitPro1501vc60S:XTPTabControl.obj
 0001:0009acf0       ?HeaderHasFocus@CXTPTabControl@@MBEHXZ 0049bcf0 f   ToolkitPro1501vc60S:XTPTabControl.obj
 0001:0009ad40       ?AdjustRect@CXTPTabControl@@QBEXHPAUtagRECT@@@Z 0049bd40 f   ToolkitPro1501vc60S:XTPTabControl.obj
 0001:0009adf0       ??0CSize@@QAE@K@Z          0049bdf0 f i ToolkitPro1501vc60S:XTPTabControl.obj
 0001:0009ae10       ??_ECXTPTabControl@@WDM@AEPAXI@Z 0049be10 f i ToolkitPro1501vc60S:XTPTabControl.obj
 0001:0009ae20       ??0CXTPTabPaintManager@@QAE@XZ 0049be20 f   ToolkitPro1501vc60S:XTPTabPaintManager.obj
 0001:0009b000       ??_ECXTPTabPaintManager@@UAEPAXI@Z 0049c000 f i ToolkitPro1501vc60S:XTPTabPaintManager.obj
 0001:0009b000       ??_GCXTPTabPaintManager@@UAEPAXI@Z 0049c000 f i ToolkitPro1501vc60S:XTPTabPaintManager.obj
 0001:0009b020       ??1CXTPTabPaintManager@@UAE@XZ 0049c020 f   ToolkitPro1501vc60S:XTPTabPaintManager.obj
 0001:0009b120       ?SetColor@CXTPTabPaintManager@@QAEPAVCColorSet@1@W4XTPTabColorStyle@@@Z 0049c120 f   ToolkitPro1501vc60S:XTPTabPaintManager.obj
 0001:0009b510       ??_ECColorSetWinNative@CXTPTabPaintManager@@UAEPAXI@Z 0049c510 f i ToolkitPro1501vc60S:XTPTabPaintManager.obj
 0001:0009b510       ??_GCColorSetWinNative@CXTPTabPaintManager@@UAEPAXI@Z 0049c510 f i ToolkitPro1501vc60S:XTPTabPaintManager.obj
 0001:0009b530       ??1CColorSetWinNative@CXTPTabPaintManager@@UAE@XZ 0049c530 f i ToolkitPro1501vc60S:XTPTabPaintManager.obj
 0001:0009b590       ?SetColorSet@CXTPTabPaintManager@@QAEPAVCColorSet@1@PAV21@@Z 0049c590 f   ToolkitPro1501vc60S:XTPTabPaintManager.obj
 0001:0009b5d0       ?SetAppearance@CXTPTabPaintManager@@QAEPAVCAppearanceSet@1@W4XTPTabAppearanceStyle@@@Z 0049c5d0 f   ToolkitPro1501vc60S:XTPTabPaintManager.obj
 0001:0009ba10       ?GetSupportedColorSets@CAppearanceSet@CXTPTabPaintManager@@UAEHXZ 0049ca10 f i ToolkitPro1501vc60S:XTPTabPaintManager.obj
 0001:0009ba20       ?GetSupportedColorSets@CAppearanceSetPropertyPage@CXTPTabPaintManager@@UAEHXZ 0049ca20 f i ToolkitPro1501vc60S:XTPTabPaintManager.obj
 0001:0009ba30       ?GetHeaderMargin@CAppearanceSetPropertyPage2003@CXTPTabPaintManager@@UAE?AVCRect@@XZ 0049ca30 f i ToolkitPro1501vc60S:XTPTabPaintManager.obj
 0001:0009ba60       ?GetSupportedColorSets@CAppearanceSetPropertyPage2003@CXTPTabPaintManager@@UAEHXZ 0049ca60 f i ToolkitPro1501vc60S:XTPTabPaintManager.obj
 0001:0009ba70       ?GetDefaultColorSet@CAppearanceSetPropertyPage2003@CXTPTabPaintManager@@UAE?AW4XTPTabColorStyle@@XZ 0049ca70 f i ToolkitPro1501vc60S:XTPTabPaintManager.obj
 0001:0009ba70       ?BaseTheme@CXTPWhidbeyTheme@@UAE?AW4XTPPaintTheme@@XZ 0049ca70 f i ToolkitPro1501vc60S:XTPTabPaintManager.obj
 0001:0009ba80       ?GetDefaultColorSet@CAppearanceSetPropertyPage2007@CXTPTabPaintManager@@MAE?AW4XTPTabColorStyle@@XZ 0049ca80 f i ToolkitPro1501vc60S:XTPTabPaintManager.obj
 0001:0009ba80       ?GetSupportedColorSets@CAppearanceSetPropertyPage2007@CXTPTabPaintManager@@MAEHXZ 0049ca80 f i ToolkitPro1501vc60S:XTPTabPaintManager.obj
 0001:0009ba90       ?GetSupportedColorSets@CAppearanceSetPropertyPageAccess2007@CXTPTabPaintManager@@MAEHXZ 0049ca90 f i ToolkitPro1501vc60S:XTPTabPaintManager.obj
 0001:0009ba90       ?GetDefaultColorSet@CAppearanceSetPropertyPageAccess2007@CXTPTabPaintManager@@MAE?AW4XTPTabColorStyle@@XZ 0049ca90 f i ToolkitPro1501vc60S:XTPTabPaintManager.obj
 0001:0009baa0       ?GetHeaderMargin@CAppearanceSetPropertyPageAccess2007@CXTPTabPaintManager@@MAE?AVCRect@@XZ 0049caa0 f i ToolkitPro1501vc60S:XTPTabPaintManager.obj
 0001:0009bae0       ?BaseTheme@CXTPVisualStudio2008Theme@@UAE?AW4XTPPaintTheme@@XZ 0049cae0 f i ToolkitPro1501vc60S:XTPTabPaintManager.obj
 0001:0009bae0       ?GetSupportedColorSets@CAppearanceSetVisualStudio@CXTPTabPaintManager@@UAEHXZ 0049cae0 f i ToolkitPro1501vc60S:XTPTabPaintManager.obj
 0001:0009baf0       ?GetHeaderMargin@CAppearanceSetVisualStudio2005@CXTPTabPaintManager@@UAE?AVCRect@@XZ 0049caf0 f i ToolkitPro1501vc60S:XTPTabPaintManager.obj
 0001:0009bb30       ?GetSupportedColorSets@CAppearanceSetFlat@CXTPTabPaintManager@@UAEHXZ 0049cb30 f i ToolkitPro1501vc60S:XTPTabPaintManager.obj
 0001:0009bb40       ?BaseTheme@CXTPOffice2003Theme@@MAE?AW4XTPPaintTheme@@XZ 0049cb40 f i ToolkitPro1501vc60S:XTPTabPaintManager.obj
 0001:0009bb40       ?GetDefaultColorSet@CAppearanceSetStateButtons@CXTPTabPaintManager@@UAE?AW4XTPTabColorStyle@@XZ 0049cb40 f i ToolkitPro1501vc60S:XTPTabPaintManager.obj
 0001:0009bb40       ?GetDefaultColorSet@CAppearanceSetFlat@CXTPTabPaintManager@@UAE?AW4XTPTabColorStyle@@XZ 0049cb40 f i ToolkitPro1501vc60S:XTPTabPaintManager.obj
 0001:0009bb40       ?GetDefaultColorSet@CAppearanceSetVisualStudio@CXTPTabPaintManager@@UAE?AW4XTPTabColorStyle@@XZ 0049cb40 f i ToolkitPro1501vc60S:XTPTabPaintManager.obj
 0001:0009bb50       ?GetHeaderMargin@CAppearanceSetExcel@CXTPTabPaintManager@@UAE?AVCRect@@XZ 0049cb50 f i ToolkitPro1501vc60S:XTPTabPaintManager.obj
 0001:0009bb90       ?GetSupportedColorSets@CAppearanceSetVisio@CXTPTabPaintManager@@UAEHXZ 0049cb90 f i ToolkitPro1501vc60S:XTPTabPaintManager.obj
 0001:0009bb90       ?BaseTheme@CXTPOffice2007Theme@@MAE?AW4XTPPaintTheme@@XZ 0049cb90 f i ToolkitPro1501vc60S:XTPTabPaintManager.obj
 0001:0009bba0       ?GetHeaderMargin@CAppearanceSet@CXTPTabPaintManager@@UAE?AVCRect@@XZ 0049cba0 f i ToolkitPro1501vc60S:XTPTabPaintManager.obj
 0001:0009bbd0       ?FillTabControl@CAppearanceSet@CXTPTabPaintManager@@UAE?AVCRect@@PAVCXTPTabManager@@PAVCDC@@V3@@Z 0049cbd0 f i ToolkitPro1501vc60S:XTPTabPaintManager.obj
 0001:0009bc00       ?DrawTabControl@CAppearanceSet@CXTPTabPaintManager@@UAEXPAVCXTPTabManager@@PAVCDC@@VCRect@@@Z 0049cc00 f i ToolkitPro1501vc60S:XTPTabPaintManager.obj
 0001:0009bc40       ?RepositionTabControl@CAppearanceSet@CXTPTabPaintManager@@UAEXPAVCXTPTabManager@@PAVCDC@@VCRect@@@Z 0049cc40 f i ToolkitPro1501vc60S:XTPTabPaintManager.obj
 0001:0009bc80       ?SetAppearanceSet@CXTPTabPaintManager@@QAEPAVCAppearanceSet@1@PAV21@@Z 0049cc80 f   ToolkitPro1501vc60S:XTPTabPaintManager.obj
 0001:0009bcd0       ?SetFontIndirect@CXTPTabPaintManager@@QAEXPAUtagLOGFONTA@@H@Z 0049ccd0 f   ToolkitPro1501vc60S:XTPTabPaintManager.obj
 0001:0009be20       ?RefreshMetrics@CXTPTabPaintManager@@UAEXXZ 0049ce20 f   ToolkitPro1501vc60S:XTPTabPaintManager.obj
 0001:0009be70       ?DisableLunaColors@CXTPTabPaintManager@@QAEXH@Z 0049ce70 f   ToolkitPro1501vc60S:XTPTabPaintManager.obj
 0001:0009be90       ?IsLunaColorsDisabled@CXTPTabPaintManager@@QBEHXZ 0049ce90 f   ToolkitPro1501vc60S:XTPTabPaintManager.obj
 0001:0009beb0       ?GetOneNoteColor@CXTPTabPaintManager@@SAKW4XTPTabOneNoteColor@@@Z 0049ceb0 f   ToolkitPro1501vc60S:XTPTabPaintManager.obj
 0001:0009bf10       ?DrawNavigateButton@CXTPTabPaintManager@@UAEXPAVCDC@@PAVCXTPTabManagerNavigateButton@@AAVCRect@@@Z 0049cf10 f   ToolkitPro1501vc60S:XTPTabPaintManager.obj
 0001:0009c020       ?FillNavigateButton@CXTPTabPaintManager@@QAEXPAVCDC@@PAVCXTPTabManagerNavigateButton@@AAVCRect@@@Z 0049d020 f   ToolkitPro1501vc60S:XTPTabPaintManager.obj
 0001:0009c040       ?DrawTabControl@CXTPTabPaintManager@@UAEXPAVCXTPTabManager@@PAVCDC@@VCRect@@@Z 0049d040 f   ToolkitPro1501vc60S:XTPTabPaintManager.obj
 0001:0009c080       ?DrawRowItems@CXTPTabPaintManager@@IAEXPAVCXTPTabManager@@PAVCDC@@ABVCRect@@H@Z 0049d080 f   ToolkitPro1501vc60S:XTPTabPaintManager.obj
 0001:0009c220       ?DrawTabControlEx@CXTPTabPaintManager@@IAEXPAVCXTPTabManager@@PAVCDC@@VCRect@@@Z 0049d220 f   ToolkitPro1501vc60S:XTPTabPaintManager.obj
 0001:0009c560       ?_GetButtonLength@CXTPTabPaintManager@@IAEHHHH@Z 0049d560 f   ToolkitPro1501vc60S:XTPTabPaintManager.obj
 0001:0009c590       ?StripMnemonics@CXTPTabPaintManager@@IAEXAAVCString@@@Z 0049d590 f   ToolkitPro1501vc60S:XTPTabPaintManager.obj
 0001:0009c5a0       ?GetPrefixTextExtent@CXTPTabPaintManager@@IAEHPAVCDC@@ABVCString@@I@Z 0049d5a0 f   ToolkitPro1501vc60S:XTPTabPaintManager.obj
 0001:0009c660       ?DrawTextPathEllipsis@CXTPTabPaintManager@@IAEXPAVCDC@@PAVCXTPTabManager@@ABVCString@@VCRect@@I@Z 0049d660 f   ToolkitPro1501vc60S:XTPTabPaintManager.obj
 0001:0009ca00       ?DrawFocusRect@CXTPTabPaintManager@@MAEXPAVCDC@@PAVCXTPTabManagerItem@@VCRect@@@Z 0049da00 f   ToolkitPro1501vc60S:XTPTabPaintManager.obj
 0001:0009ca50       ?DrawSingleButtonIconAndText@CXTPTabPaintManager@@UAEHPAVCDC@@PAVCXTPTabManagerItem@@VCRect@@H@Z 0049da50 f   ToolkitPro1501vc60S:XTPTabPaintManager.obj
 0001:0009d650       ?AdjustClientRect@CXTPTabPaintManager@@UAEXPAVCXTPTabManager@@AAVCRect@@@Z 0049e650 f   ToolkitPro1501vc60S:XTPTabPaintManager.obj
 0001:0009d6d0       ?RepositionNavigateButtons@CXTPTabPaintManager@@QAE?AVCRect@@PAVCXTPTabManager@@V2@@Z 0049e6d0 f   ToolkitPro1501vc60S:XTPTabPaintManager.obj
 0001:0009d7a0       ?RepositionTabControl@CXTPTabPaintManager@@UAEXPAVCXTPTabManager@@PAVCDC@@VCRect@@@Z 0049e7a0 f   ToolkitPro1501vc60S:XTPTabPaintManager.obj
 0001:0009d860       ?_CreateMultiRowIndexerBestFit@CXTPTabPaintManager@@IAEHPAVCXTPTabManager@@HHH@Z 0049e860 f   ToolkitPro1501vc60S:XTPTabPaintManager.obj
 0001:0009d970       ?SetRect@CRect@@QAEXHHHH@Z 0049e970 f i ToolkitPro1501vc60S:XTPTabPaintManager.obj
 0001:0009d990       ?CreateMultiRowIndexer@CXTPTabPaintManager@@IAEXPAVCXTPTabManager@@PAVCDC@@H@Z 0049e990 f   ToolkitPro1501vc60S:XTPTabPaintManager.obj
 0001:0009dab0       ?RepositionTabControlMultiRow@CXTPTabPaintManager@@IAEXPAVCXTPTabManager@@PAVCDC@@VCRect@@@Z 0049eab0 f   ToolkitPro1501vc60S:XTPTabPaintManager.obj
 0001:0009e0a0       ?RepositionTabControlEx@CXTPTabPaintManager@@IAEXPAVCXTPTabManager@@PAVCDC@@VCRect@@@Z 0049f0a0 f   ToolkitPro1501vc60S:XTPTabPaintManager.obj
 0001:0009e870       ?EnsureVisible@CXTPTabPaintManager@@QAEXPAVCXTPTabManager@@PAVCXTPTabManagerItem@@@Z 0049f870 f   ToolkitPro1501vc60S:XTPTabPaintManager.obj
 0001:0009e9c0       ?_SizeToFitCompare@CXTPTabPaintManager@@KAHPBX0@Z 0049f9c0 f   ToolkitPro1501vc60S:XTPTabPaintManager.obj
 0001:0009e9e0       ?SizeToFit@CXTPTabPaintManager@@IAEXPAVCXTPTabManager@@H@Z 0049f9e0 f   ToolkitPro1501vc60S:XTPTabPaintManager.obj
 0001:0009eaf0       ?GetAppearance@CXTPTabPaintManager@@QBE?AW4XTPTabAppearanceStyle@@XZ 0049faf0 f   ToolkitPro1501vc60S:XTPTabPaintManager.obj
 0001:0009eb00       ?GetColor@CXTPTabPaintManager@@QBE?AW4XTPTabColorStyle@@XZ 0049fb00 f   ToolkitPro1501vc60S:XTPTabPaintManager.obj
 0001:0009eb10       ?SetPosition@CXTPTabPaintManager@@QAEXW4XTPTabPosition@@@Z 0049fb10 f   ToolkitPro1501vc60S:XTPTabPaintManager.obj
 0001:0009eb30       ?SetLayout@CXTPTabPaintManager@@QAEXW4XTPTabLayoutStyle@@@Z 0049fb30 f   ToolkitPro1501vc60S:XTPTabPaintManager.obj
 0001:0009eb50       ?GetPosition@CXTPTabPaintManager@@QBE?AW4XTPTabPosition@@XZ 0049fb50 f   ToolkitPro1501vc60S:XTPTabPaintManager.obj
 0001:0009eb60       ?GetLayout@CXTPTabPaintManager@@QBE?AW4XTPTabLayoutStyle@@XZ 0049fb60 f   ToolkitPro1501vc60S:XTPTabPaintManager.obj
 0001:0009eb70       ?OnPropertyChanged@CXTPTabPaintManager@@MAEXXZ 0049fb70 f   ToolkitPro1501vc60S:XTPTabPaintManager.obj
 0001:0009eba0       ??1?$CArray@PAVCXTPTabManagerAtom@@PAV1@@@UAE@XZ 0049fba0 f i ToolkitPro1501vc60S:XTPTabPaintManager.obj
 0001:0009ebf0       ??_E?$CArray@PAVCXTPTabManagerAtom@@PAV1@@@UAEPAXI@Z 0049fbf0 f i ToolkitPro1501vc60S:XTPTabPaintManager.obj
 0001:0009ebf0       ??_G?$CArray@PAVCXTPTabManagerAtom@@PAV1@@@UAEPAXI@Z 0049fbf0 f i ToolkitPro1501vc60S:XTPTabPaintManager.obj
 0001:0009ec10       ??0CXTPCommandBarsContextMenus@@QAE@PAVCXTPCommandBars@@@Z 0049fc10 f   ToolkitPro1501vc60S:XTPCommandBars.obj
 0001:0009ec40       ??_GCXTPCommandBarsContextMenus@@UAEPAXI@Z 0049fc40 f i ToolkitPro1501vc60S:XTPCommandBars.obj
 0001:0009ec40       ??_ECXTPCommandBarsContextMenus@@UAEPAXI@Z 0049fc40 f i ToolkitPro1501vc60S:XTPCommandBars.obj
 0001:0009ec60       ??1CXTPCommandBarsContextMenus@@UAE@XZ 0049fc60 f i ToolkitPro1501vc60S:XTPCommandBars.obj
 0001:0009ec70       ?Add@CXTPCommandBarsContextMenus@@UAEPAVCXTPCommandBar@@PAV2@@Z 0049fc70 f   ToolkitPro1501vc60S:XTPCommandBars.obj
 0001:0009edc0       ??0CXTPCommandBarsOptions@@QAE@XZ 0049fdc0 f   ToolkitPro1501vc60S:XTPCommandBars.obj
 0001:0009eef0       ??_ECXTPCommandBarsOptions@@UAEPAXI@Z 0049fef0 f i ToolkitPro1501vc60S:XTPCommandBars.obj
 0001:0009eef0       ??_GCXTPCommandBarsOptions@@UAEPAXI@Z 0049fef0 f i ToolkitPro1501vc60S:XTPCommandBars.obj
 0001:0009ef10       ??1CXTPCommandBarsOptions@@UAE@XZ 0049ff10 f i ToolkitPro1501vc60S:XTPCommandBars.obj
 0001:0009f010       ?ShowKeyboardCues@CXTPCommandBarsOptions@@QAEXW4XTPKeyboardCuesShow@@@Z 004a0010 f   ToolkitPro1501vc60S:XTPCommandBars.obj
 0001:0009f0a0       ?CreateObject@CXTPCommandBars@@SGPAVCObject@@XZ 004a00a0 f   ToolkitPro1501vc60S:XTPCommandBars.obj
 0001:0009f100       ?GetRuntimeClass@CXTPCommandBars@@UBEPAUCRuntimeClass@@XZ 004a0100 f   ToolkitPro1501vc60S:XTPCommandBars.obj
 0001:0009f110       ??0CXTPCommandBars@@IAE@XZ 004a0110 f   ToolkitPro1501vc60S:XTPCommandBars.obj
 0001:0009f340       ??_ECXTPCommandBars@@MAEPAXI@Z 004a0340 f i ToolkitPro1501vc60S:XTPCommandBars.obj
 0001:0009f340       ??_GCXTPCommandBars@@MAEPAXI@Z 004a0340 f i ToolkitPro1501vc60S:XTPCommandBars.obj
 0001:0009f360       ??1KEYBOARDTIPS@CXTPCommandBars@@QAE@XZ 004a0360 f i ToolkitPro1501vc60S:XTPCommandBars.obj
 0001:0009f3b0       ??1CXTPCommandBars@@MAE@XZ 004a03b0 f   ToolkitPro1501vc60S:XTPCommandBars.obj
 0001:0009f560       ?IsToolBarVisible@@YAHPAVCXTPToolBar@@@Z 004a0560 f   ToolkitPro1501vc60S:XTPCommandBars.obj
 0001:0009f580       ?CreateAction@CXTPCommandBars@@QAEPAVCXTPControlAction@@H@Z 004a0580 f   ToolkitPro1501vc60S:XTPCommandBars.obj
 0001:0009f5a0       ?FindAction@CXTPCommandBars@@QBEPAVCXTPControlAction@@H@Z 004a05a0 f   ToolkitPro1501vc60S:XTPCommandBars.obj
 0001:0009f5c0       ?GetMenuBar@CXTPCommandBars@@UBEPAVCXTPMenuBar@@XZ 004a05c0 f   ToolkitPro1501vc60S:XTPCommandBars.obj
 0001:0009f5e0       ?RecalcFrameLayout@CXTPCommandBars@@UAEXH@Z 004a05e0 f   ToolkitPro1501vc60S:XTPCommandBars.obj
 0001:0009f6b0       ?IdleRecalcLayout@CXTPCommandBars@@IAEXXZ 004a06b0 f   ToolkitPro1501vc60S:XTPCommandBars.obj
 0001:0009f6f0       ?OnToolBarAdded@CXTPCommandBars@@MAEXPAVCXTPToolBar@@@Z 004a06f0 f   ToolkitPro1501vc60S:XTPCommandBars.obj
 0001:0009f710       ?OnToolBarRemoved@CXTPCommandBars@@MAEXPAVCXTPToolBar@@@Z 004a0710 f   ToolkitPro1501vc60S:XTPCommandBars.obj
 0001:0009f730       ?GetFrameReBar@CXTPCommandBars@@QBEPAVCXTPReBar@@XZ 004a0730 f   ToolkitPro1501vc60S:XTPCommandBars.obj
 0001:0009f760       ?AddCustomBar@CXTPCommandBars@@MAEPAVCXTPToolBar@@PBDIH@Z 004a0760 f   ToolkitPro1501vc60S:XTPCommandBars.obj
 0001:0009f870       ?GetShortcutManager@CXTPCommandBars@@QBEPAVCXTPShortcutManager@@XZ 004a0870 f   ToolkitPro1501vc60S:XTPCommandBars.obj
 0001:0009f880       ?Add@CXTPCommandBars@@QAEPAVCXTPToolBar@@PBDW4XTPBarPosition@@PAUCRuntimeClass@@@Z 004a0880 f   ToolkitPro1501vc60S:XTPCommandBars.obj
 0001:0009fa80       ?EnableDocking@CXTPCommandBars@@QAEXXZ 004a0a80 f   ToolkitPro1501vc60S:XTPCommandBars.obj
 0001:0009fb40       ?CanDock@CXTPCommandBars@@QBEPAVCXTPDockBar@@VCPoint@@PAV2@@Z 004a0b40 f   ToolkitPro1501vc60S:XTPCommandBars.obj
 0001:0009fcd0       ?DockCommandBar@CXTPCommandBars@@QAEHPAVCXTPToolBar@@PAUtagRECT@@PAVCXTPDockBar@@@Z 004a0cd0 f   ToolkitPro1501vc60S:XTPCommandBars.obj
 0001:0009fd30       ?DockCommandBar@CXTPCommandBars@@QAEHPAVCXTPToolBar@@W4XTPBarPosition@@@Z 004a0d30 f   ToolkitPro1501vc60S:XTPCommandBars.obj
 0001:0009fd70       ?FloatCommandBar@CXTPCommandBars@@IAEHPAVCXTPToolBar@@@Z 004a0d70 f   ToolkitPro1501vc60S:XTPCommandBars.obj
 0001:0009fdc0       ?InvalidateCommandBars@CXTPCommandBars@@QAEXXZ 004a0dc0 f   ToolkitPro1501vc60S:XTPCommandBars.obj
 0001:0009fe20       ?RedrawCommandBars@CXTPCommandBars@@QAEXXZ 004a0e20 f   ToolkitPro1501vc60S:XTPCommandBars.obj
 0001:0009ff50       ?IsKeyboardCuesVisible@CXTPCommandBar@@UBEHXZ 004a0f50 f   ToolkitPro1501vc60S:XTPCommandBars.obj
 0001:0009ff70       ??0CXTPCommandBarKeyboardTip@@QAE@PAVCXTPCommandBars@@PAVCCmdTarget@@PBDVCPoint@@KH@Z 004a0f70 f   ToolkitPro1501vc60S:XTPCommandBars.obj
 0001:000a0030       ??_ECXTPCommandBarKeyboardTip@@UAEPAXI@Z 004a1030 f i ToolkitPro1501vc60S:XTPCommandBars.obj
 0001:000a0030       ??_GCXTPCommandBarKeyboardTip@@UAEPAXI@Z 004a1030 f i ToolkitPro1501vc60S:XTPCommandBars.obj
 0001:000a0050       ??1CXTPCommandBarKeyboardTip@@UAE@XZ 004a1050 f i ToolkitPro1501vc60S:XTPCommandBars.obj
 0001:000a00c0       ?GetMessageMap@CXTPCommandBarKeyboardTip@@MBEPBUAFX_MSGMAP@@XZ 004a10c0 f   ToolkitPro1501vc60S:XTPCommandBars.obj
 0001:000a00d0       ?OnPaint@CXTPCommandBarKeyboardTip@@IAEXXZ 004a10d0 f   ToolkitPro1501vc60S:XTPCommandBars.obj
 0001:000a0140       ?IsKeyboardTipsVisible@CXTPCommandBar@@QBEHXZ 004a1140 f   ToolkitPro1501vc60S:XTPCommandBars.obj
 0001:000a0160       ?CreateKeyboardTips@CXTPCommandBar@@UAEXXZ 004a1160 f   ToolkitPro1501vc60S:XTPCommandBars.obj
 0001:000a05b0       ?GetKeyboardTip@CXTPControl@@QBE?AVCString@@XZ 004a15b0 f i ToolkitPro1501vc60S:XTPCommandBars.obj
 0001:000a0680       ?GetKeyboardTip@CXTPControlAction@@QBE?AVCString@@XZ 004a1680 f i ToolkitPro1501vc60S:XTPCommandBars.obj
 0001:000a06a0       ?CreateKeyboardTips@CXTPCommandBars@@UAEXPAVCXTPCommandBar@@@Z 004a16a0 f   ToolkitPro1501vc60S:XTPCommandBars.obj
 0001:000a06b0       ?ShowKeyboardTips@CXTPCommandBars@@QAEXPAVCXTPCommandBar@@H@Z 004a16b0 f   ToolkitPro1501vc60S:XTPCommandBars.obj
 0001:000a0db0       ?HideKeyboardTips@CXTPCommandBars@@QAEXXZ 004a1db0 f   ToolkitPro1501vc60S:XTPCommandBars.obj
 0001:000a0e10       ?ShowKeyboardCues@CXTPCommandBars@@QAEXH@Z 004a1e10 f   ToolkitPro1501vc60S:XTPCommandBars.obj
 0001:000a0e40       ?OnTrackingModeChanged@CXTPCommandBars@@MAEXPAVCXTPCommandBar@@H@Z 004a1e40 f   ToolkitPro1501vc60S:XTPCommandBars.obj
 0001:000a0ee0       ?GetMouseManager@CXTPCommandBars@@QBEPAVCXTPMouseManager@@XZ 004a1ee0 f   ToolkitPro1501vc60S:XTPCommandBars.obj
 0001:000a0f20       ?GetKeyboardManager@CXTPCommandBars@@QBEPAVCXTPKeyboardManager@@XZ 004a1f20 f   ToolkitPro1501vc60S:XTPCommandBars.obj
 0001:000a0f60       ?_GetNextControl@CXTPCommandBars@@IBEPAVCXTPControl@@AAPAVCXTPControls@@H@Z 004a1f60 f   ToolkitPro1501vc60S:XTPCommandBars.obj
 0001:000a1030       ?FindAccel@CXTPCommandBars@@IBEPAVCXTPControl@@PAVCXTPCommandBar@@IAAH@Z 004a2030 f   ToolkitPro1501vc60S:XTPCommandBars.obj
 0001:000a1260       ?ClosePopups@CXTPCommandBars@@QBEXXZ 004a2260 f   ToolkitPro1501vc60S:XTPCommandBars.obj
 0001:000a1290       ?OnFrameAccel@CXTPCommandBars@@QAEHI@Z 004a2290 f   ToolkitPro1501vc60S:XTPCommandBars.obj
 0001:000a13f0       ?PreTranslateFrameMessage@CXTPCommandBars@@QAEHPAUtagMSG@@@Z 004a23f0 f   ToolkitPro1501vc60S:XTPCommandBars.obj
 0001:000a15f0       ?OnFrameWndMsg@CXTPCommandBars@@QAEHIIJPAJ@Z 004a25f0 f   ToolkitPro1501vc60S:XTPCommandBars.obj
 0001:000a1800       ?IsLayoutRTL@CXTPCommandBars@@QBEHXZ 004a2800 f   ToolkitPro1501vc60S:XTPCommandBars.obj
 0001:000a1830       ?PumpMessage@CXTPPopupBar@@QAEXXZ 004a2830 f   ToolkitPro1501vc60S:XTPCommandBars.obj
 0001:000a1940       ?TrackPopupMenu@CXTPCommandBars@@SAHPAVCXTPPopupBar@@IHHPAVCWnd@@PBUtagRECT@@1@Z 004a2940 f   ToolkitPro1501vc60S:XTPCommandBars.obj
 0001:000a1ab0       ?TrackPopupMenu@CXTPCommandBars@@SAHPAVCMenu@@IHHPAVCWnd@@PBUtagRECT@@1PAV1@@Z 004a2ab0 f   ToolkitPro1501vc60S:XTPCommandBars.obj
 0001:000a1b60       ?GetToolbarsPopup@CXTPCommandBars@@UAEPAVCXTPPopupBar@@XZ 004a2b60 f   ToolkitPro1501vc60S:XTPCommandBars.obj
 0001:000a1b90       ?ContextMenu@CXTPCommandBars@@UAEXPAVCXTPToolBar@@VCPoint@@@Z 004a2b90 f   ToolkitPro1501vc60S:XTPCommandBars.obj
 0001:000a1c10       ?ToggleVisible@CXTPCommandBars@@QAEXH@Z 004a2c10 f   ToolkitPro1501vc60S:XTPCommandBars.obj
 0001:000a1c60       ?GetToolBar@CXTPCommandBars@@QBEPAVCXTPToolBar@@I@Z 004a2c60 f   ToolkitPro1501vc60S:XTPCommandBars.obj
 0001:000a1ca0       ?_GetHiddenControls@CXTPToolBar@@AAEXPAVCXTPCommandBar@@@Z 004a2ca0 f   ToolkitPro1501vc60S:XTPCommandBars.obj
 0001:000a1d00       ?GetHiddenControls@CXTPCommandBars@@UAEXPAVCXTPToolBar@@PAVCXTPCommandBar@@@Z 004a2d00 f   ToolkitPro1501vc60S:XTPCommandBars.obj
 0001:000a1dc0       ?_GetAddOrRemovePopup@CXTPCommandBars@@IAEXPAVCXTPToolBar@@PAVCXTPCommandBar@@@Z 004a2dc0 f   ToolkitPro1501vc60S:XTPCommandBars.obj
 0001:000a1ec0       ?GetAddOrRemovePopup@CXTPCommandBars@@UAEXPAVCXTPToolBar@@PAVCXTPCommandBar@@@Z 004a2ec0 f   ToolkitPro1501vc60S:XTPCommandBars.obj
 0001:000a1fd0       ?SetQuickCustomizeMode@CXTPCommandBars@@QAEXH@Z 004a2fd0 f   ToolkitPro1501vc60S:XTPCommandBars.obj
 0001:000a2000       ?SetCustomizeMode@CXTPCommandBars@@QAEXH@Z 004a3000 f   ToolkitPro1501vc60S:XTPCommandBars.obj
 0001:000a2080       ?GetTextAlignment@CXTPStatusBarPane@@QBEHXZ 004a3080 f   ToolkitPro1501vc60S:XTPCommandBars.obj
 0001:000a2080       ?GetDragControl@CXTPCommandBars@@QBEPAVCCmdTarget@@XZ 004a3080 f   ToolkitPro1501vc60S:XTPCommandBars.obj
 0001:000a2090       ?SetDragControl@CXTPCommandBars@@QAEXPAVCCmdTarget@@@Z 004a3090 f   ToolkitPro1501vc60S:XTPCommandBars.obj
 0001:000a2120       ?RemoveAll@CXTPCommandBars@@QAEXXZ 004a3120 f   ToolkitPro1501vc60S:XTPCommandBars.obj
 0001:000a21d0       ?Remove@CXTPCommandBars@@QAEXPAVCXTPToolBar@@@Z 004a31d0 f   ToolkitPro1501vc60S:XTPCommandBars.obj
 0001:000a2280       ?SetSite@CXTPCommandBars@@QAEXPAVCWnd@@@Z 004a3280 f   ToolkitPro1501vc60S:XTPCommandBars.obj
 0001:000a22e0       ?IsControlHidden@CXTPCommandBars@@UAEHPAVCXTPControl@@@Z 004a32e0 f   ToolkitPro1501vc60S:XTPCommandBars.obj
 0001:000a2380       ?IsCommandHidden@CXTPCommandBars@@UAEHI@Z 004a3380 f   ToolkitPro1501vc60S:XTPCommandBars.obj
 0001:000a2410       ?SetCommandUsed@CXTPCommandBars@@QAEXI@Z 004a3410 f   ToolkitPro1501vc60S:XTPCommandBars.obj
 0001:000a2520       ?ResetUsageData@CXTPCommandBars@@QAEXXZ 004a3520 f   ToolkitPro1501vc60S:XTPCommandBars.obj
 0001:000a2590       ?PX_UintMap@@YAXPAVCXTPPropExchange@@PBDAAV?$CMap@IIHH@@@Z 004a3590 f   ToolkitPro1501vc60S:XTPCommandBars.obj
 0001:000a2820       ??1CXTPPropExchangeSection@@QAE@XZ 004a3820 f i ToolkitPro1501vc60S:XTPCommandBars.obj
 0001:000a2830       ?DoPropExchange@CXTPCommandBarsOptions@@QAEXPAVCXTPPropExchange@@H@Z 004a3830 f   ToolkitPro1501vc60S:XTPCommandBars.obj
 0001:000a2ac0       ?Serialize@CXTPCommandBarsOptions@@UAEXAAVCArchive@@@Z 004a3ac0 f   ToolkitPro1501vc60S:XTPCommandBars.obj
 0001:000a2b30       ??1CXTPPropExchangeArchive@@UAE@XZ 004a3b30 f i ToolkitPro1501vc60S:XTPCommandBars.obj
 0001:000a2b40       ?SaveOptions@CXTPCommandBars@@QAEXPBD@Z 004a3b40 f   ToolkitPro1501vc60S:XTPCommandBars.obj
 0001:000a2c70       ?LoadOptions@CXTPCommandBars@@QAEXPBD@Z 004a3c70 f   ToolkitPro1501vc60S:XTPCommandBars.obj
 0001:000a2d90       ?SetTheme@CXTPCommandBars@@QAEXW4XTPPaintTheme@@@Z 004a3d90 f   ToolkitPro1501vc60S:XTPCommandBars.obj
 0001:000a2db0       ?SetPaintManager@CXTPCommandBars@@QAEXPAVCXTPPaintManager@@@Z 004a3db0 f   ToolkitPro1501vc60S:XTPCommandBars.obj
 0001:000a2e20       ?GetPaintManager@CXTPCommandBars@@QBEPAVCXTPPaintManager@@XZ 004a3e20 f   ToolkitPro1501vc60S:XTPCommandBars.obj
 0001:000a2e40       ?GetImageManager@CXTPCommandBars@@QBEPAVCXTPImageManager@@XZ 004a3e40 f   ToolkitPro1501vc60S:XTPCommandBars.obj
 0001:000a2e50       ?FindDocTemplate@CXTPCommandBars@@IAEPAVCDocTemplate@@PAVCMDIChildWnd@@@Z 004a3e50 f   ToolkitPro1501vc60S:XTPCommandBars.obj
 0001:000a2ee0       ?GetActiveDocTemplate@CXTPCommandBars@@UAEIXZ 004a3ee0 f   ToolkitPro1501vc60S:XTPCommandBars.obj
 0001:000a2f50       ?OnSetPreviewMode@CXTPCommandBars@@QAEXH@Z 004a3f50 f   ToolkitPro1501vc60S:XTPCommandBars.obj
 0001:000a2fa0       ?GetToolTipContext@CXTPCommandBars@@QBEPAVCXTPToolTipContext@@XZ 004a3fa0 f   ToolkitPro1501vc60S:XTPCommandBars.obj
 0001:000a2fb0       ?FindIndex@CXTPCommandBars@@QBEHPAVCXTPToolBar@@@Z 004a3fb0 f   ToolkitPro1501vc60S:XTPCommandBars.obj
 0001:000a2ff0       ?GetNextVisible@CXTPCommandBars@@IBEHJH@Z 004a3ff0 f   ToolkitPro1501vc60S:XTPCommandBars.obj
 0001:000a3090       ?SetToolBarFocus@CXTPCommandBars@@QAEHPAVCXTPToolBar@@H@Z 004a4090 f   ToolkitPro1501vc60S:XTPCommandBars.obj
 0001:000a3150       ?CreateObject@?$CThreadLocal@VCXTPKeyboardManager@@@@SGPAVCNoTrackObject@@XZ 004a4150 f i ToolkitPro1501vc60S:XTPCommandBars.obj
 0001:000a31b0       ?CreateObject@?$CThreadLocal@VCXTPMouseManager@@@@SGPAVCNoTrackObject@@XZ 004a41b0 f i ToolkitPro1501vc60S:XTPCommandBars.obj
 0001:000a3210       ??1?$CArray@PAVCXTPToolBar@@PAV1@@@UAE@XZ 004a4210 f i ToolkitPro1501vc60S:XTPCommandBars.obj
 0001:000a3260       ??1?$CMap@IIHH@@UAE@XZ     004a4260 f i ToolkitPro1501vc60S:XTPCommandBars.obj
 0001:000a32e0       ??1?$CArray@PAVCXTPCommandBarKeyboardTip@@PAV1@@@UAE@XZ 004a42e0 f i ToolkitPro1501vc60S:XTPCommandBars.obj
 0001:000a3330       ??_E?$CArray@PAVCXTPToolBar@@PAV1@@@UAEPAXI@Z 004a4330 f i ToolkitPro1501vc60S:XTPCommandBars.obj
 0001:000a3330       ??_G?$CArray@PAVCXTPToolBar@@PAV1@@@UAEPAXI@Z 004a4330 f i ToolkitPro1501vc60S:XTPCommandBars.obj
 0001:000a3350       ??_E?$CArray@PAVCXTPCommandBar@@PAV1@@@UAEPAXI@Z 004a4350 f i ToolkitPro1501vc60S:XTPCommandBars.obj
 0001:000a3350       ??_G?$CArray@PAVCXTPCommandBar@@PAV1@@@UAEPAXI@Z 004a4350 f i ToolkitPro1501vc60S:XTPCommandBars.obj
 0001:000a3370       ??1?$CArray@PAVCXTPCommandBar@@PAV1@@@UAE@XZ 004a4370 f i ToolkitPro1501vc60S:XTPCommandBars.obj
 0001:000a33c0       ??_G?$CMap@IIHH@@UAEPAXI@Z 004a43c0 f i ToolkitPro1501vc60S:XTPCommandBars.obj
 0001:000a33c0       ??_E?$CMap@IIHH@@UAEPAXI@Z 004a43c0 f i ToolkitPro1501vc60S:XTPCommandBars.obj
 0001:000a33e0       ??_G?$CArray@PAVCXTPCommandBarKeyboardTip@@PAV1@@@UAEPAXI@Z 004a43e0 f i ToolkitPro1501vc60S:XTPCommandBars.obj
 0001:000a33e0       ??_E?$CArray@PAVCXTPCommandBarKeyboardTip@@PAV1@@@UAEPAXI@Z 004a43e0 f i ToolkitPro1501vc60S:XTPCommandBars.obj
 0001:000a3400       ??0CXTPHeaderCtrl@@QAE@XZ  004a4400 f   ToolkitPro1501vc60S:XTPHeaderCtrl.obj
 0001:000a34c0       ??_GCXTPHeaderCtrl@@UAEPAXI@Z 004a44c0 f i ToolkitPro1501vc60S:XTPHeaderCtrl.obj
 0001:000a34c0       ??_ECXTPHeaderCtrl@@UAEPAXI@Z 004a44c0 f i ToolkitPro1501vc60S:XTPHeaderCtrl.obj
 0001:000a34e0       ??1CXTPHeaderCtrl@@UAE@XZ  004a44e0 f   ToolkitPro1501vc60S:XTPHeaderCtrl.obj
 0001:000a35a0       ?GetMessageMap@CXTPHeaderCtrl@@MBEPBUAFX_MSGMAP@@XZ 004a45a0 f   ToolkitPro1501vc60S:XTPHeaderCtrl.obj
 0001:000a35b0       ?GetRuntimeClass@CXTPHeaderCtrl@@UBEPAUCRuntimeClass@@XZ 004a45b0 f   ToolkitPro1501vc60S:XTPHeaderCtrl.obj
 0001:000a35c0       ?OnThemeChanged@CXTPHeaderCtrl@@UAEXXZ 004a45c0 f   ToolkitPro1501vc60S:XTPHeaderCtrl.obj
 0001:000a35d0       ?IsThemeValid@CXTPHeaderCtrl@@QBEHXZ 004a45d0 f   ToolkitPro1501vc60S:XTPHeaderCtrl.obj
 0001:000a35e0       ?ApplyFieldWidths@CXTPHeaderCtrl@@MAEXH@Z 004a45e0 f   ToolkitPro1501vc60S:XTPHeaderCtrl.obj
 0001:000a3670       ?FitFieldWidths@CXTPHeaderCtrl@@MAEXH@Z 004a4670 f   ToolkitPro1501vc60S:XTPHeaderCtrl.obj
 0001:000a36e0       ?OnWindowPosChanging@CXTPHeaderCtrl@@IAEXPAUtagWINDOWPOS@@@Z 004a46e0 f   ToolkitPro1501vc60S:XTPHeaderCtrl.obj
 0001:000a3770       ?OnSetCursor@CXTPHeaderCtrl@@IAEHPAVCWnd@@II@Z 004a4770 f   ToolkitPro1501vc60S:XTPHeaderCtrl.obj
 0001:000a38a0       ?OnItemchanging@CXTPHeaderCtrl@@IAEHPAUtagNMHDR@@PAJ@Z 004a48a0 f   ToolkitPro1501vc60S:XTPHeaderCtrl.obj
 0001:000a3900       ?IsColFrozen@CXTPHeaderCtrl@@QAE_NH@Z 004a4900 f   ToolkitPro1501vc60S:XTPHeaderCtrl.obj
 0001:000a3920       ?DetermineRTL@CXTPHeaderCtrl@@MAE_NXZ 004a4920 f   ToolkitPro1501vc60S:XTPHeaderCtrl.obj
 0001:000a39a0       ?GetFrozenColWidth@CXTPHeaderCtrl@@MAEHXZ 004a49a0 f   ToolkitPro1501vc60S:XTPHeaderCtrl.obj
 0001:000a3a00       ?OnPaint@CXTPHeaderCtrl@@IAEXXZ 004a4a00 f   ToolkitPro1501vc60S:XTPHeaderCtrl.obj
 0001:000a3ac0       ?OnPrintClient@CXTPHeaderCtrl@@IAEJIJ@Z 004a4ac0 f   ToolkitPro1501vc60S:XTPHeaderCtrl.obj
 0001:000a3b10       ?OnLButtonDown@CXTPHeaderCtrl@@IAEXIVCPoint@@@Z 004a4b10 f   ToolkitPro1501vc60S:XTPHeaderCtrl.obj
 0001:000a3b20       ?OnLButtonUp@CXTPHeaderCtrl@@IAEXIVCPoint@@@Z 004a4b20 f   ToolkitPro1501vc60S:XTPHeaderCtrl.obj
 0001:000a3b30       ?OnMouseMove@CXTPHeaderCtrl@@IAEXIVCPoint@@@Z 004a4b30 f   ToolkitPro1501vc60S:XTPHeaderCtrl.obj
 0001:000a3b70       ?HitTest@CXTPHeaderCtrl@@QBEHVCPoint@@PAI@Z 004a4b70 f   ToolkitPro1501vc60S:XTPHeaderCtrl.obj
 0001:000a3bb0       ?ItemPressed@CXTPHeaderCtrl@@UAEHH@Z 004a4bb0 f   ToolkitPro1501vc60S:XTPHeaderCtrl.obj
 0001:000a3c20       ?OnTimer@CXTPHeaderCtrl@@IAEXI@Z 004a4c20 f   ToolkitPro1501vc60S:XTPHeaderCtrl.obj
 0001:000a3ce0       ?OnLayout@CXTPHeaderCtrl@@IAEJIJ@Z 004a4ce0 f   ToolkitPro1501vc60S:XTPHeaderCtrl.obj
 0001:000a3d20       ?SetSortImage@CXTPHeaderCtrl@@QAEHHH@Z 004a4d20 f   ToolkitPro1501vc60S:XTPHeaderCtrl.obj
 0001:000a3d50       ?GetSortedCol@CXTPHeaderCtrl@@QAEHPAH@Z 004a4d50 f   ToolkitPro1501vc60S:XTPHeaderCtrl.obj
 0001:000a3d70       ?RecalcLayout@CXTPHeaderCtrl@@QAEHXZ 004a4d70 f   ToolkitPro1501vc60S:XTPHeaderCtrl.obj
 0001:000a3e80       ?OnDestroy@CXTPHeaderCtrl@@IAEXXZ 004a4e80 f   ToolkitPro1501vc60S:XTPHeaderCtrl.obj
 0001:000a3eb0       ?InitializeHeader@CXTPHeaderCtrl@@UAEXH@Z 004a4eb0 f   ToolkitPro1501vc60S:XTPHeaderCtrl.obj
 0001:000a3f00       ?OnWndMsg@CXTPHeaderCtrl@@MAEHIIJPAJ@Z 004a4f00 f   ToolkitPro1501vc60S:XTPHeaderCtrl.obj
 0001:000a3f40       ?OnRButtonDown@CXTPHeaderCtrl@@IAEXIVCPoint@@@Z 004a4f40 f   ToolkitPro1501vc60S:XTPHeaderCtrl.obj
 0001:000a4200       ?SetMenuID@CXTPHeaderCtrl@@UAEXIH@Z 004a5200 f   ToolkitPro1501vc60S:XTPHeaderCtrl.obj
 0001:000a4220       ?SendNotify@CXTPHeaderCtrl@@IAEXH@Z 004a5220 f   ToolkitPro1501vc60S:XTPHeaderCtrl.obj
 0001:000a4320       ?OnSortAsc@CXTPHeaderCtrl@@IAEXXZ 004a5320 f   ToolkitPro1501vc60S:XTPHeaderCtrl.obj
 0001:000a4360       ?OnSortDsc@CXTPHeaderCtrl@@IAEXXZ 004a5360 f   ToolkitPro1501vc60S:XTPHeaderCtrl.obj
 0001:000a43a0       ?SetAlingment@CXTPHeaderCtrl@@UAEHH@Z 004a53a0 f   ToolkitPro1501vc60S:XTPHeaderCtrl.obj
 0001:000a4460       ?OnAlignLeft@CXTPHeaderCtrl@@IAEXXZ 004a5460 f   ToolkitPro1501vc60S:XTPHeaderCtrl.obj
 0001:000a4470       ?OnAlignCenter@CXTPHeaderCtrl@@IAEXXZ 004a5470 f   ToolkitPro1501vc60S:XTPHeaderCtrl.obj
 0001:000a4480       ?OnAlignRight@CXTPHeaderCtrl@@IAEXXZ 004a5480 f   ToolkitPro1501vc60S:XTPHeaderCtrl.obj
 0001:000a4490       ?HasSortArrow@CXTPHeaderCtrl@@QAEHXZ 004a5490 f   ToolkitPro1501vc60S:XTPHeaderCtrl.obj
 0001:000a44c0       ?ShowSortArrow@CXTPHeaderCtrl@@UAEXH@Z 004a54c0 f   ToolkitPro1501vc60S:XTPHeaderCtrl.obj
 0001:000a4500       ?SetFontBold@CXTPHeaderCtrl@@UAEXH@Z 004a5500 f   ToolkitPro1501vc60S:XTPHeaderCtrl.obj
 0001:000a4550       ?RefreshMetrics@CXTPHeaderCtrl@@MAEXXZ 004a5550 f   ToolkitPro1501vc60S:XTPHeaderCtrl.obj
 0001:000a4590       ?SetTheme@CXTPHeaderCtrl@@QAEHPAVCXTPHeaderCtrlTheme@@@Z 004a5590 f   ToolkitPro1501vc60S:XTPHeaderCtrl.obj
 0001:000a45e0       ?SetTheme@CXTPHeaderCtrl@@QAEHW4XTPControlTheme@@@Z 004a55e0 f   ToolkitPro1501vc60S:XTPHeaderCtrl.obj
 0001:000a46f0       ?OnSetTheme@CXTPHeaderCtrl@@IAEJIJ@Z 004a56f0 f   ToolkitPro1501vc60S:XTPHeaderCtrl.obj
 0001:000a4700       ??1?$CList@HAAH@@UAE@XZ    004a5700 f i ToolkitPro1501vc60S:XTPHeaderCtrl.obj
 0001:000a4760       ?Serialize@?$CList@HAAH@@UAEXAAVCArchive@@@Z 004a5760 f i ToolkitPro1501vc60S:XTPHeaderCtrl.obj
 0001:000a4870       ??_G?$CList@HAAH@@UAEPAXI@Z 004a5870 f i ToolkitPro1501vc60S:XTPHeaderCtrl.obj
 0001:000a4870       ??_E?$CList@HAAH@@UAEPAXI@Z 004a5870 f i ToolkitPro1501vc60S:XTPHeaderCtrl.obj
 0001:000a4890       ?Compare@CXTPSortClass@@SGHJJJ@Z 004a5890 f   ToolkitPro1501vc60S:XTPSortClass.obj
 0001:000a4930       ??0CXTPSortClass@@QAE@PAVCListCtrl@@HP6GHJJJ@Z@Z 004a5930 f   ToolkitPro1501vc60S:XTPSortClass.obj
 0001:000a4a50       ??_ECXTPSortClass@@UAEPAXI@Z 004a5a50 f i ToolkitPro1501vc60S:XTPSortClass.obj
 0001:000a4a50       ??_GCXTPSortClass@@UAEPAXI@Z 004a5a50 f i ToolkitPro1501vc60S:XTPSortClass.obj
 0001:000a4a70       ??1CXTPSortClass@@UAE@XZ   004a5a70 f   ToolkitPro1501vc60S:XTPSortClass.obj
 0001:000a4b10       ??1TOOLITEM@CXTPToolTipContextToolTip@@QAE@XZ 004a5b10 f i ToolkitPro1501vc60S:XTPSortClass.obj
 0001:000a4b10       ??1ITEMDATA@CXTPSortClass@@QAE@XZ 004a5b10 f i ToolkitPro1501vc60S:XTPSortClass.obj
 0001:000a4b20       ?Sort@CXTPSortClass@@UAEX_NH@Z 004a5b20 f   ToolkitPro1501vc60S:XTPSortClass.obj
 0001:000a4b70       ?SortInt@CXTPSortClass@@SAHPBD0F@Z 004a5b70 f   ToolkitPro1501vc60S:XTPSortClass.obj
 0001:000a4c70       ?SortString@CXTPSortClass@@SAHPBD0F@Z 004a5c70 f   ToolkitPro1501vc60S:XTPSortClass.obj
 0001:000a4c90       ?SortDateTime@CXTPSortClass@@SAHPBD0F@Z 004a5c90 f   ToolkitPro1501vc60S:XTPSortClass.obj
 0001:000a4d40       ?SortDecimal@CXTPSortClass@@SAHPBD0F@Z 004a5d40 f   ToolkitPro1501vc60S:XTPSortClass.obj
 0001:000a4db0       ?RemoveNonNumeric@CXTPSortClass@@SAHAAVCString@@@Z 004a5db0 f   ToolkitPro1501vc60S:XTPSortClass.obj
 0001:000a4e50       _compress2                 004a5e50 f   ToolkitPro1501vc60S:compress.obj
 0001:000a4f00       _compress                  004a5f00 f   ToolkitPro1501vc60S:compress.obj
 0001:000a4f20       _uncompress                004a5f20 f   ToolkitPro1501vc60S:uncompr.obj
 0001:000a4fd0       ?CreateObject@CXTPFrameWnd@@SGPAVCObject@@XZ 004a5fd0 f   ToolkitPro1501vc60S:XTPFrameWnd.obj
 0001:000a5030       ?GetRuntimeClass@CXTPFrameWnd@@UBEPAUCRuntimeClass@@XZ 004a6030 f   ToolkitPro1501vc60S:XTPFrameWnd.obj
 0001:000a5040       ??0CXTPFrameWnd@@QAE@XZ    004a6040 f   ToolkitPro1501vc60S:XTPFrameWnd.obj
 0001:000a5060       ??_ECXTPFrameWnd@@UAEPAXI@Z 004a6060 f i ToolkitPro1501vc60S:XTPFrameWnd.obj
 0001:000a5060       ??_GCXTPFrameWnd@@UAEPAXI@Z 004a6060 f i ToolkitPro1501vc60S:XTPFrameWnd.obj
 0001:000a5080       ?CreateObject@CXTPMDIFrameWnd@@SGPAVCObject@@XZ 004a6080 f   ToolkitPro1501vc60S:XTPFrameWnd.obj
 0001:000a50e0       ?GetRuntimeClass@CXTPMDIFrameWnd@@UBEPAUCRuntimeClass@@XZ 004a60e0 f   ToolkitPro1501vc60S:XTPFrameWnd.obj
 0001:000a50f0       ??0CXTPMDIFrameWnd@@QAE@XZ 004a60f0 f   ToolkitPro1501vc60S:XTPFrameWnd.obj
 0001:000a5110       ?OnCmdMsg@CXTPMDIFrameWnd@@UAEHIHPAXPAUAFX_CMDHANDLERINFO@@@Z 004a6110 f i ToolkitPro1501vc60S:XTPFrameWnd.obj
 0001:000a5180       ??_ECXTPMDIFrameWnd@@UAEPAXI@Z 004a6180 f i ToolkitPro1501vc60S:XTPFrameWnd.obj
 0001:000a5180       ??_GCXTPMDIFrameWnd@@UAEPAXI@Z 004a6180 f i ToolkitPro1501vc60S:XTPFrameWnd.obj
 0001:000a51a0       ??1CXTPMDIFrameWnd@@UAE@XZ 004a61a0 f i ToolkitPro1501vc60S:XTPFrameWnd.obj
 0001:000a5210       ?LoadFrame@?$CXTPFrameWndBase@VCMDIFrameWnd@@@@UAEHIKPAVCWnd@@PAUCCreateContext@@@Z 004a6210 f i ToolkitPro1501vc60S:XTPFrameWnd.obj
 0001:000a5260       ?OnSetPreviewMode@?$CXTPFrameWndBase@VCMDIFrameWnd@@@@UAEXHPAUCPrintPreviewState@@@Z 004a6260 f i ToolkitPro1501vc60S:XTPFrameWnd.obj
 0001:000a5290       ?InitCommandBars@?$CXTPCommandBarsSiteBase@VCMDIFrameWnd@@@@UAEHPAUCRuntimeClass@@@Z 004a6290 f i ToolkitPro1501vc60S:XTPFrameWnd.obj
 0001:000a52e0       ?SaveCommandBars@?$CXTPCommandBarsSiteBase@VCMDIFrameWnd@@@@UAEXPBD@Z 004a62e0 f i ToolkitPro1501vc60S:XTPFrameWnd.obj
 0001:000a5320       ?LoadCommandBars@?$CXTPCommandBarsSiteBase@VCMDIFrameWnd@@@@UAEXPBDH@Z 004a6320 f i ToolkitPro1501vc60S:XTPFrameWnd.obj
 0001:000a5370       ?PreTranslateMessage@?$CXTPCommandBarsSiteBase@VCMDIFrameWnd@@@@MAEHPAUtagMSG@@@Z 004a6370 f i ToolkitPro1501vc60S:XTPFrameWnd.obj
 0001:000a5400       ?OnWndMsg@?$CXTPCommandBarsSiteBase@VCMDIFrameWnd@@@@MAEHIIJPAJ@Z 004a6400 f i ToolkitPro1501vc60S:XTPFrameWnd.obj
 0001:000a5450       ??_E?$CXTPCommandBarsSiteBase@VCMDIFrameWnd@@@@UAEPAXI@Z 004a6450 f i ToolkitPro1501vc60S:XTPFrameWnd.obj
 0001:000a5450       ??_G?$CXTPCommandBarsSiteBase@VCMDIFrameWnd@@@@UAEPAXI@Z 004a6450 f i ToolkitPro1501vc60S:XTPFrameWnd.obj
 0001:000a5470       ??1?$CXTPCommandBarsSiteBase@VCMDIFrameWnd@@@@UAE@XZ 004a6470 f i ToolkitPro1501vc60S:XTPFrameWnd.obj
 0001:000a54e0       ??1CMDIFrameWnd@@UAE@XZ    004a64e0 f i ToolkitPro1501vc60S:XTPFrameWnd.obj
 0001:000a54f0       ??0CXTPDockingPaneManager@@QAE@XZ 004a64f0 f   ToolkitPro1501vc60S:XTPDockingPaneManager.obj
 0001:000a57a0       ??_ECXTPDockingPaneManager@@UAEPAXI@Z 004a67a0 f i ToolkitPro1501vc60S:XTPDockingPaneManager.obj
 0001:000a57a0       ??_GCXTPDockingPaneManager@@UAEPAXI@Z 004a67a0 f i ToolkitPro1501vc60S:XTPDockingPaneManager.obj
 0001:000a57c0       ??1CXTPDockingPaneManager@@UAE@XZ 004a67c0 f   ToolkitPro1501vc60S:XTPDockingPaneManager.obj
 0001:000a58d0       ?GetMessageMap@CXTPDockingPaneManager@@MBEPBUAFX_MSGMAP@@XZ 004a68d0 f   ToolkitPro1501vc60S:XTPDockingPaneManager.obj
 0001:000a58e0       ?OnSysColorChange@CXTPDockingPaneManager@@IAEXXZ 004a68e0 f   ToolkitPro1501vc60S:XTPDockingPaneManager.obj
 0001:000a5900       ?OnSettingChange@CXTPDockingPaneManager@@IAEXIPBD@Z 004a6900 f   ToolkitPro1501vc60S:XTPDockingPaneManager.obj
 0001:000a5920       ?UpdatePanes@CXTPDockingPaneManager@@UAEXXZ 004a6920 f   ToolkitPro1501vc60S:XTPDockingPaneManager.obj
 0001:000a5980       ?OnInitialUpdate@CXTPDockingPaneManager@@IAEXXZ 004a6980 f   ToolkitPro1501vc60S:XTPDockingPaneManager.obj
 0001:000a5a50       ?OnIdleUpdateCmdUI@CXTPDockingPaneManager@@IAEJIJ@Z 004a6a50 f   ToolkitPro1501vc60S:XTPDockingPaneManager.obj
 0001:000a5a60       ?SyncPanesState@CXTPDockingPaneManager@@QAEXXZ 004a6a60 f   ToolkitPro1501vc60S:XTPDockingPaneManager.obj
 0001:000a5ae0       ?OnSizeParent@CXTPDockingPaneManager@@IAEJIJ@Z 004a6ae0 f   ToolkitPro1501vc60S:XTPDockingPaneManager.obj
 0001:000a5b30       ?_Clone@CXTPDockingPaneManager@@AAEPAVCXTPDockingPaneBase@@PAV2@@Z 004a6b30 f   ToolkitPro1501vc60S:XTPDockingPaneManager.obj
 0001:000a5b50       ?NotifyAction@CXTPDockingPaneManager@@QAEHW4XTPDockingPaneAction@@PAVCXTPDockingPane@@PAVCXTPDockingPaneBase@@W4XTPDockingPaneDirection@@@Z 004a6b50 f   ToolkitPro1501vc60S:XTPDockingPaneManager.obj
 0001:000a5bb0       ?DockSidePane@CXTPDockingPaneManager@@QAEPAVCXTPDockingPaneSidePanel@@PAVCXTPDockingPaneBase@@W4XTPDockingPaneDirection@@VCRect@@@Z 004a6bb0 f   ToolkitPro1501vc60S:XTPDockingPaneManager.obj
 0001:000a5c30       ?FloatPane@CXTPDockingPaneManager@@QAEPAVCXTPDockingPaneMiniWnd@@PAVCXTPDockingPaneBase@@VCRect@@@Z 004a6c30 f   ToolkitPro1501vc60S:XTPDockingPaneManager.obj
 0001:000a5cd0       ?CreatePane@CXTPDockingPaneManager@@QAEPAVCXTPDockingPane@@IVCRect@@W4XTPDockingPaneDirection@@PAVCXTPDockingPaneBase@@@Z 004a6cd0 f   ToolkitPro1501vc60S:XTPDockingPaneManager.obj
 0001:000a5df0       ?OnCreatePane@CXTPDockingPaneManager@@UAEPAVCXTPDockingPaneBase@@W4XTPDockingPaneType@@PAVCXTPDockingPaneLayout@@@Z 004a6df0 f   ToolkitPro1501vc60S:XTPDockingPaneManager.obj
 0001:000a6040       ?DockPane@CXTPDockingPaneManager@@QAEXPAVCXTPDockingPaneBase@@W4XTPDockingPaneDirection@@0@Z 004a7040 f   ToolkitPro1501vc60S:XTPDockingPaneManager.obj
 0001:000a6150       ?_RemovePane@CXTPDockingPaneManager@@AAEXPAVCXTPDockingPaneBase@@@Z 004a7150 f   ToolkitPro1501vc60S:XTPDockingPaneManager.obj
 0001:000a6170       ?AttachPane@CXTPDockingPaneManager@@QAEXPAVCXTPDockingPaneBase@@0@Z 004a7170 f   ToolkitPro1501vc60S:XTPDockingPaneManager.obj
 0001:000a6190       ?_AttachPane@CXTPDockingPaneManager@@AAEXPAVCXTPDockingPaneBase@@0@Z 004a7190 f   ToolkitPro1501vc60S:XTPDockingPaneManager.obj
 0001:000a62d0       ?_CalculateResultDockingRect@CXTPDockingPaneManager@@AAE?AVCRect@@PAVCXTPDockingPaneBase@@W4XTPDockingPaneDirection@@0@Z 004a72d0 f   ToolkitPro1501vc60S:XTPDockingPaneManager.obj
 0001:000a63e0       ?_InsertPane@CXTPDockingPaneManager@@AAEXPAVCXTPDockingPaneBase@@W4XTPDockingPaneDirection@@0@Z 004a73e0 f   ToolkitPro1501vc60S:XTPDockingPaneManager.obj
 0001:000a6610       ?_GetHolder@CXTPDockingPaneManager@@AAEPAVCXTPDockingPaneBase@@PAV2@H@Z 004a7610 f   ToolkitPro1501vc60S:XTPDockingPaneManager.obj
 0001:000a6670       ?ToggleDocking@CXTPDockingPaneManager@@QAEXPAVCXTPDockingPaneBase@@@Z 004a7670 f   ToolkitPro1501vc60S:XTPDockingPaneManager.obj
 0001:000a68e0       ?_ToggleDocking@CXTPDockingPaneManager@@AAEHPAVCXTPDockingPane@@PAVCXTPDockingPaneBase@@@Z 004a78e0 f   ToolkitPro1501vc60S:XTPDockingPaneManager.obj
 0001:000a6a50       ?InstallDockingPanes@CXTPDockingPaneManager@@QAE_NPAVCWnd@@_N@Z 004a7a50 f   ToolkitPro1501vc60S:XTPDockingPaneManager.obj
 0001:000a6bb0       ?FindPane@CXTPDockingPaneManager@@QBEPAVCXTPDockingPane@@H@Z 004a7bb0 f   ToolkitPro1501vc60S:XTPDockingPaneManager.obj
 0001:000a6bf0       ?ShowPane@CXTPDockingPaneManager@@QAEXPAVCXTPDockingPane@@H@Z 004a7bf0 f   ToolkitPro1501vc60S:XTPDockingPaneManager.obj
 0001:000a6c80       ?NotifyOwner@CXTPDockingPaneManager@@UAEJIJ@Z 004a7c80 f   ToolkitPro1501vc60S:XTPDockingPaneManager.obj
 0001:000a6cc0       ?ClosePane@CXTPDockingPaneManager@@QAEXPAVCXTPDockingPane@@@Z 004a7cc0 f   ToolkitPro1501vc60S:XTPDockingPaneManager.obj
 0001:000a6d10       ?HidePane@CXTPDockingPaneManager@@QAEXPAVCXTPDockingPaneBase@@@Z 004a7d10 f   ToolkitPro1501vc60S:XTPDockingPaneManager.obj
 0001:000a6d70       ?IsPaneClosed@CXTPDockingPaneManager@@QBEHPAVCXTPDockingPane@@@Z 004a7d70 f   ToolkitPro1501vc60S:XTPDockingPaneManager.obj
 0001:000a6d90       ?IsPaneHidden@CXTPDockingPaneManager@@QBEHPAVCXTPDockingPane@@@Z 004a7d90 f   ToolkitPro1501vc60S:XTPDockingPaneManager.obj
 0001:000a6dc0       ?_Redraw@CXTPDockingPaneManager@@AAEXXZ 004a7dc0 f   ToolkitPro1501vc60S:XTPDockingPaneManager.obj
 0001:000a6e40       ?SetTheme@CXTPDockingPaneManager@@QAEXW4XTPDockingPanePaintTheme@@@Z 004a7e40 f   ToolkitPro1501vc60S:XTPDockingPaneManager.obj
 0001:000a7240       ?CreateLayout@CXTPDockingPaneManager@@UAEPAVCXTPDockingPaneLayout@@XZ 004a8240 f   ToolkitPro1501vc60S:XTPDockingPaneManager.obj
 0001:000a72a0       ?GetPaneStack@CXTPDockingPaneManager@@QBEAAV?$CList@PAVCXTPDockingPaneBase@@PAV1@@@XZ 004a82a0 f   ToolkitPro1501vc60S:XTPDockingPaneManager.obj
 0001:000a72b0       ?GetPaneList@CXTPDockingPaneManager@@QBEAAV?$CList@UXTP_DOCKINGPANE_INFO@@AAU1@@@XZ 004a82b0 f   ToolkitPro1501vc60S:XTPDockingPaneManager.obj
 0001:000a72c0       ?GetClientPane@CXTPDockingPaneManager@@QBEPAVCXTPDockingPaneBase@@XZ 004a82c0 f   ToolkitPro1501vc60S:XTPDockingPaneManager.obj
 0001:000a72e0       ?GetTopPane@CXTPDockingPaneManager@@QBEPAVCXTPDockingPaneBase@@XZ 004a82e0 f   ToolkitPro1501vc60S:XTPDockingPaneManager.obj
 0001:000a7300       ?GetIcon@CXTPDockingPaneManager@@QBEPAVCXTPImageManagerIcon@@IH@Z 004a8300 f   ToolkitPro1501vc60S:XTPDockingPaneManager.obj
 0001:000a7320       ?IsLayoutRTL@CXTPDockingPaneManager@@QBEHXZ 004a8320 f   ToolkitPro1501vc60S:XTPDockingPaneManager.obj
 0001:000a7340       ?GetRTLDirection@CXTPDockingPaneManager@@QBE?AW4XTPDockingPaneDirection@@W42@@Z 004a8340 f   ToolkitPro1501vc60S:XTPDockingPaneManager.obj
 0001:000a7370       ?GetPaneDirection@CXTPDockingPaneManager@@QBE?AW4XTPDockingPaneDirection@@PBVCXTPDockingPaneBase@@@Z 004a8370 f   ToolkitPro1501vc60S:XTPDockingPaneManager.obj
 0001:000a7390       ?RecalcFramesLayout@CXTPDockingPaneManager@@QAEXXZ 004a8390 f   ToolkitPro1501vc60S:XTPDockingPaneManager.obj
 0001:000a7420       ?EnsureVisible@CXTPDockingPaneManager@@QAEXPAVCXTPDockingPaneBase@@@Z 004a8420 f   ToolkitPro1501vc60S:XTPDockingPaneManager.obj
 0001:000a7480       ?OnActivatePane@CXTPDockingPaneManager@@UAEXHPAVCXTPDockingPane@@@Z 004a8480 f   ToolkitPro1501vc60S:XTPDockingPaneManager.obj
 0001:000a7520       ?RecalcFrameLayout@CXTPDockingPaneManager@@QAEXPAVCXTPDockingPaneBase@@H@Z 004a8520 f   ToolkitPro1501vc60S:XTPDockingPaneManager.obj
 0001:000a7650       ?_TrackPopupContextMenu@CXTPDockingPaneManager@@AAEXPAVCXTPDockingPane@@@Z 004a8650 f   ToolkitPro1501vc60S:XTPDockingPaneManager.obj
 0001:000a77d0       ?ActivateNextPane@CXTPDockingPaneManager@@QAEHPAVCXTPDockingPane@@H@Z 004a87d0 f   ToolkitPro1501vc60S:XTPDockingPaneManager.obj
 0001:000a7880       ?OnWndMsg@CXTPDockingPaneManager@@MAEHIIJPAJ@Z 004a8880 f   ToolkitPro1501vc60S:XTPDockingPaneManager.obj
 0001:000a7960       ?GetAccessible@CXTPDockingPaneManager@@MAEPAVCCmdTarget@@XZ 004a8960 f   ToolkitPro1501vc60S:XTPDockingPaneManager.obj
 0001:000a7970       ?GetAccessibleParent@CXTPDockingPaneManager@@MAEJPAPAUIDispatch@@@Z 004a8970 f   ToolkitPro1501vc60S:XTPDockingPaneManager.obj
 0001:000a79b0       ?GetAccessibleChildCount@CXTPDockingPaneManager@@MAEJPAJ@Z 004a89b0 f   ToolkitPro1501vc60S:XTPDockingPaneManager.obj
 0001:000a79d0       ?GetAccessibleChild@CXTPDockingPaneManager@@MAEJUtagVARIANT@@PAPAUIDispatch@@@Z 004a89d0 f   ToolkitPro1501vc60S:XTPDockingPaneManager.obj
 0001:000a7a30       ?GetAccessibleName@CXTPDockingPaneManager@@MAEJUtagVARIANT@@PAPAG@Z 004a8a30 f   ToolkitPro1501vc60S:XTPDockingPaneManager.obj
 0001:000a7a70       ?GetAccessibleRole@CXTPDockingPaneManager@@MAEJUtagVARIANT@@PAU2@@Z 004a8a70 f   ToolkitPro1501vc60S:XTPDockingPaneManager.obj
 0001:000a7ab0       ?GetAccessibleState@CXTPDockingPaneManager@@MAEJUtagVARIANT@@PAU2@@Z 004a8ab0 f   ToolkitPro1501vc60S:XTPDockingPaneManager.obj
 0001:000a7ae0       ?AccessibleLocation@CXTPDockingPaneManager@@MAEJPAJ000UtagVARIANT@@@Z 004a8ae0 f   ToolkitPro1501vc60S:XTPDockingPaneManager.obj
 0001:000a7b10       ?AccessibleHitTest@CXTPDockingPaneManager@@MAEJJJPAUtagVARIANT@@@Z 004a8b10 f   ToolkitPro1501vc60S:XTPDockingPaneManager.obj
 0001:000a7b20       ?OnGetObject@CXTPDockingPaneManager@@IAEJIJ@Z 004a8b20 f   ToolkitPro1501vc60S:XTPDockingPaneManager.obj
 0001:000a7b70       ?GetInterfaceMap@CXTPDockingPaneManager@@MBEPBUAFX_INTERFACEMAP@@XZ 004a8b70 f   ToolkitPro1501vc60S:XTPDockingPaneManager.obj
 0001:000a7b80       ?CreateObject@?$CThreadLocal@VCXTPDockingPaneKeyboardHook@@@@SGPAVCNoTrackObject@@XZ 004a8b80 f i ToolkitPro1501vc60S:XTPDockingPaneManager.obj
 0001:000a7be0       ??1?$CList@PAVCXTPDockingPaneBase@@PAV1@@@UAE@XZ 004a8be0 f i ToolkitPro1501vc60S:XTPDockingPaneManager.obj
 0001:000a7c40       ??_E?$CList@PAVCXTPDockingPaneBase@@PAV1@@@UAEPAXI@Z 004a8c40 f i ToolkitPro1501vc60S:XTPDockingPaneManager.obj
 0001:000a7c40       ??_G?$CList@PAVCXTPDockingPaneBase@@PAV1@@@UAEPAXI@Z 004a8c40 f i ToolkitPro1501vc60S:XTPDockingPaneManager.obj
 0001:000a7c60       ?ConstructElements@@YGXPAUXTP_DOCKINGPANE_INFO@@H@Z 004a8c60 f i ToolkitPro1501vc60S:XTPDockingPaneManager.obj
 0001:000a7cb0       ??_ECXTPDockingPaneManager@@WDM@AEPAXI@Z 004a8cb0 f i ToolkitPro1501vc60S:XTPDockingPaneManager.obj
 0001:000a7cf0       ??0CXTPTrayIcon@@QAE@XZ    004a8cf0 f   ToolkitPro1501vc60S:XTPTrayIcon.obj
 0001:000a7db0       ?Create@CXTPTrayIcon@@UAE_NPBDKPAVCWnd@@I@Z 004a8db0 f i ToolkitPro1501vc60S:XTPTrayIcon.obj
 0001:000a7dd0       ?SetTooltip@CXTPTrayIcon@@UAEXPBD@Z 004a8dd0 f i ToolkitPro1501vc60S:XTPTrayIcon.obj
 0001:000a7de0       ?SetTrayIcon@CXTPTrayIcon@@UAEXIK@Z 004a8de0 f i ToolkitPro1501vc60S:XTPTrayIcon.obj
 0001:000a7df0       ?SetAnimationIcons@CXTPTrayIcon@@UAEXPBIPBVCString@@H@Z 004a8df0 f i ToolkitPro1501vc60S:XTPTrayIcon.obj
 0001:000a7e10       ?KillTimer@CXTPTrayIcon@@UAEXXZ 004a8e10 f i ToolkitPro1501vc60S:XTPTrayIcon.obj
 0001:000a7e20       ?SetTimer@CXTPTrayIcon@@UAEXII@Z 004a8e20 f i ToolkitPro1501vc60S:XTPTrayIcon.obj
 0001:000a7e40       ??_ECXTPTrayIcon@@UAEPAXI@Z 004a8e40 f i ToolkitPro1501vc60S:XTPTrayIcon.obj
 0001:000a7e40       ??_GCXTPTrayIcon@@UAEPAXI@Z 004a8e40 f i ToolkitPro1501vc60S:XTPTrayIcon.obj
 0001:000a7e60       ??1CXTPTrayIcon@@UAE@XZ    004a8e60 f   ToolkitPro1501vc60S:XTPTrayIcon.obj
 0001:000a7f50       ?GetMessageMap@CXTPTrayIcon@@MBEPBUAFX_MSGMAP@@XZ 004a8f50 f   ToolkitPro1501vc60S:XTPTrayIcon.obj
 0001:000a7f60       ?SetDefaultValues@CXTPTrayIcon@@QAEXXZ 004a8f60 f   ToolkitPro1501vc60S:XTPTrayIcon.obj
 0001:000a8000       ?IsShellVersion5@CXTPTrayIcon@@QBEHXZ 004a9000 f   ToolkitPro1501vc60S:XTPTrayIcon.obj
 0001:000a8080       ?ShellNotify@CXTPTrayIcon@@QAEHK@Z 004a9080 f   ToolkitPro1501vc60S:XTPTrayIcon.obj
 0001:000a80a0       ?SetIcon@CXTPTrayIcon@@QAE_NPAUHICON__@@@Z 004a90a0 f   ToolkitPro1501vc60S:XTPTrayIcon.obj
 0001:000a80e0       ?SetIcon@CXTPTrayIcon@@QAE_NPBD@Z 004a90e0 f   ToolkitPro1501vc60S:XTPTrayIcon.obj
 0001:000a8140       ?SetIcon@CXTPTrayIcon@@QAE_NI@Z 004a9140 f   ToolkitPro1501vc60S:XTPTrayIcon.obj
 0001:000a8160       ?RemoveAnimationIcons@CXTPTrayIcon@@UAEXXZ 004a9160 f   ToolkitPro1501vc60S:XTPTrayIcon.obj
 0001:000a81b0       ?SetAnimationIcons@CXTPTrayIcon@@UAE_NPBIHPBVCString@@@Z 004a91b0 f   ToolkitPro1501vc60S:XTPTrayIcon.obj
 0001:000a83a0       ??1TRAYICONDATA@CXTPTrayIcon@@QAE@XZ 004a93a0 f i ToolkitPro1501vc60S:XTPTrayIcon.obj
 0001:000a83b0       ??0TRAYICONDATA@CXTPTrayIcon@@QAE@XZ 004a93b0 f i ToolkitPro1501vc60S:XTPTrayIcon.obj
 0001:000a83c0       ?SetTooltipText@CXTPTrayIcon@@QAE_NPBD@Z 004a93c0 f   ToolkitPro1501vc60S:XTPTrayIcon.obj
 0001:000a8450       ?SetShellTooltip@CXTPTrayIcon@@AAE_NPBD@Z 004a9450 f   ToolkitPro1501vc60S:XTPTrayIcon.obj
 0001:000a84a0       ?AddIcon@CXTPTrayIcon@@QAE_NXZ 004a94a0 f   ToolkitPro1501vc60S:XTPTrayIcon.obj
 0001:000a84e0       ?RemoveIcon@CXTPTrayIcon@@QAE_NXZ 004a94e0 f   ToolkitPro1501vc60S:XTPTrayIcon.obj
 0001:000a8520       ?OnTimer@CXTPTrayIcon@@IAEXI@Z 004a9520 f   ToolkitPro1501vc60S:XTPTrayIcon.obj
 0001:000a85a0       ?Create@CXTPTrayIcon@@UAE_NPBDPAVCWnd@@III_N@Z 004a95a0 f   ToolkitPro1501vc60S:XTPTrayIcon.obj
 0001:000a8650       ?ShowBalloonTip@CXTPTrayIcon@@QAE_NPBD0KI@Z 004a9650 f   ToolkitPro1501vc60S:XTPTrayIcon.obj
 0001:000a8700       ?StartAnimation@CXTPTrayIcon@@UAEXI@Z 004a9700 f   ToolkitPro1501vc60S:XTPTrayIcon.obj
 0001:000a8720       ?StopAnimation@CXTPTrayIcon@@UAEXXZ 004a9720 f   ToolkitPro1501vc60S:XTPTrayIcon.obj
 0001:000a8750       ?OnTrayNotification@CXTPTrayIcon@@MAEJIJ@Z 004a9750 f   ToolkitPro1501vc60S:XTPTrayIcon.obj
 0001:000a8a60       ?WindowProc@CXTPTrayIcon@@MAEJIIJ@Z 004a9a60 f   ToolkitPro1501vc60S:XTPTrayIcon.obj
 0001:000a8aa0       ?OnTaskbarCreated@CXTPTrayIcon@@IAEJIJ@Z 004a9aa0 f   ToolkitPro1501vc60S:XTPTrayIcon.obj
 0001:000a8ab0       ?OnSettingChange@CXTPTrayIcon@@IAEXIPBD@Z 004a9ab0 f   ToolkitPro1501vc60S:XTPTrayIcon.obj
 0001:000a8ae0       ?InstallIconPending@CXTPTrayIcon@@UAEXXZ 004a9ae0 f   ToolkitPro1501vc60S:XTPTrayIcon.obj
 0001:000a8b10       ?FindTrayWnd@CXTPTrayIcon@@CGHPAUHWND__@@J@Z 004a9b10 f   ToolkitPro1501vc60S:XTPTrayIcon.obj
 0001:000a8bc0       ?GetTrayWindowRect@CXTPTrayIcon@@AAE_NAAVCRect@@@Z 004a9bc0 f   ToolkitPro1501vc60S:XTPTrayIcon.obj
 0001:000a8ce0       ?CanAnimate@CXTPTrayIcon@@ABE_NXZ 004a9ce0 f   ToolkitPro1501vc60S:XTPTrayIcon.obj
 0001:000a8d20       ?CreateMinimizeWnd@CXTPTrayIcon@@UAE_NPAVCWnd@@@Z 004a9d20 f   ToolkitPro1501vc60S:XTPTrayIcon.obj
 0001:000a8da0       ?MinimizeToTray@CXTPTrayIcon@@QAEXPAVCWnd@@@Z 004a9da0 f   ToolkitPro1501vc60S:XTPTrayIcon.obj
 0001:000a8e10       ?MaximizeFromTray@CXTPTrayIcon@@QAEXPAVCWnd@@@Z 004a9e10 f   ToolkitPro1501vc60S:XTPTrayIcon.obj
 0001:000a8ed0       ?RemoveHead@?$CList@UTRAYICONDATA@CXTPTrayIcon@@AAU12@@@QAE?AUTRAYICONDATA@CXTPTrayIcon@@XZ 004a9ed0 f i ToolkitPro1501vc60S:XTPTrayIcon.obj
 0001:000a8fd0       ??1?$CList@UTRAYICONDATA@CXTPTrayIcon@@AAU12@@@UAE@XZ 004a9fd0 f i ToolkitPro1501vc60S:XTPTrayIcon.obj
 0001:000a9050       ?Serialize@?$CList@UTRAYICONDATA@CXTPTrayIcon@@AAU12@@@UAEXAAVCArchive@@@Z 004aa050 f i ToolkitPro1501vc60S:XTPTrayIcon.obj
 0001:000a91d0       ??_E?$CList@UTRAYICONDATA@CXTPTrayIcon@@AAU12@@@UAEPAXI@Z 004aa1d0 f i ToolkitPro1501vc60S:XTPTrayIcon.obj
 0001:000a91d0       ??_G?$CList@UTRAYICONDATA@CXTPTrayIcon@@AAU12@@@UAEPAXI@Z 004aa1d0 f i ToolkitPro1501vc60S:XTPTrayIcon.obj
 0001:000a91f0       ?ConstructElements@@YGXPAUTRAYICONDATA@CXTPTrayIcon@@H@Z 004aa1f0 f i ToolkitPro1501vc60S:XTPTrayIcon.obj
 0001:000a9270       ?GetRuntimeClass@CXTPStatusBarPane@@UBEPAUCRuntimeClass@@XZ 004aa270 f   ToolkitPro1501vc60S:XTPStatusBar.obj
 0001:000a9280       ??0CXTPStatusBarPane@@QAE@XZ 004aa280 f   ToolkitPro1501vc60S:XTPStatusBar.obj
 0001:000a9350       ??_GCXTPStatusBarPane@@UAEPAXI@Z 004aa350 f i ToolkitPro1501vc60S:XTPStatusBar.obj
 0001:000a9350       ??_ECXTPStatusBarPane@@UAEPAXI@Z 004aa350 f i ToolkitPro1501vc60S:XTPStatusBar.obj
 0001:000a9370       ??1CXTPStatusBarPane@@UAE@XZ 004aa370 f   ToolkitPro1501vc60S:XTPStatusBar.obj
 0001:000a9460       ?GetRibbonBar@CXTPRibbonTab@@QBEPAVCXTPRibbonBar@@XZ 004aa460 f   ToolkitPro1501vc60S:XTPStatusBar.obj
 0001:000a9460       ?IsButton@CXTPStatusBarPane@@QBEHXZ 004aa460 f   ToolkitPro1501vc60S:XTPStatusBar.obj
 0001:000a9470       ?GetRect@CXTPStatusBarPane@@QBE?AVCRect@@XZ 004aa470 f   ToolkitPro1501vc60S:XTPStatusBar.obj
 0001:000a94a0       ?Redraw@CXTPStatusBarPane@@QBEXXZ 004aa4a0 f   ToolkitPro1501vc60S:XTPStatusBar.obj
 0001:000a94f0       ?GetPadding@CXTPStatusBarPane@@QBE?AVCRect@@XZ 004aa4f0 f   ToolkitPro1501vc60S:XTPStatusBar.obj
 0001:000a9520       ?SetText@CXTPStatusBarPane@@QAEXPBD@Z 004aa520 f   ToolkitPro1501vc60S:XTPStatusBar.obj
 0001:000a9600       ?GetText@CXTPStatusBarPane@@QBE?AVCString@@XZ 004aa600 f   ToolkitPro1501vc60S:XTPStatusBar.obj
 0001:000a9620       ?GetWidth@CXTPStatusBarPane@@UAEHXZ 004aa620 f   ToolkitPro1501vc60S:XTPStatusBar.obj
 0001:000a9630       ?SetStyle@CXTPStatusBarPane@@QAEXI@Z 004aa630 f   ToolkitPro1501vc60S:XTPStatusBar.obj
 0001:000a9670       ?GetIndex@CXTPStatusBarPane@@QBEHXZ 004aa670 f   ToolkitPro1501vc60S:XTPStatusBar.obj
 0001:000a9680       ?GetStatusBar@CXTPStatusBarPane@@QBEPAVCXTPStatusBar@@XZ 004aa680 f   ToolkitPro1501vc60S:XTPStatusBar.obj
 0001:000a9680       ?GetWorkspaceCount@CXTPTabClientWnd@@QBEHXZ 004aa680 f   ToolkitPro1501vc60S:XTPStatusBar.obj
 0001:000a9690       ?IsVisible@CXTPStatusBarPane@@QBEHXZ 004aa690 f   ToolkitPro1501vc60S:XTPStatusBar.obj
 0001:000a9690       ?IsClosed@CXTPDockingPane@@QBEHXZ 004aa690 f   ToolkitPro1501vc60S:XTPStatusBar.obj
 0001:000a96a0       ?OnDraw@CXTPStatusBarPane@@MAEXPAVCDC@@VCRect@@@Z 004aa6a0 f   ToolkitPro1501vc60S:XTPStatusBar.obj
 0001:000a96f0       ?GetBestFit@CXTPStatusBarPane@@QAEHXZ 004aa6f0 f   ToolkitPro1501vc60S:XTPStatusBar.obj
 0001:000a9820       ?GetTextFont@CXTPStatusBarPane@@UAEPAVCFont@@XZ 004aa820 f   ToolkitPro1501vc60S:XTPStatusBar.obj
 0001:000a9840       ?GetImage@CXTPStatusBarPane@@UBEPAVCXTPImageManagerIcon@@XZ 004aa840 f   ToolkitPro1501vc60S:XTPStatusBar.obj
 0001:000a9860       ?GetTooltip@CXTPStatusBarPane@@QBE?AVCString@@XZ 004aa860 f   ToolkitPro1501vc60S:XTPStatusBar.obj
 0001:000a9880       ?SetEnabled@CXTPStatusBarPane@@QAEXH@Z 004aa880 f   ToolkitPro1501vc60S:XTPStatusBar.obj
 0001:000a98c0       ?IsEnabled@CXTPStatusBarPane@@QBEHXZ 004aa8c0 f   ToolkitPro1501vc60S:XTPStatusBar.obj
 0001:000a98d0       ?IsChecked@CXTPStatusBarPane@@QBEHXZ 004aa8d0 f   ToolkitPro1501vc60S:XTPStatusBar.obj
 0001:000a98f0       ?OnToolHitTest@CXTPStatusBarPane@@MBEHVCPoint@@PAUtagTOOLINFOA@@@Z 004aa8f0 f   ToolkitPro1501vc60S:XTPStatusBar.obj
 0001:000a9900       ?OnLButtonDown@CXTPStatusBarPane@@MAEXVCPoint@@@Z 004aa900 f   ToolkitPro1501vc60S:XTPStatusBar.obj
 0001:000a9a50       ?GetRuntimeClass@CXTPStatusBar@@UBEPAUCRuntimeClass@@XZ 004aaa50 f   ToolkitPro1501vc60S:XTPStatusBar.obj
 0001:000a9a60       ??0CXTPStatusBar@@QAE@XZ   004aaa60 f   ToolkitPro1501vc60S:XTPStatusBar.obj
 0001:000a9b50       ??_GCXTPStatusBar@@UAEPAXI@Z 004aab50 f i ToolkitPro1501vc60S:XTPStatusBar.obj
 0001:000a9b50       ??_ECXTPStatusBar@@UAEPAXI@Z 004aab50 f i ToolkitPro1501vc60S:XTPStatusBar.obj
 0001:000a9b70       ?IsWin4@CXTPStatusBar@@AAEHXZ 004aab70 f   ToolkitPro1501vc60S:XTPStatusBar.obj
 0001:000a9b80       ??1CXTPStatusBar@@UAE@XZ   004aab80 f   ToolkitPro1501vc60S:XTPStatusBar.obj
 0001:000a9c40       ?GetImageManager@CXTPStatusBar@@QBEPAVCXTPImageManager@@XZ 004aac40 f   ToolkitPro1501vc60S:XTPStatusBar.obj
 0001:000a9c60       ?HitTest@CXTPStatusBar@@QBEPAVCXTPStatusBarPane@@VCPoint@@PAVCRect@@@Z 004aac60 f   ToolkitPro1501vc60S:XTPStatusBar.obj
 0001:000a9d10       ?RemoveAll@CXTPStatusBar@@QAEXXZ 004aad10 f   ToolkitPro1501vc60S:XTPStatusBar.obj
 0001:000a9d70       ?GetAt@CXTPCommandBars@@QBEPAVCXTPToolBar@@H@Z 004aad70 f   ToolkitPro1501vc60S:XTPStatusBar.obj
 0001:000a9d70       ?GetPane@CXTPStatusBar@@QBEPAVCXTPStatusBarPane@@H@Z 004aad70 f   ToolkitPro1501vc60S:XTPStatusBar.obj
 0001:000a9d90       ?FindPane@CXTPStatusBar@@QBEPAVCXTPStatusBarPane@@I@Z 004aad90 f   ToolkitPro1501vc60S:XTPStatusBar.obj
 0001:000a9de0       ?Create@CXTPStatusBar@@QAEHPAVCWnd@@KI@Z 004aade0 f   ToolkitPro1501vc60S:XTPStatusBar.obj
 0001:000a9e00       ?GetFont@CXTPStatusBar@@QAEPAVCFont@@XZ 004aae00 f   ToolkitPro1501vc60S:XTPStatusBar.obj
 0001:000a9e20       ?CreateEx@CXTPStatusBar@@QAEHPAVCWnd@@KKI@Z 004aae20 f   ToolkitPro1501vc60S:XTPStatusBar.obj
 0001:000a9eb0       ?PreCreateWindow@CXTPStatusBar@@MAEHAAUtagCREATESTRUCTA@@@Z 004aaeb0 f   ToolkitPro1501vc60S:XTPStatusBar.obj
 0001:000a9ef0       ?SetIndicators@CXTPStatusBar@@QAEHPBIH@Z 004aaef0 f   ToolkitPro1501vc60S:XTPStatusBar.obj
 0001:000aa150       ?CalcInsideRect@CXTPStatusBar@@IBEXAAVCRect@@H@Z 004ab150 f   ToolkitPro1501vc60S:XTPStatusBar.obj
 0001:000aa1d0       ?RecalcLayout@CXTPStatusBar@@UAEXXZ 004ab1d0 f   ToolkitPro1501vc60S:XTPStatusBar.obj
 0001:000aa4a0       ?CommandToIndex@CXTPStatusBar@@QBEHI@Z 004ab4a0 f   ToolkitPro1501vc60S:XTPStatusBar.obj
 0001:000aa4f0       ?GetItemID@CXTPStatusBar@@QBEIH@Z 004ab4f0 f   ToolkitPro1501vc60S:XTPStatusBar.obj
 0001:000aa510       ?GetItemRect@CXTPStatusBar@@QBEXHPAUtagRECT@@@Z 004ab510 f   ToolkitPro1501vc60S:XTPStatusBar.obj
 0001:000aa570       ?GetPaneStyle@CXTPStatusBar@@QBEIH@Z 004ab570 f   ToolkitPro1501vc60S:XTPStatusBar.obj
 0001:000aa590       ?SetPaneStyle@CXTPStatusBar@@QAEXHI@Z 004ab590 f   ToolkitPro1501vc60S:XTPStatusBar.obj
 0001:000aa5b0       ?SetPaneInfo@CXTPStatusBar@@QAEXHIIH@Z 004ab5b0 f   ToolkitPro1501vc60S:XTPStatusBar.obj
 0001:000aa630       ?SetPaneText@CXTPStatusBar@@QAEHHPBD@Z 004ab630 f   ToolkitPro1501vc60S:XTPStatusBar.obj
 0001:000aa660       ?CalcFixedLayout@CXTPStatusBar@@MAE?AVCSize@@HH@Z 004ab660 f   ToolkitPro1501vc60S:XTPStatusBar.obj
 0001:000aa750       ?GetMessageMap@CXTPStatusBar@@MBEPBUAFX_MSGMAP@@XZ 004ab750 f   ToolkitPro1501vc60S:XTPStatusBar.obj
 0001:000aa760       ?OnCreate@CXTPStatusBar@@QAEHPAUtagCREATESTRUCTA@@@Z 004ab760 f   ToolkitPro1501vc60S:XTPStatusBar.obj
 0001:000aa780       ?OnSysCommand@CXTPStatusBar@@IAEXIJ@Z 004ab780 f   ToolkitPro1501vc60S:XTPStatusBar.obj
 0001:000aa7c0       ?OnNcHitTest@CXTPStatusBar@@IAEJVCPoint@@@Z 004ab7c0 f   ToolkitPro1501vc60S:XTPStatusBar.obj
 0001:000aa8c0       ?SetCustomizationVisible@CXTPStatusBarPane@@QAEXH@Z 004ab8c0 f   ToolkitPro1501vc60S:XTPStatusBar.obj
 0001:000aa8f0       ?GetCustomizationVisible@CXTPStatusBarPane@@QBEHXZ 004ab8f0 f   ToolkitPro1501vc60S:XTPStatusBar.obj
 0001:000aa900       ?GetStatusBarPopup@CXTPStatusBar@@UAEPAVCXTPPopupBar@@XZ 004ab900 f   ToolkitPro1501vc60S:XTPStatusBar.obj
 0001:000aaaa0       ?SetParent@CXTPControl@@MAEXPAVCXTPCommandBar@@@Z 004abaa0 f i ToolkitPro1501vc60S:XTPStatusBar.obj
 0001:000aaab0       ?GetDescription@CXTPControl@@UBE?AVCString@@XZ 004abab0 f i ToolkitPro1501vc60S:XTPStatusBar.obj
 0001:000aab80       ?GetDescription@CXTPControlAction@@QBE?AVCString@@XZ 004abb80 f i ToolkitPro1501vc60S:XTPStatusBar.obj
 0001:000aaba0       ?GetTooltip@CXTPControl@@UBE?AVCString@@XZ 004abba0 f i ToolkitPro1501vc60S:XTPStatusBar.obj
 0001:000aac70       ?GetTooltip@CXTPControlAction@@QBE?AVCString@@XZ 004abc70 f i ToolkitPro1501vc60S:XTPStatusBar.obj
 0001:000aac90       ?GetCaption@CXTPControl@@UBE?AVCString@@XZ 004abc90 f i ToolkitPro1501vc60S:XTPStatusBar.obj
 0001:000aad70       ?GetCaption@CXTPControlAction@@QBE?AVCString@@XZ 004abd70 f i ToolkitPro1501vc60S:XTPStatusBar.obj
 0001:000aada0       ?SetBeginGroup@CXTPControl@@UAEXH@Z 004abda0 f i ToolkitPro1501vc60S:XTPStatusBar.obj
 0001:000aadc0       ?SetEnabled@CXTPControl@@UAEXH@Z 004abdc0 f i ToolkitPro1501vc60S:XTPStatusBar.obj
 0001:000aadf0       ?SetChecked@CXTPControl@@UAEXH@Z 004abdf0 f i ToolkitPro1501vc60S:XTPStatusBar.obj
 0001:000aae10       ?GetSelected@CXTPControl@@UBEHXZ 004abe10 f i ToolkitPro1501vc60S:XTPStatusBar.obj
 0001:000aae20       ?GetPressed@CXTPControl@@UBEHXZ 004abe20 f i ToolkitPro1501vc60S:XTPStatusBar.obj
 0001:000aae30       ?SetRect@CXTPControl@@UAEXVCRect@@@Z 004abe30 f i ToolkitPro1501vc60S:XTPStatusBar.obj
 0001:000aae60       ?IsVisible@CXTPControl@@UBEHK@Z 004abe60 f i ToolkitPro1501vc60S:XTPStatusBar.obj
 0001:000aae90       ?SetHideFlags@CXTPControl@@UAEXK@Z 004abe90 f i ToolkitPro1501vc60S:XTPStatusBar.obj
 0001:000aaea0       ?SetWidth@CXTPControl@@UAEXH@Z 004abea0 f i ToolkitPro1501vc60S:XTPStatusBar.obj
 0001:000aaec0       ?SetHeight@CXTPControl@@UAEXH@Z 004abec0 f i ToolkitPro1501vc60S:XTPStatusBar.obj
 0001:000aaee0       ?PreviewAccel@CXTPCommandBar@@UAEHI@Z 004abee0 f i ToolkitPro1501vc60S:XTPStatusBar.obj
 0001:000aaee0       ?SetPosition@CXTPCommandBar@@UAEHW4XTPBarPosition@@@Z 004abee0 f i ToolkitPro1501vc60S:XTPStatusBar.obj
 0001:000aaee0       ?OnSetPopup@CXTPControl@@MAEHH@Z 004abee0 f i ToolkitPro1501vc60S:XTPStatusBar.obj
 0001:000aaef0       ?OnHookKeyDown@CXTPControl@@MAEHIJ@Z 004abef0 f i ToolkitPro1501vc60S:XTPStatusBar.obj
 0001:000aaef0       ?OnRButtonDown@CXTPControl@@MAEHVCPoint@@@Z 004abef0 f i ToolkitPro1501vc60S:XTPStatusBar.obj
 0001:000aaef0       ?OnRButtonUp@CXTPControl@@MAEHVCPoint@@@Z 004abef0 f i ToolkitPro1501vc60S:XTPStatusBar.obj
 0001:000aaf00       ?OnHookMouseWheel@CXTPControl@@MAEHIFVCPoint@@@Z 004abf00 f i ToolkitPro1501vc60S:XTPStatusBar.obj
 0001:000aaf10       ?OnNavigateButtonClick@CXTPTabManager@@MAEXI@Z 004abf10 f i ToolkitPro1501vc60S:XTPStatusBar.obj
 0001:000aaf10       ?OnActionChanging@CXTPControl@@MAEXH@Z 004abf10 f i ToolkitPro1501vc60S:XTPStatusBar.obj
 0001:000aaf10       ?SetBeginGroup@CControlButtonExpand@CXTPToolBar@@UAEXH@Z 004abf10 f i ToolkitPro1501vc60S:XTPStatusBar.obj
 0001:000aaf10       ?SetBeginGroup@CControlMDIButton@CXTPMenuBar@@UAEXH@Z 004abf10 f i ToolkitPro1501vc60S:XTPStatusBar.obj
 0001:000aaf10       ?OnRenderFocusVisual@CXTPMarkupVisual@@MAEXPAVCXTPMarkupDrawingContext@@@Z 004abf10 f i ToolkitPro1501vc60S:XTPStatusBar.obj
 0001:000aaf10       ?OnCalcDynamicSize@CXTPControl@@UAEXK@Z 004abf10 f i ToolkitPro1501vc60S:XTPStatusBar.obj
 0001:000aaf10       ?SetPaintManager@CXTPTabManager@@UAEXPAVCXTPTabPaintManager@@@Z 004abf10 f i ToolkitPro1501vc60S:XTPStatusBar.obj
 0001:000aaf10       ?OnRender@CXTPMarkupVisual@@MAEXPAVCXTPMarkupDrawingContext@@@Z 004abf10 f i ToolkitPro1501vc60S:XTPStatusBar.obj
 0001:000aaf10       ?OnCaptionButtonRectChanged@CXTPDockingPaneBase@@MAEXPAVCXTPDockingPaneCaptionButton@@@Z 004abf10 f i ToolkitPro1501vc60S:XTPStatusBar.obj
 0001:000aaf10       ?SetBeginGroup@CControlButtonHide@CXTPDialogBar@@UAEXH@Z 004abf10 f i ToolkitPro1501vc60S:XTPStatusBar.obj
 0001:000aaf10       ?SetFocused@CXTPControl@@UAEXH@Z 004abf10 f i ToolkitPro1501vc60S:XTPStatusBar.obj
 0001:000aaf10       ?SetVisible@CXTPCommandBar@@UAEXH@Z 004abf10 f i ToolkitPro1501vc60S:XTPStatusBar.obj
 0001:000aaf10       ?SetCurSel@CXTPControlComboBoxPopupBar@@UAEXH@Z 004abf10 f i ToolkitPro1501vc60S:XTPStatusBar.obj
 0001:000aaf10       ?OnVisibleChanged@CXTPToolTipContextToolTip@@MAEXH@Z 004abf10 f i ToolkitPro1501vc60S:XTPStatusBar.obj
 0001:000aaf10       ?SetBeginGroup@CControlButtonHide@CXTPToolBar@@UAEXH@Z 004abf10 f i ToolkitPro1501vc60S:XTPStatusBar.obj
 0001:000aaf20       ?OnToolHitTest@CXTPControl@@MBEHVCPoint@@PAUtagTOOLINFOA@@@Z 004abf20 f i ToolkitPro1501vc60S:XTPStatusBar.obj
 0001:000aaf30       ?OnExecute@CControlCustomization@CXTPStatusBar@@UAEXXZ 004abf30 f i ToolkitPro1501vc60S:XTPStatusBar.obj
 0001:000aaf90       ?OnRButtonUp@CXTPStatusBar@@IAEXIVCPoint@@@Z 004abf90 f   ToolkitPro1501vc60S:XTPStatusBar.obj
 0001:000ab000       ?OnMouseLeave@CXTPStatusBar@@IAEXXZ 004ac000 f   ToolkitPro1501vc60S:XTPStatusBar.obj
 0001:000ab010       ?HandleMouseMove@CXTPStatusBar@@IAEXVCPoint@@@Z 004ac010 f   ToolkitPro1501vc60S:XTPStatusBar.obj
 0001:000ab100       ?OnMouseMove@CXTPStatusBar@@IAEXIVCPoint@@@Z 004ac100 f   ToolkitPro1501vc60S:XTPStatusBar.obj
 0001:000ab120       ?OnLButtonDblClk@CXTPStatusBar@@IAEXIVCPoint@@@Z 004ac120 f   ToolkitPro1501vc60S:XTPStatusBar.obj
 0001:000ab1e0       ?OnLButtonDown@CXTPStatusBar@@IAEXIVCPoint@@@Z 004ac1e0 f   ToolkitPro1501vc60S:XTPStatusBar.obj
 0001:000ab210       ?OnNcCalcSize@CXTPStatusBar@@IAEXHPAUtagNCCALCSIZE_PARAMS@@@Z 004ac210 f   ToolkitPro1501vc60S:XTPStatusBar.obj
 0001:000ab270       ?OnBarStyleChange@CXTPStatusBar@@MAEXKK@Z 004ac270 f   ToolkitPro1501vc60S:XTPStatusBar.obj
 0001:000ab2a0       ?OnNcPaint@CXTPStatusBar@@IAEXXZ 004ac2a0 f   ToolkitPro1501vc60S:XTPStatusBar.obj
 0001:000ab2b0       ?OnSize@CXTPStatusBar@@QAEXIHH@Z 004ac2b0 f   ToolkitPro1501vc60S:XTPStatusBar.obj
 0001:000ab2d0       ?OnWindowPosChanging@CXTPStatusBar@@IAEXPAUtagWINDOWPOS@@@Z 004ac2d0 f   ToolkitPro1501vc60S:XTPStatusBar.obj
 0001:000ab300       ?OnSetText@CXTPStatusBar@@IAEJIJ@Z 004ac300 f   ToolkitPro1501vc60S:XTPStatusBar.obj
 0001:000ab330       ?OnGetText@CXTPStatusBar@@IAEJIJ@Z 004ac330 f   ToolkitPro1501vc60S:XTPStatusBar.obj
 0001:000ab390       ?OnGetTextLength@CXTPStatusBar@@IAEJIJ@Z 004ac390 f   ToolkitPro1501vc60S:XTPStatusBar.obj
 0001:000ab3c0       ?OnSetMinHeight@CXTPStatusBar@@IAEJIJ@Z 004ac3c0 f   ToolkitPro1501vc60S:XTPStatusBar.obj
 0001:000ab3e0       ?Enable@CStatusCmdUI@CXTPStatusBar@@UAEXH@Z 004ac3e0 f   ToolkitPro1501vc60S:XTPStatusBar.obj
 0001:000ab410       ?SetCheck@CStatusCmdUI@CXTPStatusBar@@UAEXH@Z 004ac410 f   ToolkitPro1501vc60S:XTPStatusBar.obj
 0001:000ab450       ?SetText@CStatusCmdUI@CXTPStatusBar@@UAEXPBD@Z 004ac450 f   ToolkitPro1501vc60S:XTPStatusBar.obj
 0001:000ab470       ?OnUpdateCmdUI@CXTPStatusBar@@MAEXPAVCFrameWnd@@H@Z 004ac470 f   ToolkitPro1501vc60S:XTPStatusBar.obj
 0001:000ab500       ?GetPaintManager@CXTPStatusBar@@QBEPAVCXTPPaintManager@@XZ 004ac500 f   ToolkitPro1501vc60S:XTPStatusBar.obj
 0001:000ab530       ?DrawPaneEntry@CXTPStatusBar@@UAEXPAVCDC@@HVCRect@@@Z 004ac530 f   ToolkitPro1501vc60S:XTPStatusBar.obj
 0001:000ab570       ?OnPaint@CXTPStatusBar@@QAEXXZ 004ac570 f   ToolkitPro1501vc60S:XTPStatusBar.obj
 0001:000ab600       ?OnPrintClient@CXTPStatusBar@@QAEJIJ@Z 004ac600 f   ToolkitPro1501vc60S:XTPStatusBar.obj
 0001:000ab640       ?OnDraw@CXTPStatusBar@@QAEXPAVCDC@@@Z 004ac640 f   ToolkitPro1501vc60S:XTPStatusBar.obj
 0001:000ab810       ?DrawStretch@CXTPStatusBar@@MAEXPAVCDC@@AAVCRect@@@Z 004ac810 f   ToolkitPro1501vc60S:XTPStatusBar.obj
 0001:000ab850       ?PositionControls@CXTPStatusBar@@QAEXXZ 004ac850 f   ToolkitPro1501vc60S:XTPStatusBar.obj
 0001:000ab970       ?OnWindowPosChanged@CXTPStatusBar@@IAEXPAUtagWINDOWPOS@@@Z 004ac970 f   ToolkitPro1501vc60S:XTPStatusBar.obj
 0001:000ab9d0       ?OnIdleUpdateCmdUI@CXTPStatusBar@@QAEJIJ@Z 004ac9d0 f   ToolkitPro1501vc60S:XTPStatusBar.obj
 0001:000aba90       ?OnToolHitTest@CXTPStatusBar@@MBEHVCPoint@@PAUtagTOOLINFOA@@@Z 004aca90 f   ToolkitPro1501vc60S:XTPStatusBar.obj
 0001:000abbd0       ?OnPaneClick@CXTPStatusBar@@UAEXPAVCXTPStatusBarPane@@@Z 004acbd0 f   ToolkitPro1501vc60S:XTPStatusBar.obj
 0001:000abc10       ?OnSwitchPaneClick@CXTPStatusBar@@UAEXPAVCXTPStatusBarPane@@J@Z 004acc10 f   ToolkitPro1501vc60S:XTPStatusBar.obj
 0001:000abc40       ?OnWndMsg@CXTPStatusBar@@MAEHIIJPAJ@Z 004acc40 f   ToolkitPro1501vc60S:XTPStatusBar.obj
 0001:000abcf0       ?LoadState@CXTPStatusBar@@QAEXPBD@Z 004accf0 f   ToolkitPro1501vc60S:XTPStatusBar.obj
 0001:000abec0       ?DoPropExchange@CXTPStatusBar@@UAEXPAVCXTPPropExchange@@@Z 004acec0 f   ToolkitPro1501vc60S:XTPStatusBar.obj
 0001:000ac1e0       ?SaveState@CXTPStatusBar@@QAEXPBD@Z 004ad1e0 f   ToolkitPro1501vc60S:XTPStatusBar.obj
 0001:000ac390       ?GetSwitchCount@CXTPStatusBarSwitchPane@@QBEHXZ 004ad390 f   ToolkitPro1501vc60S:XTPStatusBar.obj
 0001:000ac3a0       ?GetSwitch@CXTPStatusBarSwitchPane@@QBEPAUSWITCH@1@H@Z 004ad3a0 f   ToolkitPro1501vc60S:XTPStatusBar.obj
 0001:000ac3b0       ??1?$CArray@PAVCXTPStatusBarPane@@PAV1@@@UAE@XZ 004ad3b0 f i ToolkitPro1501vc60S:XTPStatusBar.obj
 0001:000ac400       ??_E?$CArray@PAVCXTPStatusBarPane@@PAV1@@@UAEPAXI@Z 004ad400 f i ToolkitPro1501vc60S:XTPStatusBar.obj
 0001:000ac400       ??_G?$CArray@PAVCXTPStatusBarPane@@PAV1@@@UAEPAXI@Z 004ad400 f i ToolkitPro1501vc60S:XTPStatusBar.obj
 0001:000ac420       ??_ECXTPRibbonGroupOption@@WBM@AEPAXI@Z 004ad420 f i ToolkitPro1501vc60S:XTPStatusBar.obj
 0001:000ac420       ??_ECXTPControlToolbar@CXTPControlToolbars@@WBM@AEPAXI@Z 004ad420 f i ToolkitPro1501vc60S:XTPStatusBar.obj
 0001:000ac420       ??_ECXTPControlOleItems@@WBM@AEPAXI@Z 004ad420 f i ToolkitPro1501vc60S:XTPStatusBar.obj
 0001:000ac420       ??_ECControlButtonHide@CXTPToolBar@@WBM@AEPAXI@Z 004ad420 f i ToolkitPro1501vc60S:XTPStatusBar.obj
 0001:000ac420       ??_ECXTPControlRadioButton@@WBM@AEPAXI@Z 004ad420 f i ToolkitPro1501vc60S:XTPStatusBar.obj
 0001:000ac420       ??_ECXTPControlWorkspaceActions@@WBM@AEPAXI@Z 004ad420 f i ToolkitPro1501vc60S:XTPStatusBar.obj
 0001:000ac420       ??_ECXTPControlRecentFileList@@WBM@AEPAXI@Z 004ad420 f i ToolkitPro1501vc60S:XTPStatusBar.obj
 0001:000ac420       ??_ECXTPControlCheckBox@@WBM@AEPAXI@Z 004ad420 f i ToolkitPro1501vc60S:XTPStatusBar.obj
 0001:000ac420       ??_ECControlGroupsScroll@CXTPRibbonScrollableBar@@WBM@AEPAXI@Z 004ad420 f i ToolkitPro1501vc60S:XTPStatusBar.obj
 0001:000ac420       ??_ECControlCustomization@CXTPStatusBar@@WBM@AEPAXI@Z 004ad420 f i ToolkitPro1501vc60S:XTPStatusBar.obj
 0001:000ac420       ??_ECXTPRibbonControlSystemPopupBarListItem@@WBM@AEPAXI@Z 004ad420 f i ToolkitPro1501vc60S:XTPStatusBar.obj
 0001:000ac420       ??_ECXTPControlWindowList@@WBM@AEPAXI@Z 004ad420 f i ToolkitPro1501vc60S:XTPStatusBar.obj
 0001:000ac420       ??_ECControlExpandButton@CXTPPopupBar@@WBM@AEPAXI@Z 004ad420 f i ToolkitPro1501vc60S:XTPStatusBar.obj
 0001:000ac420       ??_ECXTPControlToolbars@@WBM@AEPAXI@Z 004ad420 f i ToolkitPro1501vc60S:XTPStatusBar.obj
 0001:000ac420       ??_ECControlMDIButton@CXTPMenuBar@@WBM@AEPAXI@Z 004ad420 f i ToolkitPro1501vc60S:XTPStatusBar.obj
 0001:000ac420       ??_ECXTPRibbonControlSystemPopupBarButton@@WBM@AEPAXI@Z 004ad420 f i ToolkitPro1501vc60S:XTPStatusBar.obj
 0001:000ac420       ??_ECControlButtonHide@CXTPDialogBar@@WBM@AEPAXI@Z 004ad420 f i ToolkitPro1501vc60S:XTPStatusBar.obj
 0001:000ac420       ??_ECCustomizeButton@CXTPCustomizeSheet@@WBM@AEPAXI@Z 004ad420 f i ToolkitPro1501vc60S:XTPStatusBar.obj
 0001:000ac420       ??_ECControlFileItem@CXTPRibbonControlSystemRecentFileList@@WBM@AEPAXI@Z 004ad420 f i ToolkitPro1501vc60S:XTPStatusBar.obj
 0001:000ac420       ??_ECControlButtonCustomize@CXTPToolBar@@WBM@AEPAXI@Z 004ad420 f i ToolkitPro1501vc60S:XTPStatusBar.obj
 0001:000ac420       ??_ECXTPRibbonBarControlCaptionButton@@WBM@AEPAXI@Z 004ad420 f i ToolkitPro1501vc60S:XTPStatusBar.obj
 0001:000ac420       ??_ECControlQuickAccessCommand@CXTPRibbonBar@@WBM@AEPAXI@Z 004ad420 f i ToolkitPro1501vc60S:XTPStatusBar.obj
 0001:000ac430       ??0CXTPDockingPane@@IAE@PAVCXTPDockingPaneLayout@@@Z 004ad430 f   ToolkitPro1501vc60S:XTPDockingPane.obj
 0001:000ac520       ?SetDockingSite@CXTPDockingPaneBase@@MAEXPAVCWnd@@@Z 004ad520 f i ToolkitPro1501vc60S:XTPDockingPane.obj
 0001:000ac530       ?IsCaptionButtonVisible@CXTPDockingPaneBase@@MAEHPAVCXTPDockingPaneCaptionButton@@@Z 004ad530 f i ToolkitPro1501vc60S:XTPDockingPane.obj
 0001:000ac540       ??_ECXTPDockingPane@@MAEPAXI@Z 004ad540 f i ToolkitPro1501vc60S:XTPDockingPane.obj
 0001:000ac540       ??_GCXTPDockingPane@@MAEPAXI@Z 004ad540 f i ToolkitPro1501vc60S:XTPDockingPane.obj
 0001:000ac560       ??1CXTPDockingPane@@MAE@XZ 004ad560 f   ToolkitPro1501vc60S:XTPDockingPane.obj
 0001:000ac610       ?SetID@CXTPDockingPane@@IAEXH@Z 004ad610 f   ToolkitPro1501vc60S:XTPDockingPane.obj
 0001:000ac680       ?SetWindowRect@CXTPDockingPane@@IAEXVCRect@@@Z 004ad680 f   ToolkitPro1501vc60S:XTPDockingPane.obj
 0001:000ac6c0       ?GetEnabled@CXTPDockingPane@@QBE?AW4XTPDockingPaneEnableOptions@@XZ 004ad6c0 f   ToolkitPro1501vc60S:XTPDockingPane.obj
 0001:000ac6e0       ?OnSizeParent@CXTPDockingPane@@MAEXPAVCWnd@@VCRect@@PAX@Z 004ad6e0 f   ToolkitPro1501vc60S:XTPDockingPane.obj
 0001:000ac7b0       ?SetFocus@CXTPDockingPane@@UAEXXZ 004ad7b0 f   ToolkitPro1501vc60S:XTPDockingPane.obj
 0001:000ac7e0       ?IsFocus@CXTPDockingPane@@QBEHXZ 004ad7e0 f   ToolkitPro1501vc60S:XTPDockingPane.obj
 0001:000ac810       ?SetParentContainer@CXTPDockingPane@@MAEXPAVCXTPDockingPaneBase@@@Z 004ad810 f   ToolkitPro1501vc60S:XTPDockingPane.obj
 0001:000ac870       ?ShowWindow@CXTPDockingPane@@IAEXH@Z 004ad870 f   ToolkitPro1501vc60S:XTPDockingPane.obj
 0001:000ac8b0       ?Close@CXTPDockingPane@@QAEXXZ 004ad8b0 f   ToolkitPro1501vc60S:XTPDockingPane.obj
 0001:000ac8d0       ?Hide@CXTPDockingPane@@QAEXXZ 004ad8d0 f   ToolkitPro1501vc60S:XTPDockingPane.obj
 0001:000ac900       ?Select@CXTPDockingPane@@QAEXXZ 004ad900 f   ToolkitPro1501vc60S:XTPDockingPane.obj
 0001:000ac920       ?GetDockingSite@CXTPDockingPane@@UBEPAVCWnd@@XZ 004ad920 f   ToolkitPro1501vc60S:XTPDockingPane.obj
 0001:000ac930       ?Copy@CXTPDockingPane@@EAEXPAVCXTPDockingPaneBase@@PAV?$CMap@PAVCXTPDockingPaneBase@@PAV1@PAV1@PAV1@@@K@Z 004ad930 f   ToolkitPro1501vc60S:XTPDockingPane.obj
 0001:000ac960       ?Copy@CXTPDockingPane@@MAEXPAV1@@Z 004ad960 f   ToolkitPro1501vc60S:XTPDockingPane.obj
 0001:000aca10       ?IsValid@CXTPDockingPane@@QBEHXZ 004ada10 f   ToolkitPro1501vc60S:XTPDockingPane.obj
 0001:000aca20       ?Attach@CXTPDockingPane@@QAEXPAVCWnd@@@Z 004ada20 f   ToolkitPro1501vc60S:XTPDockingPane.obj
 0001:000acaa0       ?GetTitle@CXTPDockingPane@@UBE?AVCString@@XZ 004adaa0 f   ToolkitPro1501vc60S:XTPDockingPane.obj
 0001:000acac0       ?GetTabCaption@CXTPDockingPane@@UBE?AVCString@@XZ 004adac0 f   ToolkitPro1501vc60S:XTPDockingPane.obj
 0001:000acb10       ?SetTitle@CXTPDockingPane@@QAEXPBD@Z 004adb10 f   ToolkitPro1501vc60S:XTPDockingPane.obj
 0001:000acbd0       ?IsHidden@CXTPDockingPane@@UBEHXZ 004adbd0 f   ToolkitPro1501vc60S:XTPDockingPane.obj
 0001:000acbe0       ?IsSelected@CXTPDockingPane@@QBEHXZ 004adbe0 f   ToolkitPro1501vc60S:XTPDockingPane.obj
 0001:000acc00       ?IsFloating@CXTPDockingPane@@QBEHXZ 004adc00 f   ToolkitPro1501vc60S:XTPDockingPane.obj
 0001:000acc50       ?GetIcon@CXTPDockingPane@@UBEPAVCXTPImageManagerIcon@@H@Z 004adc50 f   ToolkitPro1501vc60S:XTPDockingPane.obj
 0001:000acc80       ?GetItemColor@CXTPDockingPane@@UBEKXZ 004adc80 f   ToolkitPro1501vc60S:XTPDockingPane.obj
 0001:000accc0       ?GetMinMaxInfo@CXTPDockingPane@@UBEXPAUtagMINMAXINFO@@@Z 004adcc0 f   ToolkitPro1501vc60S:XTPDockingPane.obj
 0001:000acd00       ?GetOptions@CXTPDockingPane@@QBEKXZ 004add00 f   ToolkitPro1501vc60S:XTPDockingPane.obj
 0001:000acd20       ?DeletePane@CXTPDockingPaneClientContainer@@MAEXXZ 004add20 f   ToolkitPro1501vc60S:XTPDockingPane.obj
 0001:000acd20       ?DeletePane@CXTPDockingPane@@MAEXXZ 004add20 f   ToolkitPro1501vc60S:XTPDockingPane.obj
 0001:000acd20       ?DeletePane@CXTPDockingPaneSplitterContainer@@MAEXXZ 004add20 f   ToolkitPro1501vc60S:XTPDockingPane.obj
 0001:000acd30       ?GetAccessible@CXTPDockingPane@@MAEPAVCCmdTarget@@XZ 004add30 f   ToolkitPro1501vc60S:XTPDockingPane.obj
 0001:000acd40       ?GetAccessibleParent@CXTPDockingPane@@MAEJPAPAUIDispatch@@@Z 004add40 f   ToolkitPro1501vc60S:XTPDockingPane.obj
 0001:000acd70       ?GetAccessibleChildCount@CXTPDockingPane@@MAEJPAJ@Z 004add70 f   ToolkitPro1501vc60S:XTPDockingPane.obj
 0001:000acda0       ?GetAccessibleChild@CXTPDockingPane@@MAEJUtagVARIANT@@PAPAUIDispatch@@@Z 004adda0 f   ToolkitPro1501vc60S:XTPDockingPane.obj
 0001:000acde0       ?GetAccessibleName@CXTPDockingPane@@MAEJUtagVARIANT@@PAPAG@Z 004adde0 f   ToolkitPro1501vc60S:XTPDockingPane.obj
 0001:000ace70       ?GetAccessibleDescription@CXTPDockingPane@@MAEJUtagVARIANT@@PAPAG@Z 004ade70 f   ToolkitPro1501vc60S:XTPDockingPane.obj
 0001:000acf00       ?GetAccessibleRole@CXTPDockingPane@@MAEJUtagVARIANT@@PAU2@@Z 004adf00 f   ToolkitPro1501vc60S:XTPDockingPane.obj
 0001:000acf40       ?AccessibleSelect@CXTPDockingPane@@MAEJJUtagVARIANT@@@Z 004adf40 f   ToolkitPro1501vc60S:XTPDockingPane.obj
 0001:000acf70       ?GetAccessibleState@CXTPDockingPane@@MAEJUtagVARIANT@@PAU2@@Z 004adf70 f   ToolkitPro1501vc60S:XTPDockingPane.obj
 0001:000acfd0       ?GetAccessibleDefaultAction@CXTPDockingPane@@MAEJUtagVARIANT@@PAPAG@Z 004adfd0 f   ToolkitPro1501vc60S:XTPDockingPane.obj
 0001:000ad000       ?AccessibleDoDefaultAction@CXTPDockingPane@@MAEJUtagVARIANT@@@Z 004ae000 f   ToolkitPro1501vc60S:XTPDockingPane.obj
 0001:000ad030       ?AccessibleLocation@CXTPDockingPane@@MAEJPAJ000UtagVARIANT@@@Z 004ae030 f   ToolkitPro1501vc60S:XTPDockingPane.obj
 0001:000ad150       ?AccessibleHitTest@CXTPDockingPane@@MAEJJJPAUtagVARIANT@@@Z 004ae150 f   ToolkitPro1501vc60S:XTPDockingPane.obj
 0001:000ad170       ?GetInterfaceMap@CXTPDockingPane@@MBEPBUAFX_INTERFACEMAP@@XZ 004ae170 f   ToolkitPro1501vc60S:XTPDockingPane.obj
 0001:000ad180       ??_ECXTPDockingPane@@OBM@AEPAXI@Z 004ae180 f i ToolkitPro1501vc60S:XTPDockingPane.obj
 0001:000ad190       ??_ECXTPDockingPane@@OFE@AEPAXI@Z 004ae190 f i ToolkitPro1501vc60S:XTPDockingPane.obj
 0001:000ad1e0       ??0CLogFont@CXTPPaintManager@@QAE@XZ 004ae1e0 f   ToolkitPro1501vc60S:XTPPaintManager.obj
 0001:000ad200       ??0CNonClientMetrics@CXTPPaintManager@@QAE@XZ 004ae200 f   ToolkitPro1501vc60S:XTPPaintManager.obj
 0001:000ad200       ??0CXTPNonClientMetrics@@QAE@XZ 004ae200 f   ToolkitPro1501vc60S:XTPPaintManager.obj
 0001:000ad230       ?GetRuntimeClass@CXTPPaintManager@@UBEPAUCRuntimeClass@@XZ 004ae230 f   ToolkitPro1501vc60S:XTPPaintManager.obj
 0001:000ad240       ??0CXTPPaintManager@@IAE@XZ 004ae240 f   ToolkitPro1501vc60S:XTPPaintManager.obj
 0001:000ad560       ??_GCXTPPaintManagerFont@@UAEPAXI@Z 004ae560 f i ToolkitPro1501vc60S:XTPPaintManager.obj
 0001:000ad560       ??_ECXTPPaintManagerFont@@UAEPAXI@Z 004ae560 f i ToolkitPro1501vc60S:XTPPaintManager.obj
 0001:000ad580       ??1CXTPPaintManagerFont@@UAE@XZ 004ae580 f i ToolkitPro1501vc60S:XTPPaintManager.obj
 0001:000ad5c0       ?GetGalleryPaintManager@CXTPPaintManager@@UBEPAVCXTPControlGalleryPaintManager@@XZ 004ae5c0 f i ToolkitPro1501vc60S:XTPPaintManager.obj
 0001:000ad5d0       ?GetSliderPaintManager@CXTPPaintManager@@UBEPAVCXTPSliderPaintManager@@XZ 004ae5d0 f i ToolkitPro1501vc60S:XTPPaintManager.obj
 0001:000ad5e0       ?GetProgressPaintManager@CXTPPaintManager@@UBEPAVCXTPProgressPaintManager@@XZ 004ae5e0 f i ToolkitPro1501vc60S:XTPPaintManager.obj
 0001:000ad5f0       ??_GCXTPPaintManager@@MAEPAXI@Z 004ae5f0 f i ToolkitPro1501vc60S:XTPPaintManager.obj
 0001:000ad5f0       ??_ECXTPPaintManager@@MAEPAXI@Z 004ae5f0 f i ToolkitPro1501vc60S:XTPPaintManager.obj
 0001:000ad610       ?GetCurrentSystemTheme@CXTPPaintManager@@QAE?AW4XTPCurrentSystemTheme@@XZ 004ae610 f   ToolkitPro1501vc60S:XTPPaintManager.obj
 0001:000ad650       ?GetXtremeColor@CXTPPaintManager@@QAEKI@Z 004ae650 f   ToolkitPro1501vc60S:XTPPaintManager.obj
 0001:000ad680       ?SetColors@CXTPPaintManager@@QAEXHPBHPBK@Z 004ae680 f   ToolkitPro1501vc60S:XTPPaintManager.obj
 0001:000ad6b0       ??1CXTPPaintManager@@MAE@XZ 004ae6b0 f   ToolkitPro1501vc60S:XTPPaintManager.obj
 0001:000ad880       ?GetIconsInfo@CXTPPaintManager@@QAEPAUXTP_COMMANDBARS_ICONSINFO@@XZ 004ae880 f   ToolkitPro1501vc60S:XTPPaintManager.obj
 0001:000ad890       ?UpdateColors@CXTPPaintManager@@UAEXXZ 004ae890 f   ToolkitPro1501vc60S:XTPPaintManager.obj
 0001:000ad8c0       ?RefreshMetrics@CXTPPaintManager@@UAEXXZ 004ae8c0 f   ToolkitPro1501vc60S:XTPPaintManager.obj
 0001:000ad9f0       ?GetFramePaintManager@CXTPPaintManager@@UAEPAVCXTPFramePaintManager@@XZ 004ae9f0 f   ToolkitPro1501vc60S:XTPPaintManager.obj
 0001:000ada70       ?GetRibbonPaintManager@CXTPPaintManager@@UAEPAVCXTPRibbonPaintManager@@XZ 004aea70 f   ToolkitPro1501vc60S:XTPPaintManager.obj
 0001:000adaf0       ?GetControlHeight@CXTPPaintManager@@QBEHXZ 004aeaf0 f   ToolkitPro1501vc60S:XTPPaintManager.obj
 0001:000adb10       ?CreateTheme@CXTPPaintManager@@SAPAV1@W4XTPPaintTheme@@@Z 004aeb10 f   ToolkitPro1501vc60S:XTPPaintManager.obj
 0001:000add20       ?SetTheme@CXTPPaintManager@@SAXW4XTPPaintTheme@@@Z 004aed20 f   ToolkitPro1501vc60S:XTPPaintManager.obj
 0001:000add50       ?SetCustomTheme@CXTPPaintManager@@SAXPAV1@@Z 004aed50 f   ToolkitPro1501vc60S:XTPPaintManager.obj
 0001:000add80       ?Done@CXTPPaintManager@@SAXXZ 004aed80 f   ToolkitPro1501vc60S:XTPPaintManager.obj
 0001:000adda0       ?Triangle@CXTPPaintManager@@SAXPAVCDC@@VCPoint@@11K@Z 004aeda0 f   ToolkitPro1501vc60S:XTPPaintManager.obj
 0001:000ade70       ?Rectangle@CXTPPaintManager@@QAEXPAVCDC@@VCRect@@HH@Z 004aee70 f   ToolkitPro1501vc60S:XTPPaintManager.obj
 0001:000aded0       ?Draw3dRect@CXTPPaintManager@@QAEXPAVCDC@@VCRect@@HH@Z 004aeed0 f   ToolkitPro1501vc60S:XTPPaintManager.obj
 0001:000adf00       ?_DrawCheckMark@CXTPPaintManager@@IAEXPAVCDC@@VCRect@@KH@Z 004aef00 f   ToolkitPro1501vc60S:XTPPaintManager.obj
 0001:000ae060       ?AlphaEllipse@CXTPPaintManager@@QAEXPAVCDC@@VCRect@@KK@Z 004af060 f   ToolkitPro1501vc60S:XTPPaintManager.obj
 0001:000ae2a0       ?DrawPopupBarRadioMark@CXTPPaintManager@@UAEXPAVCDC@@VCRect@@HK@Z 004af2a0 f   ToolkitPro1501vc60S:XTPPaintManager.obj
 0001:000ae300       ?DrawPopupBarCheckMark@CXTPPaintManager@@UAEXPAVCDC@@VCRect@@HK@Z 004af300 f   ToolkitPro1501vc60S:XTPPaintManager.obj
 0001:000ae390       ?DrawComboExpandMark@CXTPPaintManager@@UAEXPAVCDC@@VCRect@@K@Z 004af390 f   ToolkitPro1501vc60S:XTPPaintManager.obj
 0001:000ae410       ?HorizontalLine@CXTPPaintManager@@QAEXPAVCDC@@HHHK@Z 004af410 f   ToolkitPro1501vc60S:XTPPaintManager.obj
 0001:000ae440       ?VerticalLine@CXTPPaintManager@@QAEXPAVCDC@@HHHK@Z 004af440 f   ToolkitPro1501vc60S:XTPPaintManager.obj
 0001:000ae470       ?Line@CXTPPaintManager@@QAEXPAVCDC@@VCPoint@@1@Z 004af470 f   ToolkitPro1501vc60S:XTPPaintManager.obj
 0001:000ae4a0       ?Line@CXTPPaintManager@@QAEXPAVCDC@@HHHHH@Z 004af4a0 f   ToolkitPro1501vc60S:XTPPaintManager.obj
 0001:000ae540       ?StripMnemonics@CXTPPaintManager@@SAXAAVCString@@@Z 004af540 f   ToolkitPro1501vc60S:XTPPaintManager.obj
 0001:000ae550       ?SplitString@CXTPPaintManager@@IAEXABVCString@@AAV2@1@Z 004af550 f   ToolkitPro1501vc60S:XTPPaintManager.obj
 0001:000ae6a0       ?DrawTextApi@CXTPPaintManager@@SAXPAVCDC@@ABVCString@@PAUtagRECT@@IH@Z 004af6a0 f   ToolkitPro1501vc60S:XTPPaintManager.obj
 0001:000ae900       ?DrawControlText3@CXTPPaintManager@@IAEXPAVCDC@@PAVCXTPControl@@ABVCString@@2VCRect@@HH@Z 004af900 f   ToolkitPro1501vc60S:XTPPaintManager.obj
 0001:000aeb40       ?DrawDropDownGlyph@CXTPPaintManager@@UAEXPAVCDC@@PAVCXTPControl@@VCPoint@@HHHH@Z 004afb40 f   ToolkitPro1501vc60S:XTPPaintManager.obj
 0001:000aebc0       ?DrawControlText2@CXTPPaintManager@@QAE?AVCSize@@PAVCDC@@PAVCXTPControl@@VCRect@@HHH@Z 004afbc0 f   ToolkitPro1501vc60S:XTPPaintManager.obj
 0001:000af110       ?DrawControlText@CXTPPaintManager@@QAE?AVCSize@@PAVCDC@@PAVCXTPControl@@VCRect@@HHHH@Z 004b0110 f   ToolkitPro1501vc60S:XTPPaintManager.obj
 0001:000af480       ?FontExists@CXTPPaintManager@@SAHPBD@Z 004b0480 f   ToolkitPro1501vc60S:XTPPaintManager.obj
 0001:000af490       ?SetCommandBarsFontIndirect@CXTPPaintManager@@QAEXPAUtagLOGFONTA@@H@Z 004b0490 f   ToolkitPro1501vc60S:XTPPaintManager.obj
 0001:000af6b0       ?UpdateFonts@CXTPPaintManager@@UAEXXZ 004b06b0 f   ToolkitPro1501vc60S:XTPPaintManager.obj
 0001:000af900       ?DrawControlEntry@CXTPPaintManager@@UAEXPAVCDC@@PAVCXTPControl@@@Z 004b0900 f   ToolkitPro1501vc60S:XTPPaintManager.obj
 0001:000af9e0       ?GetControlTextColor@CXTPPaintManager@@UAEKPAVCXTPControl@@@Z 004b09e0 f   ToolkitPro1501vc60S:XTPPaintManager.obj
 0001:000afae0       ?GetPopupBarGripperWidth@CXTPPaintManager@@UAEHPAVCXTPCommandBar@@@Z 004b0ae0 f   ToolkitPro1501vc60S:XTPPaintManager.obj
 0001:000afb50       ?GetControlEditBackColor@CXTPPaintManager@@UAEKPAVCXTPControl@@@Z 004b0b50 f   ToolkitPro1501vc60S:XTPPaintManager.obj
 0001:000afb80       ?DrawControlEdit@CXTPPaintManager@@UAE?AVCSize@@PAVCDC@@PAVCXTPControlEdit@@H@Z 004b0b80 f   ToolkitPro1501vc60S:XTPPaintManager.obj
 0001:000b0000       ?DrawControlComboBox@CXTPPaintManager@@UAE?AVCSize@@PAVCDC@@PAVCXTPControlComboBox@@H@Z 004b1000 f   ToolkitPro1501vc60S:XTPPaintManager.obj
 0001:000b04f0       ?DrawControl@CXTPPaintManager@@QAE?AVCSize@@PAVCDC@@PAVCXTPControl@@H@Z 004b14f0 f   ToolkitPro1501vc60S:XTPPaintManager.obj
 0001:000b05a0       ?FillDockBar@CXTPPaintManager@@UAEXPAVCDC@@PAVCXTPDockBar@@@Z 004b15a0 f   ToolkitPro1501vc60S:XTPPaintManager.obj
 0001:000b05e0       ?FillMessageBar@CXTPPaintManager@@UAEXPAVCDC@@PAVCXTPMessageBar@@@Z 004b15e0 f   ToolkitPro1501vc60S:XTPPaintManager.obj
 0001:000b0690       ?DrawMessageBarButton@CXTPPaintManager@@UAEXPAVCDC@@PAVCXTPMessageBarButton@@@Z 004b1690 f   ToolkitPro1501vc60S:XTPPaintManager.obj
 0001:000b08e0       ?FillStatusBar@CXTPPaintManager@@UAEXPAVCDC@@PAVCXTPStatusBar@@@Z 004b18e0 f   ToolkitPro1501vc60S:XTPPaintManager.obj
 0001:000b0960       ?GetControlTextOrientation@CXTPPaintManager@@UAE?AW4XTPBarTextOrientation@@PAVCXTPControl@@@Z 004b1960 f   ToolkitPro1501vc60S:XTPPaintManager.obj
 0001:000b09a0       ?GetControlFont@CXTPPaintManager@@UAEPAVCFont@@PAVCXTPControl@@@Z 004b19a0 f   ToolkitPro1501vc60S:XTPPaintManager.obj
 0001:000b0a00       ?GetCommandBarFont@CXTPPaintManager@@UAEPAVCFont@@PAVCXTPCommandBar@@@Z 004b1a00 f   ToolkitPro1501vc60S:XTPPaintManager.obj
 0001:000b0a40       ?DrawSpecialControl@CXTPPaintManager@@UAE?AVCSize@@PAVCDC@@W4XTPSpecialControl@@PAVCXTPControl@@PAVCXTPCommandBar@@HPAX@Z 004b1a40 f   ToolkitPro1501vc60S:XTPPaintManager.obj
 0001:000b10e0       ?DrawControlText@CXTPPaintManager@@IAE?AVCSize@@PAVCDC@@PAVCXTPControl@@VCRect@@HHV2@H@Z 004b20e0 f   ToolkitPro1501vc60S:XTPPaintManager.obj
 0001:000b12b0       ??0CRect@@QAE@ABUtagRECT@@@Z 004b22b0 f i ToolkitPro1501vc60S:XTPPaintManager.obj
 0001:000b12b0       ??0CRect@@QAE@PBUtagRECT@@@Z 004b22b0 f i ToolkitPro1501vc60S:XTPPaintManager.obj
 0001:000b12d0       ?GetSplitButtonCommandRect@CXTPPaintManager@@UAE?AVCRect@@PAVCXTPControl@@@Z 004b22d0 f   ToolkitPro1501vc60S:XTPPaintManager.obj
 0001:000b13d0       ?DrawControlCheckBoxMark@CXTPPaintManager@@UAE?AVCSize@@PAVCDC@@VCRect@@HHHHH@Z 004b23d0 f   ToolkitPro1501vc60S:XTPPaintManager.obj
 0001:000b14b0       ?DrawControlRadioButtonMark@CXTPPaintManager@@UAE?AVCSize@@PAVCDC@@VCRect@@HHHHH@Z 004b24b0 f   ToolkitPro1501vc60S:XTPPaintManager.obj
 0001:000b15a0       ?GetControlSize@CXTPPaintManager@@IAE?AVCSize@@PAVCXTPControl@@V2@H@Z 004b25a0 f   ToolkitPro1501vc60S:XTPPaintManager.obj
 0001:000b1620       ?GetPopupBarImageSize@CXTPPaintManager@@MAE?AVCSize@@PAVCXTPCommandBar@@@Z 004b2620 f   ToolkitPro1501vc60S:XTPPaintManager.obj
 0001:000b1670       ?DrawPopupBarText@CXTPPaintManager@@MAEXPAVCDC@@ABVCString@@AAVCRect@@IHHH@Z 004b2670 f   ToolkitPro1501vc60S:XTPPaintManager.obj
 0001:000b1780       ?DrawControlPopupParent@CXTPPaintManager@@UAE?AVCSize@@PAVCDC@@PAVCXTPControl@@H@Z 004b2780 f   ToolkitPro1501vc60S:XTPPaintManager.obj
 0001:000b1e20       ?GetShortcutText@CXTPControl@@QBE?AVCString@@XZ 004b2e20 f i ToolkitPro1501vc60S:XTPPaintManager.obj
 0001:000b1f00       ?GetShortcutText@CXTPControlAction@@QBE?AVCString@@XZ 004b2f00 f i ToolkitPro1501vc60S:XTPPaintManager.obj
 0001:000b1f20       ?GetIconSize@CXTPPaintManager@@IAE?AVCSize@@PAVCXTPControl@@@Z 004b2f20 f   ToolkitPro1501vc60S:XTPPaintManager.obj
 0001:000b1f80       ?GetSplitDropDownHeight@CXTPPaintManager@@QBEHXZ 004b2f80 f   ToolkitPro1501vc60S:XTPPaintManager.obj
 0001:000b1fb0       ?GetStretchIconSize@CXTPPaintManager@@IAE?AVCSize@@PAVCXTPImageManagerIcon@@V2@@Z 004b2fb0 f   ToolkitPro1501vc60S:XTPPaintManager.obj
 0001:000b2040       ?DrawControlToolBarParent@CXTPPaintManager@@UAE?AVCSize@@PAVCDC@@PAVCXTPControl@@H@Z 004b3040 f   ToolkitPro1501vc60S:XTPPaintManager.obj
 0001:000b2f50       ?GetCommandBarBorders@CXTPPaintManager@@UAE?AVCRect@@PAVCXTPCommandBar@@@Z 004b3f50 f   ToolkitPro1501vc60S:XTPPaintManager.obj
 0001:000b2f80       ?GradientFill@CXTPPaintManager@@QAEXPAVCDC@@PAUtagRECT@@KKHPBU3@@Z 004b3f80 f   ToolkitPro1501vc60S:XTPPaintManager.obj
 0001:000b2fb0       ?DrawStatusBarGripper@CXTPPaintManager@@UAEXPAVCDC@@VCRect@@@Z 004b3fb0 f   ToolkitPro1501vc60S:XTPPaintManager.obj
 0001:000b31b0       ?AnimateExpanding@CXTPPaintManager@@UAEXPAVCXTPCommandBar@@PAVCDC@@1H@Z 004b41b0 f   ToolkitPro1501vc60S:XTPPaintManager.obj
 0001:000b3510       ?AlphaBlendU@CXTPPaintManager@@IAEXPAE0HH0E@Z 004b4510 f   ToolkitPro1501vc60S:XTPPaintManager.obj
 0001:000b35c0       ?Animate@CXTPPaintManager@@UAEXPAVCDC@@0VCRect@@W4XTPAnimationType@@@Z 004b45c0 f   ToolkitPro1501vc60S:XTPPaintManager.obj
 0001:000b3a30       ?DrawStatusBarButtonFace@CXTPPaintManager@@UAEXPAVCDC@@VCRect@@PAVCXTPStatusBarPane@@@Z 004b4a30 f   ToolkitPro1501vc60S:XTPPaintManager.obj
 0001:000b3ac0       ?DrawStatusBarPaneBorder@CXTPPaintManager@@UAEXPAVCDC@@VCRect@@PAVCXTPStatusBarPane@@H@Z 004b4ac0 f   ToolkitPro1501vc60S:XTPPaintManager.obj
 0001:000b3b50       ?DrawStatusBarPaneSeparator@CXTPPaintManager@@UAEXPAVCDC@@VCRect@@PAVCXTPStatusBarPane@@@Z 004b4b50 f   ToolkitPro1501vc60S:XTPPaintManager.obj
 0001:000b3b90       ?DrawStatusBarPaneEntry@CXTPPaintManager@@UAEXPAVCDC@@VCRect@@PAVCXTPStatusBarPane@@@Z 004b4b90 f   ToolkitPro1501vc60S:XTPPaintManager.obj
 0001:000b3f80       ??0CPoint@@QAE@HH@Z        004b4f80 f i ToolkitPro1501vc60S:XTPPaintManager.obj
 0001:000b3fa0       ?DrawStatusBarSwitchPane@CXTPPaintManager@@UAEHPAVCDC@@VCRect@@PAVCXTPStatusBarSwitchPane@@@Z 004b4fa0 f   ToolkitPro1501vc60S:XTPPaintManager.obj
 0001:000b4160       ?DrawCommandBarGripper@CXTPPaintManager@@UAE?AVCSize@@PAVCDC@@PAVCXTPCommandBar@@H@Z 004b5160 f   ToolkitPro1501vc60S:XTPPaintManager.obj
 0001:000b4330       ?IsFlatToolBar@CXTPPaintManager@@MAEHPAVCXTPCommandBar@@@Z 004b5330 f   ToolkitPro1501vc60S:XTPPaintManager.obj
 0001:000b4350       ?FillWorkspace@CXTPPaintManager@@UAEXPAVCDC@@VCRect@@1@Z 004b5350 f   ToolkitPro1501vc60S:XTPPaintManager.obj
 0001:000b4370       ?FillCompositeAlpha@CXTPPaintManager@@SAXPAVCDC@@VCRect@@@Z 004b5370 f   ToolkitPro1501vc60S:XTPPaintManager.obj
 0001:000b44a0       ?DrawKeyboardTip@CXTPPaintManager@@UAEXPAVCDC@@PAVCXTPCommandBarKeyboardTip@@H@Z 004b54a0 f   ToolkitPro1501vc60S:XTPPaintManager.obj
 0001:000b4590       ?GetAutoIconSize@CXTPPaintManager@@QBE?AVCSize@@H@Z 004b5590 f   ToolkitPro1501vc60S:XTPPaintManager.obj
 0001:000b4630       ?DrawControlMDIButton@CXTPPaintManager@@UAEXPAVCDC@@PAVCXTPControlButton@@@Z 004b5630 f   ToolkitPro1501vc60S:XTPPaintManager.obj
 0001:000b4750       ?GetTitle@CFrameWnd@@QBE?AVCString@@XZ 004b5750 f i ToolkitPro1501vc60S:XTPPaintManager.obj
 0001:000b4750       ?GetParameter@CXTPControl@@QBE?AVCString@@XZ 004b5750 f i ToolkitPro1501vc60S:XTPPaintManager.obj
 0001:000b4780       ??0CXTPPaintManagerColor@@QAE@XZ 004b5780 f   ToolkitPro1501vc60S:XTPColorManager.obj
 0001:000b47a0       ??0CXTPPaintManagerColor@@QAE@K@Z 004b57a0 f   ToolkitPro1501vc60S:XTPColorManager.obj
 0001:000b47c0       ?Serialize@CXTPPaintManagerColor@@UAEXAAVCArchive@@@Z 004b57c0 f   ToolkitPro1501vc60S:XTPColorManager.obj
 0001:000b4880       ??0CXTPPaintManagerColorGradient@@QAE@XZ 004b5880 f   ToolkitPro1501vc60S:XTPColorManager.obj
 0001:000b48b0       ??0CXTPPaintManagerColorGradient@@QAE@K@Z 004b58b0 f   ToolkitPro1501vc60S:XTPColorManager.obj
 0001:000b48f0       ?SetStandardValue@CXTPPaintManagerColorGradient@@QAEXK@Z 004b58f0 f   ToolkitPro1501vc60S:XTPColorManager.obj
 0001:000b4910       ?SetStandardValue@CXTPPaintManagerColorGradient@@QAEXKKM@Z 004b5910 f   ToolkitPro1501vc60S:XTPColorManager.obj
 0001:000b4930       ?SetStandardValue@CXTPPaintManagerColorGradient@@QAEXAAV1@@Z 004b5930 f   ToolkitPro1501vc60S:XTPColorManager.obj
 0001:000b4960       ?Serialize@CXTPPaintManagerColorGradient@@UAEXAAVCArchive@@@Z 004b5960 f   ToolkitPro1501vc60S:XTPColorManager.obj
 0001:000b49f0       ??0CXTPColorManager@@AAE@XZ 004b59f0 f   ToolkitPro1501vc60S:XTPColorManager.obj
 0001:000b4b40       ?Instance@CXTPColorManager@@CAAAV1@XZ 004b5b40 f   ToolkitPro1501vc60S:XTPColorManager.obj
 0001:000b4b90       ?ColorWidth@CXTPColorManager@@AAEMHH@Z 004b5b90 f   ToolkitPro1501vc60S:XTPColorManager.obj
 0001:000b4bc0       ?ColorDelta@CXTPColorManager@@AAEMKK@Z 004b5bc0 f   ToolkitPro1501vc60S:XTPColorManager.obj
 0001:000b4c50       ?Length@CXTPColorManager@@AAEMKK@Z 004b5c50 f   ToolkitPro1501vc60S:XTPColorManager.obj
 0001:000b4c70       ?LongColor@CXTPColorManager@@QAEHKKHM@Z 004b5c70 f   ToolkitPro1501vc60S:XTPColorManager.obj
 0001:000b4cf0       ?MixColor@CXTPColorManager@@AAEKKKM@Z 004b5cf0 f   ToolkitPro1501vc60S:XTPColorManager.obj
 0001:000b5080       ?AdjustColor@CXTPColorManager@@AAEKKKM@Z 004b6080 f   ToolkitPro1501vc60S:XTPColorManager.obj
 0001:000b5310       ?LightColor@CXTPColorManager@@QBEKKKH@Z 004b6310 f   ToolkitPro1501vc60S:XTPColorManager.obj
 0001:000b53d0       ?GetColor@CXTPColorManager@@QBEKH@Z 004b63d0 f   ToolkitPro1501vc60S:XTPColorManager.obj
 0001:000b5400       ?RefreshSysColors@CXTPColorManager@@AAEXXZ 004b6400 f   ToolkitPro1501vc60S:XTPColorManager.obj
 0001:000b5450       ?RefreshXPColors@CXTPColorManager@@AAEXXZ 004b6450 f   ToolkitPro1501vc60S:XTPColorManager.obj
 0001:000b55b0       ?RefreshGradientColors@CXTPColorManager@@AAEXXZ 004b65b0 f   ToolkitPro1501vc60S:XTPColorManager.obj
 0001:000b5a20       ?RefreshXtremeColors@@YAXXZ 004b6a20 f   ToolkitPro1501vc60S:XTPColorManager.obj
 0001:000b5a30       ?IsLowResolution@CXTPColorManager@@QAEHPAUHDC__@@@Z 004b6a30 f   ToolkitPro1501vc60S:XTPColorManager.obj
 0001:000b5ab0       ?RefreshColors@CXTPColorManager@@QAEXXZ 004b6ab0 f   ToolkitPro1501vc60S:XTPColorManager.obj
 0001:000b64f0       ?GetLunaColor@CXTPColorManager@@QBEKH@Z 004b74f0 f   ToolkitPro1501vc60S:XTPColorManager.obj
 0001:000b6520       ?RefreshLunaColors@CXTPColorManager@@QAEXXZ 004b7520 f   ToolkitPro1501vc60S:XTPColorManager.obj
 0001:000b67e0       ?GetRDelta@CXTPColorManager@@AAENK@Z 004b77e0 f   ToolkitPro1501vc60S:XTPColorManager.obj
 0001:000b6800       ?GetGDelta@CXTPColorManager@@AAENK@Z 004b7800 f   ToolkitPro1501vc60S:XTPColorManager.obj
 0001:000b6820       ?GetBDelta@CXTPColorManager@@AAENK@Z 004b7820 f   ToolkitPro1501vc60S:XTPColorManager.obj
 0001:000b6840       ?DisableLunaColors@CXTPColorManager@@QAEXH@Z 004b7840 f   ToolkitPro1501vc60S:XTPColorManager.obj
 0001:000b6850       ?IsLunaColorsDisabled@CXTPColorManager@@QBEHXZ 004b7850 f   ToolkitPro1501vc60S:XTPColorManager.obj
 0001:000b6860       ?GetWinThemeWrapperTheme@CXTPColorManager@@QBE?AW4XTPCurrentSystemTheme@@XZ 004b7860 f   ToolkitPro1501vc60S:XTPColorManager.obj
 0001:000b6870       ?_GetWinThemeWrapperTheme@CXTPColorManager@@AAE?AW4XTPCurrentSystemTheme@@XZ 004b7870 f   ToolkitPro1501vc60S:XTPColorManager.obj
 0001:000b6b30       ?GetCurrentSystemTheme@CXTPColorManager@@QBE?AW4XTPCurrentSystemTheme@@XZ 004b7b30 f   ToolkitPro1501vc60S:XTPColorManager.obj
 0001:000b6bb0       ?BitmapsCompatible@CXTPImageManager@@ABEHPAUtagBITMAP@@0@Z 004b7bb0 f   ToolkitPro1501vc60S:XTPImageManager.obj
 0001:000b6c00       ?McTransparentBlt@CXTPImageManager@@ABEHPAUHDC__@@HHHH0HHHHI@Z 004b7c00 f   ToolkitPro1501vc60S:XTPImageManager.obj
 0001:000b6ea0       ?IsWindow2000@CXTPImageManager@@ABEHXZ 004b7ea0 f   ToolkitPro1501vc60S:XTPImageManager.obj
 0001:000b6ec0       ?TransparentBlt@CXTPImageManager@@QBEHPAUHDC__@@ABVCRect@@01I@Z 004b7ec0 f   ToolkitPro1501vc60S:XTPImageManager.obj
 0001:000b6f90       ?BlendImages@CXTPImageManager@@ABEHPAUHBITMAP__@@H0H0@Z 004b7f90 f   ToolkitPro1501vc60S:XTPImageManager.obj
 0001:000b71d0       ?Create32BPPDIBSection@CXTPImageManager@@SAPAUHBITMAP__@@PAUHDC__@@HHPAPAE@Z 004b81d0 f   ToolkitPro1501vc60S:XTPImageManager.obj
 0001:000b7240       ?DoAlphaBlend@CXTPImageManager@@ABEHPAUHDC__@@HHHH0HHHH@Z 004b8240 f   ToolkitPro1501vc60S:XTPImageManager.obj
 0001:000b7480       ?AlphaBlend@CXTPImageManager@@QBEHPAUHDC__@@ABVCRect@@01@Z 004b8480 f   ToolkitPro1501vc60S:XTPImageManager.obj
 0001:000b75d0       ??1CXTPImageManagerImageList@@QAE@XZ 004b85d0 f   ToolkitPro1501vc60S:XTPImageManager.obj
 0001:000b7680       ?RemoveAll@CXTPImageManagerImageList@@QAEXXZ 004b8680 f   ToolkitPro1501vc60S:XTPImageManager.obj
 0001:000b7730       ?Lookup@CXTPImageManagerImageList@@QAEHI@Z 004b8730 f   ToolkitPro1501vc60S:XTPImageManager.obj
 0001:000b7760       ?GetIconSize@CXTPImageManagerImageList@@QBE?AVCSize@@XZ 004b8760 f   ToolkitPro1501vc60S:XTPImageManager.obj
 0001:000b77a0       ?GetIcon@CXTPImageManagerImageList@@QAEPAVCXTPImageManagerIcon@@I@Z 004b87a0 f   ToolkitPro1501vc60S:XTPImageManager.obj
 0001:000b7940       ?Draw@CXTPImageManagerImageList@@QAEXPAVCDC@@VCPoint@@PAVCXTPImageManagerIcon@@VCSize@@KKI@Z 004b8940 f   ToolkitPro1501vc60S:XTPImageManager.obj
 0001:000b79a0       ?IsAlphaBitmapFile@CXTPImageManagerIcon@@SAHPBD@Z 004b89a0 f   ToolkitPro1501vc60S:XTPImageManager.obj
 0001:000b7a40       ?IsPngBitmapFile@CXTPImageManagerIcon@@SAHPBD@Z 004b8a40 f   ToolkitPro1501vc60S:XTPImageManager.obj
 0001:000b7ae0       ?LoadBitmapFromFile@CXTPImageManagerIcon@@SAPAUHBITMAP__@@PBDPAH@Z 004b8ae0 f   ToolkitPro1501vc60S:XTPImageManager.obj
 0001:000b7d80       ??1CXTPGraphicBitmapPng@@UAE@XZ 004b8d80 f i ToolkitPro1501vc60S:XTPImageManager.obj
 0001:000b7dc0       ?IsPngBitmapResource@CXTPImageManagerIcon@@SAHPAUHINSTANCE__@@PBD@Z 004b8dc0 f   ToolkitPro1501vc60S:XTPImageManager.obj
 0001:000b7e20       ?IsAlphaBitmapResource@CXTPImageManagerIcon@@SAHPAUHINSTANCE__@@PBD@Z 004b8e20 f   ToolkitPro1501vc60S:XTPImageManager.obj
 0001:000b7e70       ?LoadBitmapFromResource@CXTPImageManagerIcon@@SAPAUHBITMAP__@@PBDPAH@Z 004b8e70 f   ToolkitPro1501vc60S:XTPImageManager.obj
 0001:000b7fd0       ?LoadBitmapFromResource@CXTPImageManagerIcon@@SAPAUHBITMAP__@@PAUHINSTANCE__@@PBDPAH@Z 004b8fd0 f   ToolkitPro1501vc60S:XTPImageManager.obj
 0001:000b8120       ?LoadAlphaBitmap@CXTPImageManagerIcon@@SAPAUHBITMAP__@@I@Z 004b9120 f   ToolkitPro1501vc60S:XTPImageManager.obj
 0001:000b8140       ?LoadAlphaBitmap@CXTPImageManagerIcon@@SAPAUHBITMAP__@@PAUHINSTANCE__@@PBD@Z 004b9140 f   ToolkitPro1501vc60S:XTPImageManager.obj
 0001:000b82f0       ?LoadAlphaIcon@CXTPImageManagerIcon@@SAPAUHBITMAP__@@PBDH@Z 004b92f0 f   ToolkitPro1501vc60S:XTPImageManager.obj
 0001:000b85a0       ?SetIconFromIcoFile@CXTPImageManager@@QAEHPBDIVCSize@@W4XTPImageState@@@Z 004b95a0 f   ToolkitPro1501vc60S:XTPImageManager.obj
 0001:000b8910       ??0CXTPImageManagerResource@@QAE@PAVCXTPImageManager@@VCSize@@@Z 004b9910 f   ToolkitPro1501vc60S:XTPImageManager.obj
 0001:000b89e0       ??1CBitmapDC@CXTPImageManagerResource@@UAE@XZ 004b99e0 f i ToolkitPro1501vc60S:XTPImageManager.obj
 0001:000b8a20       ??_ECBitmapDC@CXTPImageManagerResource@@UAEPAXI@Z 004b9a20 f i ToolkitPro1501vc60S:XTPImageManager.obj
 0001:000b8a20       ??_GCBitmapDC@CXTPImageManagerResource@@UAEPAXI@Z 004b9a20 f i ToolkitPro1501vc60S:XTPImageManager.obj
 0001:000b8a40       ??1CXTPImageManagerResource@@QAE@XZ 004b9a40 f   ToolkitPro1501vc60S:XTPImageManager.obj
 0001:000b8b00       ?RemoveAll@CXTPImageManagerResource@@AAEXXZ 004b9b00 f   ToolkitPro1501vc60S:XTPImageManager.obj
 0001:000b8ba0       ?GetResource@CXTPImageManager@@QAEPAVCXTPImageManagerResource@@VCSize@@@Z 004b9ba0 f   ToolkitPro1501vc60S:XTPImageManager.obj
 0001:000b8d30       ?AllocBitmap@CXTPImageManagerResource@@AAEPAUXTP_IMAGERESOURCE_INFO@@XZ 004b9d30 f   ToolkitPro1501vc60S:XTPImageManager.obj
 0001:000b90e0       ?Clear@CXTPImageManagerResource@@QAEXPAUXTP_IMAGERESOURCE_INFO@@@Z 004ba0e0 f   ToolkitPro1501vc60S:XTPImageManager.obj
 0001:000b91b0       ?IsAlphaIconHandle@CXTPImageManagerIcon@@SAHPAUHICON__@@@Z 004ba1b0 f   ToolkitPro1501vc60S:XTPImageManager.obj
 0001:000b9260       ?Add@CXTPImageManagerResource@@QAEPAUXTP_IMAGERESOURCE_INFO@@ABVCXTPImageManagerIconHandle@@@Z 004ba260 f   ToolkitPro1501vc60S:XTPImageManager.obj
 0001:000b95c0       ?IsDrawReverted@CXTPImageManager@@QBEHPAVCDC@@@Z 004ba5c0 f   ToolkitPro1501vc60S:XTPImageManager.obj
 0001:000b95f0       ?CreateIcon@CXTPImageManagerResource@@QAEXAAVCXTPImageManagerIconHandle@@PAUXTP_IMAGERESOURCE_INFO@@@Z 004ba5f0 f   ToolkitPro1501vc60S:XTPImageManager.obj
 0001:000b9820       ?DrawIconComposited@CXTPImageManagerResource@@AAEXPAVCDC@@PAUXTP_IMAGERESOURCE_INFO@@VCPoint@@VCSize@@@Z 004ba820 f   ToolkitPro1501vc60S:XTPImageManager.obj
 0001:000b9aa0       ?Draw@CXTPImageManagerResource@@QAEXPAVCDC@@PAUXTP_IMAGERESOURCE_INFO@@VCPoint@@VCSize@@H@Z 004baaa0 f   ToolkitPro1501vc60S:XTPImageManager.obj
 0001:000b9db0       ?GetExtent@CXTPImageManagerResource@@QBE?AVCSize@@XZ 004badb0 f   ToolkitPro1501vc60S:XTPImageManager.obj
 0001:000b9dd0       ?Init@CXTPImageManagerIconHandle@@IAEXXZ 004badd0 f   ToolkitPro1501vc60S:XTPImageManager.obj
 0001:000b9e00       ??0CXTPImageManagerIconHandle@@QAE@XZ 004bae00 f   ToolkitPro1501vc60S:XTPImageManager.obj
 0001:000b9e10       ??0CXTPImageManagerIconHandle@@QAE@PAUHICON__@@H@Z 004bae10 f   ToolkitPro1501vc60S:XTPImageManager.obj
 0001:000b9e50       ??0CXTPImageManagerIconHandle@@QAE@PAUHBITMAP__@@@Z 004bae50 f   ToolkitPro1501vc60S:XTPImageManager.obj
 0001:000b9e90       ?CopyHandle@CXTPImageManagerIconHandle@@QAEXPAUHBITMAP__@@@Z 004bae90 f   ToolkitPro1501vc60S:XTPImageManager.obj
 0001:000b9ee0       ?CopyHandle@CXTPImageManagerIconHandle@@QAEXABV1@@Z 004baee0 f   ToolkitPro1501vc60S:XTPImageManager.obj
 0001:000ba020       ??4CXTPImageManagerIconHandle@@QAEABV0@QAUHICON__@@@Z 004bb020 f   ToolkitPro1501vc60S:XTPImageManager.obj
 0001:000ba060       ??4CXTPImageManagerIconHandle@@QAEABV0@QAUHBITMAP__@@@Z 004bb060 f   ToolkitPro1501vc60S:XTPImageManager.obj
 0001:000ba0a0       ??1CXTPImageManagerIconHandle@@QAE@XZ 004bb0a0 f   ToolkitPro1501vc60S:XTPImageManager.obj
 0001:000ba0b0       ?IsEmpty@CXTPImageManagerIconHandle@@QBEHXZ 004bb0b0 f   ToolkitPro1501vc60S:XTPImageManager.obj
 0001:000ba0e0       ?IsAlpha@CXTPImageManagerIconHandle@@QBEHXZ 004bb0e0 f   ToolkitPro1501vc60S:XTPImageManager.obj
 0001:000ba100       ?GetBitmap@CXTPImageManagerIconHandle@@QBEPAUHBITMAP__@@XZ 004bb100 f   ToolkitPro1501vc60S:XTPImageManager.obj
 0001:000ba120       ??CCXTPMarkupAutoPtr@@QBEPAVCXTPMarkupObject@@XZ 004bb120 f   ToolkitPro1501vc60S:XTPImageManager.obj
 0001:000ba120       ??BCXTPA2W@CXTPResourceManager@@QBEPBGXZ 004bb120 f   ToolkitPro1501vc60S:XTPImageManager.obj
 0001:000ba120       ?GetIcon@CXTPImageManagerIconHandle@@QBEPAUHICON__@@XZ 004bb120 f   ToolkitPro1501vc60S:XTPImageManager.obj
 0001:000ba130       ?Clear@CXTPImageManagerIconHandle@@QAEXXZ 004bb130 f   ToolkitPro1501vc60S:XTPImageManager.obj
 0001:000ba180       ?GetExtent@CXTPImageManagerIconHandle@@QBE?AVCSize@@XZ 004bb180 f   ToolkitPro1501vc60S:XTPImageManager.obj
 0001:000ba1a0       ?_GetExtent@CXTPImageManagerIconHandle@@ABE?AVCSize@@XZ 004bb1a0 f   ToolkitPro1501vc60S:XTPImageManager.obj
 0001:000ba240       ?Draw@CXTPImageManagerIconHandle@@QAEXPAVCDC@@VCPoint@@VCSize@@H@Z 004bb240 f   ToolkitPro1501vc60S:XTPImageManager.obj
 0001:000ba3b0       ?CreateIconFromResource@CXTPImageManagerIconHandle@@QAEHPBDVCSize@@H@Z 004bb3b0 f   ToolkitPro1501vc60S:XTPImageManager.obj
 0001:000ba420       ?CreateIconFromResource@CXTPImageManagerIconHandle@@QAEHPAUHINSTANCE__@@PBDVCSize@@H@Z 004bb420 f   ToolkitPro1501vc60S:XTPImageManager.obj
 0001:000ba680       ?PreMultiply@CXTPImageManagerIconHandle@@QAEPAEXZ 004bb680 f   ToolkitPro1501vc60S:XTPImageManager.obj
 0001:000ba700       ?IsAlpha@CXTPImageManagerIcon@@QBEHXZ 004bb700 f   ToolkitPro1501vc60S:XTPImageManager.obj
 0001:000ba710       ?PreMultiplyAlphaBitmap@CXTPImageManagerIcon@@SAPAUHBITMAP__@@PAU2@PAHPAPAE@Z 004bb710 f   ToolkitPro1501vc60S:XTPImageManager.obj
 0001:000ba960       ?GetBitmapBits@CXTPImageManagerIcon@@SAHAAVCDC@@PAUHBITMAP__@@AAPAUtagBITMAPINFO@@AAPAXAAI@Z 004bb960 f   ToolkitPro1501vc60S:XTPImageManager.obj
 0001:000baab0       ?CopyAlphaBitmap@CXTPImageManagerIcon@@SAPAUHBITMAP__@@PAU2@PAPAE@Z 004bbab0 f   ToolkitPro1501vc60S:XTPImageManager.obj
 0001:000babf0       ??0CXTPImageManagerIcon@@QAE@IHHPAVCXTPImageManagerIconSet@@@Z 004bbbf0 f   ToolkitPro1501vc60S:XTPImageManager.obj
 0001:000bacd0       ??_GCXTPImageManagerIcon@@UAEPAXI@Z 004bbcd0 f i ToolkitPro1501vc60S:XTPImageManager.obj
 0001:000bacd0       ??_ECXTPImageManagerIcon@@UAEPAXI@Z 004bbcd0 f i ToolkitPro1501vc60S:XTPImageManager.obj
 0001:000bacf0       ??0CXTPImageManagerIcon@@QAE@IHHPAVCXTPImageManagerImageList@@@Z 004bbcf0 f   ToolkitPro1501vc60S:XTPImageManager.obj
 0001:000bad80       ??1CXTPImageManagerIcon@@UAE@XZ 004bbd80 f   ToolkitPro1501vc60S:XTPImageManager.obj
 0001:000bae50       ?GetID@CXTPImageManagerIcon@@QBEIXZ 004bbe50 f   ToolkitPro1501vc60S:XTPImageManager.obj
 0001:000bae50       ?GetIndex@CXTPControlGalleryItem@@QBEHXZ 004bbe50 f   ToolkitPro1501vc60S:XTPImageManager.obj
 0001:000bae60       ?GetCount@CXTPCommandBarList@@QBEHXZ 004bbe60 f   ToolkitPro1501vc60S:XTPImageManager.obj
 0001:000bae60       ?GetCount@CXTPMenuBarMDIMenus@@QBEHXZ 004bbe60 f   ToolkitPro1501vc60S:XTPImageManager.obj
 0001:000bae60       ?GetHeight@CXTPImageManagerIcon@@QBEHXZ 004bbe60 f   ToolkitPro1501vc60S:XTPImageManager.obj
 0001:000bae70       ?GetDrawStyle@CXTPHeaderCtrlTheme@@UBEKXZ 004bbe70 f   ToolkitPro1501vc60S:XTPImageManager.obj
 0001:000bae70       ?GetCount@CXTPControlActions@@QBEHXZ 004bbe70 f   ToolkitPro1501vc60S:XTPImageManager.obj
 0001:000bae70       ?GetWidth@CXTPImageManagerIcon@@QBEHXZ 004bbe70 f   ToolkitPro1501vc60S:XTPImageManager.obj
 0001:000bae70       ?GetStyle@CXTPStatusBarPane@@QBEIXZ 004bbe70 f   ToolkitPro1501vc60S:XTPImageManager.obj
 0001:000bae80       ?Clear@CXTPImageManagerIcon@@AAEXH@Z 004bbe80 f   ToolkitPro1501vc60S:XTPImageManager.obj
 0001:000baee0       ?Refresh@CXTPImageManagerIcon@@QAEXXZ 004bbee0 f   ToolkitPro1501vc60S:XTPImageManager.obj
 0001:000baf00       ?GetIcon@CXTPImageManagerIcon@@QAEAAVCXTPImageManagerIconHandle@@XZ 004bbf00 f   ToolkitPro1501vc60S:XTPImageManager.obj
 0001:000baf10       ?GetIcon@CXTPImageManagerIcon@@QAEAAVCXTPImageManagerIconHandle@@W4XTPImageState@@@Z 004bbf10 f   ToolkitPro1501vc60S:XTPImageManager.obj
 0001:000baf60       ?GetFadedIcon@CXTPImageManagerIcon@@QAEAAVCXTPImageManagerIconHandle@@XZ 004bbf60 f   ToolkitPro1501vc60S:XTPImageManager.obj
 0001:000baf90       ?GetShadowIcon@CXTPImageManagerIcon@@QAEAAVCXTPImageManagerIconHandle@@XZ 004bbf90 f   ToolkitPro1501vc60S:XTPImageManager.obj
 0001:000bafb0       ?GetHotIcon@CXTPImageManagerIcon@@QAEAAVCXTPImageManagerIconHandle@@XZ 004bbfb0 f   ToolkitPro1501vc60S:XTPImageManager.obj
 0001:000bafd0       ?GetCheckedIcon@CXTPImageManagerIcon@@QAEAAVCXTPImageManagerIconHandle@@XZ 004bbfd0 f   ToolkitPro1501vc60S:XTPImageManager.obj
 0001:000bb000       ?GetPressedIcon@CXTPImageManagerIcon@@QAEAAVCXTPImageManagerIconHandle@@XZ 004bc000 f   ToolkitPro1501vc60S:XTPImageManager.obj
 0001:000bb030       ?HasDisabledIcon@CXTPImageManagerIcon@@QBEHXZ 004bc030 f   ToolkitPro1501vc60S:XTPImageManager.obj
 0001:000bb060       ?GetDisabledIcon@CXTPImageManagerIcon@@QAEAAVCXTPImageManagerIconHandle@@H@Z 004bc060 f   ToolkitPro1501vc60S:XTPImageManager.obj
 0001:000bb0a0       ?SetIcon@CXTPImageManagerIcon@@QAEHABVCXTPImageManagerIconHandle@@@Z 004bc0a0 f   ToolkitPro1501vc60S:XTPImageManager.obj
 0001:000bb0f0       ?SetHotIcon@CXTPImageManagerIcon@@QAEXABVCXTPImageManagerIconHandle@@@Z 004bc0f0 f   ToolkitPro1501vc60S:XTPImageManager.obj
 0001:000bb110       ?SetCheckedIcon@CXTPImageManagerIcon@@QAEXABVCXTPImageManagerIconHandle@@@Z 004bc110 f   ToolkitPro1501vc60S:XTPImageManager.obj
 0001:000bb130       ?SetPressedIcon@CXTPImageManagerIcon@@QAEXABVCXTPImageManagerIconHandle@@@Z 004bc130 f   ToolkitPro1501vc60S:XTPImageManager.obj
 0001:000bb150       ?SetDisabledIcon@CXTPImageManagerIcon@@QAEXABVCXTPImageManagerIconHandle@@@Z 004bc150 f   ToolkitPro1501vc60S:XTPImageManager.obj
 0001:000bb170       ?LightenColor@CXTPImageManagerIcon@@AAEKKN@Z 004bc170 f   ToolkitPro1501vc60S:XTPImageManager.obj
 0001:000bb200       ?CreateFadedIcon@CXTPImageManagerIcon@@AAEXXZ 004bc200 f   ToolkitPro1501vc60S:XTPImageManager.obj
 0001:000bb480       ?CreateShadowIcon@CXTPImageManagerIcon@@AAEXXZ 004bc480 f   ToolkitPro1501vc60S:XTPImageManager.obj
 0001:000bb780       ?CreateDisabledIcon@CXTPImageManagerIcon@@QAEXKK@Z 004bc780 f   ToolkitPro1501vc60S:XTPImageManager.obj
 0001:000bbd30       ?GetExtent@CXTPImageManagerIcon@@QBE?AVCSize@@XZ 004bcd30 f   ToolkitPro1501vc60S:XTPImageManager.obj
 0001:000bbd60       ?GetExtent@CXTPImageManagerIcon@@SA?AVCSize@@PAUHICON__@@@Z 004bcd60 f   ToolkitPro1501vc60S:XTPImageManager.obj
 0001:000bbde0       ?ScaleToFit@CXTPImageManagerIcon@@SAPAUHICON__@@PAU2@VCSize@@H@Z 004bcde0 f   ToolkitPro1501vc60S:XTPImageManager.obj
 0001:000bbec0       ?GetDIBBitmap@CXTPImageManagerIcon@@AAEHPAUHBITMAP__@@AAPAEAAIAAPAUtagBITMAPINFO@@2@Z 004bcec0 f   ToolkitPro1501vc60S:XTPImageManager.obj
 0001:000bc080       ?ReadDIBBitmap@CXTPImageManagerIcon@@AAEPAUHBITMAP__@@AAVCArchive@@PAPAE@Z 004bd080 f   ToolkitPro1501vc60S:XTPImageManager.obj
 0001:000bc210       ?WriteDIBBitmap@CXTPImageManagerIcon@@AAEXAAVCArchive@@PAUHBITMAP__@@@Z 004bd210 f   ToolkitPro1501vc60S:XTPImageManager.obj
 0001:000bc2d0       ?SerializeIcon@CXTPImageManagerIcon@@QAEXAAVCXTPImageManagerIconHandle@@AAVCArchive@@J@Z 004bd2d0 f   ToolkitPro1501vc60S:XTPImageManager.obj
 0001:000bc520       ?Serialize@CXTPImageManagerIcon@@UAEXAAVCArchive@@@Z 004bd520 f   ToolkitPro1501vc60S:XTPImageManager.obj
 0001:000bc630       ?DrawAlphaBitmap@CXTPImageManagerIcon@@SAXPAVCDC@@PAUHBITMAP__@@VCPoint@@VCSize@@23@Z 004bd630 f   ToolkitPro1501vc60S:XTPImageManager.obj
 0001:000bc720       ?DrawMono@CXTPImageManagerIcon@@QAEXPAVCDC@@VCPoint@@AAVCXTPImageManagerIconHandle@@VCSize@@K@Z 004bd720 f   ToolkitPro1501vc60S:XTPImageManager.obj
 0001:000bc880       ?Draw@CXTPImageManagerIcon@@QAEXPAVCDC@@VCPoint@@VCSize@@@Z 004bd880 f   ToolkitPro1501vc60S:XTPImageManager.obj
 0001:000bc8c0       ?Draw@CXTPImageManagerIcon@@QAEXPAVCDC@@VCPoint@@@Z 004bd8c0 f   ToolkitPro1501vc60S:XTPImageManager.obj
 0001:000bc900       ?DrawIconComposited@CXTPImageManagerIcon@@SAXPAVCDC@@VCPoint@@VCSize@@PAUHICON__@@@Z 004bd900 f   ToolkitPro1501vc60S:XTPImageManager.obj
 0001:000bcab0       ?Draw@CXTPImageManagerIcon@@QAEXPAVCDC@@VCPoint@@AAVCXTPImageManagerIconHandle@@VCSize@@KKI@Z 004bdab0 f   ToolkitPro1501vc60S:XTPImageManager.obj
 0001:000bcb30       ??0CXTPImageManagerIconSet@@QAE@IPAVCXTPImageManager@@@Z 004bdb30 f   ToolkitPro1501vc60S:XTPImageManager.obj
 0001:000bcb80       ??_GCXTPImageManagerIconSet@@UAEPAXI@Z 004bdb80 f i ToolkitPro1501vc60S:XTPImageManager.obj
 0001:000bcb80       ??_ECXTPImageManagerIconSet@@UAEPAXI@Z 004bdb80 f i ToolkitPro1501vc60S:XTPImageManager.obj
 0001:000bcba0       ??1CXTPImageManagerIconSet@@UAE@XZ 004bdba0 f   ToolkitPro1501vc60S:XTPImageManager.obj
 0001:000bcc50       ?RemoveAll@CXTPImageManagerIconSet@@QAEXXZ 004bdc50 f   ToolkitPro1501vc60S:XTPImageManager.obj
 0001:000bcd10       ?CreateIcon@CXTPImageManagerIconSet@@AAEPAVCXTPImageManagerIcon@@I@Z 004bdd10 f   ToolkitPro1501vc60S:XTPImageManager.obj
 0001:000bce90       ?SetIcon@CXTPImageManagerIconSet@@AAEXABVCXTPImageManagerIconHandle@@I@Z 004bde90 f   ToolkitPro1501vc60S:XTPImageManager.obj
 0001:000bceb0       ?SetDisabledIcon@CXTPImageManagerIconSet@@AAEXABVCXTPImageManagerIconHandle@@I@Z 004bdeb0 f   ToolkitPro1501vc60S:XTPImageManager.obj
 0001:000bced0       ?SetHotIcon@CXTPImageManagerIconSet@@AAEXABVCXTPImageManagerIconHandle@@I@Z 004bded0 f   ToolkitPro1501vc60S:XTPImageManager.obj
 0001:000bcef0       ?SetCheckedIcon@CXTPImageManagerIconSet@@AAEXABVCXTPImageManagerIconHandle@@I@Z 004bdef0 f   ToolkitPro1501vc60S:XTPImageManager.obj
 0001:000bcf10       ?SetPressedIcon@CXTPImageManagerIconSet@@AAEXABVCXTPImageManagerIconHandle@@I@Z 004bdf10 f   ToolkitPro1501vc60S:XTPImageManager.obj
 0001:000bcf30       ?GetIcon@CXTPImageManagerIconSet@@QAEPAVCXTPImageManagerIcon@@IH@Z 004bdf30 f   ToolkitPro1501vc60S:XTPImageManager.obj
 0001:000bd080       ?RefreshAll@CXTPImageManagerIconSet@@QAEXXZ 004be080 f   ToolkitPro1501vc60S:XTPImageManager.obj
 0001:000bd0f0       ??0CXTPImageManager@@QAE@XZ 004be0f0 f   ToolkitPro1501vc60S:XTPImageManager.obj
 0001:000bd1c0       ??_ECXTPImageManager@@UAEPAXI@Z 004be1c0 f i ToolkitPro1501vc60S:XTPImageManager.obj
 0001:000bd1c0       ??_GCXTPImageManager@@UAEPAXI@Z 004be1c0 f i ToolkitPro1501vc60S:XTPImageManager.obj
 0001:000bd1e0       ?XTPImageManager@@YAPAVCXTPImageManager@@XZ 004be1e0 f   ToolkitPro1501vc60S:XTPImageManager.obj
 0001:000bd230       ??1CXTPImageManager@@UAE@XZ 004be230 f   ToolkitPro1501vc60S:XTPImageManager.obj
 0001:000bd360       ?LoadToolbar@CXTPImageManager@@ABEHIAAPAIAAHAAVCSize@@@Z 004be360 f   ToolkitPro1501vc60S:XTPImageManager.obj
 0001:000bd440       ?items@CToolBarData@?1??LoadToolbar@CXTPImageManager@@ABEHIAAPAIAAHAAVCSize@@@Z@QAEPAGXZ 004be440 f   ToolkitPro1501vc60S:XTPImageManager.obj
 0001:000bd440       ?items@CToolBarData@?1??LoadToolBar@CXTPCommandBar@@UAEHIH@Z@QAEPAGXZ 004be440 f   ToolkitPro1501vc60S:XTPImageManager.obj
 0001:000bd450       ?SetIcons@CXTPImageManager@@QAEHIIW4XTPImageState@@@Z 004be450 f   ToolkitPro1501vc60S:XTPImageManager.obj
 0001:000bd4d0       ?SetIcons@CXTPImageManager@@QAEHIW4XTPImageState@@@Z 004be4d0 f   ToolkitPro1501vc60S:XTPImageManager.obj
 0001:000bd4f0       ?SetIcons@CXTPImageManager@@QAEHIAAVCImageList@@W4XTPImageState@@@Z 004be4f0 f   ToolkitPro1501vc60S:XTPImageManager.obj
 0001:000bd580       ?SetIcon@CXTPImageManager@@QAEHABVCXTPImageManagerIconHandle@@IVCSize@@W4XTPImageState@@@Z 004be580 f   ToolkitPro1501vc60S:XTPImageManager.obj
 0001:000bd7f0       ?SetIconFromResource@CXTPImageManager@@QAEHPAUHINSTANCE__@@PBDIVCSize@@W4XTPImageState@@@Z 004be7f0 f   ToolkitPro1501vc60S:XTPImageManager.obj
 0001:000bd9b0       ?SetIcon@CXTPImageManager@@QAEHPBDIVCSize@@W4XTPImageState@@@Z 004be9b0 f   ToolkitPro1501vc60S:XTPImageManager.obj
 0001:000bda90       ?SetIcons@CXTPImageManager@@QAEHAAVCImageList@@PAIHVCSize@@W4XTPImageState@@@Z 004bea90 f   ToolkitPro1501vc60S:XTPImageManager.obj
 0001:000bdc40       ?SplitBitmap@CXTPImageManager@@ABEHPAUHBITMAP__@@HPAPAU2@@Z 004bec40 f   ToolkitPro1501vc60S:XTPImageManager.obj
 0001:000bdea0       ?GetBitmapMaskColor@CXTPImageManager@@SAKAAVCBitmap@@VCPoint@@@Z 004beea0 f   ToolkitPro1501vc60S:XTPImageManager.obj
 0001:000bdee0       ?ResampleAlphaLayer@CXTPImageManager@@SAPAUHBITMAP__@@PAU2@K@Z 004beee0 f   ToolkitPro1501vc60S:XTPImageManager.obj
 0001:000be0c0       ?SetIcons@CXTPImageManager@@QAEHAAVCBitmap@@PAIHVCSize@@W4XTPImageState@@H@Z 004bf0c0 f   ToolkitPro1501vc60S:XTPImageManager.obj
 0001:000be460       ?SetIcons@CXTPImageManager@@QAEHIPAIHVCSize@@W4XTPImageState@@@Z 004bf460 f   ToolkitPro1501vc60S:XTPImageManager.obj
 0001:000be490       ?SetIcons@CXTPImageManager@@QAEHPBDPAIHVCSize@@W4XTPImageState@@@Z 004bf490 f   ToolkitPro1501vc60S:XTPImageManager.obj
 0001:000be580       ?AddCustomIcon@CXTPImageManager@@QAEIABVCXTPImageManagerIconHandle@@@Z 004bf580 f   ToolkitPro1501vc60S:XTPImageManager.obj
 0001:000be700       ?CopyImage@CXTPImageManager@@AAEXI@Z 004bf700 f   ToolkitPro1501vc60S:XTPImageManager.obj
 0001:000be830       ?PasteCustomImage@CXTPImageManager@@AAEIAAVCOleDataObject@@@Z 004bf830 f   ToolkitPro1501vc60S:XTPImageManager.obj
 0001:000be940       ?IsPrimaryImageExists@CXTPImageManager@@QBEHIH@Z 004bf940 f   ToolkitPro1501vc60S:XTPImageManager.obj
 0001:000be9b0       ?GetImage@CXTPImageManager@@QBEPAVCXTPImageManagerIcon@@IH@Z 004bf9b0 f   ToolkitPro1501vc60S:XTPImageManager.obj
 0001:000bea00       ?GetIconSet@CXTPImageManager@@QBEPAVCXTPImageManagerIconSet@@I@Z 004bfa00 f   ToolkitPro1501vc60S:XTPImageManager.obj
 0001:000bea40       ?GetImageList@CXTPImageManager@@QBEPAVCXTPImageManagerImageList@@I@Z 004bfa40 f   ToolkitPro1501vc60S:XTPImageManager.obj
 0001:000bea80       ?RemoveAll@CXTPImageManager@@QAEXXZ 004bfa80 f   ToolkitPro1501vc60S:XTPImageManager.obj
 0001:000bec20       ?RefreshAll@CXTPImageManager@@QAEXXZ 004bfc20 f   ToolkitPro1501vc60S:XTPImageManager.obj
 0001:000becb0       ?SetMaskColor@CXTPImageManager@@QAEKK@Z 004bfcb0 f   ToolkitPro1501vc60S:XTPImageManager.obj
 0001:000becc0       ?IsAlphaIconsImageListSupported@CXTPImageManager@@SAHXZ 004bfcc0 f   ToolkitPro1501vc60S:XTPImageManager.obj
 0001:000bece0       ?DoPropExchange@CXTPImageManager@@QAEXIPAVCXTPPropExchange@@@Z 004bfce0 f   ToolkitPro1501vc60S:XTPImageManager.obj
 0001:000bf0b0       ??1CXTPPropExchangeEnumeratorPtr@@QAE@XZ 004c00b0 f i ToolkitPro1501vc60S:XTPImageManager.obj
 0001:000bf0c0       ?Serialize@CXTPImageManager@@QAEXIAAVCArchive@@@Z 004c00c0 f   ToolkitPro1501vc60S:XTPImageManager.obj
 0001:000bf130       ?DoPropExchange@CXTPImageManager@@QAEXPAVCXTPPropExchange@@@Z 004c0130 f   ToolkitPro1501vc60S:XTPImageManager.obj
 0001:000bf2d0       ?Serialize@CXTPImageManager@@UAEXAAVCArchive@@@Z 004c02d0 f   ToolkitPro1501vc60S:XTPImageManager.obj
 0001:000bf330       ??1?$CArray@PAUXTP_IMAGERESOURCE_INFO@@PAU1@@@UAE@XZ 004c0330 f i ToolkitPro1501vc60S:XTPImageManager.obj
 0001:000bf380       ??1?$CMap@IIPAVCXTPImageManagerIcon@@PAV1@@@UAE@XZ 004c0380 f i ToolkitPro1501vc60S:XTPImageManager.obj
 0001:000bf400       ??1?$CMap@IIPAVCXTPImageManagerIconSet@@PAV1@@@UAE@XZ 004c0400 f i ToolkitPro1501vc60S:XTPImageManager.obj
 0001:000bf480       ?Serialize@?$CMap@IIPAVCRgn@@PAV1@@@UAEXAAVCArchive@@@Z 004c0480 f i ToolkitPro1501vc60S:XTPImageManager.obj
 0001:000bf480       ?Serialize@?$CMap@PAUHWND__@@PAU1@PAVCXTPDockingPaneManager@@PAV2@@@UAEXAAVCArchive@@@Z 004c0480 f i ToolkitPro1501vc60S:XTPImageManager.obj
 0001:000bf480       ?Serialize@?$CMap@KKPAVCXTPImageManagerResource@@PAV1@@@UAEXAAVCArchive@@@Z 004c0480 f i ToolkitPro1501vc60S:XTPImageManager.obj
 0001:000bf480       ?Serialize@?$CMap@IIPAVCXTPImageManagerIcon@@PAV1@@@UAEXAAVCArchive@@@Z 004c0480 f i ToolkitPro1501vc60S:XTPImageManager.obj
 0001:000bf480       ?Serialize@?$CMap@PAUHWND__@@PAU1@PAXPAX@@UAEXAAVCArchive@@@Z 004c0480 f i ToolkitPro1501vc60S:XTPImageManager.obj
 0001:000bf480       ?Serialize@?$CMap@IIPAVCXTPMenuBarMDIMenuInfo@@PAV1@@@UAEXAAVCArchive@@@Z 004c0480 f i ToolkitPro1501vc60S:XTPImageManager.obj
 0001:000bf480       ?Serialize@?$CMap@IIPAVCXTPResourceImage@@PAV1@@@UAEXAAVCArchive@@@Z 004c0480 f i ToolkitPro1501vc60S:XTPImageManager.obj
 0001:000bf480       ?Serialize@?$CMap@IIHH@@UAEXAAVCArchive@@@Z 004c0480 f i ToolkitPro1501vc60S:XTPImageManager.obj
 0001:000bf480       ?Serialize@?$CMap@HHPAVCXTPDockingPaneBase@@PAV1@@@UAEXAAVCArchive@@@Z 004c0480 f i ToolkitPro1501vc60S:XTPImageManager.obj
 0001:000bf480       ?Serialize@?$CMap@PAVCXTPMarkupRoutedEvent@@PAV1@PAVCPtrList@@PAV2@@@UAEXAAVCArchive@@@Z 004c0480 f i ToolkitPro1501vc60S:XTPImageManager.obj
 0001:000bf480       ?Serialize@?$CMap@IIPAVCXTPImageManagerIconSet@@PAV1@@@UAEXAAVCArchive@@@Z 004c0480 f i ToolkitPro1501vc60S:XTPImageManager.obj
 0001:000bf480       ?Serialize@?$CMap@PAVCXTPMarkupDependencyProperty@@PAV1@PAVCXTPMarkupObject@@PAV2@@@UAEXAAVCArchive@@@Z 004c0480 f i ToolkitPro1501vc60S:XTPImageManager.obj
 0001:000bf690       ??1?$CArray@PAVCXTPImageManagerImageList@@PAV1@@@UAE@XZ 004c0690 f i ToolkitPro1501vc60S:XTPImageManager.obj
 0001:000bf6e0       ??1?$CMap@KKPAVCXTPImageManagerResource@@PAV1@@@UAE@XZ 004c06e0 f i ToolkitPro1501vc60S:XTPImageManager.obj
 0001:000bf760       ??_E?$CArray@PAUXTP_IMAGERESOURCE_INFO@@PAU1@@@UAEPAXI@Z 004c0760 f i ToolkitPro1501vc60S:XTPImageManager.obj
 0001:000bf760       ??_G?$CArray@PAUXTP_IMAGERESOURCE_INFO@@PAU1@@@UAEPAXI@Z 004c0760 f i ToolkitPro1501vc60S:XTPImageManager.obj
 0001:000bf780       ??_E?$CMap@IIPAVCXTPImageManagerIcon@@PAV1@@@UAEPAXI@Z 004c0780 f i ToolkitPro1501vc60S:XTPImageManager.obj
 0001:000bf780       ??_G?$CMap@IIPAVCXTPImageManagerIcon@@PAV1@@@UAEPAXI@Z 004c0780 f i ToolkitPro1501vc60S:XTPImageManager.obj
 0001:000bf7a0       ??_E?$CMap@IIPAVCXTPImageManagerIconSet@@PAV1@@@UAEPAXI@Z 004c07a0 f i ToolkitPro1501vc60S:XTPImageManager.obj
 0001:000bf7a0       ??_G?$CMap@IIPAVCXTPImageManagerIconSet@@PAV1@@@UAEPAXI@Z 004c07a0 f i ToolkitPro1501vc60S:XTPImageManager.obj
 0001:000bf7c0       ??_G?$CArray@PAVCXTPImageManagerImageList@@PAV1@@@UAEPAXI@Z 004c07c0 f i ToolkitPro1501vc60S:XTPImageManager.obj
 0001:000bf7c0       ??_E?$CArray@PAVCXTPImageManagerImageList@@PAV1@@@UAEPAXI@Z 004c07c0 f i ToolkitPro1501vc60S:XTPImageManager.obj
 0001:000bf7e0       ??_E?$CMap@KKPAVCXTPImageManagerResource@@PAV1@@@UAEPAXI@Z 004c07e0 f i ToolkitPro1501vc60S:XTPImageManager.obj
 0001:000bf7e0       ??_G?$CMap@KKPAVCXTPImageManagerResource@@PAV1@@@UAEPAXI@Z 004c07e0 f i ToolkitPro1501vc60S:XTPImageManager.obj
 0001:000bf800       ??A?$CMap@IIPAVCXTPImageManagerIconSet@@PAV1@@@QAEAAPAVCXTPImageManagerIconSet@@I@Z 004c0800 f i ToolkitPro1501vc60S:XTPImageManager.obj
 0001:000bf800       ??A?$CMap@IIPAVCRgn@@PAV1@@@QAEAAPAVCRgn@@I@Z 004c0800 f i ToolkitPro1501vc60S:XTPImageManager.obj
 0001:000bf800       ??A?$CMap@HHPAVCXTPDockingPaneBase@@PAV1@@@QAEAAPAVCXTPDockingPaneBase@@H@Z 004c0800 f i ToolkitPro1501vc60S:XTPImageManager.obj
 0001:000bf800       ??A?$CMap@PAVCXTPMarkupDependencyProperty@@PAV1@PAVCXTPMarkupObject@@PAV2@@@QAEAAPAVCXTPMarkupObject@@PAVCXTPMarkupDependencyProperty@@@Z 004c0800 f i ToolkitPro1501vc60S:XTPImageManager.obj
 0001:000bf8e0       ??1CXTPCommandBarList@@UAE@XZ 004c08e0 f   ToolkitPro1501vc60S:XTPCommandBar.obj
 0001:000bf960       ??_ECXTPCommandBarList@@UAEPAXI@Z 004c0960 f i ToolkitPro1501vc60S:XTPCommandBar.obj
 0001:000bf960       ??_GCXTPCommandBarList@@UAEPAXI@Z 004c0960 f i ToolkitPro1501vc60S:XTPCommandBar.obj
 0001:000bf980       ?GetAt@CXTPCommandBarList@@QBEPAVCXTPCommandBar@@H@Z 004c0980 f   ToolkitPro1501vc60S:XTPCommandBar.obj
 0001:000bf9a0       ?Add@CXTPCommandBarList@@UAEPAVCXTPCommandBar@@PAV2@@Z 004c09a0 f   ToolkitPro1501vc60S:XTPCommandBar.obj
 0001:000bfb10       ?Lookup@CXTPCommandBarList@@QBEHPAVCXTPCommandBar@@@Z 004c0b10 f   ToolkitPro1501vc60S:XTPCommandBar.obj
 0001:000bfb50       ?RemoveAll@CXTPCommandBarList@@QAEXXZ 004c0b50 f   ToolkitPro1501vc60S:XTPCommandBar.obj
 0001:000bfba0       ?FindCommandBar@CXTPCommandBarList@@QBEPAVCXTPCommandBar@@I@Z 004c0ba0 f   ToolkitPro1501vc60S:XTPCommandBar.obj
 0001:000bfbe0       ?CreateObject@CXTPCommandBar@@SGPAVCObject@@XZ 004c0be0 f   ToolkitPro1501vc60S:XTPCommandBar.obj
 0001:000bfc40       ?GetRuntimeClass@CXTPCommandBar@@UBEPAUCRuntimeClass@@XZ 004c0c40 f   ToolkitPro1501vc60S:XTPCommandBar.obj
 0001:000bfc70       ?Clone@CXTPCommandBar@@UAEPAV1@H@Z 004c0c70 f   ToolkitPro1501vc60S:XTPCommandBar.obj
 0001:000bfca0       ??0CXTPCommandBar@@IAE@XZ  004c0ca0 f   ToolkitPro1501vc60S:XTPCommandBar.obj
 0001:000bfe80       ?DelayRedraw@CXTPCommandBar@@UAEXXZ 004c0e80 f i ToolkitPro1501vc60S:XTPCommandBar.obj
 0001:000bfe90       ?CalcDynamicLayout@CXTPCommandBar@@MAE?AVCSize@@HK@Z 004c0e90 f i ToolkitPro1501vc60S:XTPCommandBar.obj
 0001:000bfea0       ?IsCustomizable@CXTPCommandBar@@UBEHXZ 004c0ea0 f i ToolkitPro1501vc60S:XTPCommandBar.obj
 0001:000bfeb0       ??_ECXTPCommandBar@@MAEPAXI@Z 004c0eb0 f i ToolkitPro1501vc60S:XTPCommandBar.obj
 0001:000bfeb0       ??_GCXTPCommandBar@@MAEPAXI@Z 004c0eb0 f i ToolkitPro1501vc60S:XTPCommandBar.obj
 0001:000bfed0       ??1CXTPCommandBar@@MAE@XZ  004c0ed0 f   ToolkitPro1501vc60S:XTPCommandBar.obj
 0001:000c0040       ?SetControls@CXTPCommandBar@@QAEXPAVCXTPControls@@@Z 004c1040 f   ToolkitPro1501vc60S:XTPCommandBar.obj
 0001:000c0080       ?OnRemoved@CXTPCommandBar@@MAEXXZ 004c1080 f   ToolkitPro1501vc60S:XTPCommandBar.obj
 0001:000c00f0       ?GetMessageMap@CXTPCommandBar@@MBEPBUAFX_MSGMAP@@XZ 004c10f0 f   ToolkitPro1501vc60S:XTPCommandBar.obj
 0001:000c0100       ?OnCreate@CXTPCommandBar@@QAEHPAUtagCREATESTRUCTA@@@Z 004c1100 f   ToolkitPro1501vc60S:XTPCommandBar.obj
 0001:000c0190       ?OnDestroy@CXTPCommandBar@@QAEXXZ 004c1190 f   ToolkitPro1501vc60S:XTPCommandBar.obj
 0001:000c01e0       ?IsMouseLocked@CXTPCommandBar@@IBEHXZ 004c11e0 f   ToolkitPro1501vc60S:XTPCommandBar.obj
 0001:000c0210       ?OnMouseMove@CXTPCommandBar@@QAEXIVCPoint@@@Z 004c1210 f   ToolkitPro1501vc60S:XTPCommandBar.obj
 0001:000c0390       ?OnMouseLeave@CXTPCommandBar@@QAEXXZ 004c1390 f   ToolkitPro1501vc60S:XTPCommandBar.obj
 0001:000c03d0       ?OnNcMouseMove@CXTPCommandBar@@QAEXIVCPoint@@@Z 004c13d0 f   ToolkitPro1501vc60S:XTPCommandBar.obj
 0001:000c03f0       ?OnTrackEnter@CXTPCommandBar@@UAEXXZ 004c13f0 f   ToolkitPro1501vc60S:XTPCommandBar.obj
 0001:000c0400       ?OnLButtonDown@CXTPCommandBar@@QAEXIVCPoint@@@Z 004c1400 f   ToolkitPro1501vc60S:XTPCommandBar.obj
 0001:000c0540       ?OnLButtonDblClk@CXTPCommandBar@@QAEXIVCPoint@@@Z 004c1540 f   ToolkitPro1501vc60S:XTPCommandBar.obj
 0001:000c0580       ?OnLButtonUp@CXTPCommandBar@@QAEXIVCPoint@@@Z 004c1580 f   ToolkitPro1501vc60S:XTPCommandBar.obj
 0001:000c05d0       ?OnRButtonUp@CXTPCommandBar@@QAEXIVCPoint@@@Z 004c15d0 f   ToolkitPro1501vc60S:XTPCommandBar.obj
 0001:000c0680       ?SetSelected@CXTPCommandBar@@UAEHHH@Z 004c1680 f   ToolkitPro1501vc60S:XTPCommandBar.obj
 0001:000c07c0       ?SetPopuped@CXTPCommandBar@@QAEHHH@Z 004c17c0 f   ToolkitPro1501vc60S:XTPCommandBar.obj
 0001:000c08e0       ?OnIdleUpdateCmdUI@CXTPCommandBar@@UAEJIJ@Z 004c18e0 f   ToolkitPro1501vc60S:XTPCommandBar.obj
 0001:000c0950       ?Enable@CCommandBarCmdUI@CXTPCommandBar@@UAEXH@Z 004c1950 f   ToolkitPro1501vc60S:XTPCommandBar.obj
 0001:000c09b0       ?SetCheck@CCommandBarCmdUI@CXTPCommandBar@@UAEXH@Z 004c19b0 f   ToolkitPro1501vc60S:XTPCommandBar.obj
 0001:000c09d0       ?SetText@CCommandBarCmdUI@CXTPCommandBar@@UAEXPBD@Z 004c19d0 f   ToolkitPro1501vc60S:XTPCommandBar.obj
 0001:000c09f0       ?OnInitialUpdate@CXTPCommandBar@@QAEXXZ 004c19f0 f   ToolkitPro1501vc60S:XTPCommandBar.obj
 0001:000c0a00       ?OnUpdateCmdUI@CXTPCommandBar@@QAEXXZ 004c1a00 f   ToolkitPro1501vc60S:XTPCommandBar.obj
 0001:000c0b90       ?LoadMenuA@CXTPControls@@QAEHPAVCMenu@@@Z 004c1b90 f   ToolkitPro1501vc60S:XTPCommandBar.obj
 0001:000c0ce0       ?LoadMenuA@CXTPCommandBar@@UAEHPAVCMenu@@H@Z 004c1ce0 f   ToolkitPro1501vc60S:XTPCommandBar.obj
 0001:000c0d40       ?ProcessSpecialKey@CXTPCommandBar@@MAEHW4XTPSpecialKey@@@Z 004c1d40 f   ToolkitPro1501vc60S:XTPCommandBar.obj
 0001:000c12a0       ?IsHelpMode@CXTPCommandBar@@IBEHXZ 004c22a0 f   ToolkitPro1501vc60S:XTPCommandBar.obj
 0001:000c12c0       ?OnHookKeyDown@CXTPCommandBar@@MAEHIJ@Z 004c22c0 f   ToolkitPro1501vc60S:XTPCommandBar.obj
 0001:000c1710       ?HideKeyboardTips@CXTPCommandBar@@QAEXXZ 004c2710 f   ToolkitPro1501vc60S:XTPCommandBar.obj
 0001:000c1730       ?OnKeyboardTip@CXTPCommandBar@@UAEXPAVCXTPCommandBarKeyboardTip@@@Z 004c2730 f   ToolkitPro1501vc60S:XTPCommandBar.obj
 0001:000c1790       ?OnKeyboardTipChar@CXTPCommandBar@@QAEXI@Z 004c2790 f   ToolkitPro1501vc60S:XTPCommandBar.obj
 0001:000c1910       ?TxSetTimer@XTextHost@CXTPRichRender@@UAEHII@Z 004c2910 f   ToolkitPro1501vc60S:XTPCommandBar.obj
 0001:000c1910       ?ConvertFrom@CXTPMarkupObject@@UBEPAV1@PAVCXTPMarkupBuilder@@PAV1@@Z 004c2910 f   ToolkitPro1501vc60S:XTPCommandBar.obj
 0001:000c1910       ?TxEnableScrollBar@XTextHost@CXTPRichRender@@UAEHHH@Z 004c2910 f   ToolkitPro1501vc60S:XTPCommandBar.obj
 0001:000c1910       ?InputHitTestOverride@CXTPMarkupPage@@MBEPAVCXTPMarkupInputElement@@VCPoint@@@Z 004c2910 f   ToolkitPro1501vc60S:XTPCommandBar.obj
 0001:000c1910       ?TxSetCaretPos@XTextHost@CXTPRichRender@@UAEHHH@Z 004c2910 f   ToolkitPro1501vc60S:XTPCommandBar.obj
 0001:000c1910       ?TxShowScrollBar@XTextHost@CXTPRichRender@@UAEHHH@Z 004c2910 f   ToolkitPro1501vc60S:XTPCommandBar.obj
 0001:000c1910       ?InputHitTest@CXTPMarkupInputElement@@UBEPAV1@VCPoint@@@Z 004c2910 f   ToolkitPro1501vc60S:XTPCommandBar.obj
 0001:000c1910       ?ConvertFrom@CXTPMarkupEnum@@UBEPAVCXTPMarkupObject@@PAVCXTPMarkupBuilder@@PAV2@@Z 004c2910 f   ToolkitPro1501vc60S:XTPCommandBar.obj
 0001:000c1910       ?FillButtons@CXTPTabBaseTheme@@UAEKPAVCDC@@PAVCXTPTabCtrlButtons@@@Z 004c2910 f   ToolkitPro1501vc60S:XTPCommandBar.obj
 0001:000c1910       ?Popup@CXTPCommandBar@@UAEHPAVCXTPControlPopup@@H@Z 004c2910 f   ToolkitPro1501vc60S:XTPCommandBar.obj
 0001:000c1920       ?OnHookMessage@CXTPCommandBar@@UAEHPAUHWND__@@IAAIAAJ2@Z 004c2920 f   ToolkitPro1501vc60S:XTPCommandBar.obj
 0001:000c19f0       ?OnCancel@CXTPRibbonBackstageView@@UAEXXZ 004c29f0 f   ToolkitPro1501vc60S:XTPCommandBar.obj
 0001:000c19f0       ?OnTrackLost@CXTPCommandBar@@UAEXXZ 004c29f0 f   ToolkitPro1501vc60S:XTPCommandBar.obj
 0001:000c1a00       ?SetTrackingMode@CXTPCommandBar@@UAEHHHH@Z 004c2a00 f   ToolkitPro1501vc60S:XTPCommandBar.obj
 0001:000c1c60       ?GetControlCount@CXTPCommandBar@@QBEHXZ 004c2c60 f   ToolkitPro1501vc60S:XTPCommandBar.obj
 0001:000c1c70       ?GetControl@CXTPCommandBar@@QBEPAVCXTPControl@@H@Z 004c2c70 f   ToolkitPro1501vc60S:XTPCommandBar.obj
 0001:000c1cb0       ?OnTimer@CXTPCommandBar@@QAEXI@Z 004c2cb0 f   ToolkitPro1501vc60S:XTPCommandBar.obj
 0001:000c1dd0       ?OnControlsChanged@CXTPCommandBar@@MAEXXZ 004c2dd0 f   ToolkitPro1501vc60S:XTPCommandBar.obj
 0001:000c1df0       ?Redraw@CXTPCommandBar@@UAEXPBUtagRECT@@H@Z 004c2df0 f   ToolkitPro1501vc60S:XTPCommandBar.obj
 0001:000c1e60       ?EnableAnimation@CXTPCommandBar@@QAEXH@Z 004c2e60 f   ToolkitPro1501vc60S:XTPCommandBar.obj
 0001:000c1e80       ?IsAnimationEnabled@CXTPCommandBar@@QBEHXZ 004c2e80 f   ToolkitPro1501vc60S:XTPCommandBar.obj
 0001:000c1e90       ?EnableDoubleBuffer@CXTPCommandBar@@QAEXH@Z 004c2e90 f   ToolkitPro1501vc60S:XTPCommandBar.obj
 0001:000c1ea0       ?SetShowGripper@CXTPCommandBar@@QAEXH@Z 004c2ea0 f   ToolkitPro1501vc60S:XTPCommandBar.obj
 0001:000c1ed0       ?GetShowGripper@CXTPCommandBar@@QBEHXZ 004c2ed0 f   ToolkitPro1501vc60S:XTPCommandBar.obj
 0001:000c1ee0       ?OnPaint@CXTPCommandBar@@QAEXXZ 004c2ee0 f   ToolkitPro1501vc60S:XTPCommandBar.obj
 0001:000c1f40       ?OnPrintClient@CXTPCommandBar@@QAEJIJ@Z 004c2f40 f   ToolkitPro1501vc60S:XTPCommandBar.obj
 0001:000c1fa0       ?GetBorders@CXTPCommandBar@@UAE?AVCRect@@XZ 004c2fa0 f   ToolkitPro1501vc60S:XTPCommandBar.obj
 0001:000c1fe0       ?FillCommandBarEntry@CXTPCommandBar@@UAEXPAVCDC@@@Z 004c2fe0 f   ToolkitPro1501vc60S:XTPCommandBar.obj
 0001:000c2000       ?DrawCommandBar@CXTPCommandBar@@UAEXPAVCDC@@VCRect@@@Z 004c3000 f   ToolkitPro1501vc60S:XTPCommandBar.obj
 0001:000c2230       ?CustomizeDrawMarker@CXTPCommandBar@@IAEXPAVCDC@@@Z 004c3230 f   ToolkitPro1501vc60S:XTPCommandBar.obj
 0001:000c2480       ?FindAccelEx@CXTPCommandBar@@QBEHIAAH@Z 004c3480 f   ToolkitPro1501vc60S:XTPCommandBar.obj
 0001:000c2620       ?GetFrameSite@CXTPCommandBar@@QBEPAVCFrameWnd@@XZ 004c3620 f   ToolkitPro1501vc60S:XTPCommandBar.obj
 0001:000c2650       ?GetSite@CXTPCommandBar@@QBEPAVCWnd@@XZ 004c3650 f   ToolkitPro1501vc60S:XTPCommandBar.obj
 0001:000c26b0       ?GetOwnerSite@CXTPCommandBar@@QBEPAVCWnd@@XZ 004c36b0 f   ToolkitPro1501vc60S:XTPCommandBar.obj
 0001:000c2710       ?GetRootParent@CXTPCommandBar@@QBEPAV1@XZ 004c3710 f   ToolkitPro1501vc60S:XTPCommandBar.obj
 0001:000c2740       ?GetCommandBars@CXTPCommandBar@@QBEPAVCXTPCommandBars@@XZ 004c3740 f   ToolkitPro1501vc60S:XTPCommandBar.obj
 0001:000c2770       ?IsCustomizeMode@CXTPCommandBar@@QBEHXZ 004c3770 f   ToolkitPro1501vc60S:XTPCommandBar.obj
 0001:000c2780       ?OnCustomizeDragEnter@CXTPCommandBar@@UAEKPAVCXTPControl@@VCPoint@@@Z 004c3780 f   ToolkitPro1501vc60S:XTPCommandBar.obj
 0001:000c27b0       ?OnCustomizeDragLeave@CXTPCommandBar@@UAEXXZ 004c37b0 f   ToolkitPro1501vc60S:XTPCommandBar.obj
 0001:000c27e0       ?CustomizeFindDropIndex@CXTPCommandBar@@MAEXPAVCXTPControl@@ABVCPoint@@AAVCRect@@AAH3@Z 004c37e0 f   ToolkitPro1501vc60S:XTPCommandBar.obj
 0001:000c2b50       ?OnCustomizeDragOver@CXTPCommandBar@@UAEKPAVCXTPControl@@VCPoint@@@Z 004c3b50 f   ToolkitPro1501vc60S:XTPCommandBar.obj
 0001:000c2c90       ?OnCustomizeDrop@CXTPCommandBar@@UAEXPAVCXTPControl@@AAKVCPoint@@2@Z 004c3c90 f   ToolkitPro1501vc60S:XTPCommandBar.obj
 0001:000c2e10       ?OnRButtonDown@CXTPCommandBar@@QAEXIVCPoint@@@Z 004c3e10 f   ToolkitPro1501vc60S:XTPCommandBar.obj
 0001:000c2f00       ?InvalidateParents@CXTPCommandBar@@QAEXXZ 004c3f00 f   ToolkitPro1501vc60S:XTPCommandBar.obj
 0001:000c2f40       ?OnControlSelected@CXTPCommandBar@@UAEXHPAVCXTPControl@@@Z 004c3f40 f   ToolkitPro1501vc60S:XTPCommandBar.obj
 0001:000c30a0       ?SetStatusText@CXTPCommandBar@@QAEHABVCString@@@Z 004c40a0 f   ToolkitPro1501vc60S:XTPCommandBar.obj
 0001:000c3120       ?SetPaintManager@CXTPCommandBar@@QAEXPAVCXTPPaintManager@@@Z 004c4120 f   ToolkitPro1501vc60S:XTPCommandBar.obj
 0001:000c3150       ?GetPaintManager@CXTPCommandBar@@QBEPAVCXTPPaintManager@@XZ 004c4150 f   ToolkitPro1501vc60S:XTPCommandBar.obj
 0001:000c31a0       ?SetImageManager@CXTPCommandBar@@QAEXPAVCXTPImageManager@@@Z 004c41a0 f   ToolkitPro1501vc60S:XTPCommandBar.obj
 0001:000c31d0       ?GetImageManager@CXTPCommandBar@@QBEPAVCXTPImageManager@@XZ 004c41d0 f   ToolkitPro1501vc60S:XTPCommandBar.obj
 0001:000c3210       ?Copy@CXTPCommandBar@@MAEXPAV1@H@Z 004c4210 f   ToolkitPro1501vc60S:XTPCommandBar.obj
 0001:000c32e0       ?GetActiveDocTemplate@CXTPCommandBar@@IBEIXZ 004c42e0 f   ToolkitPro1501vc60S:XTPCommandBar.obj
 0001:000c3300       ?UpdateDocTemplateControls@CXTPCommandBar@@IAEXXZ 004c4300 f   ToolkitPro1501vc60S:XTPCommandBar.obj
 0001:000c3480       ?SetFlags@CXTPCommandBar@@QAEXKK@Z 004c4480 f   ToolkitPro1501vc60S:XTPCommandBar.obj
 0001:000c34a0       ?OnHelpHitTest@CXTPCommandBar@@QAEJIJ@Z 004c44a0 f   ToolkitPro1501vc60S:XTPCommandBar.obj
 0001:000c3520       ?OnNcHitTest@CXTPCommandBar@@QAEJVCPoint@@@Z 004c4520 f   ToolkitPro1501vc60S:XTPCommandBar.obj
 0001:000c3590       ?OnNcLButtonDown@CXTPCommandBar@@QAEXIVCPoint@@@Z 004c4590 f   ToolkitPro1501vc60S:XTPCommandBar.obj
 0001:000c35d0       ?SetWidth@CXTPCommandBar@@QAEXH@Z 004c45d0 f   ToolkitPro1501vc60S:XTPCommandBar.obj
 0001:000c35e0       ?GetWidth@CXTPCommandBar@@QBEHXZ 004c45e0 f   ToolkitPro1501vc60S:XTPCommandBar.obj
 0001:000c35f0       ?IsLayoutRTL@CXTPCommandBar@@QBEHXZ 004c45f0 f   ToolkitPro1501vc60S:XTPCommandBar.obj
 0001:000c3610       ?OnMouseHitTest@CXTPCommandBar@@MAEHVCPoint@@@Z 004c4610 f   ToolkitPro1501vc60S:XTPCommandBar.obj
 0001:000c3760       ?GetAccessible@CXTPCommandBar@@MAEPAVCCmdTarget@@XZ 004c4760 f   ToolkitPro1501vc60S:XTPCommandBar.obj
 0001:000c3770       ?GetAccessibleParent@CXTPCommandBar@@MAEJPAPAUIDispatch@@@Z 004c4770 f   ToolkitPro1501vc60S:XTPCommandBar.obj
 0001:000c37f0       ?GetAccessibleChildCount@CXTPCommandBar@@MAEJPAJ@Z 004c47f0 f   ToolkitPro1501vc60S:XTPCommandBar.obj
 0001:000c3820       ?GetAccessibleChild@CXTPCommandBar@@MAEJUtagVARIANT@@PAPAUIDispatch@@@Z 004c4820 f   ToolkitPro1501vc60S:XTPCommandBar.obj
 0001:000c3870       ?GetAccessibleName@CXTPCommandBar@@MAEJUtagVARIANT@@PAPAG@Z 004c4870 f   ToolkitPro1501vc60S:XTPCommandBar.obj
 0001:000c3a20       ?GetAccessibleRole@CXTPCommandBar@@MAEJUtagVARIANT@@PAU2@@Z 004c4a20 f   ToolkitPro1501vc60S:XTPCommandBar.obj
 0001:000c3a90       ?GetAccessibleState@CXTPCommandBar@@MAEJUtagVARIANT@@PAU2@@Z 004c4a90 f   ToolkitPro1501vc60S:XTPCommandBar.obj
 0001:000c3b10       ?AccessibleLocation@CXTPCommandBar@@MAEJPAJ000UtagVARIANT@@@Z 004c4b10 f   ToolkitPro1501vc60S:XTPCommandBar.obj
 0001:000c3bf0       ?AccessibleHitTest@CXTPCommandBar@@MAEJJJPAUtagVARIANT@@@Z 004c4bf0 f   ToolkitPro1501vc60S:XTPCommandBar.obj
 0001:000c3cc0       ?OnGetObject@CXTPCommandBar@@QAEJIJ@Z 004c4cc0 f   ToolkitPro1501vc60S:XTPCommandBar.obj
 0001:000c3d60       ?FilterToolTipMessage@CXTPCommandBar@@QAEXIIJ@Z 004c4d60 f   ToolkitPro1501vc60S:XTPCommandBar.obj
 0001:000c3d90       ?OnWndMsg@CXTPCommandBar@@UAEHIIJPAJ@Z 004c4d90 f   ToolkitPro1501vc60S:XTPCommandBar.obj
 0001:000c3dc0       ?GetInterfaceMap@CXTPCommandBar@@MBEPBUAFX_INTERFACEMAP@@XZ 004c4dc0 f   ToolkitPro1501vc60S:XTPCommandBar.obj
 0001:000c3dd0       ??_9@$BBHA@AE              004c4dd0 f i ToolkitPro1501vc60S:XTPCommandBar.obj
 0001:000c3de0       ??_ECXTPCommandBar@@ODM@AEPAXI@Z 004c4de0 f i ToolkitPro1501vc60S:XTPCommandBar.obj
 0001:000c3df0       ??_ECXTPCommandBar@@OEE@AEPAXI@Z 004c4df0 f i ToolkitPro1501vc60S:XTPCommandBar.obj
 0001:000c3e00       ?CreateObject@CXTPToolBar@@SGPAVCObject@@XZ 004c4e00 f   ToolkitPro1501vc60S:XTPToolBar.obj
 0001:000c3e60       ?GetRuntimeClass@CXTPToolBar@@UBEPAUCRuntimeClass@@XZ 004c4e60 f   ToolkitPro1501vc60S:XTPToolBar.obj
 0001:000c3e90       ?Clone@CXTPToolBar@@UAEPAVCXTPCommandBar@@H@Z 004c4e90 f   ToolkitPro1501vc60S:XTPToolBar.obj
 0001:000c3ec0       ?Draw@CControlButtonHide@CXTPToolBar@@UAEXPAVCDC@@@Z 004c4ec0 f   ToolkitPro1501vc60S:XTPToolBar.obj
 0001:000c3f00       ?IsHiddenExists@CControlButtonExpand@CXTPToolBar@@QAEHXZ 004c4f00 f   ToolkitPro1501vc60S:XTPToolBar.obj
 0001:000c3f50       ?Draw@CControlButtonExpand@CXTPToolBar@@UAEXPAVCDC@@@Z 004c4f50 f   ToolkitPro1501vc60S:XTPToolBar.obj
 0001:000c3fb0       ?OnSetPopup@CControlButtonExpand@CXTPToolBar@@UAEHH@Z 004c4fb0 f   ToolkitPro1501vc60S:XTPToolBar.obj
 0001:000c41e0       ??0CXTPToolBar@@QAE@XZ     004c51e0 f   ToolkitPro1501vc60S:XTPToolBar.obj
 0001:000c42d0       ?IsVisible@CXTPToolBar@@UBEHXZ 004c52d0 f i ToolkitPro1501vc60S:XTPToolBar.obj
 0001:000c42e0       ??_ECXTPToolBar@@UAEPAXI@Z 004c52e0 f i ToolkitPro1501vc60S:XTPToolBar.obj
 0001:000c42e0       ??_GCXTPToolBar@@UAEPAXI@Z 004c52e0 f i ToolkitPro1501vc60S:XTPToolBar.obj
 0001:000c4300       ?EnableDocking@CXTPToolBar@@QAEXK@Z 004c5300 f   ToolkitPro1501vc60S:XTPToolBar.obj
 0001:000c4310       ??1CXTPToolBar@@UAE@XZ     004c5310 f   ToolkitPro1501vc60S:XTPToolBar.obj
 0001:000c4390       ?SetButtons@CXTPCommandBar@@QAEHPAIH@Z 004c5390 f   ToolkitPro1501vc60S:XTPToolBar.obj
 0001:000c45a0       ??1XTP_COMMANDBARS_CREATECONTROL@@QAE@XZ 004c55a0 f i ToolkitPro1501vc60S:XTPToolBar.obj
 0001:000c45b0       ?LoadToolBar@CXTPToolBar@@UAEHIH@Z 004c55b0 f   ToolkitPro1501vc60S:XTPToolBar.obj
 0001:000c45f0       ?LoadToolBar@CXTPCommandBar@@UAEHIH@Z 004c55f0 f   ToolkitPro1501vc60S:XTPToolBar.obj
 0001:000c4740       ?SetPosition@CXTPToolBar@@UAEHW4XTPBarPosition@@@Z 004c5740 f   ToolkitPro1501vc60S:XTPToolBar.obj
 0001:000c4790       ?GetMessageMap@CXTPToolBar@@MBEPBUAFX_MSGMAP@@XZ 004c5790 f   ToolkitPro1501vc60S:XTPToolBar.obj
 0001:000c47a0       ?OnSetCursor@CXTPToolBar@@IAEHPAVCWnd@@II@Z 004c57a0 f   ToolkitPro1501vc60S:XTPToolBar.obj
 0001:000c4920       ?OnToolHitTest@CXTPCommandBar@@UBEHVCPoint@@PAUtagTOOLINFOA@@@Z 004c5920 f   ToolkitPro1501vc60S:XTPToolBar.obj
 0001:000c4c60       ?OnRButtonDown@CXTPToolBar@@IAEXIVCPoint@@@Z 004c5c60 f   ToolkitPro1501vc60S:XTPToolBar.obj
 0001:000c4d20       ?Create@CXTPToolBar@@MAEHPAVCWnd@@H@Z 004c5d20 f   ToolkitPro1501vc60S:XTPToolBar.obj
 0001:000c4e80       ?GetBorders@CXTPToolBar@@MAE?AVCRect@@XZ 004c5e80 f   ToolkitPro1501vc60S:XTPToolBar.obj
 0001:000c4f30       ?CalcDockingLayout@CXTPToolBar@@UAE?AVCSize@@HKH@Z 004c5f30 f   ToolkitPro1501vc60S:XTPToolBar.obj
 0001:000c5280       ?GetCommandBar@CXTPControlPopup@@UBEPAVCXTPCommandBar@@XZ 004c6280 f i ToolkitPro1501vc60S:XTPToolBar.obj
 0001:000c5290       ?GetPopuped@CXTPControlPopup@@UBEHXZ 004c6290 f i ToolkitPro1501vc60S:XTPToolBar.obj
 0001:000c52a0       ?SetRect@CControlButtonExpand@CXTPToolBar@@UAEXVCRect@@@Z 004c62a0 f i ToolkitPro1501vc60S:XTPToolBar.obj
 0001:000c52e0       ??_GCControlButtonExpand@CXTPToolBar@@UAEPAXI@Z 004c62e0 f i ToolkitPro1501vc60S:XTPToolBar.obj
 0001:000c52e0       ??_GCControlCaptionPopup@CXTPDialogBar@@UAEPAXI@Z 004c62e0 f i ToolkitPro1501vc60S:XTPToolBar.obj
 0001:000c52e0       ??_ECControlQuickAccessMorePopup@CXTPRibbonBar@@UAEPAXI@Z 004c62e0 f i ToolkitPro1501vc60S:XTPToolBar.obj
 0001:000c52e0       ??_ECXTPRibbonGroupControlPopup@@UAEPAXI@Z 004c62e0 f i ToolkitPro1501vc60S:XTPToolBar.obj
 0001:000c52e0       ??_ECXTPRibbonBarControlQuickAccessPopup@@UAEPAXI@Z 004c62e0 f i ToolkitPro1501vc60S:XTPToolBar.obj
 0001:000c52e0       ??_GCXTPRibbonGroupControlPopup@@UAEPAXI@Z 004c62e0 f i ToolkitPro1501vc60S:XTPToolBar.obj
 0001:000c52e0       ??_GCControlQuickAccessMorePopup@CXTPRibbonBar@@UAEPAXI@Z 004c62e0 f i ToolkitPro1501vc60S:XTPToolBar.obj
 0001:000c52e0       ??_GCXTPRibbonBarControlQuickAccessPopup@@UAEPAXI@Z 004c62e0 f i ToolkitPro1501vc60S:XTPToolBar.obj
 0001:000c52e0       ??_GCXTPRibbonControlSystemButton@@UAEPAXI@Z 004c62e0 f i ToolkitPro1501vc60S:XTPToolBar.obj
 0001:000c52e0       ??_ECXTPRibbonControlSystemButton@@UAEPAXI@Z 004c62e0 f i ToolkitPro1501vc60S:XTPToolBar.obj
 0001:000c52e0       ??_ECControlCaptionPopup@CXTPDialogBar@@UAEPAXI@Z 004c62e0 f i ToolkitPro1501vc60S:XTPToolBar.obj
 0001:000c52e0       ??_ECControlButtonExpand@CXTPToolBar@@UAEPAXI@Z 004c62e0 f i ToolkitPro1501vc60S:XTPToolBar.obj
 0001:000c5300       ?CalcDynamicLayout@CXTPToolBar@@UAE?AVCSize@@HK@Z 004c6300 f   ToolkitPro1501vc60S:XTPToolBar.obj
 0001:000c56b0       ?OnRecalcLayout@CXTPToolBar@@UAEXXZ 004c66b0 f   ToolkitPro1501vc60S:XTPToolBar.obj
 0001:000c57d0       ?OnFloatStatus@CXTPToolBar@@IAEJIJ@Z 004c67d0 f   ToolkitPro1501vc60S:XTPToolBar.obj
 0001:000c58e0       ?IsFloatingFrameFocused@CXTPToolBar@@ABEHXZ 004c68e0 f   ToolkitPro1501vc60S:XTPToolBar.obj
 0001:000c5940       ?OnMouseActivate@CXTPToolBar@@IAEHPAVCWnd@@II@Z 004c6940 f   ToolkitPro1501vc60S:XTPToolBar.obj
 0001:000c5980       ?OnLButtonDown@CXTPToolBar@@IAEXIVCPoint@@@Z 004c6980 f   ToolkitPro1501vc60S:XTPToolBar.obj
 0001:000c5a20       ?OnLButtonDblClk@CXTPToolBar@@IAEXIVCPoint@@@Z 004c6a20 f   ToolkitPro1501vc60S:XTPToolBar.obj
 0001:000c5a70       ?OnNcHitTest@CXTPToolBar@@IAEJVCPoint@@@Z 004c6a70 f   ToolkitPro1501vc60S:XTPToolBar.obj
 0001:000c5b40       ?OnNcLButtonDown@CXTPToolBar@@IAEXIVCPoint@@@Z 004c6b40 f   ToolkitPro1501vc60S:XTPToolBar.obj
 0001:000c5bc0       ?IsWindowVisible@CXTPToolBar@@QBEHXZ 004c6bc0 f   ToolkitPro1501vc60S:XTPToolBar.obj
 0001:000c5c20       ?SetVisible@CXTPToolBar@@UAEXH@Z 004c6c20 f   ToolkitPro1501vc60S:XTPToolBar.obj
 0001:000c5d60       ?OnSizeParent@CXTPToolBar@@IAEJIJ@Z 004c6d60 f   ToolkitPro1501vc60S:XTPToolBar.obj
 0001:000c5e60       ?GetAutoIconSize@CXTPCommandBar@@IBE?AVCSize@@H@Z 004c6e60 f   ToolkitPro1501vc60S:XTPToolBar.obj
 0001:000c5e90       ?GetIconSize@CXTPCommandBar@@UBE?AVCSize@@XZ 004c6e90 f   ToolkitPro1501vc60S:XTPToolBar.obj
 0001:000c5fb0       ?GetLargeIconSize@CXTPCommandBar@@QBE?AVCSize@@H@Z 004c6fb0 f   ToolkitPro1501vc60S:XTPToolBar.obj
 0001:000c60d0       ?GetButtonSize@CXTPCommandBar@@UBE?AVCSize@@XZ 004c70d0 f   ToolkitPro1501vc60S:XTPToolBar.obj
 0001:000c6130       ?IsTextBelowIcons@CXTPCommandBar@@QBEHXZ 004c7130 f   ToolkitPro1501vc60S:XTPToolBar.obj
 0001:000c6150       ?_FindNearest@CXTPToolBar@@ABEHPAVCXTPControls@@PAVCXTPControl@@HH@Z 004c7150 f   ToolkitPro1501vc60S:XTPToolBar.obj
 0001:000c61b0       ?Reset@CXTPToolBar@@UAEXH@Z 004c71b0 f   ToolkitPro1501vc60S:XTPToolBar.obj
 0001:000c63c0       ??1CXTPPushRoutingFrame@CXTPToolBar@@QAE@XZ 004c73c0 f i ToolkitPro1501vc60S:XTPToolBar.obj
 0001:000c63d0       ?BuildCustomizePopup@CXTPToolBar@@AAEXPAVCXTPCommandBar@@@Z 004c73d0 f   ToolkitPro1501vc60S:XTPToolBar.obj
 0001:000c6870       ?OnExecute@CControlButtonCustomize@CXTPToolBar@@UAEXXZ 004c7870 f i ToolkitPro1501vc60S:XTPToolBar.obj
 0001:000c6930       ?OnSetPreviewMode@CXTPToolBar@@QAEXH@Z 004c7930 f   ToolkitPro1501vc60S:XTPToolBar.obj
 0001:000c69c0       ?Copy@CXTPToolBar@@MAEXPAVCXTPCommandBar@@H@Z 004c79c0 f   ToolkitPro1501vc60S:XTPToolBar.obj
 0001:000c6a00       ?OnHookKeyDown@CXTPToolBar@@UAEHIJ@Z 004c7a00 f   ToolkitPro1501vc60S:XTPToolBar.obj
 0001:000c6ab0       ?OnSetFocus@CXTPToolBar@@IAEXPAVCWnd@@@Z 004c7ab0 f   ToolkitPro1501vc60S:XTPToolBar.obj
 0001:000c6af0       ?ShouldSerializeBar@CXTPToolBar@@MAEHXZ 004c7af0 f   ToolkitPro1501vc60S:XTPToolBar.obj
 0001:000c6b20       ??_ECXTPToolBar@@WDM@AEPAXI@Z 004c7b20 f i ToolkitPro1501vc60S:XTPToolBar.obj
 0001:000c6b30       ??_ECXTPToolBar@@WEE@AEPAXI@Z 004c7b30 f i ToolkitPro1501vc60S:XTPToolBar.obj
 0001:000c6b40       ?GetTransparentColor@CXTPTransparentBitmap@@QBEKXZ 004c7b40 f   ToolkitPro1501vc60S:XTPDrawHelpers.obj
 0001:000c6b90       ?ConvertToIcon@CXTPTransparentBitmap@@QBEPAUHICON__@@XZ 004c7b90 f   ToolkitPro1501vc60S:XTPDrawHelpers.obj
 0001:000c6c80       ??0CXTPEmptyRect@@QAE@XZ   004c7c80 f   ToolkitPro1501vc60S:XTPDrawHelpers.obj
 0001:000c6c90       ??0CXTPWindowRect@@QAE@PAUHWND__@@@Z 004c7c90 f   ToolkitPro1501vc60S:XTPDrawHelpers.obj
 0001:000c6cc0       ??0CXTPWindowRect@@QAE@PBVCWnd@@@Z 004c7cc0 f   ToolkitPro1501vc60S:XTPDrawHelpers.obj
 0001:000c6d20       ??0CXTPClientRect@@QAE@PBVCWnd@@@Z 004c7d20 f   ToolkitPro1501vc60S:XTPDrawHelpers.obj
 0001:000c6d80       ??0CXTPBufferDC@@QAE@PAUHDC__@@ABVCRect@@@Z 004c7d80 f   ToolkitPro1501vc60S:XTPDrawHelpers.obj
 0001:000c6e50       ??_ECXTPBufferDC@@UAEPAXI@Z 004c7e50 f i ToolkitPro1501vc60S:XTPDrawHelpers.obj
 0001:000c6e50       ??_GCXTPBufferDC@@UAEPAXI@Z 004c7e50 f i ToolkitPro1501vc60S:XTPDrawHelpers.obj
 0001:000c6e70       ??0CXTPBufferDC@@QAE@AAVCPaintDC@@@Z 004c7e70 f   ToolkitPro1501vc60S:XTPDrawHelpers.obj
 0001:000c6fa0       ??1CXTPBufferDC@@UAE@XZ    004c7fa0 f   ToolkitPro1501vc60S:XTPDrawHelpers.obj
 0001:000c7050       ??0CXTPFontDC@@QAE@PAVCDC@@PAVCFont@@@Z 004c8050 f   ToolkitPro1501vc60S:XTPDrawHelpers.obj
 0001:000c7090       ??_GCXTPFontDC@@UAEPAXI@Z  004c8090 f i ToolkitPro1501vc60S:XTPDrawHelpers.obj
 0001:000c7090       ??_ECXTPFontDC@@UAEPAXI@Z  004c8090 f i ToolkitPro1501vc60S:XTPDrawHelpers.obj
 0001:000c70b0       ??1CXTPFontDC@@UAE@XZ      004c80b0 f   ToolkitPro1501vc60S:XTPDrawHelpers.obj
 0001:000c70d0       ?SetFont@CXTPFontDC@@QAEXPAVCFont@@@Z 004c80d0 f   ToolkitPro1501vc60S:XTPDrawHelpers.obj
 0001:000c7100       ?ReleaseFont@CXTPFontDC@@QAEXXZ 004c8100 f   ToolkitPro1501vc60S:XTPDrawHelpers.obj
 0001:000c7120       ?ReleaseColor@CXTPFontDC@@QAEXXZ 004c8120 f   ToolkitPro1501vc60S:XTPDrawHelpers.obj
 0001:000c7150       ??0CXTPPenDC@@QAE@PAVCDC@@PAVCPen@@@Z 004c8150 f   ToolkitPro1501vc60S:XTPDrawHelpers.obj
 0001:000c71b0       ??_ECXTPPenDC@@UAEPAXI@Z   004c81b0 f i ToolkitPro1501vc60S:XTPDrawHelpers.obj
 0001:000c71b0       ??_GCXTPPenDC@@UAEPAXI@Z   004c81b0 f i ToolkitPro1501vc60S:XTPDrawHelpers.obj
 0001:000c71d0       ??0CXTPPenDC@@QAE@PAUHDC__@@K@Z 004c81d0 f   ToolkitPro1501vc60S:XTPDrawHelpers.obj
 0001:000c7260       ??1CXTPPenDC@@UAE@XZ       004c8260 f   ToolkitPro1501vc60S:XTPDrawHelpers.obj
 0001:000c72c0       ?Color@CXTPPenDC@@QAEXK@Z  004c82c0 f   ToolkitPro1501vc60S:XTPDrawHelpers.obj
 0001:000c7320       ??0CXTPBrushDC@@QAE@PAUHDC__@@K@Z 004c8320 f   ToolkitPro1501vc60S:XTPDrawHelpers.obj
 0001:000c73a0       ??_GCXTPBrushDC@@UAEPAXI@Z 004c83a0 f i ToolkitPro1501vc60S:XTPDrawHelpers.obj
 0001:000c73a0       ??_ECXTPBrushDC@@UAEPAXI@Z 004c83a0 f i ToolkitPro1501vc60S:XTPDrawHelpers.obj
 0001:000c73c0       ??1CXTPBrushDC@@UAE@XZ     004c83c0 f   ToolkitPro1501vc60S:XTPDrawHelpers.obj
 0001:000c7420       ??0CXTPCompatibleDC@@QAE@PAVCDC@@PAVCBitmap@@@Z 004c8420 f   ToolkitPro1501vc60S:XTPDrawHelpers.obj
 0001:000c74b0       ??_GCXTPCompatibleDC@@UAEPAXI@Z 004c84b0 f i ToolkitPro1501vc60S:XTPDrawHelpers.obj
 0001:000c74b0       ??_ECXTPCompatibleDC@@UAEPAXI@Z 004c84b0 f i ToolkitPro1501vc60S:XTPDrawHelpers.obj
 0001:000c74d0       ??0CXTPCompatibleDC@@QAE@PAVCDC@@PAUHBITMAP__@@@Z 004c84d0 f   ToolkitPro1501vc60S:XTPDrawHelpers.obj
 0001:000c7550       ??1CXTPCompatibleDC@@UAE@XZ 004c8550 f   ToolkitPro1501vc60S:XTPDrawHelpers.obj
 0001:000c75c0       ??0CXTPSplitterTracker@@QAE@HH@Z 004c85c0 f   ToolkitPro1501vc60S:XTPDrawHelpers.obj
 0001:000c7620       ?OnInvertTracker@CXTPSplitterTracker@@AAEXVCRect@@@Z 004c8620 f   ToolkitPro1501vc60S:XTPDrawHelpers.obj
 0001:000c76d0       ?Track@CXTPSplitterTracker@@QAEHPAVCWnd@@VCRect@@AAV3@VCPoint@@H@Z 004c86d0 f   ToolkitPro1501vc60S:XTPDrawHelpers.obj
 0001:000c7b50       ??0CXTPDrawHelpers@@QAE@XZ 004c8b50 f   ToolkitPro1501vc60S:XTPDrawHelpers.obj
 0001:000c7bb0       ??_ECXTPDrawHelpers@@UAEPAXI@Z 004c8bb0 f i ToolkitPro1501vc60S:XTPDrawHelpers.obj
 0001:000c7bb0       ??_GCXTPDrawHelpers@@UAEPAXI@Z 004c8bb0 f i ToolkitPro1501vc60S:XTPDrawHelpers.obj
 0001:000c7bd0       ?XTPDrawHelpers@@YAPAVCXTPDrawHelpers@@XZ 004c8bd0 f   ToolkitPro1501vc60S:XTPDrawHelpers.obj
 0001:000c7c20       ??1CXTPDrawHelpers@@UAE@XZ 004c8c20 f   ToolkitPro1501vc60S:XTPDrawHelpers.obj
 0001:000c7c30       ?GradientFill@CXTPDrawHelpers@@QAEHPAUHDC__@@PAU_TRIVERTEX@@KPAXKK@Z 004c8c30 f   ToolkitPro1501vc60S:XTPDrawHelpers.obj
 0001:000c7c60       ?GradientFillSlow@CXTPDrawHelpers@@AAEXPAVCDC@@PBUtagRECT@@KKH@Z 004c8c60 f   ToolkitPro1501vc60S:XTPDrawHelpers.obj
 0001:000c7dd0       ?GradientFillFast@CXTPDrawHelpers@@AAEXPAVCDC@@PBUtagRECT@@KKH@Z 004c8dd0 f   ToolkitPro1501vc60S:XTPDrawHelpers.obj
 0001:000c7ea0       ?GradientFill@CXTPDrawHelpers@@QAEXPAVCDC@@PBUtagRECT@@KKH@Z 004c8ea0 f   ToolkitPro1501vc60S:XTPDrawHelpers.obj
 0001:000c7f70       ?GradientFill@CXTPDrawHelpers@@QAEXPAVCDC@@PBUtagRECT@@KKH1@Z 004c8f70 f   ToolkitPro1501vc60S:XTPDrawHelpers.obj
 0001:000c8180       ?GradientFill@CXTPDrawHelpers@@QAEXPAVCDC@@PBUtagRECT@@ABVCXTPPaintManagerColorGradient@@H1@Z 004c9180 f   ToolkitPro1501vc60S:XTPDrawHelpers.obj
 0001:000c8340       ?StripMnemonics@CXTPDrawHelpers@@SAXAAVCString@@@Z 004c9340 f   ToolkitPro1501vc60S:XTPDrawHelpers.obj
 0001:000c8370       ?StripMnemonics@CXTPDrawHelpers@@SAXPAD@Z 004c9370 f   ToolkitPro1501vc60S:XTPDrawHelpers.obj
 0001:000c83a0       ?BlendColors@CXTPDrawHelpers@@SAKKKN@Z 004c93a0 f   ToolkitPro1501vc60S:XTPDrawHelpers.obj
 0001:000c8490       ?DarkenColor@CXTPDrawHelpers@@SAKJK@Z 004c9490 f   ToolkitPro1501vc60S:XTPDrawHelpers.obj
 0001:000c8500       ?Dlu2Pix@CXTPDrawHelpers@@SA?AVCPoint@@HH@Z 004c9500 f   ToolkitPro1501vc60S:XTPDrawHelpers.obj
 0001:000c8540       ?RGBtoHSL@CXTPDrawHelpers@@SAKK@Z 004c9540 f   ToolkitPro1501vc60S:XTPDrawHelpers.obj
 0001:000c86e0       ?HueToRGB@CXTPDrawHelpers@@CAHHHH@Z 004c96e0 f   ToolkitPro1501vc60S:XTPDrawHelpers.obj
 0001:000c87b0       ?HSLtoRGB@CXTPDrawHelpers@@SAKK@Z 004c97b0 f   ToolkitPro1501vc60S:XTPDrawHelpers.obj
 0001:000c88e0       ?FontExists@CXTPDrawHelpers@@SAHPBD@Z 004c98e0 f   ToolkitPro1501vc60S:XTPDrawHelpers.obj
 0001:000c89c0       ?GetVerticalFontName@CXTPDrawHelpers@@SA?AVCString@@H@Z 004c99c0 f   ToolkitPro1501vc60S:XTPDrawHelpers.obj
 0001:000c8ad0       ?IsContextRTL@CXTPDrawHelpers@@SAHPAVCDC@@@Z 004c9ad0 f   ToolkitPro1501vc60S:XTPDrawHelpers.obj
 0001:000c8b00       ?IsContextRTL@CXTPDrawHelpers@@SAHPAUHDC__@@@Z 004c9b00 f   ToolkitPro1501vc60S:XTPDrawHelpers.obj
 0001:000c8b50       ?SetContextRTL@CXTPDrawHelpers@@SAXPAVCDC@@H@Z 004c9b50 f   ToolkitPro1501vc60S:XTPDrawHelpers.obj
 0001:000c8b70       ?SetContextRTL@CXTPDrawHelpers@@SAXPAUHDC__@@H@Z 004c9b70 f   ToolkitPro1501vc60S:XTPDrawHelpers.obj
 0001:000c8bc0       ?KeyToLayout@CXTPDrawHelpers@@SAXPAVCWnd@@AAI@Z 004c9bc0 f   ToolkitPro1501vc60S:XTPDrawHelpers.obj
 0001:000c8c10       ?Triangle@CXTPDrawHelpers@@SAXPAVCDC@@VCPoint@@11K@Z 004c9c10 f   ToolkitPro1501vc60S:XTPDrawHelpers.obj
 0001:000c8ce0       ?IsLowResolution@CXTPDrawHelpers@@SAHPAUHDC__@@@Z 004c9ce0 f   ToolkitPro1501vc60S:XTPDrawHelpers.obj
 0001:000c8d00       ?IsTopParentActive@CXTPDrawHelpers@@SAHPAUHWND__@@@Z 004c9d00 f   ToolkitPro1501vc60S:XTPDrawHelpers.obj
 0001:000c8d40       ?ScreenToWindow@CXTPDrawHelpers@@SAXPAVCWnd@@PAUtagPOINT@@@Z 004c9d40 f   ToolkitPro1501vc60S:XTPDrawHelpers.obj
 0001:000c8db0       ?RegisterWndClass@CXTPDrawHelpers@@SAHPAUHINSTANCE__@@PBDIPAUHICON__@@PAUHBRUSH__@@@Z 004c9db0 f   ToolkitPro1501vc60S:XTPDrawHelpers.obj
 0001:000c8e30       ?GetWindowCaption@CXTPDrawHelpers@@SAXPAUHWND__@@AAVCString@@@Z 004c9e30 f   ToolkitPro1501vc60S:XTPDrawHelpers.obj
 0001:000c8e70       ?GetIconLogFont@CXTPDrawHelpers@@SAHPAUtagLOGFONTA@@@Z 004c9e70 f   ToolkitPro1501vc60S:XTPDrawHelpers.obj
 0001:000c8ee0       ??1?$CProcessLocal@VXTP_PRINT_STATE@@@@QAE@XZ 004c9ee0 f i ToolkitPro1501vc60S:XTPDrawHelpers.obj
 0001:000c8ee0       ??1?$CProcessLocal@VCXTPResourceManager@@@@QAE@XZ 004c9ee0 f i ToolkitPro1501vc60S:XTPDrawHelpers.obj
 0001:000c8ef0       ?GetRuntimeClass@CXTPCustomizeSheet@@UBEPAUCRuntimeClass@@XZ 004c9ef0 f   ToolkitPro1501vc60S:XTPCustomizeSheet.obj
 0001:000c8f00       ??0CXTPCustomizeSheet@@QAE@PAVCXTPCommandBars@@I@Z 004c9f00 f   ToolkitPro1501vc60S:XTPCustomizeSheet.obj
 0001:000c9120       ??_ECXTPCustomizeSheet@@UAEPAXI@Z 004ca120 f i ToolkitPro1501vc60S:XTPCustomizeSheet.obj
 0001:000c9120       ??_GCXTPCustomizeSheet@@UAEPAXI@Z 004ca120 f i ToolkitPro1501vc60S:XTPCustomizeSheet.obj
 0001:000c9140       ??1CXTPCustomizeSheet@@UAE@XZ 004ca140 f   ToolkitPro1501vc60S:XTPCustomizeSheet.obj
 0001:000c91d0       ?CreateContextMenu@CXTPCustomizeSheet@@AAEXXZ 004ca1d0 f   ToolkitPro1501vc60S:XTPCustomizeSheet.obj
 0001:000c9530       ?GetCustomizeMinWidth@CXTPControlEdit@@MBEHXZ 004ca530 f i ToolkitPro1501vc60S:XTPCustomizeSheet.obj
 0001:000c9540       ?OnThemeChanged@CXTPControlEdit@@MAEXXZ 004ca540 f i ToolkitPro1501vc60S:XTPCustomizeSheet.obj
 0001:000c9550       ?OnExecute@CCustomizeButton@CXTPCustomizeSheet@@EAEXXZ 004ca550 f i ToolkitPro1501vc60S:XTPCustomizeSheet.obj
 0001:000c95b0       ?OnSetSelected@CCustomizeEdit@CXTPCustomizeSheet@@EAEHH@Z 004ca5b0 f i ToolkitPro1501vc60S:XTPCustomizeSheet.obj
 0001:000c9630       ?OnExecute@CCustomizeEdit@CXTPCustomizeSheet@@EAEXXZ 004ca630 f i ToolkitPro1501vc60S:XTPCustomizeSheet.obj
 0001:000c9690       ??_GCCustomizeEdit@CXTPCustomizeSheet@@UAEPAXI@Z 004ca690 f i ToolkitPro1501vc60S:XTPCustomizeSheet.obj
 0001:000c9690       ??_ECCustomizeEdit@CXTPCustomizeSheet@@UAEPAXI@Z 004ca690 f i ToolkitPro1501vc60S:XTPCustomizeSheet.obj
 0001:000c96b0       ??1CCustomizeEdit@CXTPCustomizeSheet@@UAE@XZ 004ca6b0 f i ToolkitPro1501vc60S:XTPCustomizeSheet.obj
 0001:000c96c0       ?AddPage@CXTPCustomizeSheet@@QAEXPAVCXTPPropertyPage@@@Z 004ca6c0 f   ToolkitPro1501vc60S:XTPCustomizeSheet.obj
 0001:000c96f0       ?GetMessageMap@CXTPCustomizeSheet@@MBEPBUAFX_MSGMAP@@XZ 004ca6f0 f   ToolkitPro1501vc60S:XTPCustomizeSheet.obj
 0001:000c9700       ?CreateClient@CXTPCustomizeSheet@@EAEHXZ 004ca700 f   ToolkitPro1501vc60S:XTPCustomizeSheet.obj
 0001:000c9710       ?OnInitDialog@CXTPCustomizeSheet@@MAEHXZ 004ca710 f   ToolkitPro1501vc60S:XTPCustomizeSheet.obj
 0001:000c97d0       ?ContextMenu@CXTPCustomizeSheet@@QAEXVCPoint@@@Z 004ca7d0 f   ToolkitPro1501vc60S:XTPCustomizeSheet.obj
 0001:000c9820       ?DoModal@CXTPCustomizeSheet@@UAEHXZ 004ca820 f   ToolkitPro1501vc60S:XTPCustomizeSheet.obj
 0001:000c9b30       ??0CXTPCustomizeHook@@QAE@PAVCXTPCustomizeSheet@@P81@AEHIJ@Z@Z 004cab30 f i ToolkitPro1501vc60S:XTPCustomizeSheet.obj
 0001:000c9b50       ??1CXTPCustomizeHook@@QAE@XZ 004cab50 f i ToolkitPro1501vc60S:XTPCustomizeSheet.obj
 0001:000c9b50       ?Unhook@CXTPCustomizeHook@@QAEXXZ 004cab50 f i ToolkitPro1501vc60S:XTPCustomizeSheet.obj
 0001:000c9b70       ??1CXTPCustomizeHooks@@QAE@XZ 004cab70 f i ToolkitPro1501vc60S:XTPCustomizeSheet.obj
 0001:000c9be0       ?MouseProc@CXTPCustomizeHooks@@SGJHIJ@Z 004cabe0 f i ToolkitPro1501vc60S:XTPCustomizeSheet.obj
 0001:000c9c30       ?KeyProc@CXTPCustomizeHooks@@SGJHIJ@Z 004cac30 f i ToolkitPro1501vc60S:XTPCustomizeSheet.obj
 0001:000c9c80       ?MessageProc@CXTPCustomizeHooks@@SGJHIJ@Z 004cac80 f i ToolkitPro1501vc60S:XTPCustomizeSheet.obj
 0001:000c9cd0       ?FilterMouse@CXTPCustomizeSheet@@AAEHIJ@Z 004cacd0 f   ToolkitPro1501vc60S:XTPCustomizeSheet.obj
 0001:000c9ef0       ?FilterKey@CXTPCustomizeSheet@@AAEHIJ@Z 004caef0 f   ToolkitPro1501vc60S:XTPCustomizeSheet.obj
 0001:000c9f90       ?FilterMessage@CXTPCustomizeSheet@@AAEHIJ@Z 004caf90 f   ToolkitPro1501vc60S:XTPCustomizeSheet.obj
 0001:000c9fe0       ?GetDragControl@CXTPCustomizeSheet@@QBEPAVCXTPControl@@XZ 004cafe0 f   ToolkitPro1501vc60S:XTPCustomizeSheet.obj
 0001:000ca000       ?OnCustomizeDefaultStyle@CXTPCustomizeSheet@@IAEXXZ 004cb000 f   ToolkitPro1501vc60S:XTPCustomizeSheet.obj
 0001:000ca030       ?OnCustomizeImageAndText@CXTPCustomizeSheet@@IAEXXZ 004cb030 f   ToolkitPro1501vc60S:XTPCustomizeSheet.obj
 0001:000ca060       ?OnCustomizeTextOnly@CXTPCustomizeSheet@@IAEXXZ 004cb060 f   ToolkitPro1501vc60S:XTPCustomizeSheet.obj
 0001:000ca090       ?OnCustomizeBeginGroup@CXTPCustomizeSheet@@IAEXXZ 004cb090 f   ToolkitPro1501vc60S:XTPCustomizeSheet.obj
 0001:000ca0c0       ?OnCustomizeDelete@CXTPCustomizeSheet@@IAEXXZ 004cb0c0 f   ToolkitPro1501vc60S:XTPCustomizeSheet.obj
 0001:000ca100       ?OnCustomizeEditImage@CXTPCustomizeSheet@@IAEXXZ 004cb100 f   ToolkitPro1501vc60S:XTPCustomizeSheet.obj
 0001:000ca490       ??1CDlgToolBar@CXTPImageEditorDlg@@UAE@XZ 004cb490 f i ToolkitPro1501vc60S:XTPCustomizeSheet.obj
 0001:000ca4a0       ??1CXTPImageEditorDlg@@UAE@XZ 004cb4a0 f i ToolkitPro1501vc60S:XTPCustomizeSheet.obj
 0001:000ca5a0       ?OnCustomizeCopyImage@CXTPCustomizeSheet@@IAEXXZ 004cb5a0 f   ToolkitPro1501vc60S:XTPCustomizeSheet.obj
 0001:000ca900       ?OnCustomizePasteImage@CXTPCustomizeSheet@@IAEXXZ 004cb900 f   ToolkitPro1501vc60S:XTPCustomizeSheet.obj
 0001:000cab20       ?OnCustomizeResetImage@CXTPCustomizeSheet@@IAEXXZ 004cbb20 f   ToolkitPro1501vc60S:XTPCustomizeSheet.obj
 0001:000cab50       ?OnCustomizeReset@CXTPCustomizeSheet@@IAEXXZ 004cbb50 f   ToolkitPro1501vc60S:XTPCustomizeSheet.obj
 0001:000cab70       ?OnInitCommandsPopup@CXTPCustomizeSheet@@IAEXPAVCXTPPopupBar@@@Z 004cbb70 f   ToolkitPro1501vc60S:XTPCustomizeSheet.obj
 0001:000cac90       ?OnCmdMsg@CXTPCustomizeSheet@@MAEHIHPAXPAUAFX_CMDHANDLERINFO@@@Z 004cbc90 f   ToolkitPro1501vc60S:XTPCustomizeSheet.obj
 0001:000cad10       ?OnCustomizeName@CXTPCustomizeSheet@@IAEJIJ@Z 004cbd10 f   ToolkitPro1501vc60S:XTPCustomizeSheet.obj
 0001:000caf00       ?IsAllowChangeStyle@CXTPCustomizeSheet@@ABEHPAVCXTPControl@@@Z 004cbf00 f   ToolkitPro1501vc60S:XTPCustomizeSheet.obj
 0001:000caf90       ?OnUpdateCustomizeDefaultStyle@CXTPCustomizeSheet@@IAEXPAVCCmdUI@@@Z 004cbf90 f   ToolkitPro1501vc60S:XTPCustomizeSheet.obj
 0001:000cb000       ?OnUpdateCustomizeImageAndText@CXTPCustomizeSheet@@IAEXPAVCCmdUI@@@Z 004cc000 f   ToolkitPro1501vc60S:XTPCustomizeSheet.obj
 0001:000cb050       ?OnUpdateCustomizeTextOnly@CXTPCustomizeSheet@@IAEXPAVCCmdUI@@@Z 004cc050 f   ToolkitPro1501vc60S:XTPCustomizeSheet.obj
 0001:000cb0a0       ?OnUpdateCustomizeCopyImage@CXTPCustomizeSheet@@IAEXPAVCCmdUI@@@Z 004cc0a0 f   ToolkitPro1501vc60S:XTPCustomizeSheet.obj
 0001:000cb0a0       ?OnUpdateCustomizeEditImage@CXTPCustomizeSheet@@IAEXPAVCCmdUI@@@Z 004cc0a0 f   ToolkitPro1501vc60S:XTPCustomizeSheet.obj
 0001:000cb130       ?OnUpdateCustomizePasteImage@CXTPCustomizeSheet@@IAEXPAVCCmdUI@@@Z 004cc130 f   ToolkitPro1501vc60S:XTPCustomizeSheet.obj
 0001:000cb190       ?OnUpdateCustomizeResetImage@CXTPCustomizeSheet@@IAEXPAVCCmdUI@@@Z 004cc190 f   ToolkitPro1501vc60S:XTPCustomizeSheet.obj
 0001:000cb1c0       ?OnUpdateCustomizeReset@CXTPCustomizeSheet@@IAEXPAVCCmdUI@@@Z 004cc1c0 f   ToolkitPro1501vc60S:XTPCustomizeSheet.obj
 0001:000cb210       ?OnUpdateCustomizeBeginGroup@CXTPCustomizeSheet@@IAEXPAVCCmdUI@@@Z 004cc210 f   ToolkitPro1501vc60S:XTPCustomizeSheet.obj
 0001:000cb250       ?OnUpdateCustomizeName@CXTPCustomizeSheet@@IAEXPAVCCmdUI@@@Z 004cc250 f   ToolkitPro1501vc60S:XTPCustomizeSheet.obj
 0001:000cb340       ?OnSysKeyDown@CXTPCustomizeSheet@@IAEXIII@Z 004cc340 f   ToolkitPro1501vc60S:XTPCustomizeSheet.obj
 0001:000cb340       ?OnRButtonDown@CXTPTabClientWnd@@IAEXIVCPoint@@@Z 004cc340 f   ToolkitPro1501vc60S:XTPCustomizeSheet.obj
 0001:000cb340       ?OnSize@CXTPTabClientWnd@@IAEXIHH@Z 004cc340 f   ToolkitPro1501vc60S:XTPCustomizeSheet.obj
 0001:000cb340       ?OnChar@CXTPDockingPaneWindowSelect@@QAEXIII@Z 004cc340 f   ToolkitPro1501vc60S:XTPCustomizeSheet.obj
 0001:000cb350       ?OnGrabFocus@CXTPCustomizeSheet@@IAEXXZ 004cc350 f   ToolkitPro1501vc60S:XTPCustomizeSheet.obj
 0001:000cb360       ?PreTranslateMessage@CXTPCustomizeSheet@@MAEHPAUtagMSG@@@Z 004cc360 f   ToolkitPro1501vc60S:XTPCustomizeSheet.obj
 0001:000cb370       ?MessageBoxA@CXTPCustomizeSheet@@QAEHPBDI@Z 004cc370 f   ToolkitPro1501vc60S:XTPCustomizeSheet.obj
 0001:000cb460       ??1COleDataObject@@QAE@XZ  004cc460 f i ToolkitPro1501vc60S:XTPCustomizeSheet.obj
 0001:000cb470       ??_ECCustomizeEdit@CXTPCustomizeSheet@@WBM@AEPAXI@Z 004cc470 f i ToolkitPro1501vc60S:XTPCustomizeSheet.obj
 0001:000cb480       ??0CXTPGroupLine@@QAE@XZ   004cc480 f   ToolkitPro1501vc60S:XTPCustomizeOptionsPage.obj
 0001:000cb4f0       ??_ECXTPGroupLine@@UAEPAXI@Z 004cc4f0 f i ToolkitPro1501vc60S:XTPCustomizeOptionsPage.obj
 0001:000cb4f0       ??_GCXTPGroupLine@@UAEPAXI@Z 004cc4f0 f i ToolkitPro1501vc60S:XTPCustomizeOptionsPage.obj
 0001:000cb510       ??1CXTPGroupLine@@UAE@XZ   004cc510 f i ToolkitPro1501vc60S:XTPCustomizeOptionsPage.obj
 0001:000cb560       ?GetMessageMap@CXTPGroupLine@@MBEPBUAFX_MSGMAP@@XZ 004cc560 f   ToolkitPro1501vc60S:XTPCustomizeOptionsPage.obj
 0001:000cb570       ?OnPaint@CXTPGroupLine@@IAEXXZ 004cc570 f   ToolkitPro1501vc60S:XTPCustomizeOptionsPage.obj
 0001:000cb830       ??0CXTPCustomizeOptionsPage@@QAE@PAVCXTPCustomizeSheet@@@Z 004cc830 f   ToolkitPro1501vc60S:XTPCustomizeOptionsPage.obj
 0001:000cb910       ??_ECXTPCustomizeOptionsPage@@UAEPAXI@Z 004cc910 f i ToolkitPro1501vc60S:XTPCustomizeOptionsPage.obj
 0001:000cb910       ??_GCXTPCustomizeOptionsPage@@UAEPAXI@Z 004cc910 f i ToolkitPro1501vc60S:XTPCustomizeOptionsPage.obj
 0001:000cb930       ??1CXTPCustomizeOptionsPage@@UAE@XZ 004cc930 f   ToolkitPro1501vc60S:XTPCustomizeOptionsPage.obj
 0001:000cb9e0       ?GetCommandBars@CXTPCustomizeOptionsPage@@QBEPAVCXTPCommandBars@@XZ 004cc9e0 f   ToolkitPro1501vc60S:XTPCustomizeOptionsPage.obj
 0001:000cba00       ?DoDataExchange@CXTPCustomizeOptionsPage@@MAEXPAVCDataExchange@@@Z 004cca00 f   ToolkitPro1501vc60S:XTPCustomizeOptionsPage.obj
 0001:000cba80       ?GetMessageMap@CXTPCustomizeOptionsPage@@MBEPBUAFX_MSGMAP@@XZ 004cca80 f   ToolkitPro1501vc60S:XTPCustomizeOptionsPage.obj
 0001:000cba90       ?AddComboString@CXTPCustomizeOptionsPage@@IAEXI@Z 004cca90 f   ToolkitPro1501vc60S:XTPCustomizeOptionsPage.obj
 0001:000cbb10       ?OnInitDialog@CXTPCustomizeOptionsPage@@MAEHXZ 004ccb10 f   ToolkitPro1501vc60S:XTPCustomizeOptionsPage.obj
 0001:000cbc90       ?OnCheckFullMenus@CXTPCustomizeOptionsPage@@IAEXXZ 004ccc90 f   ToolkitPro1501vc60S:XTPCustomizeOptionsPage.obj
 0001:000cbcd0       ?OnAnimationChanged@CXTPCustomizeOptionsPage@@IAEXXZ 004cccd0 f   ToolkitPro1501vc60S:XTPCustomizeOptionsPage.obj
 0001:000cbd00       ?OnCheckAfterdelay@CXTPCustomizeOptionsPage@@IAEXXZ 004ccd00 f   ToolkitPro1501vc60S:XTPCustomizeOptionsPage.obj
 0001:000cbd20       ?OnCheckLargeicons@CXTPCustomizeOptionsPage@@IAEXXZ 004ccd20 f   ToolkitPro1501vc60S:XTPCustomizeOptionsPage.obj
 0001:000cbd50       ?OnCheckScreenttips@CXTPCustomizeOptionsPage@@IAEXXZ 004ccd50 f   ToolkitPro1501vc60S:XTPCustomizeOptionsPage.obj
 0001:000cbd90       ?OnCheckShortcuts@CXTPCustomizeOptionsPage@@IAEXXZ 004ccd90 f   ToolkitPro1501vc60S:XTPCustomizeOptionsPage.obj
 0001:000cbdb0       ?OnResetData@CXTPCustomizeOptionsPage@@IAEXXZ 004ccdb0 f   ToolkitPro1501vc60S:XTPCustomizeOptionsPage.obj
 0001:000cbe50       ??_ECXTPCustomizeOptionsPage@@WIM@AEPAXI@Z 004cce50 f i ToolkitPro1501vc60S:XTPCustomizeOptionsPage.obj
 0001:000cbe60       ??0XTP_COMMANDBARS_CATEGORYINFO@@QAE@PBDPAVCXTPCommandBars@@@Z 004cce60 f   ToolkitPro1501vc60S:XTPCustomizeCommandsPage.obj
 0001:000cbef0       ??1XTP_COMMANDBARS_CATEGORYINFO@@QAE@XZ 004ccef0 f   ToolkitPro1501vc60S:XTPCustomizeCommandsPage.obj
 0001:000cbf40       ?DrawItem@CXTPCustomizeCommandsListBox@@MAEXPAUtagDRAWITEMSTRUCT@@@Z 004ccf40 f   ToolkitPro1501vc60S:XTPCustomizeCommandsPage.obj
 0001:000cbfc0       ?GetMessageMap@CXTPCustomizeCommandsListBox@@MBEPBUAFX_MSGMAP@@XZ 004ccfc0 f   ToolkitPro1501vc60S:XTPCustomizeCommandsPage.obj
 0001:000cbfd0       ?WindowProc@CXTPCustomizeCommandsListBox@@MAEJIIJ@Z 004ccfd0 f   ToolkitPro1501vc60S:XTPCustomizeCommandsPage.obj
 0001:000cc190       ?OnSetFocus@CXTPCustomizeCommandsListBox@@IAEXPAVCWnd@@@Z 004cd190 f   ToolkitPro1501vc60S:XTPCustomizeCommandsPage.obj
 0001:000cc1e0       ?OnLButtonDown@CXTPCustomizeCommandsListBox@@IAEXIVCPoint@@@Z 004cd1e0 f   ToolkitPro1501vc60S:XTPCustomizeCommandsPage.obj
 0001:000cc330       ?CreateObject@CXTPCustomizeCommandsPage@@SGPAVCObject@@XZ 004cd330 f   ToolkitPro1501vc60S:XTPCustomizeCommandsPage.obj
 0001:000cc390       ?GetRuntimeClass@CXTPCustomizeCommandsPage@@UBEPAUCRuntimeClass@@XZ 004cd390 f   ToolkitPro1501vc60S:XTPCustomizeCommandsPage.obj
 0001:000cc3a0       ??0CXTPCustomizeCommandsPage@@QAE@PAVCXTPCustomizeSheet@@@Z 004cd3a0 f   ToolkitPro1501vc60S:XTPCustomizeCommandsPage.obj
 0001:000cc460       ??_ECXTPCustomizeCommandsPage@@UAEPAXI@Z 004cd460 f i ToolkitPro1501vc60S:XTPCustomizeCommandsPage.obj
 0001:000cc460       ??_GCXTPCustomizeCommandsPage@@UAEPAXI@Z 004cd460 f i ToolkitPro1501vc60S:XTPCustomizeCommandsPage.obj
 0001:000cc480       ??1CXTPCustomizeCommandsPage@@UAE@XZ 004cd480 f   ToolkitPro1501vc60S:XTPCustomizeCommandsPage.obj
 0001:000cc560       ?DoDataExchange@CXTPCustomizeCommandsPage@@MAEXPAVCDataExchange@@@Z 004cd560 f   ToolkitPro1501vc60S:XTPCustomizeCommandsPage.obj
 0001:000cc5a0       ?FindCategory@CXTPCustomizeCommandsPage@@QBEPAUXTP_COMMANDBARS_CATEGORYINFO@@PBD@Z 004cd5a0 f   ToolkitPro1501vc60S:XTPCustomizeCommandsPage.obj
 0001:000cc5f0       ?GetCategoryInfo@CXTPCustomizeCommandsPage@@QBEPAUXTP_COMMANDBARS_CATEGORYINFO@@H@Z 004cd5f0 f   ToolkitPro1501vc60S:XTPCustomizeCommandsPage.obj
 0001:000cc620       ?AddCategory@CXTPCustomizeCommandsPage@@QAEHPBDPAVCMenu@@H@Z 004cd620 f   ToolkitPro1501vc60S:XTPCustomizeCommandsPage.obj
 0001:000cc6e0       ?AddCategories@CXTPCustomizeCommandsPage@@QAEHIH@Z 004cd6e0 f   ToolkitPro1501vc60S:XTPCustomizeCommandsPage.obj
 0001:000cc860       ?InsertBuiltInMenus@CXTPCustomizeCommandsPage@@QAEHIIH@Z 004cd860 f   ToolkitPro1501vc60S:XTPCustomizeCommandsPage.obj
 0001:000cca30       ?InsertNewMenuCategory@CXTPCustomizeCommandsPage@@QAEXIH@Z 004cda30 f   ToolkitPro1501vc60S:XTPCustomizeCommandsPage.obj
 0001:000ccb80       ?InsertCategory@CXTPCustomizeCommandsPage@@QAEPAVCXTPControls@@PBDH@Z 004cdb80 f   ToolkitPro1501vc60S:XTPCustomizeCommandsPage.obj
 0001:000ccdd0       ?InsertAllCommandsCategory@CXTPCustomizeCommandsPage@@QAEXIHH@Z 004cddd0 f   ToolkitPro1501vc60S:XTPCustomizeCommandsPage.obj
 0001:000cd090       ?GetMessageMap@CXTPCustomizeCommandsPage@@MBEPBUAFX_MSGMAP@@XZ 004ce090 f   ToolkitPro1501vc60S:XTPCustomizeCommandsPage.obj
 0001:000cd0a0       ?OnInitDialog@CXTPCustomizeCommandsPage@@MAEHXZ 004ce0a0 f   ToolkitPro1501vc60S:XTPCustomizeCommandsPage.obj
 0001:000cd270       ?OnDestroy@CXTPCustomizeCommandsPage@@IAEXXZ 004ce270 f   ToolkitPro1501vc60S:XTPCustomizeCommandsPage.obj
 0001:000cd2a0       ?OnCategoriesSelectionChanged@CXTPCustomizeCommandsPage@@IAEXXZ 004ce2a0 f   ToolkitPro1501vc60S:XTPCustomizeCommandsPage.obj
 0001:000cd360       ??1?$CArray@PAUXTP_COMMANDBARS_CATEGORYINFO@@PAU1@@@UAE@XZ 004ce360 f i ToolkitPro1501vc60S:XTPCustomizeCommandsPage.obj
 0001:000cd3b0       ??_G?$CArray@PAUXTP_COMMANDBARS_CATEGORYINFO@@PAU1@@@UAEPAXI@Z 004ce3b0 f i ToolkitPro1501vc60S:XTPCustomizeCommandsPage.obj
 0001:000cd3b0       ??_E?$CArray@PAUXTP_COMMANDBARS_CATEGORYINFO@@PAU1@@@UAEPAXI@Z 004ce3b0 f i ToolkitPro1501vc60S:XTPCustomizeCommandsPage.obj
 0001:000cd3d0       ?SetSize@?$CArray@PAUCAnimateInfo@CXTPCommandBarAnimation@@PAU12@@@QAEXHH@Z 004ce3d0 f i ToolkitPro1501vc60S:XTPCustomizeCommandsPage.obj
 0001:000cd3d0       ?SetSize@?$CArray@PAVCXTPImageManagerImageList@@PAV1@@@QAEXHH@Z 004ce3d0 f i ToolkitPro1501vc60S:XTPCustomizeCommandsPage.obj
 0001:000cd3d0       ?SetSize@?$CArray@PAVCXTPMarkupObject@@PAV1@@@QAEXHH@Z 004ce3d0 f i ToolkitPro1501vc60S:XTPCustomizeCommandsPage.obj
 0001:000cd3d0       ?SetSize@?$CArray@PAUTOOLITEM@CXTPToolTipContextToolTip@@PAU12@@@QAEXHH@Z 004ce3d0 f i ToolkitPro1501vc60S:XTPCustomizeCommandsPage.obj
 0001:000cd3d0       ?SetSize@?$CArray@PAVCXTPPropertyPage@@PAV1@@@QAEXHH@Z 004ce3d0 f i ToolkitPro1501vc60S:XTPCustomizeCommandsPage.obj
 0001:000cd3d0       ?SetSize@?$CArray@PAVCXTPTabManagerItem@@PAV1@@@QAEXHH@Z 004ce3d0 f i ToolkitPro1501vc60S:XTPCustomizeCommandsPage.obj
 0001:000cd3d0       ?SetSize@?$CArray@PAVCXTPControl@@PAV1@@@QAEXHH@Z 004ce3d0 f i ToolkitPro1501vc60S:XTPCustomizeCommandsPage.obj
 0001:000cd3d0       ?SetSize@?$CArray@PAVCXTPControlAction@@PAV1@@@QAEXHH@Z 004ce3d0 f i ToolkitPro1501vc60S:XTPCustomizeCommandsPage.obj
 0001:000cd3d0       ?SetSize@?$CArray@PAUXTP_COMMANDBARS_CATEGORYINFO@@PAU1@@@QAEXHH@Z 004ce3d0 f i ToolkitPro1501vc60S:XTPCustomizeCommandsPage.obj
 0001:000cd3d0       ?SetSize@?$CArray@PAUHWND__@@PAU1@@@QAEXHH@Z 004ce3d0 f i ToolkitPro1501vc60S:XTPCustomizeCommandsPage.obj
 0001:000cd3d0       ?SetSize@?$CArray@PAVCXTPCommandBarKeyboardTip@@PAV1@@@QAEXHH@Z 004ce3d0 f i ToolkitPro1501vc60S:XTPCustomizeCommandsPage.obj
 0001:000cd3d0       ?SetSize@?$CArray@PAUCItem@CXTPDockingPaneWindowSelect@@PAU12@@@QAEXHH@Z 004ce3d0 f i ToolkitPro1501vc60S:XTPCustomizeCommandsPage.obj
 0001:000cd3d0       ?SetSize@?$CArray@PAUXTP_IMAGERESOURCE_INFO@@PAU1@@@QAEXHH@Z 004ce3d0 f i ToolkitPro1501vc60S:XTPCustomizeCommandsPage.obj
 0001:000cd3d0       ?SetSize@?$CArray@PAVCXTPToolBar@@PAV1@@@QAEXHH@Z 004ce3d0 f i ToolkitPro1501vc60S:XTPCustomizeCommandsPage.obj
 0001:000cd3d0       ?SetSize@?$CArray@PAVCXTPDockingPaneCaptionButton@@PAV1@@@QAEXHH@Z 004ce3d0 f i ToolkitPro1501vc60S:XTPCustomizeCommandsPage.obj
 0001:000cd3d0       ?SetSize@?$CArray@PAVCAutoHidePanelTabManager@CXTPDockingPaneAutoHidePanel@@PAV12@@@QAEXHH@Z 004ce3d0 f i ToolkitPro1501vc60S:XTPCustomizeCommandsPage.obj
 0001:000cd3d0       ?SetSize@?$CArray@PAVCXTPRibbonGroup@@PAV1@@@QAEXHH@Z 004ce3d0 f i ToolkitPro1501vc60S:XTPCustomizeCommandsPage.obj
 0001:000cd3d0       ?SetSize@?$CArray@PAVCXTPHookManagerHookAble@@PAV1@@@QAEXHH@Z 004ce3d0 f i ToolkitPro1501vc60S:XTPCustomizeCommandsPage.obj
 0001:000cd3d0       ?SetSize@?$CArray@PAVCXTPTabManagerNavigateButton@@PAV1@@@QAEXHH@Z 004ce3d0 f i ToolkitPro1501vc60S:XTPCustomizeCommandsPage.obj
 0001:000cd3d0       ?SetSize@?$CArray@PAVCXTPDockingPaneSidePanel@@PAV1@@@QAEXHH@Z 004ce3d0 f i ToolkitPro1501vc60S:XTPCustomizeCommandsPage.obj
 0001:000cd510       ?ConstructElements@@YGXPAPAUXTP_COMMANDBARS_CATEGORYINFO@@H@Z 004ce510 f i ToolkitPro1501vc60S:XTPCustomizeCommandsPage.obj
 0001:000cd510       ?ConstructElements@@YGXPAPAVCXTPToolBar@@H@Z 004ce510 f i ToolkitPro1501vc60S:XTPCustomizeCommandsPage.obj
 0001:000cd510       ?ConstructElements@@YGXPAPAVCXTPDockingPaneBase@@H@Z 004ce510 f i ToolkitPro1501vc60S:XTPCustomizeCommandsPage.obj
 0001:000cd510       ?ConstructElements@@YGXPAMH@Z 004ce510 f i ToolkitPro1501vc60S:XTPCustomizeCommandsPage.obj
 0001:000cd510       ?ConstructElements@@YGXPAPAUHKL__@@H@Z 004ce510 f i ToolkitPro1501vc60S:XTPCustomizeCommandsPage.obj
 0001:000cd510       ?ConstructElements@@YGXPAPAVCXTPMarkupObject@@H@Z 004ce510 f i ToolkitPro1501vc60S:XTPCustomizeCommandsPage.obj
 0001:000cd510       ?ConstructElements@@YGXPAPAVCShadowWnd@CXTPShadowManager@@H@Z 004ce510 f i ToolkitPro1501vc60S:XTPCustomizeCommandsPage.obj
 0001:000cd510       ?ConstructElements@@YGXPAHH@Z 004ce510 f i ToolkitPro1501vc60S:XTPCustomizeCommandsPage.obj
 0001:000cd510       ?ConstructElements@@YGXPAPAVCXTPRibbonGroup@@H@Z 004ce510 f i ToolkitPro1501vc60S:XTPCustomizeCommandsPage.obj
 0001:000cd510       ?ConstructElements@@YGXPAPAVCXTPControl@@H@Z 004ce510 f i ToolkitPro1501vc60S:XTPCustomizeCommandsPage.obj
 0001:000cd510       ?ConstructElements@@YGXPAPAUXTP_IMAGERESOURCE_INFO@@H@Z 004ce510 f i ToolkitPro1501vc60S:XTPCustomizeCommandsPage.obj
 0001:000cd510       ?ConstructElements@@YGXPAPAVCXTPImageManagerIconSet@@H@Z 004ce510 f i ToolkitPro1501vc60S:XTPCustomizeCommandsPage.obj
 0001:000cd510       ?ConstructElements@@YGXPAPAVCXTPControlAction@@H@Z 004ce510 f i ToolkitPro1501vc60S:XTPCustomizeCommandsPage.obj
 0001:000cd530       ??_ECXTPCustomizeCommandsPage@@WIM@AEPAXI@Z 004ce530 f i ToolkitPro1501vc60S:XTPCustomizeCommandsPage.obj
 0001:000cd540       ??0CXTPShortcutManagerAccel@@QAE@XZ 004ce540 f   ToolkitPro1501vc60S:XTPShortcutManager.obj
 0001:000cd570       ??_GCXTPShortcutManagerAccel@@UAEPAXI@Z 004ce570 f i ToolkitPro1501vc60S:XTPShortcutManager.obj
 0001:000cd570       ??_ECXTPControlTheme@@UAEPAXI@Z 004ce570 f i ToolkitPro1501vc60S:XTPShortcutManager.obj
 0001:000cd570       ??_GCXTPControlTheme@@UAEPAXI@Z 004ce570 f i ToolkitPro1501vc60S:XTPShortcutManager.obj
 0001:000cd570       ??_ECXTPShortcutManagerAccel@@UAEPAXI@Z 004ce570 f i ToolkitPro1501vc60S:XTPShortcutManager.obj
 0001:000cd570       ??_ECXTPColorManager@@UAEPAXI@Z 004ce570 f i ToolkitPro1501vc60S:XTPShortcutManager.obj
 0001:000cd570       ??_GCXTPColorManager@@UAEPAXI@Z 004ce570 f i ToolkitPro1501vc60S:XTPShortcutManager.obj
 0001:000cd590       ??1CXTPControlTheme@@UAE@XZ 004ce590 f i ToolkitPro1501vc60S:XTPShortcutManager.obj
 0001:000cd590       ??1CXTPColorManager@@UAE@XZ 004ce590 f i ToolkitPro1501vc60S:XTPShortcutManager.obj
 0001:000cd590       ??1CXTPShortcutManagerAccel@@UAE@XZ 004ce590 f i ToolkitPro1501vc60S:XTPShortcutManager.obj
 0001:000cd5a0       ??0CXTPShortcutManagerAccel@@QAE@PAUtagACCEL@@@Z 004ce5a0 f   ToolkitPro1501vc60S:XTPShortcutManager.obj
 0001:000cd5e0       ??0CXTPShortcutManagerAccel@@QAE@ABUXTP_SHORTCUTMANAGER_ACCEL@@@Z 004ce5e0 f   ToolkitPro1501vc60S:XTPShortcutManager.obj
 0001:000cd610       ??0CXTPShortcutManagerAccelTable@@QAE@PAVCXTPShortcutManager@@@Z 004ce610 f   ToolkitPro1501vc60S:XTPShortcutManager.obj
 0001:000cd630       ??1CXTPShortcutManagerAccelTable@@QAE@XZ 004ce630 f   ToolkitPro1501vc60S:XTPShortcutManager.obj
 0001:000cd690       ?RemoveAll@CXTPShortcutManagerAccelTable@@QAEXXZ 004ce690 f   ToolkitPro1501vc60S:XTPShortcutManager.obj
 0001:000cd6e0       ?Add@CXTPShortcutManagerAccelTable@@QAEXABUXTP_SHORTCUTMANAGER_ACCEL@@@Z 004ce6e0 f   ToolkitPro1501vc60S:XTPShortcutManager.obj
 0001:000cd8a0       ?CopyAccelTable@CXTPShortcutManagerAccelTable@@QAEXPAUtagACCEL@@H@Z 004ce8a0 f   ToolkitPro1501vc60S:XTPShortcutManager.obj
 0001:000cd920       ?CopyAccels@CXTPShortcutManagerAccelTable@@QBEPAUXTP_SHORTCUTMANAGER_ACCEL@@XZ 004ce920 f   ToolkitPro1501vc60S:XTPShortcutManager.obj
 0001:000cd990       ?GetAt@CXTPShortcutManagerAccelTable@@QBEPAVCXTPShortcutManagerAccel@@H@Z 004ce990 f   ToolkitPro1501vc60S:XTPShortcutManager.obj
 0001:000cd9b0       ?CopyAccelTable@CXTPShortcutManagerAccelTable@@QAEXPAV1@@Z 004ce9b0 f   ToolkitPro1501vc60S:XTPShortcutManager.obj
 0001:000cda00       ??0CKeyNameText@CXTPShortcutManager@@QAE@XZ 004cea00 f   ToolkitPro1501vc60S:XTPShortcutManager.obj
 0001:000cda80       ?Parse@CKeyNameText@CXTPShortcutManager@@QAEGPBD@Z 004cea80 f   ToolkitPro1501vc60S:XTPShortcutManager.obj
 0001:000cdb80       ?Translate@CKeyNameText@CXTPShortcutManager@@QAE?AVCString@@I@Z 004ceb80 f   ToolkitPro1501vc60S:XTPShortcutManager.obj
 0001:000cdc50       ?SetAt@CKeyNameText@CXTPShortcutManager@@QAEXIPBD@Z 004cec50 f   ToolkitPro1501vc60S:XTPShortcutManager.obj
 0001:000cdc80       ??0CXTPShortcutManager@@QAE@PAVCXTPCommandBars@@@Z 004cec80 f   ToolkitPro1501vc60S:XTPShortcutManager.obj
 0001:000cdd30       ?GetDefaultAccelerator@CXTPShortcutManager@@UBEPAVCXTPShortcutManagerAccelTable@@XZ 004ced30 f i ToolkitPro1501vc60S:XTPShortcutManager.obj
 0001:000cdd40       ??_GCXTPShortcutManager@@UAEPAXI@Z 004ced40 f i ToolkitPro1501vc60S:XTPShortcutManager.obj
 0001:000cdd40       ??_ECXTPShortcutManager@@UAEPAXI@Z 004ced40 f i ToolkitPro1501vc60S:XTPShortcutManager.obj
 0001:000cdd60       ??1CXTPShortcutManager@@UAE@XZ 004ced60 f   ToolkitPro1501vc60S:XTPShortcutManager.obj
 0001:000cde70       ?Reset@CXTPShortcutManager@@UAEXXZ 004cee70 f   ToolkitPro1501vc60S:XTPShortcutManager.obj
 0001:000cde90       ?Format@CXTPShortcutManager@@UAE?AVCString@@PAVCXTPShortcutManagerAccel@@PAH@Z 004cee90 f   ToolkitPro1501vc60S:XTPShortcutManager.obj
 0001:000cdf40       ?OnPreviewEditKey@CXTPShortcutManager@@UAEHPAVCXTPShortcutManagerAccel@@@Z 004cef40 f   ToolkitPro1501vc60S:XTPShortcutManager.obj
 0001:000cdf70       ?DisableShortcuts@CXTPShortcutManager@@QAEXH@Z 004cef70 f   ToolkitPro1501vc60S:XTPShortcutManager.obj
 0001:000cdf90       ?IsAccelMessage@CXTPShortcutManager@@ABEHAAUSHORTCUTACCEL@XTP_SHORTCUTMANAGER_ACCEL@@HPAUtagMSG@@@Z 004cef90 f   ToolkitPro1501vc60S:XTPShortcutManager.obj
 0001:000ce010       ?GetAccelKeyState@CXTPShortcutManager@@ABEHXZ 004cf010 f   ToolkitPro1501vc60S:XTPShortcutManager.obj
 0001:000ce080       ?TranslateAcceleratorA@CXTPShortcutManager@@QAEHPAUtagMSG@@@Z 004cf080 f   ToolkitPro1501vc60S:XTPShortcutManager.obj
 0001:000ce440       ?FindDefaultFrameAccelerator@CXTPShortcutManager@@QAEHHAAVCString@@@Z 004cf440 f   ToolkitPro1501vc60S:XTPShortcutManager.obj
 0001:000ce600       ?FindDefaultAccelerator@CXTPShortcutManager@@UAEHHAAVCString@@@Z 004cf600 f   ToolkitPro1501vc60S:XTPShortcutManager.obj
 0001:000ce7a0       ??0CKeyHelper@CXTPShortcutManager@@QAE@PBVCXTPShortcutManagerAccel@@PAV1@@Z 004cf7a0 f   ToolkitPro1501vc60S:XTPShortcutManager.obj
 0001:000ce7c0       ??_GCKeyHelper@CXTPShortcutManager@@UAEPAXI@Z 004cf7c0 f i ToolkitPro1501vc60S:XTPShortcutManager.obj
 0001:000ce7c0       ??_ECKeyHelper@CXTPShortcutManager@@UAEPAXI@Z 004cf7c0 f i ToolkitPro1501vc60S:XTPShortcutManager.obj
 0001:000ce7e0       ??1CKeyHelper@CXTPShortcutManager@@UAE@XZ 004cf7e0 f   ToolkitPro1501vc60S:XTPShortcutManager.obj
 0001:000ce7f0       ?Priority@CKeyHelper@CXTPShortcutManager@@QAEHXZ 004cf7f0 f   ToolkitPro1501vc60S:XTPShortcutManager.obj
 0001:000ce820       ?Format@CKeyHelper@CXTPShortcutManager@@QBEXAAVCString@@@Z 004cf820 f   ToolkitPro1501vc60S:XTPShortcutManager.obj
 0001:000ce910       ?Format@CKeyHelper@CXTPShortcutManager@@QBE?AVCString@@PBUSHORTCUTACCEL@XTP_SHORTCUTMANAGER_ACCEL@@@Z 004cf910 f   ToolkitPro1501vc60S:XTPShortcutManager.obj
 0001:000cea90       ?AddVirtKeyStr@CKeyHelper@CXTPShortcutManager@@IBEXAAVCString@@IH@Z 004cfa90 f   ToolkitPro1501vc60S:XTPShortcutManager.obj
 0001:000ceba0       ?GetLocalKeyNameText@CKeyHelper@CXTPShortcutManager@@SA?AVCString@@I@Z 004cfba0 f   ToolkitPro1501vc60S:XTPShortcutManager.obj
 0001:000cece0       ?FindAccelPos@CXTPShortcutManager@@SAHPBD@Z 004cfce0 f   ToolkitPro1501vc60S:XTPShortcutManager.obj
 0001:000ced20       ?CompareAccelKey@CXTPShortcutManager@@SAHDI@Z 004cfd20 f   ToolkitPro1501vc60S:XTPShortcutManager.obj
 0001:000cef90       ?GetKeyNameTextA@CXTPShortcutManager@@UAE?AVCString@@I@Z 004cff90 f   ToolkitPro1501vc60S:XTPShortcutManager.obj
 0001:000cf0b0       ?ToUpper@CXTPShortcutManager@@SADD@Z 004d00b0 f   ToolkitPro1501vc60S:XTPShortcutManager.obj
 0001:000cf0d0       ?UpdateAcellTable@CXTPShortcutManager@@QAEXPAUtagACCEL@@H@Z 004d00d0 f   ToolkitPro1501vc60S:XTPShortcutManager.obj
 0001:000cf0f0       ?UpdateAcellTable@CXTPShortcutManager@@QAEXPAUXTP_SHORTCUTMANAGER_ACCEL@@H@Z 004d00f0 f   ToolkitPro1501vc60S:XTPShortcutManager.obj
 0001:000cf120       ?SaveShortcuts@CXTPShortcutManager@@QAEXPBD@Z 004d0120 f   ToolkitPro1501vc60S:XTPShortcutManager.obj
 0001:000cf190       ?LoadShortcuts@CXTPShortcutManager@@QAEXPBD@Z 004d0190 f   ToolkitPro1501vc60S:XTPShortcutManager.obj
 0001:000cf280       ?ParseShortcutVirtKey@CXTPShortcutManager@@ABEHAAVCString@@H@Z 004d0280 f   ToolkitPro1501vc60S:XTPShortcutManager.obj
 0001:000cf3b0       ?ParseShortcut@CXTPShortcutManager@@ABEHVCString@@AAEAAG@Z 004d03b0 f   ToolkitPro1501vc60S:XTPShortcutManager.obj
 0001:000cf4c0       ?ParseShortcut@CXTPShortcutManager@@QAEHVCString@@PAVCXTPShortcutManagerAccel@@@Z 004d04c0 f   ToolkitPro1501vc60S:XTPShortcutManager.obj
 0001:000cf610       ?DoPropExchange@CXTPShortcutManager@@UAEXPAVCXTPPropExchange@@@Z 004d0610 f   ToolkitPro1501vc60S:XTPShortcutManager.obj
 0001:000cfac0       ??1?$CArray@PAVCXTPShortcutManagerAccel@@PAV1@@@UAE@XZ 004d0ac0 f i ToolkitPro1501vc60S:XTPShortcutManager.obj
 0001:000cfb10       ?SetAt@?$CMap@GGVCString@@V1@@@QAEXGVCString@@@Z 004d0b10 f i ToolkitPro1501vc60S:XTPShortcutManager.obj
 0001:000cfc50       ??1?$CMap@GGVCString@@V1@@@UAE@XZ 004d0c50 f i ToolkitPro1501vc60S:XTPShortcutManager.obj
 0001:000cfcf0       ?Serialize@?$CMap@GGVCString@@V1@@@UAEXAAVCArchive@@@Z 004d0cf0 f i ToolkitPro1501vc60S:XTPShortcutManager.obj
 0001:000cfe20       ??1?$CArray@PAUHKL__@@AAPAU1@@@UAE@XZ 004d0e20 f i ToolkitPro1501vc60S:XTPShortcutManager.obj
 0001:000cfe70       ?Serialize@?$CArray@PAVCButton@@PAV1@@@UAEXAAVCArchive@@@Z 004d0e70 f i ToolkitPro1501vc60S:XTPShortcutManager.obj
 0001:000cfe70       ?Serialize@?$CArray@PAVCXTPDockingPaneSidePanel@@PAV1@@@UAEXAAVCArchive@@@Z 004d0e70 f i ToolkitPro1501vc60S:XTPShortcutManager.obj
 0001:000cfe70       ?Serialize@?$CArray@PAVCXTPRibbonGroup@@PAV1@@@UAEXAAVCArchive@@@Z 004d0e70 f i ToolkitPro1501vc60S:XTPShortcutManager.obj
 0001:000cfe70       ?Serialize@?$CArray@PAVCXTPPropertyPage@@PAV1@@@UAEXAAVCArchive@@@Z 004d0e70 f i ToolkitPro1501vc60S:XTPShortcutManager.obj
 0001:000cfe70       ?Serialize@?$CArray@PAVCXTPResizeItem@@AAPAV1@@@UAEXAAVCArchive@@@Z 004d0e70 f i ToolkitPro1501vc60S:XTPShortcutManager.obj
 0001:000cfe70       ?Serialize@?$CArray@PAVCXTPDockingPaneCaptionButton@@PAV1@@@UAEXAAVCArchive@@@Z 004d0e70 f i ToolkitPro1501vc60S:XTPShortcutManager.obj
 0001:000cfe70       ?Serialize@?$CArray@PAUHKL__@@AAPAU1@@@UAEXAAVCArchive@@@Z 004d0e70 f i ToolkitPro1501vc60S:XTPShortcutManager.obj
 0001:000cfe70       ?Serialize@?$CArray@PAVCXTPToolBar@@PAV1@@@UAEXAAVCArchive@@@Z 004d0e70 f i ToolkitPro1501vc60S:XTPShortcutManager.obj
 0001:000cfe70       ?Serialize@?$CArray@PAVCToolBarInfo@CXTPToolBar@@PAV12@@@UAEXAAVCArchive@@@Z 004d0e70 f i ToolkitPro1501vc60S:XTPShortcutManager.obj
 0001:000cfe70       ?Serialize@?$CArray@PAVCXTPControl@@PAV1@@@UAEXAAVCArchive@@@Z 004d0e70 f i ToolkitPro1501vc60S:XTPShortcutManager.obj
 0001:000cfe70       ?Serialize@?$CArray@PAVCXTPStatusBarPane@@PAV1@@@UAEXAAVCArchive@@@Z 004d0e70 f i ToolkitPro1501vc60S:XTPShortcutManager.obj
 0001:000cfe70       ?Serialize@?$CArray@PAVCXTPHookManagerHookAble@@PAV1@@@UAEXAAVCArchive@@@Z 004d0e70 f i ToolkitPro1501vc60S:XTPShortcutManager.obj
 0001:000cfe70       ?Serialize@?$CArray@PAUTOOLITEM@CXTPToolTipContextToolTip@@PAU12@@@UAEXAAVCArchive@@@Z 004d0e70 f i ToolkitPro1501vc60S:XTPShortcutManager.obj
 0001:000cfe70       ?Serialize@?$CArray@PAVCXTPImageManagerImageList@@PAV1@@@UAEXAAVCArchive@@@Z 004d0e70 f i ToolkitPro1501vc60S:XTPShortcutManager.obj
 0001:000cfe70       ?Serialize@?$CArray@PAUXTP_COMMANDBARS_CATEGORYINFO@@PAU1@@@UAEXAAVCArchive@@@Z 004d0e70 f i ToolkitPro1501vc60S:XTPShortcutManager.obj
 0001:000cfe70       ?Serialize@?$CArray@PAVCXTPCommandBarKeyboardTip@@PAV1@@@UAEXAAVCArchive@@@Z 004d0e70 f i ToolkitPro1501vc60S:XTPShortcutManager.obj
 0001:000cfe70       ?Serialize@?$CArray@MAAM@@UAEXAAVCArchive@@@Z 004d0e70 f i ToolkitPro1501vc60S:XTPShortcutManager.obj
 0001:000cfe70       ?Serialize@?$CArray@PAVCXTPCommandBar@@PAV1@@@UAEXAAVCArchive@@@Z 004d0e70 f i ToolkitPro1501vc60S:XTPShortcutManager.obj
 0001:000cfe70       ?Serialize@?$CArray@PAUCAnimateInfo@CXTPCommandBarAnimation@@PAU12@@@UAEXAAVCArchive@@@Z 004d0e70 f i ToolkitPro1501vc60S:XTPShortcutManager.obj
 0001:000cfe70       ?Serialize@?$CArray@PAVCXTPTabManagerNavigateButton@@PAV1@@@UAEXAAVCArchive@@@Z 004d0e70 f i ToolkitPro1501vc60S:XTPShortcutManager.obj
 0001:000cfe70       ?Serialize@?$CArray@PAVCXTPRibbonTabContextHeader@@PAV1@@@UAEXAAVCArchive@@@Z 004d0e70 f i ToolkitPro1501vc60S:XTPShortcutManager.obj
 0001:000cfe70       ?Serialize@?$CArray@PAUHWND__@@PAU1@@@UAEXAAVCArchive@@@Z 004d0e70 f i ToolkitPro1501vc60S:XTPShortcutManager.obj
 0001:000cfe70       ?Serialize@?$CArray@PAUCItem@CXTPDockingPaneWindowSelect@@PAU12@@@UAEXAAVCArchive@@@Z 004d0e70 f i ToolkitPro1501vc60S:XTPShortcutManager.obj
 0001:000cfe70       ?Serialize@?$CArray@PAVCXTPMarkupObject@@PAV1@@@UAEXAAVCArchive@@@Z 004d0e70 f i ToolkitPro1501vc60S:XTPShortcutManager.obj
 0001:000cfe70       ?Serialize@?$CArray@PAVCXTPControlAction@@PAV1@@@UAEXAAVCArchive@@@Z 004d0e70 f i ToolkitPro1501vc60S:XTPShortcutManager.obj
 0001:000cfe70       ?Serialize@?$CArray@PAVCXTPTabManagerItem@@PAV1@@@UAEXAAVCArchive@@@Z 004d0e70 f i ToolkitPro1501vc60S:XTPShortcutManager.obj
 0001:000cfe70       ?Serialize@?$CArray@PAVCXTPTabManagerAtom@@PAV1@@@UAEXAAVCArchive@@@Z 004d0e70 f i ToolkitPro1501vc60S:XTPShortcutManager.obj
 0001:000cfe70       ?Serialize@?$CArray@PAVCAutoHidePanelTabManager@CXTPDockingPaneAutoHidePanel@@PAV12@@@UAEXAAVCArchive@@@Z 004d0e70 f i ToolkitPro1501vc60S:XTPShortcutManager.obj
 0001:000cfe70       ?Serialize@?$CArray@PAVCXTPShortcutManagerAccel@@PAV1@@@UAEXAAVCArchive@@@Z 004d0e70 f i ToolkitPro1501vc60S:XTPShortcutManager.obj
 0001:000cfe70       ?Serialize@?$CArray@PAUXTP_IMAGERESOURCE_INFO@@PAU1@@@UAEXAAVCArchive@@@Z 004d0e70 f i ToolkitPro1501vc60S:XTPShortcutManager.obj
 0001:000d0000       ??1?$CArray@UtagACCEL@@AAU1@@@UAE@XZ 004d1000 f i ToolkitPro1501vc60S:XTPShortcutManager.obj
 0001:000d0050       ?Serialize@?$CArray@UtagACCEL@@AAU1@@@UAEXAAVCArchive@@@Z 004d1050 f i ToolkitPro1501vc60S:XTPShortcutManager.obj
 0001:000d0200       ??_G?$CArray@PAVCXTPShortcutManagerAccel@@PAV1@@@UAEPAXI@Z 004d1200 f i ToolkitPro1501vc60S:XTPShortcutManager.obj
 0001:000d0200       ??_E?$CArray@PAVCXTPShortcutManagerAccel@@PAV1@@@UAEPAXI@Z 004d1200 f i ToolkitPro1501vc60S:XTPShortcutManager.obj
 0001:000d0220       ??_G?$CMap@GGVCString@@V1@@@UAEPAXI@Z 004d1220 f i ToolkitPro1501vc60S:XTPShortcutManager.obj
 0001:000d0220       ??_E?$CMap@GGVCString@@V1@@@UAEPAXI@Z 004d1220 f i ToolkitPro1501vc60S:XTPShortcutManager.obj
 0001:000d0240       ??_G?$CArray@PAUHKL__@@AAPAU1@@@UAEPAXI@Z 004d1240 f i ToolkitPro1501vc60S:XTPShortcutManager.obj
 0001:000d0240       ??_E?$CArray@PAUHKL__@@AAPAU1@@@UAEPAXI@Z 004d1240 f i ToolkitPro1501vc60S:XTPShortcutManager.obj
 0001:000d0260       ??_G?$CArray@UtagACCEL@@AAU1@@@UAEPAXI@Z 004d1260 f i ToolkitPro1501vc60S:XTPShortcutManager.obj
 0001:000d0260       ??_E?$CArray@UtagACCEL@@AAU1@@@UAEPAXI@Z 004d1260 f i ToolkitPro1501vc60S:XTPShortcutManager.obj
 0001:000d0280       ?SetSize@?$CArray@UtagACCEL@@AAU1@@@QAEXHH@Z 004d1280 f i ToolkitPro1501vc60S:XTPShortcutManager.obj
 0001:000d03e0       ??0CToolBarInfo@CXTPToolBar@@QAE@XZ 004d13e0 f   ToolkitPro1501vc60S:XTPDockState.obj
 0001:000d0440       ?SaveState@CToolBarInfo@CXTPToolBar@@QAEHPBDH@Z 004d1440 f   ToolkitPro1501vc60S:XTPDockState.obj
 0001:000d0630       ?LoadState@CToolBarInfo@CXTPToolBar@@QAEHPBDHPAVCXTPDockState@@@Z 004d1630 f   ToolkitPro1501vc60S:XTPDockState.obj
 0001:000d0870       ?ScalePoint@CXTPDockState@@QAEXAAVCPoint@@@Z 004d1870 f   ToolkitPro1501vc60S:XTPDockState.obj
 0001:000d0900       ?ScaleRectPos@CXTPDockState@@QAEXAAVCRect@@@Z 004d1900 f   ToolkitPro1501vc60S:XTPDockState.obj
 0001:000d09b0       ??0CXTPDockState@@QAE@XZ   004d19b0 f   ToolkitPro1501vc60S:XTPDockState.obj
 0001:000d09f0       ??1CXTPDockState@@QAE@XZ   004d19f0 f   ToolkitPro1501vc60S:XTPDockState.obj
 0001:000d0a50       ?Clear@CXTPDockState@@AAEXXZ 004d1a50 f   ToolkitPro1501vc60S:XTPDockState.obj
 0001:000d0aa0       ?SaveState@CXTPDockState@@QAEXPBD@Z 004d1aa0 f   ToolkitPro1501vc60S:XTPDockState.obj
 0001:000d0b50       ?LoadState@CXTPDockState@@QAEXPBD@Z 004d1b50 f   ToolkitPro1501vc60S:XTPDockState.obj
 0001:000d0d70       ?GetScreenSize@CXTPDockState@@AAE?AVCSize@@XZ 004d1d70 f   ToolkitPro1501vc60S:XTPDockState.obj
 0001:000d0d90       ?SetScreenSize@CXTPDockState@@AAEXAAVCSize@@@Z 004d1d90 f   ToolkitPro1501vc60S:XTPDockState.obj
 0001:000d0de0       ?GetBarInfo@CXTPToolBar@@QAEXPAVCToolBarInfo@1@@Z 004d1de0 f   ToolkitPro1501vc60S:XTPDockState.obj
 0001:000d0ef0       ?SetBarInfo@CXTPToolBar@@QAEXPAVCToolBarInfo@1@@Z 004d1ef0 f   ToolkitPro1501vc60S:XTPDockState.obj
 0001:000d0fe0       ?GetIsolatedFileName@CXTPCommandBars@@IAE?AVCString@@ABV2@@Z 004d1fe0 f   ToolkitPro1501vc60S:XTPDockState.obj
 0001:000d11f0       ?GetControlsFileName@CXTPCommandBars@@IAEHAAVCString@@PBD@Z 004d21f0 f   ToolkitPro1501vc60S:XTPDockState.obj
 0001:000d1310       ?SaveBarState@CXTPCommandBars@@QAEXPBDH@Z 004d2310 f   ToolkitPro1501vc60S:XTPDockState.obj
 0001:000d16a0       ?_LoadControlsPart@CXTPCommandBars@@IAEXAAVCFile@@PAUXTP_COMMANDBARS_PROPEXCHANGE_PARAM@@@Z 004d26a0 f   ToolkitPro1501vc60S:XTPDockState.obj
 0001:000d17d0       ?LoadBarState@CXTPCommandBars@@QAEXPBDH@Z 004d27d0 f   ToolkitPro1501vc60S:XTPDockState.obj
 0001:000d1ac0       ?GetStatusBar@CXTPCommandBars@@QBEPAVCXTPStatusBar@@XZ 004d2ac0 f   ToolkitPro1501vc60S:XTPDockState.obj
 0001:000d1ae0       ?SaveDockBarsState@CXTPCommandBars@@IAEXPBD@Z 004d2ae0 f   ToolkitPro1501vc60S:XTPDockState.obj
 0001:000d1c40       ?LoadDockBarsState@CXTPCommandBars@@IAEXPBD@Z 004d2c40 f   ToolkitPro1501vc60S:XTPDockState.obj
 0001:000d1f90       ?GetDockState@CXTPCommandBars@@IAEXAAVCXTPDockState@@@Z 004d2f90 f   ToolkitPro1501vc60S:XTPDockState.obj
 0001:000d2160       ?SetDockState@CXTPCommandBars@@IAEXAAVCXTPDockState@@@Z 004d3160 f   ToolkitPro1501vc60S:XTPDockState.obj
 0001:000d21d0       ?GenerateCommandBarList@CXTPCommandBars@@MAEXPAVCXTPCommandBarList@@PAUXTP_COMMANDBARS_PROPEXCHANGE_PARAM@@@Z 004d31d0 f   ToolkitPro1501vc60S:XTPDockState.obj
 0001:000d22a0       ?GenerateCommandBarList@CXTPCommandBar@@MAEXAAKPAVCXTPCommandBarList@@PAUXTP_COMMANDBARS_PROPEXCHANGE_PARAM@@@Z 004d32a0 f   ToolkitPro1501vc60S:XTPDockState.obj
 0001:000d2310       ?GenerateCommandBarList@CXTPMenuBar@@MAEXAAKPAVCXTPCommandBarList@@PAUXTP_COMMANDBARS_PROPEXCHANGE_PARAM@@@Z 004d3310 f   ToolkitPro1501vc60S:XTPDockState.obj
 0001:000d2380       ?GenerateCommandBarList@CXTPControl@@MAEXAAKPAVCXTPCommandBarList@@PAUXTP_COMMANDBARS_PROPEXCHANGE_PARAM@@@Z 004d3380 f   ToolkitPro1501vc60S:XTPDockState.obj
 0001:000d23b0       ?GenerateCommandBarList@CXTPControls@@IAEXAAKPAVCXTPCommandBarList@@PAUXTP_COMMANDBARS_PROPEXCHANGE_PARAM@@@Z 004d33b0 f   ToolkitPro1501vc60S:XTPDockState.obj
 0001:000d2420       ?SaveCommandBarList@CXTPCommandBars@@MAEHPAVCXTPPropExchange@@PAVCXTPCommandBarList@@@Z 004d3420 f   ToolkitPro1501vc60S:XTPDockState.obj
 0001:000d2550       ?LoadCommandBarList@CXTPCommandBars@@MAEHPAVCXTPPropExchange@@PAVCXTPCommandBarList@@@Z 004d3550 f   ToolkitPro1501vc60S:XTPDockState.obj
 0001:000d26c0       ?MergeToolBar@CXTPToolBar@@MAEXPAVCXTPCommandBar@@H@Z 004d36c0 f   ToolkitPro1501vc60S:XTPDockState.obj
 0001:000d2860       ?RestoreCommandBarList@CXTPCommandBars@@MAEXPAVCXTPCommandBarList@@H@Z 004d3860 f   ToolkitPro1501vc60S:XTPDockState.obj
 0001:000d2a20       ?RestoreCommandBarList@CXTPCommandBar@@MAEXPAVCXTPCommandBarList@@@Z 004d3a20 f   ToolkitPro1501vc60S:XTPDockState.obj
 0001:000d2a40       ?RestoreCommandBarList@CXTPMenuBar@@MAEXPAVCXTPCommandBarList@@@Z 004d3a40 f   ToolkitPro1501vc60S:XTPDockState.obj
 0001:000d2aa0       ?RestoreCommandBarList@CXTPControlPopup@@MAEXPAVCXTPCommandBarList@@@Z 004d3aa0 f   ToolkitPro1501vc60S:XTPDockState.obj
 0001:000d2af0       ?RestoreCommandBarList@CXTPControls@@IAEXPAVCXTPCommandBarList@@@Z 004d3af0 f   ToolkitPro1501vc60S:XTPDockState.obj
 0001:000d2b40       ?DoPropExchange@CXTPCommandBar@@UAEXPAVCXTPPropExchange@@@Z 004d3b40 f   ToolkitPro1501vc60S:XTPDockState.obj
 0001:000d2d10       ?DoPropExchange@CXTPToolBar@@MAEXPAVCXTPPropExchange@@@Z 004d3d10 f   ToolkitPro1501vc60S:XTPDockState.obj
 0001:000d2dd0       ?DoPropExchange@CXTPMenuBar@@MAEXPAVCXTPPropExchange@@@Z 004d3dd0 f   ToolkitPro1501vc60S:XTPDockState.obj
 0001:000d30b0       ?DoPropExchange@CXTPPopupBar@@MAEXPAVCXTPPropExchange@@@Z 004d40b0 f   ToolkitPro1501vc60S:XTPDockState.obj
 0001:000d31c0       ?ShouldSerializeControl@CXTPControls@@UAEHPAVCXTPControl@@@Z 004d41c0 f   ToolkitPro1501vc60S:XTPDockState.obj
 0001:000d31e0       ?DoPropExchange@CXTPControls@@UAEXPAVCXTPPropExchange@@@Z 004d41e0 f   ToolkitPro1501vc60S:XTPDockState.obj
 0001:000d35e0       ?DoPropExchange@CXTPControl@@UAEXPAVCXTPPropExchange@@@Z 004d45e0 f   ToolkitPro1501vc60S:XTPDockState.obj
 0001:000d39a0       ?DoPropExchange@CXTPControlButton@@UAEXPAVCXTPPropExchange@@@Z 004d49a0 f   ToolkitPro1501vc60S:XTPDockState.obj
 0001:000d39d0       ?DoPropExchange@CXTPControlPopup@@UAEXPAVCXTPPropExchange@@@Z 004d49d0 f   ToolkitPro1501vc60S:XTPDockState.obj
 0001:000d3a60       ?DoPropExchange@CXTPControlComboBox@@UAEXPAVCXTPPropExchange@@@Z 004d4a60 f   ToolkitPro1501vc60S:XTPDockState.obj
 0001:000d3b90       ?DoPropExchange@CXTPControlEdit@@UAEXPAVCXTPPropExchange@@@Z 004d4b90 f   ToolkitPro1501vc60S:XTPDockState.obj
 0001:000d3cd0       ??1?$CArray@PAVCToolBarInfo@CXTPToolBar@@PAV12@@@UAE@XZ 004d4cd0 f i ToolkitPro1501vc60S:XTPDockState.obj
 0001:000d3d20       ??_E?$CArray@PAVCToolBarInfo@CXTPToolBar@@PAV12@@@UAEPAXI@Z 004d4d20 f i ToolkitPro1501vc60S:XTPDockState.obj
 0001:000d3d20       ??_G?$CArray@PAVCToolBarInfo@CXTPToolBar@@PAV12@@@UAEPAXI@Z 004d4d20 f i ToolkitPro1501vc60S:XTPDockState.obj
 0001:000d3d40       ??0CRichEditContext@CXTPCommandBarEditCtrl@@QAE@XZ 004d4d40 f   ToolkitPro1501vc60S:XTPControlComboBox.obj
 0001:000d3de0       ??1CRichEditContext@CXTPCommandBarEditCtrl@@QAE@XZ 004d4de0 f   ToolkitPro1501vc60S:XTPControlComboBox.obj
 0001:000d3df0       ?GetRichEditContext@CXTPCommandBarEditCtrl@@IAEAAVCRichEditContext@1@XZ 004d4df0 f   ToolkitPro1501vc60S:XTPControlComboBox.obj
 0001:000d3e40       ?CreateObject@CXTPCommandBarEditCtrl@@SGPAVCObject@@XZ 004d4e40 f   ToolkitPro1501vc60S:XTPControlComboBox.obj
 0001:000d3ea0       ?GetRuntimeClass@CXTPCommandBarEditCtrl@@UBEPAUCRuntimeClass@@XZ 004d4ea0 f   ToolkitPro1501vc60S:XTPControlComboBox.obj
 0001:000d3eb0       ??0CXTPCommandBarEditCtrl@@QAE@XZ 004d4eb0 f   ToolkitPro1501vc60S:XTPControlComboBox.obj
 0001:000d3ed0       ?IsCommandEnabled@CXTPCommandBarEditCtrl@@IAEHI@Z 004d4ed0 f   ToolkitPro1501vc60S:XTPControlComboBox.obj
 0001:000d3f70       ?OnCmdMsg@CXTPCommandBarEditCtrl@@UAEHIHPAXPAUAFX_CMDHANDLERINFO@@@Z 004d4f70 f   ToolkitPro1501vc60S:XTPControlComboBox.obj
 0001:000d3fc0       ?OnCommand@CXTPCommandBarEditCtrl@@UAEHIJ@Z 004d4fc0 f   ToolkitPro1501vc60S:XTPControlComboBox.obj
 0001:000d4040       ?ShowContextMenu@CXTPCommandBarEditCtrl@@UAEHPAVCXTPControl@@VCPoint@@@Z 004d5040 f   ToolkitPro1501vc60S:XTPControlComboBox.obj
 0001:000d4270       ?CreateEdit@CXTPCommandBarEditCtrl@@UAEHKPAVCWnd@@@Z 004d5270 f   ToolkitPro1501vc60S:XTPControlComboBox.obj
 0001:000d4320       ?IsDialogCode@CXTPCommandBarEditCtrl@@QAEHIJ@Z 004d5320 f   ToolkitPro1501vc60S:XTPControlComboBox.obj
 0001:000d43a0       ?SetWindowTextEx@CXTPCommandBarEditCtrl@@QAEXPBD@Z 004d53a0 f   ToolkitPro1501vc60S:XTPControlComboBox.obj
 0001:000d43d0       ?GetWindowTextEx@CXTPCommandBarEditCtrl@@QAEXAAVCString@@@Z 004d53d0 f   ToolkitPro1501vc60S:XTPControlComboBox.obj
 0001:000d43e0       ?GetMessageMap@CXTPCommandBarEditCtrl@@MBEPBUAFX_MSGMAP@@XZ 004d53e0 f   ToolkitPro1501vc60S:XTPControlComboBox.obj
 0001:000d43f0       ?OnImeStartComposition@CXTPCommandBarEditCtrl@@IAEXXZ 004d53f0 f   ToolkitPro1501vc60S:XTPControlComboBox.obj
 0001:000d4410       ?OnImeEndComposition@CXTPCommandBarEditCtrl@@IAEXXZ 004d5410 f   ToolkitPro1501vc60S:XTPControlComboBox.obj
 0001:000d4430       ?OnKillFocus@CXTPCommandBarEditCtrl@@IAEXPAVCWnd@@@Z 004d5430 f   ToolkitPro1501vc60S:XTPControlComboBox.obj
 0001:000d4450       ?OnPaint@CXTPCommandBarEditCtrl@@IAEXXZ 004d5450 f   ToolkitPro1501vc60S:XTPControlComboBox.obj
 0001:000d44e0       ??0CXTPControlComboBoxAutoCompleteWnd@@QAE@XZ 004d54e0 f   ToolkitPro1501vc60S:XTPControlComboBox.obj
 0001:000d4500       ??_ECXTPControlComboBoxAutoCompleteWnd@@UAEPAXI@Z 004d5500 f i ToolkitPro1501vc60S:XTPControlComboBox.obj
 0001:000d4500       ??_GCXTPControlComboBoxAutoCompleteWnd@@UAEPAXI@Z 004d5500 f i ToolkitPro1501vc60S:XTPControlComboBox.obj
 0001:000d4520       ??1CXTPControlComboBoxAutoCompleteWnd@@UAE@XZ 004d5520 f   ToolkitPro1501vc60S:XTPControlComboBox.obj
 0001:000d4580       ?IsDialogCode@CXTPControlComboBoxAutoCompleteWnd@@QAEHIJ@Z 004d5580 f   ToolkitPro1501vc60S:XTPControlComboBox.obj
 0001:000d4620       ?ShellAutoComplete@CXTPControlComboBoxAutoCompleteWnd@@QAEJPAUHWND__@@K@Z 004d5620 f   ToolkitPro1501vc60S:XTPControlComboBox.obj
 0001:000d4670       ?CloseWindow@CXTPControlComboBoxAutoCompleteWnd@@QAEXXZ 004d5670 f   ToolkitPro1501vc60S:XTPControlComboBox.obj
 0001:000d4690       ?SetAutoCompeteHandle@CXTPControlComboBoxAutoCompleteWnd@@AAEXPAUHWND__@@@Z 004d5690 f   ToolkitPro1501vc60S:XTPControlComboBox.obj
 0001:000d46e0       ?SetupMessageHook@CXTPControlComboBoxAutoCompleteWnd@@QAEXH@Z 004d56e0 f   ToolkitPro1501vc60S:XTPControlComboBox.obj
 0001:000d4790       ?OnHookMessage@CXTPControlComboBoxAutoCompleteWnd@@EAEHPAUHWND__@@IAAIAAJ2@Z 004d5790 f   ToolkitPro1501vc60S:XTPControlComboBox.obj
 0001:000d47b0       ?CallWndProc@CXTPControlComboBoxAutoCompleteWnd@@CGJHIJ@Z 004d57b0 f   ToolkitPro1501vc60S:XTPControlComboBox.obj
 0001:000d4880       ?CreateObject@CXTPControlComboBox@@SGPAVCObject@@XZ 004d5880 f   ToolkitPro1501vc60S:XTPControlComboBox.obj
 0001:000d48e0       ?GetRuntimeClass@CXTPControlComboBox@@UBEPAUCRuntimeClass@@XZ 004d58e0 f   ToolkitPro1501vc60S:XTPControlComboBox.obj
 0001:000d4910       ?Clone@CXTPControlComboBox@@UAEPAVCXTPControl@@H@Z 004d5910 f   ToolkitPro1501vc60S:XTPControlComboBox.obj
 0001:000d4940       ??0CXTPControlComboBox@@QAE@PAVCXTPCommandBars@@@Z 004d5940 f   ToolkitPro1501vc60S:XTPControlComboBox.obj
 0001:000d4ac0       ?GetText@CXTPControlComboBox@@UBE?AVCString@@XZ 004d5ac0 f i ToolkitPro1501vc60S:XTPControlComboBox.obj
 0001:000d4ae0       ?OnThemeChanged@CXTPControlComboBox@@MAEXXZ 004d5ae0 f i ToolkitPro1501vc60S:XTPControlComboBox.obj
 0001:000d4af0       ??_ECXTPControlComboBox@@UAEPAXI@Z 004d5af0 f i ToolkitPro1501vc60S:XTPControlComboBox.obj
 0001:000d4af0       ??_GCXTPControlComboBox@@UAEPAXI@Z 004d5af0 f i ToolkitPro1501vc60S:XTPControlComboBox.obj
 0001:000d4b10       ??1CXTPControlComboBox@@UAE@XZ 004d5b10 f   ToolkitPro1501vc60S:XTPControlComboBox.obj
 0001:000d4bc0       ?GetEditText@CXTPControlComboBox@@QBE?AVCString@@XZ 004d5bc0 f   ToolkitPro1501vc60S:XTPControlComboBox.obj
 0001:000d4ca0       ?_GetEditText@CXTPControlComboBox@@IBE?AVCString@@XZ 004d5ca0 f   ToolkitPro1501vc60S:XTPControlComboBox.obj
 0001:000d4d00       ?SetEditText@CXTPControlComboBox@@QAEXABVCString@@@Z 004d5d00 f   ToolkitPro1501vc60S:XTPControlComboBox.obj
 0001:000d4d80       ?_SetEditText@CXTPControlComboBox@@IAEXABVCString@@@Z 004d5d80 f   ToolkitPro1501vc60S:XTPControlComboBox.obj
 0001:000d4e00       ?SetEditHint@CXTPControlComboBox@@QAEXPBD@Z 004d5e00 f   ToolkitPro1501vc60S:XTPControlComboBox.obj
 0001:000d4f80       ?IsCaptionVisible@CXTPControlComboBox@@UBEHXZ 004d5f80 f   ToolkitPro1501vc60S:XTPControlComboBox.obj
 0001:000d4ff0       ?GetEditHint@CXTPControlComboBox@@QBE?AVCString@@XZ 004d5ff0 f   ToolkitPro1501vc60S:XTPControlComboBox.obj
 0001:000d50c0       ?GetEditHint@CXTPControlAction@@QBE?AVCString@@XZ 004d60c0 f i ToolkitPro1501vc60S:XTPControlComboBox.obj
 0001:000d50e0       ?UpdatePopupSelection@CXTPControlComboBox@@QAEXXZ 004d60e0 f   ToolkitPro1501vc60S:XTPControlComboBox.obj
 0001:000d51b0       ?OnEditChanged@CXTPControlComboBox@@UAEXXZ 004d61b0 f   ToolkitPro1501vc60S:XTPControlComboBox.obj
 0001:000d5330       ?OnSelChanged@CXTPControlComboBox@@UAEXXZ 004d6330 f   ToolkitPro1501vc60S:XTPControlComboBox.obj
 0001:000d53b0       ?OnHookMouseWheel@CXTPControlComboBox@@MAEHIFVCPoint@@@Z 004d63b0 f   ToolkitPro1501vc60S:XTPControlComboBox.obj
 0001:000d5420       ?OnHookKeyDown@CXTPControlComboBox@@MAEHIJ@Z 004d6420 f   ToolkitPro1501vc60S:XTPControlComboBox.obj
 0001:000d5620       ?CreateEditControl@CXTPControlComboBox@@MAEPAVCXTPControlComboBoxEditCtrl@@XZ 004d6620 f   ToolkitPro1501vc60S:XTPControlComboBox.obj
 0001:000d5670       ?SetDropDownListStyle@CXTPControlComboBox@@QAEXH@Z 004d6670 f   ToolkitPro1501vc60S:XTPControlComboBox.obj
 0001:000d56c0       ?EnableShellAutoComplete@CXTPControlComboBox@@QAEXK@Z 004d66c0 f   ToolkitPro1501vc60S:XTPControlComboBox.obj
 0001:000d57a0       ?SetRect@CXTPControlComboBox@@MAEXVCRect@@@Z 004d67a0 f   ToolkitPro1501vc60S:XTPControlComboBox.obj
 0001:000d5a70       ?ShowHideEditControl@CXTPControlComboBox@@IAEXXZ 004d6a70 f   ToolkitPro1501vc60S:XTPControlComboBox.obj
 0001:000d5ae0       ?OnRemoved@CXTPControlComboBox@@MAEXXZ 004d6ae0 f   ToolkitPro1501vc60S:XTPControlComboBox.obj
 0001:000d5b20       ?OnEnabledChanged@CXTPControlComboBox@@UAEXXZ 004d6b20 f   ToolkitPro1501vc60S:XTPControlComboBox.obj
 0001:000d5b60       ?SetParent@CXTPControlComboBox@@MAEXPAVCXTPCommandBar@@@Z 004d6b60 f   ToolkitPro1501vc60S:XTPControlComboBox.obj
 0001:000d5bc0       ?OnSetSelected@CXTPControlComboBox@@MAEHH@Z 004d6bc0 f   ToolkitPro1501vc60S:XTPControlComboBox.obj
 0001:000d5c30       ?ShouldSerializeBar@CXTPRibbonBar@@MAEHXZ 004d6c30 f   ToolkitPro1501vc60S:XTPControlComboBox.obj
 0001:000d5c30       ?IsFocusable@CXTPControlComboBox@@MBEHXZ 004d6c30 f   ToolkitPro1501vc60S:XTPControlComboBox.obj
 0001:000d5c30       ?IsTransparent@CXTPRibbonGroupControlPopup@@UBEHXZ 004d6c30 f   ToolkitPro1501vc60S:XTPControlComboBox.obj
 0001:000d5c30       ?IsImagesAvailable@CXTPRibbonTheme@@IAEHXZ 004d6c30 f   ToolkitPro1501vc60S:XTPControlComboBox.obj
 0001:000d5c30       ?IsComCtlValid@CXTPAuxData@@QBEHXZ 004d6c30 f   ToolkitPro1501vc60S:XTPControlComboBox.obj
 0001:000d5c30       ?AllowWhiteSpaceContent@CXTPMarkupSpan@@MBEHXZ 004d6c30 f   ToolkitPro1501vc60S:XTPControlComboBox.obj
 0001:000d5c30       ?IsAlphaIconsSupported@CXTPImageManager@@QBEHXZ 004d6c30 f   ToolkitPro1501vc60S:XTPControlComboBox.obj
 0001:000d5c30       ?AllowWhiteSpaceContent@CXTPMarkupTextBlock@@MBEHXZ 004d6c30 f   ToolkitPro1501vc60S:XTPControlComboBox.obj
 0001:000d5c30       ?IsFocusable@CXTPRibbonControlTab@@MBEHXZ 004d6c30 f   ToolkitPro1501vc60S:XTPControlComboBox.obj
 0001:000d5c40       ?OnClick@CXTPControlComboBox@@MAEXHVCPoint@@@Z 004d6c40 f   ToolkitPro1501vc60S:XTPControlComboBox.obj
 0001:000d5d20       ?OnUnderlineActivate@CXTPControlComboBox@@MAEXXZ 004d6d20 f   ToolkitPro1501vc60S:XTPControlComboBox.obj
 0001:000d5d20       ?OnUnderlineActivate@CXTPControlEdit@@MAEXXZ 004d6d20 f   ToolkitPro1501vc60S:XTPControlComboBox.obj
 0001:000d5d40       ?SetHideFlags@CXTPControlComboBox@@UAEXK@Z 004d6d40 f   ToolkitPro1501vc60S:XTPControlComboBox.obj
 0001:000d5d70       ?OnActionChanged@CXTPControlComboBox@@UAEXH@Z 004d6d70 f   ToolkitPro1501vc60S:XTPControlComboBox.obj
 0001:000d5e60       ?OnActionChanging@CXTPControlComboBox@@UAEXH@Z 004d6e60 f   ToolkitPro1501vc60S:XTPControlComboBox.obj
 0001:000d5f50       ?Copy@CXTPControlComboBox@@MAEXPAVCXTPControl@@H@Z 004d6f50 f   ToolkitPro1501vc60S:XTPControlComboBox.obj
 0001:000d6060       ?Compare@CXTPControlComboBox@@UAEHPAVCXTPControl@@@Z 004d7060 f   ToolkitPro1501vc60S:XTPControlComboBox.obj
 0001:000d6090       ?GetListBoxText@CXTPControlComboBox@@UBE?AVCString@@XZ 004d7090 f   ToolkitPro1501vc60S:XTPControlComboBox.obj
 0001:000d6150       ?IsValidList@CXTPControlComboBox@@IBEHXZ 004d7150 f   ToolkitPro1501vc60S:XTPControlComboBox.obj
 0001:000d6160       ?GetComboBoxPopupBar@CXTPControlComboBox@@QBEPAVCXTPControlComboBoxPopupBar@@XZ 004d7160 f   ToolkitPro1501vc60S:XTPControlComboBox.obj
 0001:000d6180       ?GetCurSel@CXTPControlComboBox@@QBEHXZ 004d7180 f   ToolkitPro1501vc60S:XTPControlComboBox.obj
 0001:000d61a0       ?SetCurSel@CXTPControlComboBox@@QAEXH@Z 004d71a0 f   ToolkitPro1501vc60S:XTPControlComboBox.obj
 0001:000d61f0       ?IsFocused@CXTPControlComboBox@@UBEHXZ 004d71f0 f   ToolkitPro1501vc60S:XTPControlComboBox.obj
 0001:000d6200       ?SetFocused@CXTPControlComboBox@@UAEXH@Z 004d7200 f   ToolkitPro1501vc60S:XTPControlComboBox.obj
 0001:000d6350       ?OnSetFocus@CXTPControlComboBox@@MAEXPAVCWnd@@@Z 004d7350 f   ToolkitPro1501vc60S:XTPControlComboBox.obj
 0001:000d64e0       ?OnKillFocus@CXTPControlComboBox@@MAEXXZ 004d74e0 f   ToolkitPro1501vc60S:XTPControlComboBox.obj
 0001:000d65e0       ?GetDroppedState@CXTPControlComboBox@@QBEHXZ 004d75e0 f   ToolkitPro1501vc60S:XTPControlComboBox.obj
 0001:000d65f0       ?OnSetPopup@CXTPControlComboBox@@MAEHH@Z 004d75f0 f   ToolkitPro1501vc60S:XTPControlComboBox.obj
 0001:000d6690       ?OnExecute@CXTPControlComboBox@@UAEXXZ 004d7690 f   ToolkitPro1501vc60S:XTPControlComboBox.obj
 0001:000d66f0       ?GetDefaultCharFormat@CXTPControlComboBox@@UAE?AUCHARFORMAT2A@@XZ 004d76f0 f   ToolkitPro1501vc60S:XTPControlComboBox.obj
 0001:000d6820       ?CreateObject@CXTPControlComboBoxPopupBar@@SGPAVCObject@@XZ 004d7820 f   ToolkitPro1501vc60S:XTPControlComboBox.obj
 0001:000d6880       ?GetRuntimeClass@CXTPControlComboBoxPopupBar@@UBEPAUCRuntimeClass@@XZ 004d7880 f   ToolkitPro1501vc60S:XTPControlComboBox.obj
 0001:000d68b0       ?Clone@CXTPControlComboBoxPopupBar@@UAEPAVCXTPCommandBar@@H@Z 004d78b0 f   ToolkitPro1501vc60S:XTPControlComboBox.obj
 0001:000d68e0       ??0CXTPControlComboBoxPopupBar@@QAE@XZ 004d78e0 f   ToolkitPro1501vc60S:XTPControlComboBox.obj
 0001:000d6910       ?DelayRedraw@CXTPPopupBar@@MAEXXZ 004d7910 f i ToolkitPro1501vc60S:XTPControlComboBox.obj
 0001:000d6920       ?IsRibbonBar@CXTPRibbonBar@@UBEHXZ 004d7920 f i ToolkitPro1501vc60S:XTPControlComboBox.obj
 0001:000d6920       ?GetDefaultColorSet@CAppearanceSet@CXTPTabPaintManager@@UAE?AW4XTPTabColorStyle@@XZ 004d7920 f i ToolkitPro1501vc60S:XTPControlComboBox.obj
 0001:000d6920       ?IsDialogBar@CXTPDialogBar@@MBEHXZ 004d7920 f i ToolkitPro1501vc60S:XTPControlComboBox.obj
 0001:000d6920       ?IsAllowDefaultValues@CXTPPropExchange@@UBEHXZ 004d7920 f i ToolkitPro1501vc60S:XTPControlComboBox.obj
 0001:000d6920       ?IsAllowBlobValues@CXTPPropExchangeArchive@@UBEHXZ 004d7920 f i ToolkitPro1501vc60S:XTPControlComboBox.obj
 0001:000d6920       ?GetDefaultColorSet@CAppearanceSetPropertyPage@CXTPTabPaintManager@@UAE?AW4XTPTabColorStyle@@XZ 004d7920 f i ToolkitPro1501vc60S:XTPControlComboBox.obj
 0001:000d6920       ?IsCustomizeResizeAllow@CXTPControlComboBox@@MBEHXZ 004d7920 f i ToolkitPro1501vc60S:XTPControlComboBox.obj
 0001:000d6920       ?BaseTheme@CXTPOfficeTheme@@MAE?AW4XTPPaintTheme@@XZ 004d7920 f i ToolkitPro1501vc60S:XTPControlComboBox.obj
 0001:000d6920       ?GetDefaultColorSet@CAppearanceSetPropertyPageFlat@CXTPTabPaintManager@@UAE?AW4XTPTabColorStyle@@XZ 004d7920 f i ToolkitPro1501vc60S:XTPControlComboBox.obj
 0001:000d6920       ?IsCustomizeResizeAllow@CXTPControlEdit@@MBEHXZ 004d7920 f i ToolkitPro1501vc60S:XTPControlComboBox.obj
 0001:000d6920       ?IsAllowBlobValues@CXTPPropExchangeRegistry@@UBEHXZ 004d7920 f i ToolkitPro1501vc60S:XTPControlComboBox.obj
 0001:000d6920       ?IsEvent@CXTPMarkupRoutedEvent@@UBEHXZ 004d7920 f i ToolkitPro1501vc60S:XTPControlComboBox.obj
 0001:000d6920       ?IsPopupBar@CXTPPopupBar@@UBEHXZ 004d7920 f i ToolkitPro1501vc60S:XTPControlComboBox.obj
 0001:000d6930       ?IsResizable@CXTPPopupBar@@UBEHXZ 004d7930 f i ToolkitPro1501vc60S:XTPControlComboBox.obj
 0001:000d6940       ?GetCurSel@CXTPControlComboBoxPopupBar@@UBEHXZ 004d7940 f i ToolkitPro1501vc60S:XTPControlComboBox.obj
 0001:000d6950       ?FindStringExact@CXTPControlComboBoxPopupBar@@UBEHHPBD@Z 004d7950 f i ToolkitPro1501vc60S:XTPControlComboBox.obj
 0001:000d6950       ?FindString@CXTPControlComboBoxPopupBar@@UBEHHPBD@Z 004d7950 f i ToolkitPro1501vc60S:XTPControlComboBox.obj
 0001:000d6960       ?SetTopIndex@CXTPControlComboBoxPopupBar@@UAEHH@Z 004d7960 f i ToolkitPro1501vc60S:XTPControlComboBox.obj
 0001:000d6960       ?IsControlEnabled@CXTPCommandBar@@MBEHPBVCXTPControl@@@Z 004d7960 f i ToolkitPro1501vc60S:XTPControlComboBox.obj
 0001:000d6970       ?ProcessHookKeyDown@CXTPControlComboBoxPopupBar@@UAEHPAVCXTPControlComboBox@@IJ@Z 004d7970 f   ToolkitPro1501vc60S:XTPControlComboBox.obj
 0001:000d6a60       ?OnHookKeyDown@CXTPControlComboBoxPopupBar@@UAEHIJ@Z 004d7a60 f   ToolkitPro1501vc60S:XTPControlComboBox.obj
 0001:000d6ad0       ??0CXTPControlComboBoxList@@QAE@XZ 004d7ad0 f   ToolkitPro1501vc60S:XTPControlComboBox.obj
 0001:000d6b20       ?GetCurSel@CXTPControlComboBoxList@@MBEHXZ 004d7b20 f i ToolkitPro1501vc60S:XTPControlComboBox.obj
 0001:000d6b40       ?FindString@CXTPControlComboBoxList@@MBEHHPBD@Z 004d7b40 f i ToolkitPro1501vc60S:XTPControlComboBox.obj
 0001:000d6b70       ?FindStringExact@CXTPControlComboBoxList@@MBEHHPBD@Z 004d7b70 f i ToolkitPro1501vc60S:XTPControlComboBox.obj
 0001:000d6ba0       ?SetTopIndex@CXTPControlComboBoxList@@MAEHH@Z 004d7ba0 f i ToolkitPro1501vc60S:XTPControlComboBox.obj
 0001:000d6bc0       ?SetCurSel@CXTPControlComboBoxList@@MAEXH@Z 004d7bc0 f i ToolkitPro1501vc60S:XTPControlComboBox.obj
 0001:000d6be0       ?GetText@CXTPControlComboBoxList@@MBEXHAAVCString@@@Z 004d7be0 f i ToolkitPro1501vc60S:XTPControlComboBox.obj
 0001:000d6c00       ?GetMessageMap@CXTPControlComboBoxList@@MBEPBUAFX_MSGMAP@@XZ 004d7c00 f   ToolkitPro1501vc60S:XTPControlComboBox.obj
 0001:000d6c10       ?CreateObject@CXTPControlComboBoxList@@SGPAVCObject@@XZ 004d7c10 f   ToolkitPro1501vc60S:XTPControlComboBox.obj
 0001:000d6c70       ?GetRuntimeClass@CXTPControlComboBoxList@@UBEPAUCRuntimeClass@@XZ 004d7c70 f   ToolkitPro1501vc60S:XTPControlComboBox.obj
 0001:000d6ca0       ?Clone@CXTPControlComboBoxList@@UAEPAVCXTPCommandBar@@H@Z 004d7ca0 f   ToolkitPro1501vc60S:XTPControlComboBox.obj
 0001:000d6cd0       ?CreateListBox@CXTPControlComboBoxList@@UAEXXZ 004d7cd0 f   ToolkitPro1501vc60S:XTPControlComboBox.obj
 0001:000d6df0       ?DrawItem@CXTPControlComboBoxList@@MAEXPAUtagDRAWITEMSTRUCT@@@Z 004d7df0 f   ToolkitPro1501vc60S:XTPControlComboBox.obj
 0001:000d6e10       ?MeasureItem@CXTPControlComboBoxList@@MAEXPAUtagMEASUREITEMSTRUCT@@@Z 004d7e10 f   ToolkitPro1501vc60S:XTPControlComboBox.obj
 0001:000d6e30       ?OnHookMessage@CXTPControlComboBoxList@@MAEHPAUHWND__@@IAAIAAJ2@Z 004d7e30 f   ToolkitPro1501vc60S:XTPControlComboBox.obj
 0001:000d6e80       ?OnNcPaint@CXTPControlComboBoxList@@IAEXXZ 004d7e80 f   ToolkitPro1501vc60S:XTPControlComboBox.obj
 0001:000d6f60       ?OnEraseBkgnd@CXTPControlComboBoxList@@IAEHPAVCDC@@@Z 004d7f60 f   ToolkitPro1501vc60S:XTPControlComboBox.obj
 0001:000d6f70       ?OnLButtonUp@CXTPControlComboBoxList@@IAEXIVCPoint@@@Z 004d7f70 f   ToolkitPro1501vc60S:XTPControlComboBox.obj
 0001:000d6f90       ?SetTrackingMode@CXTPControlComboBoxList@@MAEHHHH@Z 004d7f90 f   ToolkitPro1501vc60S:XTPControlComboBox.obj
 0001:000d7050       ?ProcessHookKeyDown@CXTPControlComboBoxList@@MAEHPAVCXTPControlComboBox@@IJ@Z 004d8050 f   ToolkitPro1501vc60S:XTPControlComboBox.obj
 0001:000d71b0       ?OnHookKeyDown@CXTPControlComboBoxList@@MAEHIJ@Z 004d81b0 f   ToolkitPro1501vc60S:XTPControlComboBox.obj
 0001:000d7270       ?OnMouseMove@CXTPControlComboBoxList@@IAEXIVCPoint@@@Z 004d8270 f   ToolkitPro1501vc60S:XTPControlComboBox.obj
 0001:000d72d0       ?Popup@CXTPControlComboBoxList@@MAEHPAVCXTPControlPopup@@H@Z 004d82d0 f   ToolkitPro1501vc60S:XTPControlComboBox.obj
 0001:000d7460       ?OnPaint@CXTPControlComboBoxList@@IAEXXZ 004d8460 f   ToolkitPro1501vc60S:XTPControlComboBox.obj
 0001:000d7520       ?DrawCommandBar@CXTPControlComboBoxList@@MAEXPAVCDC@@VCRect@@@Z 004d8520 f   ToolkitPro1501vc60S:XTPControlComboBox.obj
 0001:000d7570       ?GetMessageMap@CXTPControlComboBoxEditCtrl@@MBEPBUAFX_MSGMAP@@XZ 004d8570 f   ToolkitPro1501vc60S:XTPControlComboBox.obj
 0001:000d7580       ?OnEditChanged@CXTPControlComboBoxEditCtrl@@IAEXXZ 004d8580 f   ToolkitPro1501vc60S:XTPControlComboBox.obj
 0001:000d75d0       ?OnKeyDown@CXTPControlEditCtrl@@IAEXIII@Z 004d85d0 f   ToolkitPro1501vc60S:XTPControlComboBox.obj
 0001:000d75d0       ?OnKeyDown@CXTPControlComboBoxEditCtrl@@IAEXIII@Z 004d85d0 f   ToolkitPro1501vc60S:XTPControlComboBox.obj
 0001:000d7610       ?UpdateCharFormat@CXTPControlComboBoxEditCtrl@@IAEXXZ 004d8610 f   ToolkitPro1501vc60S:XTPControlComboBox.obj
 0001:000d7690       ?OnShellAutoCompleteStart@CXTPControlComboBoxEditCtrl@@IAEXXZ 004d8690 f   ToolkitPro1501vc60S:XTPControlComboBox.obj
 0001:000d76b0       ?OnRButtonDown@CXTPControlComboBoxEditCtrl@@IAEXIVCPoint@@@Z 004d86b0 f   ToolkitPro1501vc60S:XTPControlComboBox.obj
 0001:000d7750       ?OnDestroy@CXTPControlComboBoxEditCtrl@@IAEXXZ 004d8750 f   ToolkitPro1501vc60S:XTPControlComboBox.obj
 0001:000d7770       ?OnWindowFromPoint@CXTPControlComboBoxEditCtrl@@IAEJIJ@Z 004d8770 f   ToolkitPro1501vc60S:XTPControlComboBox.obj
 0001:000d7770       ?OnWindowFromPoint@CXTPControlEditCtrl@@IAEJIJ@Z 004d8770 f   ToolkitPro1501vc60S:XTPControlComboBox.obj
 0001:000d7780       ?OnSetFocus@CXTPControlComboBoxEditCtrl@@IAEXPAVCWnd@@@Z 004d8780 f   ToolkitPro1501vc60S:XTPControlComboBox.obj
 0001:000d77f0       ?OnKillFocus@CXTPControlComboBoxEditCtrl@@IAEXPAVCWnd@@@Z 004d87f0 f   ToolkitPro1501vc60S:XTPControlComboBox.obj
 0001:000d7810       ?Copy@CXTPControlComboBoxList@@MAEXPAVCXTPCommandBar@@H@Z 004d8810 f   ToolkitPro1501vc60S:XTPControlComboBox.obj
 0001:000d7930       ?DoPropExchange@CXTPControlComboBoxList@@MAEXPAVCXTPPropExchange@@@Z 004d8930 f   ToolkitPro1501vc60S:XTPControlComboBox.obj
 0001:000d7ba0       ?OnMouseMove@CXTPControlComboBox@@MAEXVCPoint@@@Z 004d8ba0 f   ToolkitPro1501vc60S:XTPControlComboBox.obj
 0001:000d7c60       ?GetListIconId@CXTPControlComboBox@@QBEHXZ 004d8c60 f   ToolkitPro1501vc60S:XTPControlComboBox.obj
 0001:000d7c80       ?GetCustomizeMinWidth@CXTPControlComboBox@@MBEHXZ 004d8c80 f   ToolkitPro1501vc60S:XTPControlComboBox.obj
 0001:000d7ca0       ?DeflateEditRect@CXTPControlComboBox@@MAEXAAVCRect@@@Z 004d8ca0 f   ToolkitPro1501vc60S:XTPControlComboBox.obj
 0001:000d7ce0       ?DrawEditText@CXTPControlComboBox@@UAEXPAVCDC@@VCRect@@@Z 004d8ce0 f   ToolkitPro1501vc60S:XTPControlComboBox.obj
 0001:000d7f60       ?CenterPoint@CRect@@QBE?AVCPoint@@XZ 004d8f60 f i ToolkitPro1501vc60S:XTPControlComboBox.obj
 0001:000d7f90       ?DrawItem@CXTPControlComboBox@@MAEXPAUtagDRAWITEMSTRUCT@@@Z 004d8f90 f   ToolkitPro1501vc60S:XTPControlComboBox.obj
 0001:000d81c0       ??_9@$BBLE@AE              004d91c0 f i ToolkitPro1501vc60S:XTPControlComboBox.obj
 0001:000d81d0       ??_9@$BBLI@AE              004d91d0 f i ToolkitPro1501vc60S:XTPControlComboBox.obj
 0001:000d81e0       ??_ECXTPControlComboBox@@WBM@AEPAXI@Z 004d91e0 f i ToolkitPro1501vc60S:XTPControlComboBox.obj
 0001:000d81f0       ?OnCustomDraw@CXTPListViewBase@@IAEXPAUtagNMHDR@@PAJ@Z 004d91f0 f i ToolkitPro1501vc60S:XTPListCtrlView.obj
 0001:000d8210       ?OnSettingChange@CXTPListViewBase@@IAEXIPBD@Z 004d9210 f i ToolkitPro1501vc60S:XTPListCtrlView.obj
 0001:000d8240       ?OnDestroy@CXTPListViewBase@@IAEXXZ 004d9240 f i ToolkitPro1501vc60S:XTPListCtrlView.obj
 0001:000d8260       ?OnEraseBkgnd@CXTPListViewBase@@IAEHPAVCDC@@@Z 004d9260 f i ToolkitPro1501vc60S:XTPListCtrlView.obj
 0001:000d8270       ?OnPaint@CXTPListViewBase@@IAEXXZ 004d9270 f i ToolkitPro1501vc60S:XTPListCtrlView.obj
 0001:000d8280       ?OnPrintClient@CXTPListViewBase@@IAEJIJ@Z 004d9280 f i ToolkitPro1501vc60S:XTPListCtrlView.obj
 0001:000d82a0       ?OnCreate@CXTPListViewBase@@IAEHPAUtagCREATESTRUCTA@@@Z 004d92a0 f i ToolkitPro1501vc60S:XTPListCtrlView.obj
 0001:000d82d0       ?OnCustomDraw@CXTPListCtrlBase@@IAEXPAUtagNMHDR@@PAJ@Z 004d92d0 f i ToolkitPro1501vc60S:XTPListCtrlView.obj
 0001:000d82f0       ?OnSettingChange@CXTPListCtrlBase@@IAEXIPBD@Z 004d92f0 f i ToolkitPro1501vc60S:XTPListCtrlView.obj
 0001:000d8320       ?OnDestroy@CXTPListCtrlBase@@IAEXXZ 004d9320 f i ToolkitPro1501vc60S:XTPListCtrlView.obj
 0001:000d8340       ?OnPaint@CXTPListCtrlBase@@IAEXXZ 004d9340 f i ToolkitPro1501vc60S:XTPListCtrlView.obj
 0001:000d8350       ?OnPrintClient@CXTPListCtrlBase@@IAEJIJ@Z 004d9350 f i ToolkitPro1501vc60S:XTPListCtrlView.obj
 0001:000d8370       ?OnCreate@CXTPListCtrlBase@@IAEHPAUtagCREATESTRUCTA@@@Z 004d9370 f i ToolkitPro1501vc60S:XTPListCtrlView.obj
 0001:000d83a0       ??0CXTPListView@@QAE@XZ    004d93a0 f   ToolkitPro1501vc60S:XTPListCtrlView.obj
 0001:000d8420       ?OnNotify@CXTPListViewBase@@MAEHIJPAJ@Z 004d9420 f i ToolkitPro1501vc60S:XTPListCtrlView.obj
 0001:000d8440       ?PreCreateWindow@CXTPListViewBase@@MAEHAAUtagCREATESTRUCTA@@@Z 004d9440 f i ToolkitPro1501vc60S:XTPListCtrlView.obj
 0001:000d8470       ??1CXTPListViewBase@@UAE@XZ 004d9470 f i ToolkitPro1501vc60S:XTPListCtrlView.obj
 0001:000d84d0       ??_ECXTPListView@@UAEPAXI@Z 004d94d0 f i ToolkitPro1501vc60S:XTPListCtrlView.obj
 0001:000d84d0       ??_GCXTPListView@@UAEPAXI@Z 004d94d0 f i ToolkitPro1501vc60S:XTPListCtrlView.obj
 0001:000d84f0       ??1CXTPListView@@UAE@XZ    004d94f0 f   ToolkitPro1501vc60S:XTPListCtrlView.obj
 0001:000d8560       ?CreateObject@CXTPListView@@SGPAVCObject@@XZ 004d9560 f   ToolkitPro1501vc60S:XTPListCtrlView.obj
 0001:000d85c0       ?GetRuntimeClass@CXTPListView@@UBEPAUCRuntimeClass@@XZ 004d95c0 f   ToolkitPro1501vc60S:XTPListCtrlView.obj
 0001:000d85d0       ?GetMessageMap@CXTPListView@@MBEPBUAFX_MSGMAP@@XZ 004d95d0 f   ToolkitPro1501vc60S:XTPListCtrlView.obj
 0001:000d85e0       ??0CXTPListCtrl@@QAE@XZ    004d95e0 f   ToolkitPro1501vc60S:XTPListCtrlView.obj
 0001:000d8660       ?GetExtendedStyle@CXTPListCtrlBase@@UAEKXZ 004d9660 f i ToolkitPro1501vc60S:XTPListCtrlView.obj
 0001:000d8680       ?SetExtendedStyle@CXTPListCtrlBase@@UAEXK@Z 004d9680 f i ToolkitPro1501vc60S:XTPListCtrlView.obj
 0001:000d86b0       ?OnNotify@CXTPListCtrlBase@@MAEHIJPAJ@Z 004d96b0 f i ToolkitPro1501vc60S:XTPListCtrlView.obj
 0001:000d86d0       ?Init@CXTPListCtrlBase@@MAE_NXZ 004d96d0 f i ToolkitPro1501vc60S:XTPListCtrlView.obj
 0001:000d86e0       ?PreSubclassWindow@CXTPListCtrlBase@@MAEXXZ 004d96e0 f i ToolkitPro1501vc60S:XTPListCtrlView.obj
 0001:000d8700       ?PreCreateWindow@CXTPListCtrlBase@@MAEHAAUtagCREATESTRUCTA@@@Z 004d9700 f i ToolkitPro1501vc60S:XTPListCtrlView.obj
 0001:000d8730       ??1CXTPListCtrlBase@@UAE@XZ 004d9730 f i ToolkitPro1501vc60S:XTPListCtrlView.obj
 0001:000d8780       ??_GCXTPListCtrl@@UAEPAXI@Z 004d9780 f i ToolkitPro1501vc60S:XTPListCtrlView.obj
 0001:000d8780       ??_ECXTPListCtrl@@UAEPAXI@Z 004d9780 f i ToolkitPro1501vc60S:XTPListCtrlView.obj
 0001:000d87a0       ??1CXTPListCtrl@@UAE@XZ    004d97a0 f   ToolkitPro1501vc60S:XTPListCtrlView.obj
 0001:000d8800       ?GetRuntimeClass@CXTPListCtrl@@UBEPAUCRuntimeClass@@XZ 004d9800 f   ToolkitPro1501vc60S:XTPListCtrlView.obj
 0001:000d8810       ?GetMessageMap@CXTPListCtrl@@MBEPBUAFX_MSGMAP@@XZ 004d9810 f   ToolkitPro1501vc60S:XTPListCtrlView.obj
 0001:000d8820       ?OnNotify@CXTPListViewBase@@OEI@AEHIJPAJ@Z 004d9820 f i ToolkitPro1501vc60S:XTPListCtrlView.obj
 0001:000d8830       ?OnNotify@CXTPListCtrlBase@@ODM@AEHIJPAJ@Z 004d9830 f i ToolkitPro1501vc60S:XTPListCtrlView.obj
 0001:000d8840       ??_ECXTPListView@@WEI@AEPAXI@Z 004d9840 f i ToolkitPro1501vc60S:XTPListCtrlView.obj
 0001:000d8850       ??_ECXTPListCtrl@@WDM@AEPAXI@Z 004d9850 f i ToolkitPro1501vc60S:XTPListCtrlView.obj
 0001:000d8860       ??0CXTPListBase@@QAE@XZ    004d9860 f   ToolkitPro1501vc60S:XTPListBase.obj
 0001:000d8920       ??_GCXTPListBase@@UAEPAXI@Z 004d9920 f i ToolkitPro1501vc60S:XTPListBase.obj
 0001:000d8920       ??_ECXTPListBase@@UAEPAXI@Z 004d9920 f i ToolkitPro1501vc60S:XTPListBase.obj
 0001:000d8940       ??1CXTPListBase@@UAE@XZ    004d9940 f   ToolkitPro1501vc60S:XTPListBase.obj
 0001:000d89f0       ?RefreshMetrics@CXTPListBase@@IAEXXZ 004d99f0 f   ToolkitPro1501vc60S:XTPListBase.obj
 0001:000d8a40       ?Lookup@CXTPListBase@@UAEPAUROWCOLOR@1@H@Z 004d9a40 f   ToolkitPro1501vc60S:XTPListBase.obj
 0001:000d8a70       ?ImplAttach@CXTPListBase@@IAEXPAVCListCtrl@@@Z 004d9a70 f   ToolkitPro1501vc60S:XTPListBase.obj
 0001:000d8a80       ?MoveRow@CXTPListBase@@UAE_NHH@Z 004d9a80 f   ToolkitPro1501vc60S:XTPListBase.obj
 0001:000d8ad0       ?CopyRow@CXTPListBase@@UAEHHH@Z 004d9ad0 f   ToolkitPro1501vc60S:XTPListBase.obj
 0001:000d8c10       ?GetColumnCount@CXTPListBase@@UAEHXZ 004d9c10 f   ToolkitPro1501vc60S:XTPListBase.obj
 0001:000d8c60       ?ModifyExtendedStyle@CXTPListBase@@UAEHKK@Z 004d9c60 f   ToolkitPro1501vc60S:XTPListBase.obj
 0001:000d8cc0       ?OnCustomDraw@CXTPListBase@@IAEXPAUtagNMHDR@@PAJ@Z 004d9cc0 f   ToolkitPro1501vc60S:XTPListBase.obj
 0001:000d8e80       ?SetSortImage@CXTPListBase@@UAEHHH@Z 004d9e80 f   ToolkitPro1501vc60S:XTPListBase.obj
 0001:000d8ef0       ?OnNotify@CXTPListBase@@MAEHIJPAJ@Z 004d9ef0 f   ToolkitPro1501vc60S:XTPListBase.obj
 0001:000d8ff0       ?SortList@CXTPListBase@@UAE_NH_N@Z 004d9ff0 f   ToolkitPro1501vc60S:XTPListBase.obj
 0001:000d9000       ?AddColumn@CXTPListBase@@UAEHPBDHH@Z 004da000 f   ToolkitPro1501vc60S:XTPListBase.obj
 0001:000d90b0       ?BuildColumns@CXTPListBase@@UAE_NHPAH0@Z 004da0b0 f   ToolkitPro1501vc60S:XTPListBase.obj
 0001:000d9160       ?BuildColumns@CXTPListBase@@UAE_NHPAHPAVCString@@@Z 004da160 f   ToolkitPro1501vc60S:XTPListBase.obj
 0001:000d91c0       ?HitTestEx@CXTPListBase@@UBEHAAVCPoint@@PAH@Z 004da1c0 f   ToolkitPro1501vc60S:XTPListBase.obj
 0001:000d9380       ?SubclassHeader@CXTPListBase@@UAE_N_N@Z 004da380 f   ToolkitPro1501vc60S:XTPListBase.obj
 0001:000d9400       ?AutoSaveColumns@CXTPListBase@@UAEXPBD00@Z 004da400 f   ToolkitPro1501vc60S:XTPListBase.obj
 0001:000d9460       ?SaveColumnWidths@CXTPListBase@@UAEXXZ 004da460 f   ToolkitPro1501vc60S:XTPListBase.obj
 0001:000d95b0       ?LoadColumnWidths@CXTPListBase@@UAEXXZ 004da5b0 f   ToolkitPro1501vc60S:XTPListBase.obj
 0001:000d9650       ?SetStoredWidth@CXTPListBase@@UAEXH@Z 004da650 f   ToolkitPro1501vc60S:XTPListBase.obj
 0001:000d9680       ?GetStoredWidth@CXTPListBase@@UAEHH@Z 004da680 f   ToolkitPro1501vc60S:XTPListBase.obj
 0001:000d9780       ?OnDestroy@CXTPListBase@@IAEXXZ 004da780 f   ToolkitPro1501vc60S:XTPListBase.obj
 0001:000d9790       ?AutoSizeColumn@CXTPListBase@@UAEXH@Z 004da790 f   ToolkitPro1501vc60S:XTPListBase.obj
 0001:000d99f0       ?OnPrintClient@CXTPListBase@@IAEJIJ@Z 004da9f0 f   ToolkitPro1501vc60S:XTPListBase.obj
 0001:000d9a30       ?OnPaint@CXTPListBase@@IAEXXZ 004daa30 f   ToolkitPro1501vc60S:XTPListBase.obj
 0001:000d9d00       ?Init@CXTPListBase@@MAE_NXZ 004dad00 f   ToolkitPro1501vc60S:XTPListBase.obj
 0001:000d9d70       ?OnSettingChange@CXTPListBase@@IAEXIPBD@Z 004dad70 f   ToolkitPro1501vc60S:XTPListBase.obj
 0001:000d9d80       ?_xtGetHeaderCtrl@CXTPListBase@@QBEPAVCHeaderCtrl@@XZ 004dad80 f   ToolkitPro1501vc60S:XTPListBase.obj
 0001:000d9da0       ?XTPGetHeaderCtrl@CXTPListBase@@QBEPAVCXTPHeaderCtrl@@XZ 004dada0 f   ToolkitPro1501vc60S:XTPListBase.obj
 0001:000d9dc0       ??1?$CList@UROWCOLOR@CXTPListBase@@AAU12@@@UAE@XZ 004dadc0 f i ToolkitPro1501vc60S:XTPListBase.obj
 0001:000d9e20       ?Serialize@?$CList@UROWCOLOR@CXTPListBase@@AAU12@@@UAEXAAVCArchive@@@Z 004dae20 f i ToolkitPro1501vc60S:XTPListBase.obj
 0001:000d9f60       ??_E?$CList@UROWCOLOR@CXTPListBase@@AAU12@@@UAEPAXI@Z 004daf60 f i ToolkitPro1501vc60S:XTPListBase.obj
 0001:000d9f60       ??_G?$CList@UROWCOLOR@CXTPListBase@@AAU12@@@UAEPAXI@Z 004daf60 f i ToolkitPro1501vc60S:XTPListBase.obj
 0001:000d9f80       ??0CXTPHeaderCtrlTheme@@QAE@XZ 004daf80 f   ToolkitPro1501vc60S:XTPHeaderCtrlTheme.obj
 0001:000da000       ??_GCXTPHeaderCtrlTheme@@UAEPAXI@Z 004db000 f i ToolkitPro1501vc60S:XTPHeaderCtrlTheme.obj
 0001:000da000       ??_ECXTPHeaderCtrlTheme@@UAEPAXI@Z 004db000 f i ToolkitPro1501vc60S:XTPHeaderCtrlTheme.obj
 0001:000da020       ??1CXTPHeaderCtrlTheme@@UAE@XZ 004db020 f   ToolkitPro1501vc60S:XTPHeaderCtrlTheme.obj
 0001:000da080       ?RefreshMetrics@CXTPHeaderCtrlTheme@@UAEXPAVCXTPHeaderCtrl@@@Z 004db080 f   ToolkitPro1501vc60S:XTPHeaderCtrlTheme.obj
 0001:000da0f0       ?OnDrawBackground@CXTPHeaderCtrlTheme@@MAEXPAUtagDRAWITEMSTRUCT@@@Z 004db0f0 f   ToolkitPro1501vc60S:XTPHeaderCtrlTheme.obj
 0001:000da180       ?OnDrawItemBackground@CXTPHeaderCtrlTheme@@MAEXPAUtagDRAWITEMSTRUCT@@@Z 004db180 f   ToolkitPro1501vc60S:XTPHeaderCtrlTheme.obj
 0001:000da320       ?OnDrawBackgroundWinThemed@CXTPHeaderCtrlTheme@@MAEHPAUtagDRAWITEMSTRUCT@@@Z 004db320 f   ToolkitPro1501vc60S:XTPHeaderCtrlTheme.obj
 0001:000da360       ?OnDrawItemBackgroundWinThemed@CXTPHeaderCtrlTheme@@MAEHPAUtagDRAWITEMSTRUCT@@@Z 004db360 f   ToolkitPro1501vc60S:XTPHeaderCtrlTheme.obj
 0001:000da3a0       ?DrawSortArrow@CXTPHeaderCtrlTheme@@MAEXPAVCDC@@PAUtagPOINT@@H@Z 004db3a0 f   ToolkitPro1501vc60S:XTPHeaderCtrlTheme.obj
 0001:000da4b0       ?OnDrawItemSortArrow@CXTPHeaderCtrlTheme@@MAEXPAUtagDRAWITEMSTRUCT@@H@Z 004db4b0 f   ToolkitPro1501vc60S:XTPHeaderCtrlTheme.obj
 0001:000da570       ?OnDrawItemText@CXTPHeaderCtrlTheme@@MAEXPAUtagDRAWITEMSTRUCT@@PAVCXTPHeaderCtrl@@@Z 004db570 f   ToolkitPro1501vc60S:XTPHeaderCtrlTheme.obj
 0001:000da850       ?DrawHeader@CXTPHeaderCtrlTheme@@UAEXPAVCDC@@PAVCXTPHeaderCtrl@@@Z 004db850 f   ToolkitPro1501vc60S:XTPHeaderCtrlTheme.obj
 0001:000dab40       ?UseWinXPThemes@CXTPHeaderCtrlTheme@@UAEHPAVCXTPHeaderCtrl@@@Z 004dbb40 f   ToolkitPro1501vc60S:XTPHeaderCtrlTheme.obj
 0001:000dab90       ?SetDrawStyle@CXTPHeaderCtrlTheme@@UAEXKPAVCXTPHeaderCtrl@@@Z 004dbb90 f   ToolkitPro1501vc60S:XTPHeaderCtrlTheme.obj
 0001:000dabc0       ?Layout@CXTPHeaderCtrlTheme@@UAEHPAU_HD_LAYOUT@@PAVCXTPHeaderCtrl@@@Z 004dbbc0 f   ToolkitPro1501vc60S:XTPHeaderCtrlTheme.obj
 0001:000dabe0       ?SetBitmap@CXTPHeaderCtrlTheme@@UAEHHIHKPAVCXTPHeaderCtrl@@@Z 004dbbe0 f   ToolkitPro1501vc60S:XTPHeaderCtrlTheme.obj
 0001:000dad50       ?OnDrawItemBitmap@CXTPHeaderCtrlTheme@@MAEXPAUtagDRAWITEMSTRUCT@@AAVCRect@@PAVCXTPHeaderCtrl@@@Z 004dbd50 f   ToolkitPro1501vc60S:XTPHeaderCtrlTheme.obj
 0001:000daf70       ?CleanUp@CXTPHeaderCtrlTheme@@UAEXPAVCXTPHeaderCtrl@@@Z 004dbf70 f   ToolkitPro1501vc60S:XTPHeaderCtrlTheme.obj
 0001:000daff0       ??0CXTPHeaderCtrlThemeOfficeXP@@QAE@XZ 004dbff0 f   ToolkitPro1501vc60S:XTPHeaderCtrlTheme.obj
 0001:000db010       ??_ECXTPHeaderCtrlThemeOfficeXP@@UAEPAXI@Z 004dc010 f i ToolkitPro1501vc60S:XTPHeaderCtrlTheme.obj
 0001:000db010       ??_GCXTPHeaderCtrlThemeOfficeXP@@UAEPAXI@Z 004dc010 f i ToolkitPro1501vc60S:XTPHeaderCtrlTheme.obj
 0001:000db030       ??1CXTPHeaderCtrlThemeOfficeXP@@UAE@XZ 004dc030 f   ToolkitPro1501vc60S:XTPHeaderCtrlTheme.obj
 0001:000db040       ?OnDrawBackground@CXTPHeaderCtrlThemeExplorer@@MAEXPAUtagDRAWITEMSTRUCT@@@Z 004dc040 f   ToolkitPro1501vc60S:XTPHeaderCtrlTheme.obj
 0001:000db040       ?OnDrawBackground@CXTPHeaderCtrlThemeOfficeXP@@MAEXPAUtagDRAWITEMSTRUCT@@@Z 004dc040 f   ToolkitPro1501vc60S:XTPHeaderCtrlTheme.obj
 0001:000db0a0       ?OnDrawItemBackground@CXTPHeaderCtrlThemeOfficeXP@@MAEXPAUtagDRAWITEMSTRUCT@@@Z 004dc0a0 f   ToolkitPro1501vc60S:XTPHeaderCtrlTheme.obj
 0001:000db200       ??0CXTPHeaderCtrlThemeOffice2003@@QAE@XZ 004dc200 f   ToolkitPro1501vc60S:XTPHeaderCtrlTheme.obj
 0001:000db230       ??_GCXTPHeaderCtrlThemeOffice2003@@UAEPAXI@Z 004dc230 f i ToolkitPro1501vc60S:XTPHeaderCtrlTheme.obj
 0001:000db230       ??_ECXTPHeaderCtrlThemeOffice2003@@UAEPAXI@Z 004dc230 f i ToolkitPro1501vc60S:XTPHeaderCtrlTheme.obj
 0001:000db250       ??1CXTPHeaderCtrlThemeOffice2003@@UAE@XZ 004dc250 f   ToolkitPro1501vc60S:XTPHeaderCtrlTheme.obj
 0001:000db260       ?OnDrawBackground@CXTPHeaderCtrlThemeOffice2003@@MAEXPAUtagDRAWITEMSTRUCT@@@Z 004dc260 f   ToolkitPro1501vc60S:XTPHeaderCtrlTheme.obj
 0001:000db590       ?OnDrawItemBackground@CXTPHeaderCtrlThemeOffice2003@@MAEXPAUtagDRAWITEMSTRUCT@@@Z 004dc590 f   ToolkitPro1501vc60S:XTPHeaderCtrlTheme.obj
 0001:000db6f0       ?Layout@CXTPHeaderCtrlThemeOffice2003@@UAEHPAU_HD_LAYOUT@@PAVCXTPHeaderCtrl@@@Z 004dc6f0 f   ToolkitPro1501vc60S:XTPHeaderCtrlTheme.obj
 0001:000db7d0       ??0CXTPHeaderCtrlThemeExplorer@@QAE@XZ 004dc7d0 f   ToolkitPro1501vc60S:XTPHeaderCtrlTheme.obj
 0001:000db810       ??_ECXTPHeaderCtrlThemeExplorer@@UAEPAXI@Z 004dc810 f i ToolkitPro1501vc60S:XTPHeaderCtrlTheme.obj
 0001:000db810       ??_GCXTPHeaderCtrlThemeExplorer@@UAEPAXI@Z 004dc810 f i ToolkitPro1501vc60S:XTPHeaderCtrlTheme.obj
 0001:000db830       ??1CXTPHeaderCtrlThemeExplorer@@UAE@XZ 004dc830 f   ToolkitPro1501vc60S:XTPHeaderCtrlTheme.obj
 0001:000db840       ?OnDrawItemBackgroundWinThemed@CXTPHeaderCtrlThemeExplorer@@MAEHPAUtagDRAWITEMSTRUCT@@@Z 004dc840 f   ToolkitPro1501vc60S:XTPHeaderCtrlTheme.obj
 0001:000db850       ?Layout@CXTPHeaderCtrlThemeExplorer@@UAEHPAU_HD_LAYOUT@@PAVCXTPHeaderCtrl@@@Z 004dc850 f   ToolkitPro1501vc60S:XTPHeaderCtrlTheme.obj
 0001:000db930       ?DrawSortArrow@CXTPHeaderCtrlThemeExplorer@@MAEXPAVCDC@@PAUtagPOINT@@H@Z 004dc930 f   ToolkitPro1501vc60S:XTPHeaderCtrlTheme.obj
 0001:000db9d0       ??0CXTPSystemVersion@@AAE@XZ 004dc9d0 f   ToolkitPro1501vc60S:XTPSystemHelpers.obj
 0001:000dba00       ?XTPSystemVersion@@YGPAVCXTPSystemVersion@@XZ 004dca00 f   ToolkitPro1501vc60S:XTPSystemHelpers.obj
 0001:000dba50       ?IsWin95@CXTPSystemVersion@@QBE_NXZ 004dca50 f   ToolkitPro1501vc60S:XTPSystemHelpers.obj
 0001:000dba70       ?IsWin98@CXTPSystemVersion@@QBE_NXZ 004dca70 f   ToolkitPro1501vc60S:XTPSystemHelpers.obj
 0001:000dba90       ?IsWin9x@CXTPSystemVersion@@QBE_NXZ 004dca90 f   ToolkitPro1501vc60S:XTPSystemHelpers.obj
 0001:000dbaa0       ?IsWinNT4@CXTPSystemVersion@@QBE_NXZ 004dcaa0 f   ToolkitPro1501vc60S:XTPSystemHelpers.obj
 0001:000dbac0       ?IsWin2K@CXTPSystemVersion@@QBE_NXZ 004dcac0 f   ToolkitPro1501vc60S:XTPSystemHelpers.obj
 0001:000dbae0       ?IsWinXP@CXTPSystemVersion@@QBE_NXZ 004dcae0 f   ToolkitPro1501vc60S:XTPSystemHelpers.obj
 0001:000dbb00       ?IsWin2KOrGreater@CXTPSystemVersion@@QBE_NXZ 004dcb00 f   ToolkitPro1501vc60S:XTPSystemHelpers.obj
 0001:000dbb20       ?IsWinXPOrGreater@CXTPSystemVersion@@QBE_NXZ 004dcb20 f   ToolkitPro1501vc60S:XTPSystemHelpers.obj
 0001:000dbb40       ?IsWinVistaOrGreater@CXTPSystemVersion@@QBE_NXZ 004dcb40 f   ToolkitPro1501vc60S:XTPSystemHelpers.obj
 0001:000dbb60       ?IsWin7OrGreater@CXTPSystemVersion@@QBE_NXZ 004dcb60 f   ToolkitPro1501vc60S:XTPSystemHelpers.obj
 0001:000dbb80       ?GreaterThanEqualTo@CXTPSystemVersion@@ABE_NKK@Z 004dcb80 f   ToolkitPro1501vc60S:XTPSystemHelpers.obj
 0001:000dbbb0       ?EqualTo@CXTPSystemVersion@@ABE_NKK@Z 004dcbb0 f   ToolkitPro1501vc60S:XTPSystemHelpers.obj
 0001:000dbbe0       ?GetComCtlVersion@CXTPSystemVersion@@QBEKXZ 004dcbe0 f   ToolkitPro1501vc60S:XTPSystemHelpers.obj
 0001:000dbc60       ?IsClearTypeTextQualitySupported@CXTPSystemVersion@@QBEHXZ 004dcc60 f   ToolkitPro1501vc60S:XTPSystemHelpers.obj
 0001:000dbc70       ?GetMaxCharSize@CXTPSystemVersion@@QBEHXZ 004dcc70 f   ToolkitPro1501vc60S:XTPSystemHelpers.obj
 0001:000dbca0       ?XTPMultiMonitor@@YAPAVCXTPMultiMonitor@@XZ 004dcca0 f   ToolkitPro1501vc60S:XTPSystemHelpers.obj
 0001:000dbcf0       ??1CXTPMultiMonitor@@QAE@XZ 004dccf0 f i ToolkitPro1501vc60S:XTPSystemHelpers.obj
 0001:000dbd00       ??0CXTPMultiMonitor@@AAE@XZ 004dcd00 f   ToolkitPro1501vc60S:XTPSystemHelpers.obj
 0001:000dbdd0       ?GetMonitorInfoA@CXTPMultiMonitor@@AAEHPAUXTP_HMONITOR__@1@PAUXTP_MONITORINFO@1@@Z 004dcdd0 f   ToolkitPro1501vc60S:XTPSystemHelpers.obj
 0001:000dbe00       ?GetWorkArea@CXTPMultiMonitor@@AAE?AVCRect@@PAUXTP_HMONITOR__@1@@Z 004dce00 f   ToolkitPro1501vc60S:XTPSystemHelpers.obj
 0001:000dbe60       ?GetScreenArea@CXTPMultiMonitor@@AAE?AVCRect@@PAUXTP_HMONITOR__@1@@Z 004dce60 f   ToolkitPro1501vc60S:XTPSystemHelpers.obj
 0001:000dbed0       ?GetScreenArea@CXTPMultiMonitor@@QAE?AVCRect@@ABUtagPOINT@@@Z 004dced0 f   ToolkitPro1501vc60S:XTPSystemHelpers.obj
 0001:000dbf30       ?GetScreenArea@CXTPMultiMonitor@@QAE?AVCRect@@PBUtagRECT@@@Z 004dcf30 f   ToolkitPro1501vc60S:XTPSystemHelpers.obj
 0001:000dbf80       ?GetWorkArea@CXTPMultiMonitor@@QAE?AVCRect@@PAUHWND__@@@Z 004dcf80 f   ToolkitPro1501vc60S:XTPSystemHelpers.obj
 0001:000dbfd0       ?GetWorkArea@CXTPMultiMonitor@@QAE?AVCRect@@ABUtagPOINT@@@Z 004dcfd0 f   ToolkitPro1501vc60S:XTPSystemHelpers.obj
 0001:000dc030       ?GetWorkArea@CXTPMultiMonitor@@QAE?AVCRect@@PBUtagRECT@@@Z 004dd030 f   ToolkitPro1501vc60S:XTPSystemHelpers.obj
 0001:000dc080       ?GetWorkArea@CXTPMultiMonitor@@QAE?AVCRect@@PBVCWnd@@@Z 004dd080 f   ToolkitPro1501vc60S:XTPSystemHelpers.obj
 0001:000dc0c0       ?GetWorkArea@CXTPMultiMonitor@@QAE?AVCRect@@XZ 004dd0c0 f   ToolkitPro1501vc60S:XTPSystemHelpers.obj
 0001:000dc110       ??0CXTPModuleHandle@@QAE@XZ 004dd110 f   ToolkitPro1501vc60S:XTPSystemHelpers.obj
 0001:000dc140       ??_GCXTPModuleHandle@@UAEPAXI@Z 004dd140 f i ToolkitPro1501vc60S:XTPSystemHelpers.obj
 0001:000dc140       ??_ECXTPModuleHandle@@UAEPAXI@Z 004dd140 f i ToolkitPro1501vc60S:XTPSystemHelpers.obj
 0001:000dc160       ??0CXTPModuleHandle@@QAE@PBD@Z 004dd160 f   ToolkitPro1501vc60S:XTPSystemHelpers.obj
 0001:000dc1d0       ??1CXTPModuleHandle@@UAE@XZ 004dd1d0 f   ToolkitPro1501vc60S:XTPSystemHelpers.obj
 0001:000dc220       ?Init@CXTPModuleHandle@@QAEHPBD@Z 004dd220 f   ToolkitPro1501vc60S:XTPSystemHelpers.obj
 0001:000dc250       ?GetModuleHandleA@CXTPModuleHandle@@QAEHPBD@Z 004dd250 f   ToolkitPro1501vc60S:XTPSystemHelpers.obj
 0001:000dc290       ?LoadLibraryA@CXTPModuleHandle@@QAEHPBD@Z 004dd290 f   ToolkitPro1501vc60S:XTPSystemHelpers.obj
 0001:000dc2d0       ?FreeLibrary@CXTPModuleHandle@@QAEHXZ 004dd2d0 f   ToolkitPro1501vc60S:XTPSystemHelpers.obj
 0001:000dc310       ?GetVersionInfo@CXTPModuleHandle@@AAEHXZ 004dd310 f   ToolkitPro1501vc60S:XTPSystemHelpers.obj
 0001:000dc340       ?GetVersion@CXTPModuleHandle@@QAEKXZ 004dd340 f   ToolkitPro1501vc60S:XTPSystemHelpers.obj
 0001:000dc370       ?GetProcAddress@CXTPModuleHandle@@QAEHPAP6GHXZPBDK@Z 004dd370 f   ToolkitPro1501vc60S:XTPSystemHelpers.obj
 0001:000dc3e0       ??0CXTPLockGuard@@QAE@AAU_RTL_CRITICAL_SECTION@@@Z 004dd3e0 f   ToolkitPro1501vc60S:XTPSystemHelpers.obj
 0001:000dc400       ??1CXTPLockGuard@@QAE@XZ   004dd400 f   ToolkitPro1501vc60S:XTPSystemHelpers.obj
 0001:000dc410       ?LockThread@CXTPLockGuard@@QAEXXZ 004dd410 f   ToolkitPro1501vc60S:XTPSystemHelpers.obj
 0001:000dc420       ?UnLockThread@CXTPLockGuard@@QAEXXZ 004dd420 f   ToolkitPro1501vc60S:XTPSystemHelpers.obj
 0001:000dc430       ??0CXTPAccessible@@QAE@XZ  004dd430 f   ToolkitPro1501vc60S:XTPSystemHelpers.obj
 0001:000dc460       ??_ECXTPAccessible@@UAEPAXI@Z 004dd460 f i ToolkitPro1501vc60S:XTPSystemHelpers.obj
 0001:000dc460       ??_GCXTPAccessible@@UAEPAXI@Z 004dd460 f i ToolkitPro1501vc60S:XTPSystemHelpers.obj
 0001:000dc480       ??1CXTPAccessible@@UAE@XZ  004dd480 f   ToolkitPro1501vc60S:XTPSystemHelpers.obj
 0001:000dc4a0       ?AccessibleNotifyWinEvent@CXTPAccessible@@QAEXKPAUHWND__@@JJ@Z 004dd4a0 f   ToolkitPro1501vc60S:XTPSystemHelpers.obj
 0001:000dc510       ?AccessibleObjectFromWindow@CXTPAccessible@@IAEJPAUHWND__@@KABU_GUID@@PAPAX@Z 004dd510 f   ToolkitPro1501vc60S:XTPSystemHelpers.obj
 0001:000dc5a0       ?LresultFromObject@CXTPAccessible@@IAEJABU_GUID@@IPAUIUnknown@@@Z 004dd5a0 f   ToolkitPro1501vc60S:XTPSystemHelpers.obj
 0001:000dc630       ?GetChildIndex@CXTPAccessible@@IAEJPAUtagVARIANT@@@Z 004dd630 f   ToolkitPro1501vc60S:XTPSystemHelpers.obj
 0001:000dc6a0       ?AddRef@XAccessible@CXTPAccessible@@UAGKXZ 004dd6a0 f   ToolkitPro1501vc60S:XTPSystemHelpers.obj
 0001:000dc6c0       ?Release@XAccessible@CXTPAccessible@@UAGKXZ 004dd6c0 f   ToolkitPro1501vc60S:XTPSystemHelpers.obj
 0001:000dc6e0       ?QueryInterface@XAccessible@CXTPAccessible@@UAGJABU_GUID@@PAPAX@Z 004dd6e0 f   ToolkitPro1501vc60S:XTPSystemHelpers.obj
 0001:000dc710       ?get_accParent@XAccessible@CXTPAccessible@@UAGJPAPAUIDispatch@@@Z 004dd710 f   ToolkitPro1501vc60S:XTPSystemHelpers.obj
 0001:000dc730       ?get_accChildCount@XAccessible@CXTPAccessible@@UAGJPAJ@Z 004dd730 f   ToolkitPro1501vc60S:XTPSystemHelpers.obj
 0001:000dc750       ?get_accChild@XAccessible@CXTPAccessible@@UAGJUtagVARIANT@@PAPAUIDispatch@@@Z 004dd750 f   ToolkitPro1501vc60S:XTPSystemHelpers.obj
 0001:000dc790       ?get_accName@XAccessible@CXTPAccessible@@UAGJUtagVARIANT@@PAPAG@Z 004dd790 f   ToolkitPro1501vc60S:XTPSystemHelpers.obj
 0001:000dc7d0       ?get_accValue@XAccessible@CXTPAccessible@@UAGJUtagVARIANT@@PAPAG@Z 004dd7d0 f   ToolkitPro1501vc60S:XTPSystemHelpers.obj
 0001:000dc810       ?get_accDescription@XAccessible@CXTPAccessible@@UAGJUtagVARIANT@@PAPAG@Z 004dd810 f   ToolkitPro1501vc60S:XTPSystemHelpers.obj
 0001:000dc850       ?get_accRole@XAccessible@CXTPAccessible@@UAGJUtagVARIANT@@PAU3@@Z 004dd850 f   ToolkitPro1501vc60S:XTPSystemHelpers.obj
 0001:000dc890       ?get_accState@XAccessible@CXTPAccessible@@UAGJUtagVARIANT@@PAU3@@Z 004dd890 f   ToolkitPro1501vc60S:XTPSystemHelpers.obj
 0001:000dc8d0       ?get_accHelp@XAccessible@CXTPAccessible@@UAGJUtagVARIANT@@PAPAG@Z 004dd8d0 f   ToolkitPro1501vc60S:XTPSystemHelpers.obj
 0001:000dc910       ?get_accHelpTopic@XAccessible@CXTPAccessible@@UAGJPAPAGUtagVARIANT@@PAJ@Z 004dd910 f   ToolkitPro1501vc60S:XTPSystemHelpers.obj
 0001:000dc950       ?get_accKeyboardShortcut@XAccessible@CXTPAccessible@@UAGJUtagVARIANT@@PAPAG@Z 004dd950 f   ToolkitPro1501vc60S:XTPSystemHelpers.obj
 0001:000dc990       ?get_accFocus@XAccessible@CXTPAccessible@@UAGJPAUtagVARIANT@@@Z 004dd990 f   ToolkitPro1501vc60S:XTPSystemHelpers.obj
 0001:000dc9b0       ?get_accSelection@XAccessible@CXTPAccessible@@UAGJPAUtagVARIANT@@@Z 004dd9b0 f   ToolkitPro1501vc60S:XTPSystemHelpers.obj
 0001:000dc9d0       ?get_accDefaultAction@XAccessible@CXTPAccessible@@UAGJUtagVARIANT@@PAPAG@Z 004dd9d0 f   ToolkitPro1501vc60S:XTPSystemHelpers.obj
 0001:000dca10       ?accSelect@XAccessible@CXTPAccessible@@UAGJJUtagVARIANT@@@Z 004dda10 f   ToolkitPro1501vc60S:XTPSystemHelpers.obj
 0001:000dca50       ?accLocation@XAccessible@CXTPAccessible@@UAGJPAJ000UtagVARIANT@@@Z 004dda50 f   ToolkitPro1501vc60S:XTPSystemHelpers.obj
 0001:000dcaa0       ?accNavigate@XAccessible@CXTPAccessible@@UAGJJUtagVARIANT@@PAU3@@Z 004ddaa0 f   ToolkitPro1501vc60S:XTPSystemHelpers.obj
 0001:000dcae0       ?accHitTest@XAccessible@CXTPAccessible@@UAGJJJPAUtagVARIANT@@@Z 004ddae0 f   ToolkitPro1501vc60S:XTPSystemHelpers.obj
 0001:000dcb00       ?accDoDefaultAction@XAccessible@CXTPAccessible@@UAGJUtagVARIANT@@@Z 004ddb00 f   ToolkitPro1501vc60S:XTPSystemHelpers.obj
 0001:000dcb40       ?put_accName@XAccessible@CXTPAccessible@@UAGJUtagVARIANT@@PAG@Z 004ddb40 f   ToolkitPro1501vc60S:XTPSystemHelpers.obj
 0001:000dcb80       ?put_accValue@XAccessible@CXTPAccessible@@UAGJUtagVARIANT@@PAG@Z 004ddb80 f   ToolkitPro1501vc60S:XTPSystemHelpers.obj
 0001:000dcbc0       ?Invoke@XAccessible@CXTPAccessible@@UAGJJABU_GUID@@KGPAUtagDISPPARAMS@@PAUtagVARIANT@@PAUtagEXCEPINFO@@PAI@Z 004ddbc0 f   ToolkitPro1501vc60S:XTPSystemHelpers.obj
 0001:000dcbd0       ?GetAccessibleChildCount@CXTPAccessible@@UAEJPAJ@Z 004ddbd0 f   ToolkitPro1501vc60S:XTPSystemHelpers.obj
 0001:000dcbd0       ?TxGetExtent@XTextHost@CXTPRichRender@@UAEJPAUtagSIZE@@@Z 004ddbd0 f   ToolkitPro1501vc60S:XTPSystemHelpers.obj
 0001:000dcbd0       ?GetAccessibleParent@CXTPAccessible@@UAEJPAPAUIDispatch@@@Z 004ddbd0 f   ToolkitPro1501vc60S:XTPSystemHelpers.obj
 0001:000dcbe0       ?AccessibleLocation@CXTPAccessible@@UAEJPAJ000UtagVARIANT@@@Z 004ddbe0 f   ToolkitPro1501vc60S:XTPSystemHelpers.obj
 0001:000dcbf0       ?GetIDsOfNames@XAccessible@CXTPAccessible@@UAGJABU_GUID@@PAPAGIKPAJ@Z 004ddbf0 f   ToolkitPro1501vc60S:XTPSystemHelpers.obj
 0001:000dcbf0       ?GetAccessibleHelpTopic@CXTPAccessible@@UAEJPAPAGUtagVARIANT@@PAJ@Z 004ddbf0 f   ToolkitPro1501vc60S:XTPSystemHelpers.obj
 0001:000dcbf0       ?AccessibleNavigate@CXTPAccessible@@UAEJJUtagVARIANT@@PAU2@@Z 004ddbf0 f   ToolkitPro1501vc60S:XTPSystemHelpers.obj
 0001:000dcc00       ?GetAccessibleChild@CXTPAccessible@@UAEJUtagVARIANT@@PAPAUIDispatch@@@Z 004ddc00 f   ToolkitPro1501vc60S:XTPSystemHelpers.obj
 0001:000dcc00       ?GetAccessibleRole@CXTPAccessible@@UAEJUtagVARIANT@@PAU2@@Z 004ddc00 f   ToolkitPro1501vc60S:XTPSystemHelpers.obj
 0001:000dcc00       ?PutAccessibleName@CXTPAccessible@@UAEJUtagVARIANT@@PAG@Z 004ddc00 f   ToolkitPro1501vc60S:XTPSystemHelpers.obj
 0001:000dcc00       ?GetAccessibleName@CXTPAccessible@@UAEJUtagVARIANT@@PAPAG@Z 004ddc00 f   ToolkitPro1501vc60S:XTPSystemHelpers.obj
 0001:000dcc00       ?GetAccessibleState@CXTPAccessible@@UAEJUtagVARIANT@@PAU2@@Z 004ddc00 f   ToolkitPro1501vc60S:XTPSystemHelpers.obj
 0001:000dcc00       ?GetAccessibleKeyboardShortcut@CXTPAccessible@@UAEJUtagVARIANT@@PAPAG@Z 004ddc00 f   ToolkitPro1501vc60S:XTPSystemHelpers.obj
 0001:000dcc00       ?GetAccessibleDescription@CXTPAccessible@@UAEJUtagVARIANT@@PAPAG@Z 004ddc00 f   ToolkitPro1501vc60S:XTPSystemHelpers.obj
 0001:000dcc00       ?PutAccessibleValue@CXTPAccessible@@UAEJUtagVARIANT@@PAG@Z 004ddc00 f   ToolkitPro1501vc60S:XTPSystemHelpers.obj
 0001:000dcc00       ?AccessibleSelect@CXTPAccessible@@UAEJJUtagVARIANT@@@Z 004ddc00 f   ToolkitPro1501vc60S:XTPSystemHelpers.obj
 0001:000dcc00       ?GetAccessibleHelp@CXTPAccessible@@UAEJUtagVARIANT@@PAPAG@Z 004ddc00 f   ToolkitPro1501vc60S:XTPSystemHelpers.obj
 0001:000dcc00       ?GetAccessibleDefaultAction@CXTPAccessible@@UAEJUtagVARIANT@@PAPAG@Z 004ddc00 f   ToolkitPro1501vc60S:XTPSystemHelpers.obj
 0001:000dcc00       ?GetAccessibleValue@CXTPAccessible@@UAEJUtagVARIANT@@PAPAG@Z 004ddc00 f   ToolkitPro1501vc60S:XTPSystemHelpers.obj
 0001:000dcc10       ??0CXTPSoundManager@@AAE@XZ 004ddc10 f   ToolkitPro1501vc60S:XTPSystemHelpers.obj
 0001:000dcc40       ?XTPSoundManager@@YAPAVCXTPSoundManager@@XZ 004ddc40 f   ToolkitPro1501vc60S:XTPSystemHelpers.obj
 0001:000dcc90       ??1CXTPSoundManager@@QAE@XZ 004ddc90 f   ToolkitPro1501vc60S:XTPSystemHelpers.obj
 0001:000dccb0       ?SoundThreadProc@CXTPSoundManager@@CGKPAX@Z 004ddcb0 f   ToolkitPro1501vc60S:XTPSystemHelpers.obj
 0001:000dcd30       ?StartThread@CXTPSoundManager@@AAEXXZ 004ddd30 f   ToolkitPro1501vc60S:XTPSystemHelpers.obj
 0001:000dcd80       ?StopThread@CXTPSoundManager@@QAEXXZ 004ddd80 f   ToolkitPro1501vc60S:XTPSystemHelpers.obj
 0001:000dce10       ?PlaySystemSound@CXTPSoundManager@@QAEXW4XTPSoundManagerState@@@Z 004dde10 f   ToolkitPro1501vc60S:XTPSystemHelpers.obj
 0001:000dce40       ??0CXTPZipMemFile@@QAE@XZ  004dde40 f   ToolkitPro1501vc60S:XTPSystemHelpers.obj
 0001:000dce60       ??_GCXTPZipMemFile@@UAEPAXI@Z 004dde60 f i ToolkitPro1501vc60S:XTPSystemHelpers.obj
 0001:000dce60       ??_ECXTPZipMemFile@@UAEPAXI@Z 004dde60 f i ToolkitPro1501vc60S:XTPSystemHelpers.obj
 0001:000dce80       ??0CXTPZipMemFile@@QAE@PAEI@Z 004dde80 f   ToolkitPro1501vc60S:XTPSystemHelpers.obj
 0001:000dcee0       ??1CXTPZipMemFile@@UAE@XZ  004ddee0 f   ToolkitPro1501vc60S:XTPSystemHelpers.obj
 0001:000dcef0       ?AttachCompressedBuffer@CXTPZipMemFile@@QAEXPAEIH@Z 004ddef0 f   ToolkitPro1501vc60S:XTPSystemHelpers.obj
 0001:000dcf80       ?OpenCompressedFile@CXTPZipMemFile@@QAEHPBD@Z 004ddf80 f   ToolkitPro1501vc60S:XTPSystemHelpers.obj
 0001:000dd050       ?DetachCompressedBuffer@CXTPZipMemFile@@QAEXAAPAEAAK@Z 004de050 f   ToolkitPro1501vc60S:XTPSystemHelpers.obj
 0001:000dd0e0       ?GetRuntimeClass@CXTPButton@@UBEPAUCRuntimeClass@@XZ 004de0e0 f   ToolkitPro1501vc60S:XTPButton.obj
 0001:000dd0f0       ??0CXTPButton@@QAE@XZ      004de0f0 f   ToolkitPro1501vc60S:XTPButton.obj
 0001:000dd1d0       ?IsHighlighted@CXTPButton@@UAEHXZ 004de1d0 f i ToolkitPro1501vc60S:XTPButton.obj
 0001:000dd1f0       ?GetImageAlignment@CXTPButton@@UBEHXZ 004de1f0 f i ToolkitPro1501vc60S:XTPButton.obj
 0001:000dd200       ??_GCXTPButton@@UAEPAXI@Z  004de200 f i ToolkitPro1501vc60S:XTPButton.obj
 0001:000dd200       ??_ECXTPButton@@UAEPAXI@Z  004de200 f i ToolkitPro1501vc60S:XTPButton.obj
 0001:000dd220       ??1CXTPButton@@UAE@XZ      004de220 f   ToolkitPro1501vc60S:XTPButton.obj
 0001:000dd2d0       ?GetMessageMap@CXTPButton@@MBEPBUAFX_MSGMAP@@XZ 004de2d0 f   ToolkitPro1501vc60S:XTPButton.obj
 0001:000dd2e0       ?OnMouseMove@CXTPButton@@IAEXIVCPoint@@@Z 004de2e0 f   ToolkitPro1501vc60S:XTPButton.obj
 0001:000dd390       ?OnMouseLeave@CXTPButton@@IAEXXZ 004de390 f   ToolkitPro1501vc60S:XTPButton.obj
 0001:000dd3a0       ?OnLButtonDown@CXTPButton@@IAEXIVCPoint@@@Z 004de3a0 f   ToolkitPro1501vc60S:XTPButton.obj
 0001:000dd420       ?OnSetState@CXTPButton@@IAEJIJ@Z 004de420 f   ToolkitPro1501vc60S:XTPButton.obj
 0001:000dd4d0       ?GetButtonRect@CXTPButton@@UAE?AVCRect@@XZ 004de4d0 f   ToolkitPro1501vc60S:XTPButton.obj
 0001:000dd540       ?DoDropDown@CXTPButton@@IAEXXZ 004de540 f   ToolkitPro1501vc60S:XTPButton.obj
 0001:000dd590       ?OnChar@CXTPButton@@IAEXIII@Z 004de590 f   ToolkitPro1501vc60S:XTPButton.obj
 0001:000dd5e0       ?OnGetDlgCode@CXTPButton@@IAEJIJ@Z 004de5e0 f   ToolkitPro1501vc60S:XTPButton.obj
 0001:000dd650       ?OnKeyDown@CXTPButton@@IAEXIII@Z 004de650 f   ToolkitPro1501vc60S:XTPButton.obj
 0001:000dd6a0       ?OnDropDown@CXTPButton@@MAEXXZ 004de6a0 f   ToolkitPro1501vc60S:XTPButton.obj
 0001:000dd6f0       ?OnKillFocus@CXTPButton@@IAEXPAVCWnd@@@Z 004de6f0 f   ToolkitPro1501vc60S:XTPButton.obj
 0001:000dd6f0       ?OnSetFocus@CXTPButton@@IAEXPAVCWnd@@@Z 004de6f0 f   ToolkitPro1501vc60S:XTPButton.obj
 0001:000dd720       ?OnDefaultAndInvalidate@CXTPButton@@IAEJIJ@Z 004de720 f   ToolkitPro1501vc60S:XTPButton.obj
 0001:000dd760       ?OnInvalidate@CXTPButton@@IAEXXZ 004de760 f   ToolkitPro1501vc60S:XTPButton.obj
 0001:000dd790       ?OnPrintClient@CXTPButton@@IAEJIJ@Z 004de790 f   ToolkitPro1501vc60S:XTPButton.obj
 0001:000dd7d0       ?OnPaint@CXTPButton@@IAEXXZ 004de7d0 f   ToolkitPro1501vc60S:XTPButton.obj
 0001:000dd830       ?OnDraw@CXTPButton@@MAEXPAVCDC@@@Z 004de830 f   ToolkitPro1501vc60S:XTPButton.obj
 0001:000dd9d0       ?DrawButton@CXTPButtonTheme@@UAEXPAVCDC@@PAVCXTPButton@@@Z 004de9d0 f   ToolkitPro1501vc60S:XTPButton.obj
 0001:000ddaf0       ?DoDraw@CXTPButton@@MAEXPAVCDC@@@Z 004deaf0 f   ToolkitPro1501vc60S:XTPButton.obj
 0001:000ddb60       ?OnUpdateUIState@CXTPButton@@IAEJIJ@Z 004deb60 f   ToolkitPro1501vc60S:XTPButton.obj
 0001:000ddba0       ?OnSetText@CXTPButton@@IAEJIJ@Z 004deba0 f   ToolkitPro1501vc60S:XTPButton.obj
 0001:000ddc20       ?GetButtonTextColor@CXTPButton@@UAEKXZ 004dec20 f   ToolkitPro1501vc60S:XTPButton.obj
 0001:000ddc30       ?GetButtonBackColor@CXTPButton@@UAEKXZ 004dec30 f   ToolkitPro1501vc60S:XTPButton.obj
 0001:000ddc40       ?GetButtonStyle@CXTPButton@@QBEEXZ 004dec40 f   ToolkitPro1501vc60S:XTPButton.obj
 0001:000ddc50       ?GetImageSize@CXTPButton@@UAE?AVCSize@@XZ 004dec50 f   ToolkitPro1501vc60S:XTPButton.obj
 0001:000ddc90       ?DrawImage@CXTPButton@@UAEXPAVCDC@@VCRect@@@Z 004dec90 f   ToolkitPro1501vc60S:XTPButton.obj
 0001:000dddc0       ?OnWndMsg@CXTPButton@@MAEHIIJPAJ@Z 004dedc0 f   ToolkitPro1501vc60S:XTPButton.obj
 0001:000dde40       ?GetTextAlignment@CXTPButton@@UBEHXZ 004dee40 f   ToolkitPro1501vc60S:XTPButton.obj
 0001:000ddea0       ?GetGlyphSize@CXTPButton@@QAE?AVCSize@@H@Z 004deea0 f   ToolkitPro1501vc60S:XTPButton.obj
 0001:000ddf40       ?InternalTextChanged@CXTPButton@@MAEXXZ 004def40 f   ToolkitPro1501vc60S:XTPButton.obj
 0001:000ddfc0       ?GetButtonText@CXTPButton@@UAE?AVCString@@XZ 004defc0 f   ToolkitPro1501vc60S:XTPButton.obj
 0001:000de040       ?IsPushButton@CXTPButton@@QBEHXZ 004df040 f   ToolkitPro1501vc60S:XTPButton.obj
 0001:000de080       ?OnSetTheme@CXTPButton@@IAEJIJ@Z 004df080 f   ToolkitPro1501vc60S:XTPButton.obj
 0001:000de0a0       ?RefreshMetrics@CXTPButton@@MAEXXZ 004df0a0 f   ToolkitPro1501vc60S:XTPButton.obj
 0001:000de0e0       ?SetTheme@CXTPButton@@UAEHW4XTPControlTheme@@@Z 004df0e0 f   ToolkitPro1501vc60S:XTPButton.obj
 0001:000de2a0       ?GetChecked@CXTPButton@@UAEHXZ 004df2a0 f   ToolkitPro1501vc60S:XTPButton.obj
 0001:000de2d0       ?SetIcon@CXTPButton@@UAEHVCSize@@IIH@Z 004df2d0 f   ToolkitPro1501vc60S:XTPButton.obj
 0001:000de300       ?SetIcon@CXTPButton@@UAEHVCSize@@PBD1H@Z 004df300 f   ToolkitPro1501vc60S:XTPButton.obj
 0001:000de400       ?SetIcon@CXTPButton@@QAEHVCSize@@PAVCXTPImageManagerIcon@@H@Z 004df400 f   ToolkitPro1501vc60S:XTPButton.obj
 0001:000de440       ?SetIcon@CXTPButton@@UAEHVCSize@@ABVCXTPImageManagerIconHandle@@1H@Z 004df440 f   ToolkitPro1501vc60S:XTPButton.obj
 0001:000de510       ?SetIcon@CXTPButton@@UAEHVCSize@@PAUHICON__@@1H@Z 004df510 f   ToolkitPro1501vc60S:XTPButton.obj
 0001:000de5b0       ?SetBitmap@CXTPButton@@UAEHVCSize@@IH@Z 004df5b0 f   ToolkitPro1501vc60S:XTPButton.obj
 0001:000de730       ?OnToolHitTest@CXTPButton@@MBEHVCPoint@@PAUtagTOOLINFOA@@@Z 004df730 f   ToolkitPro1501vc60S:XTPButton.obj
 0001:000de860       ?GetTooltip@CXTPButton@@QBE?AVCString@@XZ 004df860 f i ToolkitPro1501vc60S:XTPButton.obj
 0001:000de890       ?OnPaint@CXTPTabCtrlBase@@IAEXXZ 004df890 f i ToolkitPro1501vc60S:XTPTabCtrl.obj
 0001:000de8a0       ?OnEraseBkgnd@CXTPTabCtrlBase@@IAEHPAVCDC@@@Z 004df8a0 f i ToolkitPro1501vc60S:XTPTabCtrl.obj
 0001:000de8a0       ?OnEraseBkgnd@CXTPListCtrlBase@@IAEHPAVCDC@@@Z 004df8a0 f i ToolkitPro1501vc60S:XTPTabCtrl.obj
 0001:000de8b0       ?OnSettingChange@CXTPTabCtrlBase@@IAEXIPBD@Z 004df8b0 f i ToolkitPro1501vc60S:XTPTabCtrl.obj
 0001:000de8e0       ?OnSysColorChange@CXTPTabCtrlBase@@IAEXXZ 004df8e0 f i ToolkitPro1501vc60S:XTPTabCtrl.obj
 0001:000de900       ?OnCreate@CXTPTabCtrlBase@@IAEHPAUtagCREATESTRUCTA@@@Z 004df900 f i ToolkitPro1501vc60S:XTPTabCtrl.obj
 0001:000de930       ?OnRButtonDown@CXTPTabCtrlBase@@IAEXIVCPoint@@@Z 004df930 f i ToolkitPro1501vc60S:XTPTabCtrl.obj
 0001:000de950       ?OnDestroy@CXTPTabCtrlBase@@IAEXXZ 004df950 f i ToolkitPro1501vc60S:XTPTabCtrl.obj
 0001:000de970       ?OnSelchange@CXTPTabCtrlBase@@IAEHPAUtagNMHDR@@PAJ@Z 004df970 f i ToolkitPro1501vc60S:XTPTabCtrl.obj
 0001:000de990       ?OnSelchanging@CXTPTabCtrlBase@@IAEHPAUtagNMHDR@@PAJ@Z 004df990 f i ToolkitPro1501vc60S:XTPTabCtrl.obj
 0001:000de9b0       ?OnWindowPosChanged@CXTPTabCtrlBase@@IAEXPAUtagWINDOWPOS@@@Z 004df9b0 f i ToolkitPro1501vc60S:XTPTabCtrl.obj
 0001:000de9e0       ?OnSetTheme@CXTPTabCtrlBase@@IAEJIJ@Z 004df9e0 f i ToolkitPro1501vc60S:XTPTabCtrl.obj
 0001:000dea00       ?GetRuntimeClass@CXTPTabCtrl@@UBEPAUCRuntimeClass@@XZ 004dfa00 f   ToolkitPro1501vc60S:XTPTabCtrl.obj
 0001:000dea10       ?GetMessageMap@CXTPTabCtrl@@MBEPBUAFX_MSGMAP@@XZ 004dfa10 f   ToolkitPro1501vc60S:XTPTabCtrl.obj
 0001:000dea20       ??0CXTPTabCtrl@@QAE@XZ     004dfa20 f   ToolkitPro1501vc60S:XTPTabCtrl.obj
 0001:000dea90       ?GetActiveView@CXTPTabExBase@@UAEPAVCWnd@@XZ 004dfa90 f i ToolkitPro1501vc60S:XTPTabCtrl.obj
 0001:000deac0       ?SetMenuID@CXTPTabExBase@@UAEXIH@Z 004dfac0 f i ToolkitPro1501vc60S:XTPTabCtrl.obj
 0001:000deae0       ?IsPushed@CXTPButton@@UAEHXZ 004dfae0 f i ToolkitPro1501vc60S:XTPTabCtrl.obj
 0001:000deae0       ?GetMenuID@CXTPTabExBase@@UAEIXZ 004dfae0 f i ToolkitPro1501vc60S:XTPTabCtrl.obj
 0001:000deaf0       ?SendInitialUpdate@CXTPTabExBase@@UAEXH@Z 004dfaf0 f i ToolkitPro1501vc60S:XTPTabCtrl.obj
 0001:000deb00       ?PreSubclassWindow@CXTPTabCtrlBase@@MAEXXZ 004dfb00 f i ToolkitPro1501vc60S:XTPTabCtrl.obj
 0001:000deb20       ?PreCreateWindow@CXTPTabCtrlBase@@MAEHAAUtagCREATESTRUCTA@@@Z 004dfb20 f i ToolkitPro1501vc60S:XTPTabCtrl.obj
 0001:000deb50       ?OnCmdMsg@CXTPTabCtrlBase@@MAEHIHPAXPAUAFX_CMDHANDLERINFO@@@Z 004dfb50 f i ToolkitPro1501vc60S:XTPTabCtrl.obj
 0001:000deba0       ?PreTranslateMessage@CXTPTabCtrlBase@@MAEHPAUtagMSG@@@Z 004dfba0 f i ToolkitPro1501vc60S:XTPTabCtrl.obj
 0001:000debd0       ??_ECXTPTabCtrl@@UAEPAXI@Z 004dfbd0 f i ToolkitPro1501vc60S:XTPTabCtrl.obj
 0001:000debd0       ??_GCXTPTabCtrl@@UAEPAXI@Z 004dfbd0 f i ToolkitPro1501vc60S:XTPTabCtrl.obj
 0001:000debf0       ??1CXTPTabCtrlBase@@UAE@XZ 004dfbf0 f i ToolkitPro1501vc60S:XTPTabCtrl.obj
 0001:000dec40       ??1CXTPTabCtrl@@UAE@XZ     004dfc40 f   ToolkitPro1501vc60S:XTPTabCtrl.obj
 0001:000deca0       ?EnableToolTips@CXTPTabCtrl@@UAEHH@Z 004dfca0 f   ToolkitPro1501vc60S:XTPTabCtrl.obj
 0001:000decb0       ??_ECXTPTabCtrl@@WDM@AEPAXI@Z 004dfcb0 f i ToolkitPro1501vc60S:XTPTabCtrl.obj
 0001:000decc0       ?PreSubclassWindow@CXTPTabCtrlBase@@ODM@AEXXZ 004dfcc0 f i ToolkitPro1501vc60S:XTPTabCtrl.obj
 0001:000decd0       ?PreCreateWindow@CXTPTabCtrlBase@@ODM@AEHAAUtagCREATESTRUCTA@@@Z 004dfcd0 f i ToolkitPro1501vc60S:XTPTabCtrl.obj
 0001:000dece0       ?OnCmdMsg@CXTPTabCtrlBase@@ODM@AEHIHPAXPAUAFX_CMDHANDLERINFO@@@Z 004dfce0 f i ToolkitPro1501vc60S:XTPTabCtrl.obj
 0001:000decf0       ?PreTranslateMessage@CXTPTabCtrlBase@@ODM@AEHPAUtagMSG@@@Z 004dfcf0 f i ToolkitPro1501vc60S:XTPTabCtrl.obj
 0001:000ded00       ??0CXTPTabBase@@QAE@XZ     004dfd00 f   ToolkitPro1501vc60S:XTPTabBase.obj
 0001:000ded30       ??_GCXTPTabBase@@UAEPAXI@Z 004dfd30 f i ToolkitPro1501vc60S:XTPTabBase.obj
 0001:000ded30       ??_ECXTPTabBase@@UAEPAXI@Z 004dfd30 f i ToolkitPro1501vc60S:XTPTabBase.obj
 0001:000ded50       ??1CXTPTabBase@@UAE@XZ     004dfd50 f   ToolkitPro1501vc60S:XTPTabBase.obj
 0001:000ded90       ?OnPaint@CXTPTabBase@@IAEXXZ 004dfd90 f   ToolkitPro1501vc60S:XTPTabBase.obj
 0001:000dee50       ?RefreshMetrics@CXTPTabBase@@MAEXXZ 004dfe50 f   ToolkitPro1501vc60S:XTPTabBase.obj
 0001:000dee90       ?SetTheme@CXTPTabBase@@QAEHW4XTPControlTheme@@@Z 004dfe90 f   ToolkitPro1501vc60S:XTPTabBase.obj
 0001:000def70       ?OnSetTheme@CXTPTabBase@@IAEJIJ@Z 004dff70 f   ToolkitPro1501vc60S:XTPTabBase.obj
 0001:000def80       ?OnSettingChange@CXTPTabBase@@IAEXIPBD@Z 004dff80 f   ToolkitPro1501vc60S:XTPTabBase.obj
 0001:000defb0       ?OnSysColorChange@CXTPTabBase@@IAEXXZ 004dffb0 f   ToolkitPro1501vc60S:XTPTabBase.obj
 0001:000defd0       ?Init@CXTPTabBase@@MAEHXZ  004dffd0 f   ToolkitPro1501vc60S:XTPTabBase.obj
 0001:000df030       ?PreSubclassWindow@CXTPTabBase@@MAEXXZ 004e0030 f   ToolkitPro1501vc60S:XTPTabBase.obj
 0001:000df040       ?PreCreateWindow@CXTPTabBase@@MAEHAAUtagCREATESTRUCTA@@@Z 004e0040 f   ToolkitPro1501vc60S:XTPTabBase.obj
 0001:000df050       ?OnCreate@CXTPTabBase@@IAEHPAUtagCREATESTRUCTA@@@Z 004e0050 f   ToolkitPro1501vc60S:XTPTabBase.obj
 0001:000df060       ?ImplAttach@CXTPTabBase@@IAEXPAVCTabCtrl@@@Z 004e0060 f   ToolkitPro1501vc60S:XTPTabBase.obj
 0001:000df0d0       ?OnAddPadding@CXTPTabBase@@MAEXAAVCString@@@Z 004e00d0 f   ToolkitPro1501vc60S:XTPTabBase.obj
 0001:000df220       ?GetChildRect@CXTPTabBase@@UBEXAAVCRect@@@Z 004e0220 f   ToolkitPro1501vc60S:XTPTabBase.obj
 0001:000df3a0       ??0CXTPTabExBase@@QAE@XZ   004e03a0 f   ToolkitPro1501vc60S:XTPTabBase.obj
 0001:000df450       ??_ECXTPTabExBase@@UAEPAXI@Z 004e0450 f i ToolkitPro1501vc60S:XTPTabBase.obj
 0001:000df450       ??_GCXTPTabExBase@@UAEPAXI@Z 004e0450 f i ToolkitPro1501vc60S:XTPTabBase.obj
 0001:000df470       ??1CXTPTabExBase@@UAE@XZ   004e0470 f   ToolkitPro1501vc60S:XTPTabBase.obj
 0001:000df500       ?OnThemeChanged@CXTPTabExBase@@MAEXXZ 004e0500 f   ToolkitPro1501vc60S:XTPTabBase.obj
 0001:000df530       ?Init@CXTPTabExBase@@MAEHXZ 004e0530 f   ToolkitPro1501vc60S:XTPTabBase.obj
 0001:000df5f0       ?OnCmdMsg@CXTPTabExBase@@MAEHIHPAXPAUAFX_CMDHANDLERINFO@@@Z 004e05f0 f   ToolkitPro1501vc60S:XTPTabBase.obj
 0001:000df640       ?PreTranslateMessage@CXTPTabExBase@@MAEHPAUtagMSG@@@Z 004e0640 f   ToolkitPro1501vc60S:XTPTabBase.obj
 0001:000df6c0       ?OnRButtonDown@CXTPTabExBase@@IAEXIVCPoint@@@Z 004e06c0 f   ToolkitPro1501vc60S:XTPTabBase.obj
 0001:000df7c0       ?OnDestroy@CXTPTabExBase@@IAEXXZ 004e07c0 f   ToolkitPro1501vc60S:XTPTabBase.obj
 0001:000df7d0       ?OnSelchange@CXTPTabExBase@@IAEHPAUtagNMHDR@@PAJ@Z 004e07d0 f   ToolkitPro1501vc60S:XTPTabBase.obj
 0001:000df850       ?OnSelChange@CXTPTabExBase@@MAEXXZ 004e0850 f   ToolkitPro1501vc60S:XTPTabBase.obj
 0001:000df960       ?OnSelchanging@CXTPTabExBase@@IAEHPAUtagNMHDR@@PAJ@Z 004e0960 f   ToolkitPro1501vc60S:XTPTabBase.obj
 0001:000df9e0       ?OnSelChanging@CXTPTabExBase@@MAEXXZ 004e09e0 f   ToolkitPro1501vc60S:XTPTabBase.obj
 0001:000dfa00       ?OnPreWindowPosChanged@CXTPTabExBase@@MAEXPAUtagWINDOWPOS@@@Z 004e0a00 f   ToolkitPro1501vc60S:XTPTabBase.obj
 0001:000dfa80       ?OnPostWindowPosChanged@CXTPTabExBase@@MAEXXZ 004e0a80 f   ToolkitPro1501vc60S:XTPTabBase.obj
 0001:000dfa90       ?ModifyTabStyle@CXTPTabExBase@@UAEHKKI@Z 004e0a90 f   ToolkitPro1501vc60S:XTPTabBase.obj
 0001:000dfad0       ?GetTips@CXTPTabExBase@@UAEPAVCToolTipCtrl@@XZ 004e0ad0 f   ToolkitPro1501vc60S:XTPTabBase.obj
 0001:000dfaf0       ?SetTips@CXTPTabExBase@@UAEXPAVCToolTipCtrl@@@Z 004e0af0 f   ToolkitPro1501vc60S:XTPTabBase.obj
 0001:000dfb20       ?AddToolTip@CXTPTabExBase@@UAEXIPBD@Z 004e0b20 f   ToolkitPro1501vc60S:XTPTabBase.obj
 0001:000dfb80       ?UpdateToolTip@CXTPTabExBase@@UAEXHPBD@Z 004e0b80 f   ToolkitPro1501vc60S:XTPTabBase.obj
 0001:000dfbe0       ?UpdateToolTip@CXTPTabExBase@@UAEXPAUCRuntimeClass@@PBD@Z 004e0be0 f   ToolkitPro1501vc60S:XTPTabBase.obj
 0001:000dfc30       ?ResetToolTips@CXTPTabExBase@@UAEXXZ 004e0c30 f   ToolkitPro1501vc60S:XTPTabBase.obj
 0001:000dfc70       ?EnableToolTipsEx@CXTPTabExBase@@UAEHH@Z 004e0c70 f   ToolkitPro1501vc60S:XTPTabBase.obj
 0001:000dfca0       ?CreateTabView@CXTPTabExBase@@MAEPAVCWnd@@PAUCRuntimeClass@@PAVCDocument@@PAUCCreateContext@@@Z 004e0ca0 f   ToolkitPro1501vc60S:XTPTabBase.obj
 0001:000dfe20       ?AddView@CXTPTabExBase@@UAEHPBDPAUCRuntimeClass@@PAVCDocument@@PAUCCreateContext@@HHJ@Z 004e0e20 f   ToolkitPro1501vc60S:XTPTabBase.obj
 0001:000dfe80       ?AddView@CXTPTabExBase@@UAEHPBDPAVCView@@HHJ@Z 004e0e80 f   ToolkitPro1501vc60S:XTPTabBase.obj
 0001:000dfeb0       ?AddControl@CXTPTabExBase@@UAEHPBDPAVCWnd@@HHJ@Z 004e0eb0 f   ToolkitPro1501vc60S:XTPTabBase.obj
 0001:000e00b0       ?NextView@CXTPTabExBase@@QAEPAVCWnd@@XZ 004e10b0 f   ToolkitPro1501vc60S:XTPTabBase.obj
 0001:000e0100       ?PrevView@CXTPTabExBase@@QAEPAVCWnd@@XZ 004e1100 f   ToolkitPro1501vc60S:XTPTabBase.obj
 0001:000e0150       ?GetView@CXTPTabExBase@@UAEPAVCWnd@@H@Z 004e1150 f   ToolkitPro1501vc60S:XTPTabBase.obj
 0001:000e01c0       ?GetView@CXTPTabExBase@@UAEPAVCWnd@@PAUCRuntimeClass@@@Z 004e11c0 f   ToolkitPro1501vc60S:XTPTabBase.obj
 0001:000e0220       ?ActivateView@CXTPTabExBase@@UAEXPAVCWnd@@@Z 004e1220 f   ToolkitPro1501vc60S:XTPTabBase.obj
 0001:000e0300       ?SetActiveView@CXTPTabExBase@@UAEXPAUCRuntimeClass@@@Z 004e1300 f   ToolkitPro1501vc60S:XTPTabBase.obj
 0001:000e0380       ?SetActiveView@CXTPTabExBase@@UAEXPAVCWnd@@@Z 004e1380 f   ToolkitPro1501vc60S:XTPTabBase.obj
 0001:000e03f0       ?SetActiveView@CXTPTabExBase@@UAEXH@Z 004e13f0 f   ToolkitPro1501vc60S:XTPTabBase.obj
 0001:000e0450       ?RemoveListItem@CXTPTabExBase@@UAEXPAU__POSITION@@H@Z 004e1450 f   ToolkitPro1501vc60S:XTPTabBase.obj
 0001:000e0520       ??1CXTPTcbItem@@QAE@XZ     004e1520 f i ToolkitPro1501vc60S:XTPTabBase.obj
 0001:000e0580       ?DeleteView@CXTPTabExBase@@UAEXHH@Z 004e1580 f   ToolkitPro1501vc60S:XTPTabBase.obj
 0001:000e0690       ?DeleteView@CXTPTabExBase@@UAEXPAUCRuntimeClass@@H@Z 004e1690 f   ToolkitPro1501vc60S:XTPTabBase.obj
 0001:000e06e0       ?DeleteView@CXTPTabExBase@@UAEXPAVCWnd@@H@Z 004e16e0 f   ToolkitPro1501vc60S:XTPTabBase.obj
 0001:000e0720       ?GetViewName@CXTPTabExBase@@UAEPBDH@Z 004e1720 f   ToolkitPro1501vc60S:XTPTabBase.obj
 0001:000e0750       ?GetViewName@CXTPTabExBase@@UAEPBDPAUCRuntimeClass@@@Z 004e1750 f   ToolkitPro1501vc60S:XTPTabBase.obj
 0001:000e0790       ?IsChildView@CXTPTabExBase@@UAEHPAVCWnd@@@Z 004e1790 f   ToolkitPro1501vc60S:XTPTabBase.obj
 0001:000e07c0       ?RemoveAllTabs@CXTPTabExBase@@UAEHH@Z 004e17c0 f   ToolkitPro1501vc60S:XTPTabBase.obj
 0001:000e0880       ?GetTabFromPoint@CXTPTabExBase@@UAEHVCPoint@@@Z 004e1880 f   ToolkitPro1501vc60S:XTPTabBase.obj
 0001:000e0900       ?Defer@CXTPTabExBase@@UAEHAAPAXPAVCWnd@@@Z 004e1900 f   ToolkitPro1501vc60S:XTPTabBase.obj
 0001:000e0a20       ?RecalcLayout@CXTPTabExBase@@UAEXXZ 004e1a20 f   ToolkitPro1501vc60S:XTPTabBase.obj
 0001:000e0a70       ?ResizeTabView@CXTPTabExBase@@UAEXPAVCWnd@@@Z 004e1a70 f   ToolkitPro1501vc60S:XTPTabBase.obj
 0001:000e0ad0       ?InitializeFont@CXTPTabExBase@@UAEXXZ 004e1ad0 f   ToolkitPro1501vc60S:XTPTabBase.obj
 0001:000e0b40       ?SetAutoCondense@CXTPTabExBase@@QAEXH@Z 004e1b40 f   ToolkitPro1501vc60S:XTPTabBase.obj
 0001:000e0b50       ?GetAutoCondense@CXTPTabExBase@@QAEHXZ 004e1b50 f   ToolkitPro1501vc60S:XTPTabBase.obj
 0001:000e0b50       ?GetCount@CXTPShortcutManagerAccelTable@@QBEHXZ 004e1b50 f   ToolkitPro1501vc60S:XTPTabBase.obj
 0001:000e0b50       ?GetCount@CXTPRibbonTabContextHeaders@@QBEHXZ 004e1b50 f   ToolkitPro1501vc60S:XTPTabBase.obj
 0001:000e0b60       ?CalculateTabWidth@CXTPTabExBase@@IAEHPAVCDC@@AAVCString@@_N@Z 004e1b60 f   ToolkitPro1501vc60S:XTPTabBase.obj
 0001:000e0bb0       ?Condense@CXTPTabExBase@@IAEXXZ 004e1bb0 f   ToolkitPro1501vc60S:XTPTabBase.obj
 0001:000e1060       ??1ITEMANDWIDTH@CXTPTabExBase@@QAE@XZ 004e2060 f i ToolkitPro1501vc60S:XTPTabBase.obj
 0001:000e1070       ??1?$CList@PAVCXTPTcbItem@@PAV1@@@UAE@XZ 004e2070 f i ToolkitPro1501vc60S:XTPTabBase.obj
 0001:000e10d0       ?Serialize@?$CList@PAVCXTPHookManagerHookAble@@PAV1@@@UAEXAAVCArchive@@@Z 004e20d0 f i ToolkitPro1501vc60S:XTPTabBase.obj
 0001:000e10d0       ?Serialize@?$CList@PAVCXTPTcbItem@@PAV1@@@UAEXAAVCArchive@@@Z 004e20d0 f i ToolkitPro1501vc60S:XTPTabBase.obj
 0001:000e10d0       ?Serialize@?$CList@PAVCXTPDockingPaneContextStickerWnd@@PAV1@@@UAEXAAVCArchive@@@Z 004e20d0 f i ToolkitPro1501vc60S:XTPTabBase.obj
 0001:000e10d0       ?Serialize@?$CList@PAVCAlphaBitmap@CXTPImageEditorPicture@@PAV12@@@UAEXAAVCArchive@@@Z 004e20d0 f i ToolkitPro1501vc60S:XTPTabBase.obj
 0001:000e10d0       ?Serialize@?$CList@PAVCShadowWnd@CXTPShadowManager@@PAV12@@@UAEXAAVCArchive@@@Z 004e20d0 f i ToolkitPro1501vc60S:XTPTabBase.obj
 0001:000e10d0       ?Serialize@?$CList@PAVCXTPDockingPaneBase@@PAV1@@@UAEXAAVCArchive@@@Z 004e20d0 f i ToolkitPro1501vc60S:XTPTabBase.obj
 0001:000e10d0       ?Serialize@?$CList@PAVCXTPMarkupObject@@PAV1@@@UAEXAAVCArchive@@@Z 004e20d0 f i ToolkitPro1501vc60S:XTPTabBase.obj
 0001:000e10d0       ?Serialize@?$CList@PAVCXTPDockingPaneSplitterWnd@@PAV1@@@UAEXAAVCArchive@@@Z 004e20d0 f i ToolkitPro1501vc60S:XTPTabBase.obj
 0001:000e11f0       ??1?$CList@UITEMANDWIDTH@CXTPTabExBase@@AAU12@@@UAE@XZ 004e21f0 f i ToolkitPro1501vc60S:XTPTabBase.obj
 0001:000e1270       ?Serialize@?$CList@UITEMANDWIDTH@CXTPTabExBase@@AAU12@@@UAEXAAVCArchive@@@Z 004e2270 f i ToolkitPro1501vc60S:XTPTabBase.obj
 0001:000e1410       ??_E?$CList@PAVCXTPTcbItem@@PAV1@@@UAEPAXI@Z 004e2410 f i ToolkitPro1501vc60S:XTPTabBase.obj
 0001:000e1410       ??_G?$CList@PAVCXTPTcbItem@@PAV1@@@UAEPAXI@Z 004e2410 f i ToolkitPro1501vc60S:XTPTabBase.obj
 0001:000e1430       ??_E?$CList@UITEMANDWIDTH@CXTPTabExBase@@AAU12@@@UAEPAXI@Z 004e2430 f i ToolkitPro1501vc60S:XTPTabBase.obj
 0001:000e1430       ??_G?$CList@UITEMANDWIDTH@CXTPTabExBase@@AAU12@@@UAEPAXI@Z 004e2430 f i ToolkitPro1501vc60S:XTPTabBase.obj
 0001:000e1450       ??4ITEMANDWIDTH@CXTPTabExBase@@QAEAAU01@ABU01@@Z 004e2450 f i ToolkitPro1501vc60S:XTPTabBase.obj
 0001:000e1490       ?NewNode@?$CList@UITEMANDWIDTH@CXTPTabExBase@@AAU12@@@IAEPAUCNode@1@PAU21@0@Z 004e2490 f i ToolkitPro1501vc60S:XTPTabBase.obj
 0001:000e1500       ?DestructElements@@YGXPAUITEMANDWIDTH@CXTPTabExBase@@H@Z 004e2500 f i ToolkitPro1501vc60S:XTPTabBase.obj
 0001:000e1530       ?ConstructElements@@YGXPAUITEMANDWIDTH@CXTPTabExBase@@H@Z 004e2530 f i ToolkitPro1501vc60S:XTPTabBase.obj
 0001:000e1580       ?XTPMarkupCreateContext@@YAPAVCXTPMarkupContext@@PAUHWND__@@@Z 004e2580 f   ToolkitPro1501vc60S:XTPMarkupRender.obj
 0001:000e15f0       ?XTPMarkupReleaseContext@@YAXAAPAVCXTPMarkupContext@@@Z 004e25f0 f   ToolkitPro1501vc60S:XTPMarkupRender.obj
 0001:000e1610       ?XTPMarkupReleaseElement@@YAXAAPAVCXTPMarkupUIElement@@@Z 004e2610 f   ToolkitPro1501vc60S:XTPMarkupRender.obj
 0001:000e1630       ?XTPMarkupParseText@@YAPAVCXTPMarkupUIElement@@PAVCXTPMarkupContext@@PBD@Z 004e2630 f   ToolkitPro1501vc60S:XTPMarkupRender.obj
 0001:000e1650       ?XTPMarkupElementContext@@YAPAVCXTPMarkupContext@@PAVCXTPMarkupUIElement@@@Z 004e2650 f   ToolkitPro1501vc60S:XTPMarkupRender.obj
 0001:000e1660       ?XTPMarkupMeasureElement@@YA?AVCSize@@PAVCXTPMarkupUIElement@@HH@Z 004e2660 f   ToolkitPro1501vc60S:XTPMarkupRender.obj
 0001:000e1700       ?XTPMarkupRenderElement@@YAXPAVCXTPMarkupUIElement@@PAUHDC__@@PBUtagRECT@@@Z 004e2700 f   ToolkitPro1501vc60S:XTPMarkupRender.obj
 0001:000e17b0       ?XTPMarkupSetDefaultFont@@YAXPAVCXTPMarkupContext@@PAUHFONT__@@K@Z 004e27b0 f   ToolkitPro1501vc60S:XTPMarkupRender.obj
 0001:000e1800       ?XTPMarkupRelayMessage@@YAHPAVCXTPMarkupUIElement@@IIJPAJ@Z 004e2800 f   ToolkitPro1501vc60S:XTPMarkupRender.obj
 0001:000e1830       ??0CXTPA2W@CXTPResourceManager@@QAE@PBD@Z 004e2830 f   ToolkitPro1501vc60S:XTPResourceManager.obj
 0001:000e1890       ??1CXTPA2W@CXTPResourceManager@@QAE@XZ 004e2890 f   ToolkitPro1501vc60S:XTPResourceManager.obj
 0001:000e18f0       ?XTPResourceManager@@YAPAVCXTPResourceManager@@XZ 004e28f0 f   ToolkitPro1501vc60S:XTPResourceManager.obj
 0001:000e1900       ??0CManageState@CXTPResourceManager@@QAE@XZ 004e2900 f   ToolkitPro1501vc60S:XTPResourceManager.obj
 0001:000e1910       ??1CManageState@CXTPResourceManager@@QAE@XZ 004e2910 f   ToolkitPro1501vc60S:XTPResourceManager.obj
 0001:000e1930       ?Undo@CManageState@CXTPResourceManager@@QAEXXZ 004e2930 f   ToolkitPro1501vc60S:XTPResourceManager.obj
 0001:000e1950       ?Redo@CManageState@CXTPResourceManager@@QAEXXZ 004e2950 f   ToolkitPro1501vc60S:XTPResourceManager.obj
 0001:000e1990       ??0CXTPResourceManager@@QAE@XZ 004e2990 f   ToolkitPro1501vc60S:XTPResourceManager.obj
 0001:000e1a10       ?GetResourcesLangID@CXTPResourceManager@@UAEGXZ 004e2a10 f i ToolkitPro1501vc60S:XTPResourceManager.obj
 0001:000e1a20       ?LoadStringA@CXTPResourceManager@@UAE?AVCString@@IPAH@Z 004e2a20 f i ToolkitPro1501vc60S:XTPResourceManager.obj
 0001:000e1ab0       ??_GCXTPResourceManager@@UAEPAXI@Z 004e2ab0 f i ToolkitPro1501vc60S:XTPResourceManager.obj
 0001:000e1ab0       ??_ECXTPResourceManager@@UAEPAXI@Z 004e2ab0 f i ToolkitPro1501vc60S:XTPResourceManager.obj
 0001:000e1ad0       ??1CXTPResourceManager@@UAE@XZ 004e2ad0 f   ToolkitPro1501vc60S:XTPResourceManager.obj
 0001:000e1b10       ?Close@CXTPResourceManager@@UAEXXZ 004e2b10 f   ToolkitPro1501vc60S:XTPResourceManager.obj
 0001:000e1b30       ?GetResourceHandle@CXTPResourceManager@@QBEPAUHINSTANCE__@@XZ 004e2b30 f   ToolkitPro1501vc60S:XTPResourceManager.obj
 0001:000e1b40       ?FindResourceA@CXTPResourceManager@@QAEPAUHRSRC__@@AAPAUHINSTANCE__@@PBD1@Z 004e2b40 f   ToolkitPro1501vc60S:XTPResourceManager.obj
 0001:000e1b80       ?UpdateResourcesLangID@CXTPResourceManager@@MAEXXZ 004e2b80 f   ToolkitPro1501vc60S:XTPResourceManager.obj
 0001:000e1ba0       ?SetResourceLanguage@CXTPResourceManager@@QAEXG@Z 004e2ba0 f   ToolkitPro1501vc60S:XTPResourceManager.obj
 0001:000e1bd0       ?GetResourceLanguage@CXTPResourceManager@@SAGPAUHINSTANCE__@@@Z 004e2bd0 f   ToolkitPro1501vc60S:XTPResourceManager.obj
 0001:000e1c00       ?EnumResTypeProc@CXTPResourceManager@@KGHPAUHINSTANCE__@@PADJ@Z 004e2c00 f   ToolkitPro1501vc60S:XTPResourceManager.obj
 0001:000e1c50       ?EnumResNameProc@CXTPResourceManager@@KGHPAUHINSTANCE__@@PBDPADJ@Z 004e2c50 f   ToolkitPro1501vc60S:XTPResourceManager.obj
 0001:000e1ca0       ?EnumResLangProc@CXTPResourceManager@@KGHPAUHINSTANCE__@@PBD1GJ@Z 004e2ca0 f   ToolkitPro1501vc60S:XTPResourceManager.obj
 0001:000e1cd0       ?GetFontCharset@CXTPResourceManager@@QBEEXZ 004e2cd0 f   ToolkitPro1501vc60S:XTPResourceManager.obj
 0001:000e1cf0       ?LoadStringA@CXTPResourceManager@@UAEHPAVCString@@I@Z 004e2cf0 f   ToolkitPro1501vc60S:XTPResourceManager.obj
 0001:000e1d70       ?LoadMenuA@CXTPResourceManager@@UAEHPAVCMenu@@I@Z 004e2d70 f   ToolkitPro1501vc60S:XTPResourceManager.obj
 0001:000e1e10       ?LoadToolBar@CXTPResourceManager@@UAEHPAVCToolBar@@I@Z 004e2e10 f   ToolkitPro1501vc60S:XTPResourceManager.obj
 0001:000e1eb0       ?LoadBitmapA@CXTPResourceManager@@UAEHPAVCBitmap@@I@Z 004e2eb0 f   ToolkitPro1501vc60S:XTPResourceManager.obj
 0001:000e1f50       ?LoadCursorA@CXTPResourceManager@@UAEPAUHICON__@@I@Z 004e2f50 f   ToolkitPro1501vc60S:XTPResourceManager.obj
 0001:000e1fc0       ?LoadDialogTemplate2@CXTPResourceManager@@UAEPAXPBD@Z 004e2fc0 f   ToolkitPro1501vc60S:XTPResourceManager.obj
 0001:000e2030       ?LoadDialogTemplate@CXTPResourceManager@@UAEPBUDLGTEMPLATE@@I@Z 004e3030 f   ToolkitPro1501vc60S:XTPResourceManager.obj
 0001:000e2050       ?LoadHTML@CXTPResourceManager@@UAEHPAVCString@@I@Z 004e3050 f   ToolkitPro1501vc60S:XTPResourceManager.obj
 0001:000e2140       ?CreateIconFromResource@CXTPResourceManager@@UAEPAUHICON__@@PAUHINSTANCE__@@PBDVCSize@@@Z 004e3140 f   ToolkitPro1501vc60S:XTPResourceManager.obj
 0001:000e21f0       ?LoadIconA@CXTPResourceManager@@UAEPAUHICON__@@PBDVCSize@@@Z 004e31f0 f   ToolkitPro1501vc60S:XTPResourceManager.obj
 0001:000e2260       ?LoadIconA@CXTPResourceManager@@UAEPAUHICON__@@HVCSize@@@Z 004e3260 f   ToolkitPro1501vc60S:XTPResourceManager.obj
 0001:000e2280       ?ShowMessageBox@CXTPResourceManager@@QAEHII@Z 004e3280 f   ToolkitPro1501vc60S:XTPResourceManager.obj
 0001:000e2300       ?ShowMessageBox@CXTPResourceManager@@QAEHPBDI@Z 004e3300 f   ToolkitPro1501vc60S:XTPResourceManager.obj
 0001:000e2340       ?GetLanguageInfo@CXTPResourceManager@@SAPAUXTP_RESOURCEMANAGER_LANGINFO@@I@Z 004e3340 f   ToolkitPro1501vc60S:XTPResourceManager.obj
 0001:000e2380       ?GetMenuLocaleString@CXTPResourceManager@@QBEHPAVCMenu@@IAAVCString@@I@Z 004e3380 f   ToolkitPro1501vc60S:XTPResourceManager.obj
 0001:000e2520       ?LoadLocaleString@CXTPResourceManager@@QBEHPAUHINSTANCE__@@IAAVCString@@@Z 004e3520 f   ToolkitPro1501vc60S:XTPResourceManager.obj
 0001:000e2620       ?CreateObject@?$CProcessLocal@VCXTPResourceManager@@@@SGPAVCNoTrackObject@@XZ 004e3620 f i ToolkitPro1501vc60S:XTPResourceManager.obj
 0001:000e2680       ??0CSharedData@CXTPWinThemeWrapper@@QAE@XZ 004e3680 f   ToolkitPro1501vc60S:XTPWinThemeWrapper.obj
 0001:000e26c0       ?GetSharedData@CXTPWinThemeWrapper@@ABEAAVCSharedData@1@XZ 004e36c0 f   ToolkitPro1501vc60S:XTPWinThemeWrapper.obj
 0001:000e2760       ??0CXTPWinThemeWrapper@@QAE@H@Z 004e3760 f   ToolkitPro1501vc60S:XTPWinThemeWrapper.obj
 0001:000e2780       ??_ECXTPWinThemeWrapper@@UAEPAXI@Z 004e3780 f i ToolkitPro1501vc60S:XTPWinThemeWrapper.obj
 0001:000e2780       ??_GCXTPWinThemeWrapper@@UAEPAXI@Z 004e3780 f i ToolkitPro1501vc60S:XTPWinThemeWrapper.obj
 0001:000e27a0       ??1CXTPWinThemeWrapper@@UAE@XZ 004e37a0 f   ToolkitPro1501vc60S:XTPWinThemeWrapper.obj
 0001:000e27d0       ?ReloadLibrary@CXTPWinThemeWrapper@@ABEXXZ 004e37d0 f   ToolkitPro1501vc60S:XTPWinThemeWrapper.obj
 0001:000e2810       ?CloseThemeData@CXTPWinThemeWrapper@@QAEXXZ 004e3810 f   ToolkitPro1501vc60S:XTPWinThemeWrapper.obj
 0001:000e28b0       ?DrawThemeBackground@CXTPWinThemeWrapper@@QAEJPAUHDC__@@HHPBUtagRECT@@1@Z 004e38b0 f   ToolkitPro1501vc60S:XTPWinThemeWrapper.obj
 0001:000e2950       ?GetCurrentThemeName@CXTPWinThemeWrapper@@QAEJPAGH0H0H@Z 004e3950 f   ToolkitPro1501vc60S:XTPWinThemeWrapper.obj
 0001:000e2a10       ?GetThemeBackgroundContentRect@CXTPWinThemeWrapper@@QAEJPAUHDC__@@HHPBUtagRECT@@PAU3@@Z 004e3a10 f   ToolkitPro1501vc60S:XTPWinThemeWrapper.obj
 0001:000e2ac0       ?GetThemeColor@CXTPWinThemeWrapper@@QAEJHHHPAK@Z 004e3ac0 f   ToolkitPro1501vc60S:XTPWinThemeWrapper.obj
 0001:000e2b70       ?GetThemeInt@CXTPWinThemeWrapper@@QAEJHHHPAH@Z 004e3b70 f   ToolkitPro1501vc60S:XTPWinThemeWrapper.obj
 0001:000e2c10       ?GetThemePartSize@CXTPWinThemeWrapper@@QAEJPAUHDC__@@HHPAUtagRECT@@W4THEMESIZE@@PAUtagSIZE@@@Z 004e3c10 f   ToolkitPro1501vc60S:XTPWinThemeWrapper.obj
 0001:000e2cc0       ?GetThemeSysBool@CXTPWinThemeWrapper@@QAEHH@Z 004e3cc0 f   ToolkitPro1501vc60S:XTPWinThemeWrapper.obj
 0001:000e2d50       ?IsAppThemed@CXTPWinThemeWrapper@@QBEHXZ 004e3d50 f   ToolkitPro1501vc60S:XTPWinThemeWrapper.obj
 0001:000e2de0       ?IsThemeActive@CXTPWinThemeWrapper@@QBEHXZ 004e3de0 f   ToolkitPro1501vc60S:XTPWinThemeWrapper.obj
 0001:000e2e80       ?OpenThemeData@CXTPWinThemeWrapper@@QAEXPAUHWND__@@PBG@Z 004e3e80 f   ToolkitPro1501vc60S:XTPWinThemeWrapper.obj
 0001:000e2f10       ?ThemeDataOpen@CXTPWinThemeWrapper@@QBEHXZ 004e3f10 f   ToolkitPro1501vc60S:XTPWinThemeWrapper.obj
 0001:000e2f20       ?IsAppThemeReady@CXTPWinThemeWrapper@@QBEHXZ 004e3f20 f   ToolkitPro1501vc60S:XTPWinThemeWrapper.obj
 0001:000e2f70       ?DrawThemeTextEx@CXTPWinThemeWrapper@@QAEJPAUHDC__@@HHPBGHKPAUtagRECT@@PBUXTP_UX_DTTOPTS@@@Z 004e3f70 f   ToolkitPro1501vc60S:XTPWinThemeWrapper.obj
 0001:000e3030       ?BeginBufferedPaint@CXTPWinThemeWrapper@@QAEPAXPAUHDC__@@PBUtagRECT@@W4XTP_UX_BUFFERFORMAT@@PAUXTP_UX_PAINTPARAMS@@PAPAU2@@Z 004e4030 f   ToolkitPro1501vc60S:XTPWinThemeWrapper.obj
 0001:000e30e0       ?EndBufferedPaint@CXTPWinThemeWrapper@@QAEXPAXH@Z 004e40e0 f   ToolkitPro1501vc60S:XTPWinThemeWrapper.obj
 0001:000e3170       ??0CSharedData@CXTPWinDwmWrapper@@QAE@XZ 004e4170 f   ToolkitPro1501vc60S:XTPWinThemeWrapper.obj
 0001:000e3190       ?GetSharedData@CXTPWinDwmWrapper@@ABEAAVCSharedData@1@XZ 004e4190 f   ToolkitPro1501vc60S:XTPWinThemeWrapper.obj
 0001:000e31e0       ?DefWindowProcA@CXTPWinDwmWrapper@@QAEJPAUHWND__@@IIJPAJ@Z 004e41e0 f   ToolkitPro1501vc60S:XTPWinThemeWrapper.obj
 0001:000e3240       ?ExtendFrameIntoClientArea@CXTPWinDwmWrapper@@QAEJPAUHWND__@@HHHH@Z 004e4240 f   ToolkitPro1501vc60S:XTPWinThemeWrapper.obj
 0001:000e32b0       ?GetRuntimeClass@CXTPToolTipContextToolTip@@UBEPAUCRuntimeClass@@XZ 004e42b0 f   ToolkitPro1501vc60S:XTPToolTipContext.obj
 0001:000e32c0       ?XTPStripEllipsis@@YAXPAD@Z 004e42c0 f   ToolkitPro1501vc60S:XTPToolTipContext.obj
 0001:000e3300       ??0CXTPToolTipContextToolTip@@QAE@PAVCXTPToolTipContext@@@Z 004e4300 f   ToolkitPro1501vc60S:XTPToolTipContext.obj
 0001:000e3450       ??_GCXTPToolTipContextToolTip@@UAEPAXI@Z 004e4450 f i ToolkitPro1501vc60S:XTPToolTipContext.obj
 0001:000e3450       ??_ECXTPToolTipContextToolTip@@UAEPAXI@Z 004e4450 f i ToolkitPro1501vc60S:XTPToolTipContext.obj
 0001:000e3470       ??1CXTPToolTipContextToolTip@@UAE@XZ 004e4470 f   ToolkitPro1501vc60S:XTPToolTipContext.obj
 0001:000e3560       ?GetMessageMap@CXTPToolTipContextToolTip@@MBEPBUAFX_MSGMAP@@XZ 004e4560 f   ToolkitPro1501vc60S:XTPToolTipContext.obj
 0001:000e3570       ?Create@CXTPToolTipContextToolTip@@QAEHPAVCWnd@@K@Z 004e4570 f   ToolkitPro1501vc60S:XTPToolTipContext.obj
 0001:000e3630       ?OnDestroy@CXTPToolTipContextToolTip@@IAEXXZ 004e4630 f   ToolkitPro1501vc60S:XTPToolTipContext.obj
 0001:000e3730       ?OnSetImage@CXTPToolTipContextToolTip@@IAEJIJ@Z 004e4730 f   ToolkitPro1501vc60S:XTPToolTipContext.obj
 0001:000e3740       ?OnSetTitle@CXTPToolTipContextToolTip@@IAEJIJ@Z 004e4740 f   ToolkitPro1501vc60S:XTPToolTipContext.obj
 0001:000e3760       ?OnSetDelayTime@CXTPToolTipContextToolTip@@IAEJIJ@Z 004e4760 f   ToolkitPro1501vc60S:XTPToolTipContext.obj
 0001:000e37a0       ?OnUpdateTipText@CXTPToolTipContextToolTip@@IAEJIJ@Z 004e47a0 f   ToolkitPro1501vc60S:XTPToolTipContext.obj
 0001:000e3810       ?OnAddTool@CXTPToolTipContextToolTip@@IAEJIJ@Z 004e4810 f   ToolkitPro1501vc60S:XTPToolTipContext.obj
 0001:000e3820       ?OnActivate@CXTPToolTipContextToolTip@@IAEJIJ@Z 004e4820 f   ToolkitPro1501vc60S:XTPToolTipContext.obj
 0001:000e3830       ?OnDelTool@CXTPToolTipContextToolTip@@IAEJIJ@Z 004e4830 f   ToolkitPro1501vc60S:XTPToolTipContext.obj
 0001:000e3840       ?OnRelayEvent@CXTPToolTipContextToolTip@@IAEJIJ@Z 004e4840 f   ToolkitPro1501vc60S:XTPToolTipContext.obj
 0001:000e3850       ?OnWindowFromPoint@CXTPToolTipContextToolTip@@IAEJIJ@Z 004e4850 f   ToolkitPro1501vc60S:XTPToolTipContext.obj
 0001:000e38b0       ?AddTool@CXTPToolTipContextToolTip@@QAEHPAUtagTOOLINFOA@@@Z 004e48b0 f   ToolkitPro1501vc60S:XTPToolTipContext.obj
 0001:000e3a90       ?Activate@CXTPToolTipContextToolTip@@QAEXH@Z 004e4a90 f   ToolkitPro1501vc60S:XTPToolTipContext.obj
 0001:000e3b20       ?DelTool@CXTPToolTipContextToolTip@@QAEXPAUtagTOOLINFOA@@@Z 004e4b20 f   ToolkitPro1501vc60S:XTPToolTipContext.obj
 0001:000e3c90       ?FindTool@CXTPToolTipContextToolTip@@IAEPAUTOOLITEM@1@XZ 004e4c90 f   ToolkitPro1501vc60S:XTPToolTipContext.obj
 0001:000e3da0       ?GetToolText@CXTPToolTipContextToolTip@@IAE?AVCString@@PAUTOOLITEM@1@@Z 004e4da0 f   ToolkitPro1501vc60S:XTPToolTipContext.obj
 0001:000e3e70       ?GetMaxTipWidth@CXTPToolTipContextToolTip@@IBEHXZ 004e4e70 f   ToolkitPro1501vc60S:XTPToolTipContext.obj
 0001:000e3e90       ?GetToolSize@CXTPToolTipContextToolTip@@MAE?AVCSize@@PAUTOOLITEM@1@@Z 004e4e90 f   ToolkitPro1501vc60S:XTPToolTipContext.obj
 0001:000e4160       ?MouseProc@CXTPToolTipContextToolTip@@KGJHIJ@Z 004e5160 f   ToolkitPro1501vc60S:XTPToolTipContext.obj
 0001:000e4210       ?HookMouseMove@CXTPToolTipContextToolTip@@IAEXH@Z 004e5210 f   ToolkitPro1501vc60S:XTPToolTipContext.obj
 0001:000e4280       ?EnsureVisible@CXTPToolTipContextToolTip@@IAEXAAVCRect@@@Z 004e5280 f   ToolkitPro1501vc60S:XTPToolTipContext.obj
 0001:000e4310       ?GetCursorHeight@CXTPToolTipContext@@SAHXZ 004e5310 f   ToolkitPro1501vc60S:XTPToolTipContext.obj
 0001:000e4440       ?SetRoundRectRegion@CXTPToolTipContextToolTip@@IAEXPAVCWnd@@@Z 004e5440 f   ToolkitPro1501vc60S:XTPToolTipContext.obj
 0001:000e45b0       ?SetVisibleTool@CXTPToolTipContextToolTip@@IAEXPAUTOOLITEM@1@@Z 004e55b0 f   ToolkitPro1501vc60S:XTPToolTipContext.obj
 0001:000e4930       ?RelayEvent@CXTPToolTipContextToolTip@@QAEXPAUtagMSG@@@Z 004e5930 f   ToolkitPro1501vc60S:XTPToolTipContext.obj
 0001:000e4b70       ?DrawEntry@CXTPToolTipContextToolTip@@MAEXPAVCDC@@PAUTOOLITEM@1@VCRect@@@Z 004e5b70 f   ToolkitPro1501vc60S:XTPToolTipContext.obj
 0001:000e4ea0       ?DrawBackground@CXTPToolTipContextToolTip@@MAEXPAVCDC@@PAUTOOLITEM@1@VCRect@@@Z 004e5ea0 f   ToolkitPro1501vc60S:XTPToolTipContext.obj
 0001:000e4ee0       ?OnPaint@CXTPToolTipContextToolTip@@IAEXXZ 004e5ee0 f   ToolkitPro1501vc60S:XTPToolTipContext.obj
 0001:000e5000       ?DrawBackground@CXTPToolTipContext@@UAEXPAVCDC@@VCRect@@@Z 004e6000 f   ToolkitPro1501vc60S:XTPToolTipContext.obj
 0001:000e5200       ?OnMouseActivate@CXTPPopupBar@@IAEHPAVCWnd@@II@Z 004e6200 f   ToolkitPro1501vc60S:XTPToolTipContext.obj
 0001:000e5200       ?OnMouseActivate@CXTPToolTipContextToolTip@@IAEHPAVCWnd@@II@Z 004e6200 f   ToolkitPro1501vc60S:XTPToolTipContext.obj
 0001:000e5210       ?OnMouseMove@CXTPToolTipContextToolTip@@IAEXIVCPoint@@@Z 004e6210 f   ToolkitPro1501vc60S:XTPToolTipContext.obj
 0001:000e5220       ?OnTimer@CXTPToolTipContextToolTip@@IAEXI@Z 004e6220 f   ToolkitPro1501vc60S:XTPToolTipContext.obj
 0001:000e52f0       ?GetMessageMap@CStandardToolTip@CXTPToolTipContext@@MBEPBUAFX_MSGMAP@@XZ 004e62f0 f   ToolkitPro1501vc60S:XTPToolTipContext.obj
 0001:000e5300       ?OnWindowFromPoint@CStandardToolTip@CXTPToolTipContext@@IAEJIJ@Z 004e6300 f   ToolkitPro1501vc60S:XTPToolTipContext.obj
 0001:000e5350       ?GetToolSize@CRichEditToolTip@CXTPToolTipContext@@MAE?AVCSize@@PAUTOOLITEM@CXTPToolTipContextToolTip@@@Z 004e6350 f   ToolkitPro1501vc60S:XTPToolTipContext.obj
 0001:000e55a0       ?DrawEntry@CRichEditToolTip@CXTPToolTipContext@@MAEXPAVCDC@@PAUTOOLITEM@CXTPToolTipContextToolTip@@VCRect@@@Z 004e65a0 f   ToolkitPro1501vc60S:XTPToolTipContext.obj
 0001:000e5610       ?GetToolSize@CMarkupToolTip@CXTPToolTipContext@@MAE?AVCSize@@PAUTOOLITEM@CXTPToolTipContextToolTip@@@Z 004e6610 f   ToolkitPro1501vc60S:XTPToolTipContext.obj
 0001:000e5740       ?DrawEntry@CMarkupToolTip@CXTPToolTipContext@@MAEXPAVCDC@@PAUTOOLITEM@CXTPToolTipContextToolTip@@VCRect@@@Z 004e6740 f   ToolkitPro1501vc60S:XTPToolTipContext.obj
