; Listing generated by Microsoft (R) Optimizing Compiler Version 12.00.9044.0 

	TITLE	C:\Users\Administrator\Desktop\GHOST\Client\SystemDlg.cpp
	.386P
include listing.inc
if @Version gt 510
.model FLAT
else
_TEXT	SEGMENT PARA USE32 PUBLIC 'CODE'
_TEXT	ENDS
_DATA	SEGMENT DWORD USE32 PUBLIC 'DATA'
_DATA	ENDS
CONST	SEGMENT DWORD USE32 PUBLIC 'CONST'
CONST	ENDS
_BSS	SEGMENT DWORD USE32 PUBLIC 'BSS'
_BSS	ENDS
$$SYMBOLS	SEGMENT BYTE USE32 'DEBSYM'
$$SYMBOLS	ENDS
_TLS	SEGMENT DWORD USE32 PUBLIC 'TLS'
_TLS	ENDS
;	COMDAT ??_C@_0BB@NAAD@Magellan?5MSWHEEL?$AA@
_DATA	SEGMENT DWORD USE32 PUBLIC 'DATA'
_DATA	ENDS
;	COMDAT ??_C@_06FPAF@MouseZ?$AA@
_DATA	SEGMENT DWORD USE32 PUBLIC 'DATA'
_DATA	ENDS
;	COMDAT ??_C@_0BA@CLBL@MSWHEEL_ROLLMSG?$AA@
_DATA	SEGMENT DWORD USE32 PUBLIC 'DATA'
_DATA	ENDS
;	COMDAT ??_C@_0BF@DLPD@MSH_WHEELSUPPORT_MSG?$AA@
_DATA	SEGMENT DWORD USE32 PUBLIC 'DATA'
_DATA	ENDS
;	COMDAT ??_C@_0BF@ODOJ@MSH_SCROLL_LINES_MSG?$AA@
_DATA	SEGMENT DWORD USE32 PUBLIC 'DATA'
_DATA	ENDS
;	COMDAT ??_C@_09KPKL@LC?5?$CFd?5?$CFs?6?$AA@
_DATA	SEGMENT DWORD USE32 PUBLIC 'DATA'
_DATA	ENDS
;	COMDAT ??_C@_09HPKC@EC?5?$CFd?5?$CFs?6?$AA@
_DATA	SEGMENT DWORD USE32 PUBLIC 'DATA'
_DATA	ENDS
;	COMDAT ??_C@_04FDEB@Send?$AA@
_DATA	SEGMENT DWORD USE32 PUBLIC 'DATA'
_DATA	ENDS
;	COMDAT ??_C@_0BA@FELK@OnClientReading?$AA@
_DATA	SEGMENT DWORD USE32 PUBLIC 'DATA'
_DATA	ENDS
;	COMDAT ??_C@_0CH@EPLF@CIOCPLOCAL?3?3OnClientReading?5Exce@
_DATA	SEGMENT DWORD USE32 PUBLIC 'DATA'
_DATA	ENDS
;	COMDAT ??_C@_0O@NFAI@SysListView32?$AA@
_DATA	SEGMENT DWORD USE32 PUBLIC 'DATA'
_DATA	ENDS
;	COMDAT ??_C@_0O@NCOE@SysTreeView32?$AA@
_DATA	SEGMENT DWORD USE32 PUBLIC 'DATA'
_DATA	ENDS
;	COMDAT ??_C@_0BE@OPIO@IDispatch?5error?5?$CD?$CFd?$AA@
_DATA	SEGMENT DWORD USE32 PUBLIC 'DATA'
_DATA	ENDS
;	COMDAT ??_C@_0BF@NADL@Unknown?5error?50x?$CF0lX?$AA@
_DATA	SEGMENT DWORD USE32 PUBLIC 'DATA'
_DATA	ENDS
;	COMDAT ??_C@_0BA@PACF@SysTabControl32?$AA@
_DATA	SEGMENT DWORD USE32 PUBLIC 'DATA'
_DATA	ENDS
;	COMDAT ??_C@_00A@?$AA@
_DATA	SEGMENT DWORD USE32 PUBLIC 'DATA'
_DATA	ENDS
;	COMDAT ??_C@_08BLKF@Position?$AA@
_DATA	SEGMENT DWORD USE32 PUBLIC 'DATA'
_DATA	ENDS
;	COMDAT ??_C@_0L@HOPE@TabDocking?$AA@
_DATA	SEGMENT DWORD USE32 PUBLIC 'DATA'
_DATA	ENDS
;	COMDAT ??_C@_0N@MMAA@KERNEL32?4DLL?$AA@
_DATA	SEGMENT DWORD USE32 PUBLIC 'DATA'
_DATA	ENDS
;	COMDAT ??_C@_0BD@ECDE@HeapSetInformation?$AA@
_DATA	SEGMENT DWORD USE32 PUBLIC 'DATA'
_DATA	ENDS
;	COMDAT ??_C@_17CMHB@?$AA?7?$EA?$AD?$AA?7?$AA?$AA@
_DATA	SEGMENT DWORD USE32 PUBLIC 'DATA'
_DATA	ENDS
;	COMDAT ??_C@_19GKKJ@?$AA?$AD?$AA?7?$EA?$AD?$AA?7?$AA?$AA@
_DATA	SEGMENT DWORD USE32 PUBLIC 'DATA'
_DATA	ENDS
;	COMDAT ??_C@_1BC@LAOD@?$EA?$AI?$EA?$AD?$EA?$AD?$EA?$AD?$EA?$AD?$AA?7?$AA?7?$AA?7?$AA?$AA@
_DATA	SEGMENT DWORD USE32 PUBLIC 'DATA'
_DATA	ENDS
;	COMDAT ??_C@_1O@DJKO@?$AA?$AD?$AA?7?$EA?$AD?$AA?7?$AA?7?$AA?7?$AA?$AA@
_DATA	SEGMENT DWORD USE32 PUBLIC 'DATA'
_DATA	ENDS
;	COMDAT ??_C@_1O@CBDK@?$EA?$AI?$EA?$AI?$EA?$AI?$EA?$AD?$EA?$AD?$AA?7?$AA?$AA@
_DATA	SEGMENT DWORD USE32 PUBLIC 'DATA'
_DATA	ENDS
;	COMDAT ??_C@_15HGEJ@?$EA?$AD?$AA?7?$AA?$AA@
_DATA	SEGMENT DWORD USE32 PUBLIC 'DATA'
_DATA	ENDS
;	COMDAT ??_C@_19POGK@?$AA?$AD?$AA?$AM?$EA?$AD?$AA?7?$AA?$AA@
_DATA	SEGMENT DWORD USE32 PUBLIC 'DATA'
_DATA	ENDS
;	COMDAT ??_C@_1M@IIA@?$AA?$AD?$AA?$AM?$AA?7?$EA?$AD?$AA?7?$AA?$AA@
_DATA	SEGMENT DWORD USE32 PUBLIC 'DATA'
_DATA	ENDS
;	COMDAT ??_C@_19EDCP@?$AA?$AD?$AA?$AD?$EA?$AD?$AA?7?$AA?$AA@
_DATA	SEGMENT DWORD USE32 PUBLIC 'DATA'
_DATA	ENDS
;	COMDAT ??_C@_1M@FFDJ@?$AA?$AD?$AA?$AD?$AA?7?$EA?$AD?$AA?7?$AA?$AA@
_DATA	SEGMENT DWORD USE32 PUBLIC 'DATA'
_DATA	ENDS
;	COMDAT ??_C@_17FPH@?$AA?$AD?$EA?$AD?$AA?7?$AA?$AA@
_DATA	SEGMENT DWORD USE32 PUBLIC 'DATA'
_DATA	ENDS
;	COMDAT ??_C@_17BJFD@?$EA?$AL?$EA?$AD?$AA?7?$AA?$AA@
_DATA	SEGMENT DWORD USE32 PUBLIC 'DATA'
_DATA	ENDS
;	COMDAT ??_C@_06COKK@IconID?$AA@
_DATA	SEGMENT DWORD USE32 PUBLIC 'DATA'
_DATA	ENDS
;	COMDAT ??_C@_0M@HJOF@CustomIcons?$AA@
_DATA	SEGMENT DWORD USE32 PUBLIC 'DATA'
_DATA	ENDS
;	COMDAT ??_C@_0L@KNNJ@CategoryID?$AA@
_DATA	SEGMENT DWORD USE32 PUBLIC 'DATA'
_DATA	ENDS
;	COMDAT ??_C@_0BA@PENH@EventCategories?$AA@
_DATA	SEGMENT DWORD USE32 PUBLIC 'DATA'
_DATA	ENDS
;	COMDAT ??_C@_0O@ICJD@HeightFormula?$AA@
_DATA	SEGMENT DWORD USE32 PUBLIC 'DATA'
_DATA	ENDS
;	COMDAT ??_C@_0BA@DJCE@PrevEventButton?$AA@
_DATA	SEGMENT DWORD USE32 PUBLIC 'DATA'
_DATA	ENDS
;	COMDAT ??_C@_0BA@LPPM@NextEventButton?$AA@
_DATA	SEGMENT DWORD USE32 PUBLIC 'DATA'
_DATA	ENDS
;	COMDAT ??_C@_0BB@PMKD@EventIconsToDraw?$AA@
_DATA	SEGMENT DWORD USE32 PUBLIC 'DATA'
_DATA	ENDS
;	COMDAT ??_C@_06IEHP@Header?$AA@
_DATA	SEGMENT DWORD USE32 PUBLIC 'DATA'
_DATA	ENDS
;	COMDAT ??_C@_0N@DECM@AllDayEvents?$AA@
_DATA	SEGMENT DWORD USE32 PUBLIC 'DATA'
_DATA	ENDS
;	COMDAT ??_C@_04HPIN@Cell?$AA@
_DATA	SEGMENT DWORD USE32 PUBLIC 'DATA'
_DATA	ENDS
;	COMDAT ??_C@_0O@MOBI@MultiDayEvent?$AA@
_DATA	SEGMENT DWORD USE32 PUBLIC 'DATA'
_DATA	ENDS
;	COMDAT ??_C@_0P@KCNG@SingleDayEvent?$AA@
_DATA	SEGMENT DWORD USE32 PUBLIC 'DATA'
_DATA	ENDS
;	COMDAT ??_C@_05GGEJ@Group?$AA@
_DATA	SEGMENT DWORD USE32 PUBLIC 'DATA'
_DATA	ENDS
;	COMDAT ??_C@_05MJIN@Event?$AA@
_DATA	SEGMENT DWORD USE32 PUBLIC 'DATA'
_DATA	ENDS
;	COMDAT ??_C@_09LIMP@TimeScale?$AA@
_DATA	SEGMENT DWORD USE32 PUBLIC 'DATA'
_DATA	ENDS
;	COMDAT ??_C@_03ENC@Day?$AA@
_DATA	SEGMENT DWORD USE32 PUBLIC 'DATA'
_DATA	ENDS
;	COMDAT ??_C@_0O@CPJD@WeekDayHeader?$AA@
_DATA	SEGMENT DWORD USE32 PUBLIC 'DATA'
_DATA	ENDS
;	COMDAT ??_C@_0L@CBMM@WeekHeader?$AA@
_DATA	SEGMENT DWORD USE32 PUBLIC 'DATA'
_DATA	ENDS
;	COMDAT ??_C@_09FNKD@ColorsSet?$AA@
_DATA	SEGMENT DWORD USE32 PUBLIC 'DATA'
_DATA	ENDS
;	COMDAT ??_C@_07BLOB@DayView?$AA@
_DATA	SEGMENT DWORD USE32 PUBLIC 'DATA'
_DATA	ENDS
;	COMDAT ??_C@_09CHGJ@MonthView?$AA@
_DATA	SEGMENT DWORD USE32 PUBLIC 'DATA'
_DATA	ENDS
;	COMDAT ??_C@_08ICNK@WeekView?$AA@
_DATA	SEGMENT DWORD USE32 PUBLIC 'DATA'
_DATA	ENDS
;	COMDAT ??_C@_0BC@EBPL@CellDynBackground?$AA@
_DATA	SEGMENT DWORD USE32 PUBLIC 'DATA'
_DATA	ENDS
;	COMDAT ??_C@_0BF@HDLN@PrevNextEventButtons?$AA@
_DATA	SEGMENT DWORD USE32 PUBLIC 'DATA'
_DATA	ENDS
;	COMDAT ??_C@_0O@CJM@IsStandardSet?$AA@
_DATA	SEGMENT DWORD USE32 PUBLIC 'DATA'
_DATA	ENDS
;	COMDAT ??_C@_0M@OJLF@IsCustomSet?$AA@
_DATA	SEGMENT DWORD USE32 PUBLIC 'DATA'
_DATA	ENDS
;	COMDAT ??_C@_08GLNI@Standard?$AA@
_DATA	SEGMENT DWORD USE32 PUBLIC 'DATA'
_DATA	ENDS
;	COMDAT ??_C@_06JLAI@Custom?$AA@
_DATA	SEGMENT DWORD USE32 PUBLIC 'DATA'
_DATA	ENDS
rdata$r	SEGMENT DWORD USE32 PUBLIC 'CONST'
rdata$r	ENDS
xdata$x	SEGMENT DWORD USE32 PUBLIC 'CONST'
xdata$x	ENDS
CRT$XCA	SEGMENT DWORD USE32 PUBLIC 'DATA'
CRT$XCA	ENDS
CRT$XCU	SEGMENT DWORD USE32 PUBLIC 'DATA'
CRT$XCU	ENDS
CRT$XCL	SEGMENT DWORD USE32 PUBLIC 'DATA'
CRT$XCL	ENDS
CRT$XCC	SEGMENT DWORD USE32 PUBLIC 'DATA'
CRT$XCC	ENDS
CRT$XCZ	SEGMENT DWORD USE32 PUBLIC 'DATA'
CRT$XCZ	ENDS
text$AFX_COL1	SEGMENT PARA USE32 PUBLIC ''
text$AFX_COL1	ENDS
;	COMDAT _IsEqualGUID
_TEXT	SEGMENT PARA USE32 PUBLIC 'CODE'
_TEXT	ENDS
;	COMDAT _==
_TEXT	SEGMENT PARA USE32 PUBLIC 'CODE'
_TEXT	ENDS
;	COMDAT __tcsncpy
_TEXT	SEGMENT PARA USE32 PUBLIC 'CODE'
_TEXT	ENDS
;	COMDAT __tcsrchr
_TEXT	SEGMENT PARA USE32 PUBLIC 'CODE'
_TEXT	ENDS
;	COMDAT __tcstok
_TEXT	SEGMENT PARA USE32 PUBLIC 'CODE'
_TEXT	ENDS
;	COMDAT __tcscmp
_TEXT	SEGMENT PARA USE32 PUBLIC 'CODE'
_TEXT	ENDS
;	COMDAT __tcsicmp
_TEXT	SEGMENT PARA USE32 PUBLIC 'CODE'
_TEXT	ENDS
;	COMDAT __tcscoll
_TEXT	SEGMENT PARA USE32 PUBLIC 'CODE'
_TEXT	ENDS
;	COMDAT __tcsicoll
_TEXT	SEGMENT PARA USE32 PUBLIC 'CODE'
_TEXT	ENDS
;	COMDAT __tcsnccpy
_TEXT	SEGMENT PARA USE32 PUBLIC 'CODE'
_TEXT	ENDS
;	COMDAT __tcslwr
_TEXT	SEGMENT PARA USE32 PUBLIC 'CODE'
_TEXT	ENDS
;	COMDAT __tcsupr
_TEXT	SEGMENT PARA USE32 PUBLIC 'CODE'
_TEXT	ENDS
;	COMDAT ?GetNextWindow@@YAPAUHWND__@@PAU1@I@Z
_TEXT	SEGMENT PARA USE32 PUBLIC 'CODE'
_TEXT	ENDS
;	COMDAT ?DrawState@@YGHPAUHDC__@@PAUHBRUSH__@@P6GH0JIHH@ZJIHHHHI@Z
_TEXT	SEGMENT PARA USE32 PUBLIC 'CODE'
_TEXT	ENDS
;	COMDAT ?AfxTrace@@YAXPBDZZ
_TEXT	SEGMENT PARA USE32 PUBLIC 'CODE'
_TEXT	ENDS
;	COMDAT ?GetNextPtr@CSimpleList@@QBEPAPAXPAX@Z
_TEXT	SEGMENT PARA USE32 PUBLIC 'CODE'
_TEXT	ENDS
;	COMDAT ??1CNoTrackObject@@UAE@XZ
_TEXT	SEGMENT PARA USE32 PUBLIC 'CODE'
_TEXT	ENDS
;	COMDAT ??_GCNoTrackObject@@UAEPAXI@Z
_TEXT	SEGMENT PARA USE32 PUBLIC 'CODE'
_TEXT	ENDS
;	COMDAT ?GetAt@CByteArray@@QBEEH@Z
_TEXT	SEGMENT PARA USE32 PUBLIC 'CODE'
_TEXT	ENDS
;	COMDAT ?ElementAt@CByteArray@@QAEAAEH@Z
_TEXT	SEGMENT PARA USE32 PUBLIC 'CODE'
_TEXT	ENDS
;	COMDAT ?GetAt@CWordArray@@QBEGH@Z
_TEXT	SEGMENT PARA USE32 PUBLIC 'CODE'
_TEXT	ENDS
;	COMDAT ?ElementAt@CWordArray@@QAEAAGH@Z
_TEXT	SEGMENT PARA USE32 PUBLIC 'CODE'
_TEXT	ENDS
;	COMDAT ?GetAt@CDWordArray@@QBEKH@Z
_TEXT	SEGMENT PARA USE32 PUBLIC 'CODE'
_TEXT	ENDS
;	COMDAT ?ElementAt@CDWordArray@@QAEAAKH@Z
_TEXT	SEGMENT PARA USE32 PUBLIC 'CODE'
_TEXT	ENDS
;	COMDAT ?GetSize@CUIntArray@@QBEHXZ
_TEXT	SEGMENT PARA USE32 PUBLIC 'CODE'
_TEXT	ENDS
;	COMDAT ?RemoveAll@CUIntArray@@QAEXXZ
_TEXT	SEGMENT PARA USE32 PUBLIC 'CODE'
_TEXT	ENDS
;	COMDAT ?GetAt@CUIntArray@@QBEIH@Z
_TEXT	SEGMENT PARA USE32 PUBLIC 'CODE'
_TEXT	ENDS
;	COMDAT ?ElementAt@CUIntArray@@QAEAAIH@Z
_TEXT	SEGMENT PARA USE32 PUBLIC 'CODE'
_TEXT	ENDS
;	COMDAT ?Add@CUIntArray@@QAEHI@Z
_TEXT	SEGMENT PARA USE32 PUBLIC 'CODE'
_TEXT	ENDS
;	COMDAT ?GetSize@CPtrArray@@QBEHXZ
_TEXT	SEGMENT PARA USE32 PUBLIC 'CODE'
_TEXT	ENDS
;	COMDAT ?RemoveAll@CPtrArray@@QAEXXZ
_TEXT	SEGMENT PARA USE32 PUBLIC 'CODE'
_TEXT	ENDS
;	COMDAT ?GetAt@CPtrArray@@QBEPAXH@Z
_TEXT	SEGMENT PARA USE32 PUBLIC 'CODE'
_TEXT	ENDS
;	COMDAT ?SetAt@CPtrArray@@QAEXHPAX@Z
_TEXT	SEGMENT PARA USE32 PUBLIC 'CODE'
_TEXT	ENDS
;	COMDAT ?ElementAt@CPtrArray@@QAEAAPAXH@Z
_TEXT	SEGMENT PARA USE32 PUBLIC 'CODE'
_TEXT	ENDS
;	COMDAT ??ACPtrArray@@QBEPAXH@Z
_TEXT	SEGMENT PARA USE32 PUBLIC 'CODE'
_TEXT	ENDS
;	COMDAT ?GetAt@CObArray@@QBEPAVCObject@@H@Z
_TEXT	SEGMENT PARA USE32 PUBLIC 'CODE'
_TEXT	ENDS
;	COMDAT ?ElementAt@CObArray@@QAEAAPAVCObject@@H@Z
_TEXT	SEGMENT PARA USE32 PUBLIC 'CODE'
_TEXT	ENDS
;	COMDAT ?GetAt@CStringArray@@QBE?AVCString@@H@Z
_TEXT	SEGMENT PARA USE32 PUBLIC 'CODE'
_TEXT	ENDS
;	COMDAT ?ElementAt@CStringArray@@QAEAAVCString@@H@Z
_TEXT	SEGMENT PARA USE32 PUBLIC 'CODE'
_TEXT	ENDS
;	COMDAT ?Add@CStringArray@@QAEHPBD@Z
_TEXT	SEGMENT PARA USE32 PUBLIC 'CODE'
_TEXT	ENDS
;	COMDAT ??0CObject@@IAE@XZ
_TEXT	SEGMENT PARA USE32 PUBLIC 'CODE'
_TEXT	ENDS
;	COMDAT ??_GCObject@@UAEPAXI@Z
_TEXT	SEGMENT PARA USE32 PUBLIC 'CODE'
_TEXT	ENDS
;	COMDAT ??1CObject@@UAE@XZ
_TEXT	SEGMENT PARA USE32 PUBLIC 'CODE'
_TEXT	ENDS
;	COMDAT ?Serialize@CObject@@UAEXAAVCArchive@@@Z
_TEXT	SEGMENT PARA USE32 PUBLIC 'CODE'
_TEXT	ENDS
;	COMDAT ??3CObject@@SGXPAX@Z
_TEXT	SEGMENT PARA USE32 PUBLIC 'CODE'
_TEXT	ENDS
;	COMDAT ??2CObject@@SGPAXI@Z
_TEXT	SEGMENT PARA USE32 PUBLIC 'CODE'
_TEXT	ENDS
;	COMDAT ??1CException@@UAE@XZ
_TEXT	SEGMENT PARA USE32 PUBLIC 'CODE'
_TEXT	ENDS
;	COMDAT ??_GCException@@UAEPAXI@Z
_TEXT	SEGMENT PARA USE32 PUBLIC 'CODE'
_TEXT	ENDS
;	COMDAT ??0CSimpleException@@QAE@XZ
_TEXT	SEGMENT PARA USE32 PUBLIC 'CODE'
_TEXT	ENDS
;	COMDAT ??_GCSimpleException@@UAEPAXI@Z
_TEXT	SEGMENT PARA USE32 PUBLIC 'CODE'
_TEXT	ENDS
;	COMDAT ??0CSimpleException@@QAE@H@Z
_TEXT	SEGMENT PARA USE32 PUBLIC 'CODE'
_TEXT	ENDS
;	COMDAT ??1CSimpleException@@UAE@XZ
_TEXT	SEGMENT PARA USE32 PUBLIC 'CODE'
_TEXT	ENDS
;	COMDAT ??_GCMemoryException@@UAEPAXI@Z
_TEXT	SEGMENT PARA USE32 PUBLIC 'CODE'
_TEXT	ENDS
;	COMDAT ??1CMemoryException@@UAE@XZ
_TEXT	SEGMENT PARA USE32 PUBLIC 'CODE'
_TEXT	ENDS
;	COMDAT ??_GCNotSupportedException@@UAEPAXI@Z
_TEXT	SEGMENT PARA USE32 PUBLIC 'CODE'
_TEXT	ENDS
;	COMDAT ??1CNotSupportedException@@UAE@XZ
_TEXT	SEGMENT PARA USE32 PUBLIC 'CODE'
_TEXT	ENDS
;	COMDAT ??_GCArchiveException@@UAEPAXI@Z
_TEXT	SEGMENT PARA USE32 PUBLIC 'CODE'
_TEXT	ENDS
;	COMDAT ??1CArchiveException@@UAE@XZ
_TEXT	SEGMENT PARA USE32 PUBLIC 'CODE'
_TEXT	ENDS
;	COMDAT ??_GCFileException@@UAEPAXI@Z
_TEXT	SEGMENT PARA USE32 PUBLIC 'CODE'
_TEXT	ENDS
;	COMDAT ??1CFileException@@UAE@XZ
_TEXT	SEGMENT PARA USE32 PUBLIC 'CODE'
_TEXT	ENDS
;	COMDAT ?SetFilePath@CFile@@UAEXPBD@Z
_TEXT	SEGMENT PARA USE32 PUBLIC 'CODE'
_TEXT	ENDS
;	COMDAT ?GetData@CString@@IBEPAUCStringData@@XZ
_TEXT	SEGMENT PARA USE32 PUBLIC 'CODE'
_TEXT	ENDS
;	COMDAT ?Init@CString@@IAEXXZ
_TEXT	SEGMENT PARA USE32 PUBLIC 'CODE'
_TEXT	ENDS
;	COMDAT ??0CString@@QAE@XZ
_TEXT	SEGMENT PARA USE32 PUBLIC 'CODE'
_TEXT	ENDS
;	COMDAT ?GetLength@CString@@QBEHXZ
_TEXT	SEGMENT PARA USE32 PUBLIC 'CODE'
_TEXT	ENDS
;	COMDAT ?IsEmpty@CString@@QBEHXZ
_TEXT	SEGMENT PARA USE32 PUBLIC 'CODE'
_TEXT	ENDS
;	COMDAT ??BCString@@QBEPBDXZ
_TEXT	SEGMENT PARA USE32 PUBLIC 'CODE'
_TEXT	ENDS
;	COMDAT ?Compare@CString@@QBEHPBD@Z
_TEXT	SEGMENT PARA USE32 PUBLIC 'CODE'
_TEXT	ENDS
;	COMDAT ?GetAt@CString@@QBEDH@Z
_TEXT	SEGMENT PARA USE32 PUBLIC 'CODE'
_TEXT	ENDS
;	COMDAT ??ACString@@QBEDH@Z
_TEXT	SEGMENT PARA USE32 PUBLIC 'CODE'
_TEXT	ENDS
;	COMDAT ??8@YG_NABVCString@@PBD@Z
_TEXT	SEGMENT PARA USE32 PUBLIC 'CODE'
_TEXT	ENDS
;	COMDAT ??9@YG_NABVCString@@0@Z
_TEXT	SEGMENT PARA USE32 PUBLIC 'CODE'
_TEXT	ENDS
;	COMDAT ??0CTimeSpan@@QAE@J@Z
_TEXT	SEGMENT PARA USE32 PUBLIC 'CODE'
_TEXT	ENDS
;	COMDAT ?GetDays@CTimeSpan@@QBEJXZ
_TEXT	SEGMENT PARA USE32 PUBLIC 'CODE'
_TEXT	ENDS
;	COMDAT ?GetTotalHours@CTimeSpan@@QBEJXZ
_TEXT	SEGMENT PARA USE32 PUBLIC 'CODE'
_TEXT	ENDS
;	COMDAT ?GetTotalMinutes@CTimeSpan@@QBEJXZ
_TEXT	SEGMENT PARA USE32 PUBLIC 'CODE'
_TEXT	ENDS
;	COMDAT ?GetTotalSeconds@CTimeSpan@@QBEJXZ
_TEXT	SEGMENT PARA USE32 PUBLIC 'CODE'
_TEXT	ENDS
;	COMDAT ??0CTime@@QAE@J@Z
_TEXT	SEGMENT PARA USE32 PUBLIC 'CODE'
_TEXT	ENDS
;	COMDAT ?IsStoring@CArchive@@QBEHXZ
_TEXT	SEGMENT PARA USE32 PUBLIC 'CODE'
_TEXT	ENDS
;	COMDAT ??6CArchive@@QAEAAV0@H@Z
_TEXT	SEGMENT PARA USE32 PUBLIC 'CODE'
_TEXT	ENDS
;	COMDAT ??6CArchive@@QAEAAV0@E@Z
_TEXT	SEGMENT PARA USE32 PUBLIC 'CODE'
_TEXT	ENDS
;	COMDAT ??6CArchive@@QAEAAV0@G@Z
_TEXT	SEGMENT PARA USE32 PUBLIC 'CODE'
_TEXT	ENDS
;	COMDAT ??6CArchive@@QAEAAV0@J@Z
_TEXT	SEGMENT PARA USE32 PUBLIC 'CODE'
_TEXT	ENDS
;	COMDAT ??5CArchive@@QAEAAV0@AAH@Z
_TEXT	SEGMENT PARA USE32 PUBLIC 'CODE'
_TEXT	ENDS
;	COMDAT ??5CArchive@@QAEAAV0@AAE@Z
_TEXT	SEGMENT PARA USE32 PUBLIC 'CODE'
_TEXT	ENDS
;	COMDAT ??5CArchive@@QAEAAV0@AAG@Z
_TEXT	SEGMENT PARA USE32 PUBLIC 'CODE'
_TEXT	ENDS
;	COMDAT ??5CArchive@@QAEAAV0@AAJ@Z
_TEXT	SEGMENT PARA USE32 PUBLIC 'CODE'
_TEXT	ENDS
;	COMDAT ?AfxGetApp@@YGPAVCWinApp@@XZ
_TEXT	SEGMENT PARA USE32 PUBLIC 'CODE'
_TEXT	ENDS
;	COMDAT ?AfxGetInstanceHandle@@YGPAUHINSTANCE__@@XZ
_TEXT	SEGMENT PARA USE32 PUBLIC 'CODE'
_TEXT	ENDS
;	COMDAT ?AfxGetResourceHandle@@YGPAUHINSTANCE__@@XZ
_TEXT	SEGMENT PARA USE32 PUBLIC 'CODE'
_TEXT	ENDS
;	COMDAT ??0CSize@@QAE@XZ
_TEXT	SEGMENT PARA USE32 PUBLIC 'CODE'
_TEXT	ENDS
;	COMDAT ??0CSize@@QAE@HH@Z
_TEXT	SEGMENT PARA USE32 PUBLIC 'CODE'
_TEXT	ENDS
;	COMDAT ??0CSize@@QAE@UtagSIZE@@@Z
_TEXT	SEGMENT PARA USE32 PUBLIC 'CODE'
_TEXT	ENDS
;	COMDAT ??0CSize@@QAE@UtagPOINT@@@Z
_TEXT	SEGMENT PARA USE32 PUBLIC 'CODE'
_TEXT	ENDS
;	COMDAT ??0CSize@@QAE@K@Z
_TEXT	SEGMENT PARA USE32 PUBLIC 'CODE'
_TEXT	ENDS
;	COMDAT ??0CPoint@@QAE@XZ
_TEXT	SEGMENT PARA USE32 PUBLIC 'CODE'
_TEXT	ENDS
;	COMDAT ??0CPoint@@QAE@HH@Z
_TEXT	SEGMENT PARA USE32 PUBLIC 'CODE'
_TEXT	ENDS
;	COMDAT ??0CPoint@@QAE@UtagPOINT@@@Z
_TEXT	SEGMENT PARA USE32 PUBLIC 'CODE'
_TEXT	ENDS
;	COMDAT ??0CPoint@@QAE@UtagSIZE@@@Z
_TEXT	SEGMENT PARA USE32 PUBLIC 'CODE'
_TEXT	ENDS
;	COMDAT ??0CPoint@@QAE@K@Z
_TEXT	SEGMENT PARA USE32 PUBLIC 'CODE'
_TEXT	ENDS
;	COMDAT ??0CRect@@QAE@XZ
_TEXT	SEGMENT PARA USE32 PUBLIC 'CODE'
_TEXT	ENDS
;	COMDAT ??0CRect@@QAE@HHHH@Z
_TEXT	SEGMENT PARA USE32 PUBLIC 'CODE'
_TEXT	ENDS
;	COMDAT ??0CRect@@QAE@PBUtagRECT@@@Z
_TEXT	SEGMENT PARA USE32 PUBLIC 'CODE'
_TEXT	ENDS
;	COMDAT ?Width@CRect@@QBEHXZ
_TEXT	SEGMENT PARA USE32 PUBLIC 'CODE'
_TEXT	ENDS
;	COMDAT ?Height@CRect@@QBEHXZ
_TEXT	SEGMENT PARA USE32 PUBLIC 'CODE'
_TEXT	ENDS
;	COMDAT ?SwapLeftRight@CRect@@SAXPAUtagRECT@@@Z
_TEXT	SEGMENT PARA USE32 PUBLIC 'CODE'
_TEXT	ENDS
;	COMDAT ??BCRect@@QAEPAUtagRECT@@XZ
_TEXT	SEGMENT PARA USE32 PUBLIC 'CODE'
_TEXT	ENDS
;	COMDAT ?IsRectEmpty@CRect@@QBEHXZ
_TEXT	SEGMENT PARA USE32 PUBLIC 'CODE'
_TEXT	ENDS
;	COMDAT ?PtInRect@CRect@@QBEHUtagPOINT@@@Z
_TEXT	SEGMENT PARA USE32 PUBLIC 'CODE'
_TEXT	ENDS
;	COMDAT ?SetRect@CRect@@QAEXHHHH@Z
_TEXT	SEGMENT PARA USE32 PUBLIC 'CODE'
_TEXT	ENDS
;	COMDAT ?SetRectEmpty@CRect@@QAEXXZ
_TEXT	SEGMENT PARA USE32 PUBLIC 'CODE'
_TEXT	ENDS
;	COMDAT ?CopyRect@CRect@@QAEXPBUtagRECT@@@Z
_TEXT	SEGMENT PARA USE32 PUBLIC 'CODE'
_TEXT	ENDS
;	COMDAT ??9CRect@@QBEHABUtagRECT@@@Z
_TEXT	SEGMENT PARA USE32 PUBLIC 'CODE'
_TEXT	ENDS
;	COMDAT ??HCRect@@QBE?AV0@UtagPOINT@@@Z
_TEXT	SEGMENT PARA USE32 PUBLIC 'CODE'
_TEXT	ENDS
;	COMDAT ??GCRect@@QBE?AV0@UtagPOINT@@@Z
_TEXT	SEGMENT PARA USE32 PUBLIC 'CODE'
_TEXT	ENDS
;	COMDAT ??HCRect@@QBE?AV0@UtagSIZE@@@Z
_TEXT	SEGMENT PARA USE32 PUBLIC 'CODE'
_TEXT	ENDS
;	COMDAT ??GCRect@@QBE?AV0@UtagSIZE@@@Z
_TEXT	SEGMENT PARA USE32 PUBLIC 'CODE'
_TEXT	ENDS
;	COMDAT ??6@YGAAVCArchive@@AAV0@ABUtagRECT@@@Z
_TEXT	SEGMENT PARA USE32 PUBLIC 'CODE'
_TEXT	ENDS
;	COMDAT ??5@YGAAVCArchive@@AAV0@AAUtagRECT@@@Z
_TEXT	SEGMENT PARA USE32 PUBLIC 'CODE'
_TEXT	ENDS
;	COMDAT ??_GCResourceException@@UAEPAXI@Z
_TEXT	SEGMENT PARA USE32 PUBLIC 'CODE'
_TEXT	ENDS
;	COMDAT ??1CResourceException@@UAE@XZ
_TEXT	SEGMENT PARA USE32 PUBLIC 'CODE'
_TEXT	ENDS
;	COMDAT ??_GCUserException@@UAEPAXI@Z
_TEXT	SEGMENT PARA USE32 PUBLIC 'CODE'
_TEXT	ENDS
;	COMDAT ??1CUserException@@UAE@XZ
_TEXT	SEGMENT PARA USE32 PUBLIC 'CODE'
_TEXT	ENDS
;	COMDAT ??BCGdiObject@@QBEPAXXZ
_TEXT	SEGMENT PARA USE32 PUBLIC 'CODE'
_TEXT	ENDS
;	COMDAT ?GetSafeHandle@CGdiObject@@QBEPAXXZ
_TEXT	SEGMENT PARA USE32 PUBLIC 'CODE'
_TEXT	ENDS
;	COMDAT ??0CGdiObject@@QAE@XZ
_TEXT	SEGMENT PARA USE32 PUBLIC 'CODE'
_TEXT	ENDS
;	COMDAT ??_GCGdiObject@@UAEPAXI@Z
_TEXT	SEGMENT PARA USE32 PUBLIC 'CODE'
_TEXT	ENDS
;	COMDAT ??1CGdiObject@@UAE@XZ
_TEXT	SEGMENT PARA USE32 PUBLIC 'CODE'
_TEXT	ENDS
;	COMDAT ?FromHandle@CPen@@SGPAV1@PAUHPEN__@@@Z
_TEXT	SEGMENT PARA USE32 PUBLIC 'CODE'
_TEXT	ENDS
;	COMDAT ??_GCPen@@UAEPAXI@Z
_TEXT	SEGMENT PARA USE32 PUBLIC 'CODE'
_TEXT	ENDS
;	COMDAT ??1CPen@@UAE@XZ
_TEXT	SEGMENT PARA USE32 PUBLIC 'CODE'
_TEXT	ENDS
;	COMDAT ?FromHandle@CBrush@@SGPAV1@PAUHBRUSH__@@@Z
_TEXT	SEGMENT PARA USE32 PUBLIC 'CODE'
_TEXT	ENDS
;	COMDAT ??0CBrush@@QAE@XZ
_TEXT	SEGMENT PARA USE32 PUBLIC 'CODE'
_TEXT	ENDS
;	COMDAT ??_GCBrush@@UAEPAXI@Z
_TEXT	SEGMENT PARA USE32 PUBLIC 'CODE'
_TEXT	ENDS
;	COMDAT ??1CBrush@@UAE@XZ
_TEXT	SEGMENT PARA USE32 PUBLIC 'CODE'
_TEXT	ENDS
;	COMDAT ?FromHandle@CFont@@SGPAV1@PAUHFONT__@@@Z
_TEXT	SEGMENT PARA USE32 PUBLIC 'CODE'
_TEXT	ENDS
;	COMDAT ??0CFont@@QAE@XZ
_TEXT	SEGMENT PARA USE32 PUBLIC 'CODE'
_TEXT	ENDS
;	COMDAT ??_GCFont@@UAEPAXI@Z
_TEXT	SEGMENT PARA USE32 PUBLIC 'CODE'
_TEXT	ENDS
;	COMDAT ??1CFont@@UAE@XZ
_TEXT	SEGMENT PARA USE32 PUBLIC 'CODE'
_TEXT	ENDS
;	COMDAT ?CreateFontIndirectA@CFont@@QAEHPBUtagLOGFONTA@@@Z
_TEXT	SEGMENT PARA USE32 PUBLIC 'CODE'
_TEXT	ENDS
;	COMDAT ?GetLogFont@CFont@@QAEHPAUtagLOGFONTA@@@Z
_TEXT	SEGMENT PARA USE32 PUBLIC 'CODE'
_TEXT	ENDS
;	COMDAT ?FromHandle@CBitmap@@SGPAV1@PAUHBITMAP__@@@Z
_TEXT	SEGMENT PARA USE32 PUBLIC 'CODE'
_TEXT	ENDS
;	COMDAT ??0CBitmap@@QAE@XZ
_TEXT	SEGMENT PARA USE32 PUBLIC 'CODE'
_TEXT	ENDS
;	COMDAT ??_GCBitmap@@UAEPAXI@Z
_TEXT	SEGMENT PARA USE32 PUBLIC 'CODE'
_TEXT	ENDS
;	COMDAT ??1CBitmap@@UAE@XZ
_TEXT	SEGMENT PARA USE32 PUBLIC 'CODE'
_TEXT	ENDS
;	COMDAT ?FromHandle@CPalette@@SGPAV1@PAUHPALETTE__@@@Z
_TEXT	SEGMENT PARA USE32 PUBLIC 'CODE'
_TEXT	ENDS
;	COMDAT ??_GCPalette@@UAEPAXI@Z
_TEXT	SEGMENT PARA USE32 PUBLIC 'CODE'
_TEXT	ENDS
;	COMDAT ??1CPalette@@UAE@XZ
_TEXT	SEGMENT PARA USE32 PUBLIC 'CODE'
_TEXT	ENDS
;	COMDAT ??0CRgn@@QAE@XZ
_TEXT	SEGMENT PARA USE32 PUBLIC 'CODE'
_TEXT	ENDS
;	COMDAT ??_GCRgn@@UAEPAXI@Z
_TEXT	SEGMENT PARA USE32 PUBLIC 'CODE'
_TEXT	ENDS
;	COMDAT ??1CRgn@@UAE@XZ
_TEXT	SEGMENT PARA USE32 PUBLIC 'CODE'
_TEXT	ENDS
;	COMDAT ?GetSafeHdc@CDC@@QBEPAUHDC__@@XZ
_TEXT	SEGMENT PARA USE32 PUBLIC 'CODE'
_TEXT	ENDS
;	COMDAT ?SetViewportOrg@CDC@@QAE?AVCPoint@@UtagPOINT@@@Z
_TEXT	SEGMENT PARA USE32 PUBLIC 'CODE'
_TEXT	ENDS
;	COMDAT ?PtVisible@CDC@@UBEHHH@Z
_TEXT	SEGMENT PARA USE32 PUBLIC 'CODE'
_TEXT	ENDS
;	COMDAT ?RectVisible@CDC@@UBEHPBUtagRECT@@@Z
_TEXT	SEGMENT PARA USE32 PUBLIC 'CODE'
_TEXT	ENDS
;	COMDAT ?Polygon@CDC@@QAEHPAUtagPOINT@@H@Z
_TEXT	SEGMENT PARA USE32 PUBLIC 'CODE'
_TEXT	ENDS
;	COMDAT ?TextOutA@CDC@@UAEHHHPBDH@Z
_TEXT	SEGMENT PARA USE32 PUBLIC 'CODE'
_TEXT	ENDS
;	COMDAT ?ExtTextOutA@CDC@@UAEHHHIPBUtagRECT@@PBDIPAH@Z
_TEXT	SEGMENT PARA USE32 PUBLIC 'CODE'
_TEXT	ENDS
;	COMDAT ?TabbedTextOutA@CDC@@UAE?AVCSize@@HHPBDHHPAHH@Z
_TEXT	SEGMENT PARA USE32 PUBLIC 'CODE'
_TEXT	ENDS
;	COMDAT ?DrawTextA@CDC@@UAEHPBDHPAUtagRECT@@I@Z
_TEXT	SEGMENT PARA USE32 PUBLIC 'CODE'
_TEXT	ENDS
;	COMDAT ?DrawTextA@CDC@@QAEHABVCString@@PAUtagRECT@@I@Z
_TEXT	SEGMENT PARA USE32 PUBLIC 'CODE'
_TEXT	ENDS
;	COMDAT ?GetTextExtent@CDC@@QBE?AVCSize@@ABVCString@@@Z
_TEXT	SEGMENT PARA USE32 PUBLIC 'CODE'
_TEXT	ENDS
;	COMDAT ?GrayStringA@CDC@@UAEHPAVCBrush@@P6GHPAUHDC__@@JH@ZJHHHHH@Z
_TEXT	SEGMENT PARA USE32 PUBLIC 'CODE'
_TEXT	ENDS
;	COMDAT ?Escape@CDC@@UAEHHHPBDPAX@Z
_TEXT	SEGMENT PARA USE32 PUBLIC 'CODE'
_TEXT	ENDS
;	COMDAT ??0CMenu@@QAE@XZ
_TEXT	SEGMENT PARA USE32 PUBLIC 'CODE'
_TEXT	ENDS
;	COMDAT ??_GCMenu@@UAEPAXI@Z
_TEXT	SEGMENT PARA USE32 PUBLIC 'CODE'
_TEXT	ENDS
;	COMDAT ??1CMenu@@UAE@XZ
_TEXT	SEGMENT PARA USE32 PUBLIC 'CODE'
_TEXT	ENDS
;	COMDAT ??BCMenu@@QBEPAUHMENU__@@XZ
_TEXT	SEGMENT PARA USE32 PUBLIC 'CODE'
_TEXT	ENDS
;	COMDAT ?GetSafeHmenu@CMenu@@QBEPAUHMENU__@@XZ
_TEXT	SEGMENT PARA USE32 PUBLIC 'CODE'
_TEXT	ENDS
;	COMDAT ?DeleteMenu@CMenu@@QAEHII@Z
_TEXT	SEGMENT PARA USE32 PUBLIC 'CODE'
_TEXT	ENDS
;	COMDAT ?GetSubMenu@CMenu@@QBEPAV1@H@Z
_TEXT	SEGMENT PARA USE32 PUBLIC 'CODE'
_TEXT	ENDS
;	COMDAT ?LoadMenuA@CMenu@@QAEHI@Z
_TEXT	SEGMENT PARA USE32 PUBLIC 'CODE'
_TEXT	ENDS
;	COMDAT ??BCWnd@@QBEPAUHWND__@@XZ
_TEXT	SEGMENT PARA USE32 PUBLIC 'CODE'
_TEXT	ENDS
;	COMDAT ?GetSafeHwnd@CWnd@@QBEPAUHWND__@@XZ
_TEXT	SEGMENT PARA USE32 PUBLIC 'CODE'
_TEXT	ENDS
;	COMDAT ?SendMessageA@CWnd@@QAEJIIJ@Z
_TEXT	SEGMENT PARA USE32 PUBLIC 'CODE'
_TEXT	ENDS
;	COMDAT ?MoveWindow@CWnd@@QAEXPBUtagRECT@@H@Z
_TEXT	SEGMENT PARA USE32 PUBLIC 'CODE'
_TEXT	ENDS
;	COMDAT ?GetClientRect@CWnd@@QBEXPAUtagRECT@@@Z
_TEXT	SEGMENT PARA USE32 PUBLIC 'CODE'
_TEXT	ENDS
;	COMDAT ?UpdateWindow@CWnd@@QAEXXZ
_TEXT	SEGMENT PARA USE32 PUBLIC 'CODE'
_TEXT	ENDS
;	COMDAT ?Invalidate@CWnd@@QAEXH@Z
_TEXT	SEGMENT PARA USE32 PUBLIC 'CODE'
_TEXT	ENDS
;	COMDAT ?InvalidateRect@CWnd@@QAEXPBUtagRECT@@H@Z
_TEXT	SEGMENT PARA USE32 PUBLIC 'CODE'
_TEXT	ENDS
;	COMDAT ?IsWindowVisible@CWnd@@QBEHXZ
_TEXT	SEGMENT PARA USE32 PUBLIC 'CODE'
_TEXT	ENDS
;	COMDAT ?RedrawWindow@CWnd@@QAEHPBUtagRECT@@PAVCRgn@@I@Z
_TEXT	SEGMENT PARA USE32 PUBLIC 'CODE'
_TEXT	ENDS
;	COMDAT ?SetTimer@CWnd@@QAEIIIP6GXPAUHWND__@@IIK@Z@Z
_TEXT	SEGMENT PARA USE32 PUBLIC 'CODE'
_TEXT	ENDS
;	COMDAT ?KillTimer@CWnd@@QAEHH@Z
_TEXT	SEGMENT PARA USE32 PUBLIC 'CODE'
_TEXT	ENDS
;	COMDAT ?GetFocus@CWnd@@SGPAV1@XZ
_TEXT	SEGMENT PARA USE32 PUBLIC 'CODE'
_TEXT	ENDS
;	COMDAT ?GetParent@CWnd@@QBEPAV1@XZ
_TEXT	SEGMENT PARA USE32 PUBLIC 'CODE'
_TEXT	ENDS
;	COMDAT ?OpenClipboard@CWnd@@QAEHXZ
_TEXT	SEGMENT PARA USE32 PUBLIC 'CODE'
_TEXT	ENDS
;	COMDAT ?HideCaret@CWnd@@QAEXXZ
_TEXT	SEGMENT PARA USE32 PUBLIC 'CODE'
_TEXT	ENDS
;	COMDAT ?ShowCaret@CWnd@@QAEXXZ
_TEXT	SEGMENT PARA USE32 PUBLIC 'CODE'
_TEXT	ENDS
;	COMDAT ?SetIcon@CWnd@@QAEPAUHICON__@@PAU2@H@Z
_TEXT	SEGMENT PARA USE32 PUBLIC 'CODE'
_TEXT	ENDS
;	COMDAT ?OnClose@CWnd@@IAEXXZ
_TEXT	SEGMENT PARA USE32 PUBLIC 'CODE'
_TEXT	ENDS
;	COMDAT ?OnContextMenu@CWnd@@IAEXPAV1@VCPoint@@@Z
_TEXT	SEGMENT PARA USE32 PUBLIC 'CODE'
_TEXT	ENDS
;	COMDAT ?OnCreate@CWnd@@IAEHPAUtagCREATESTRUCTA@@@Z
_TEXT	SEGMENT PARA USE32 PUBLIC 'CODE'
_TEXT	ENDS
;	COMDAT ?OnSize@CWnd@@IAEXIHH@Z
_TEXT	SEGMENT PARA USE32 PUBLIC 'CODE'
_TEXT	ENDS
;	COMDAT ?OnWindowPosChanged@CWnd@@IAEXPAUtagWINDOWPOS@@@Z
_TEXT	SEGMENT PARA USE32 PUBLIC 'CODE'
_TEXT	ENDS
;	COMDAT ?OnChar@CWnd@@IAEXIII@Z
_TEXT	SEGMENT PARA USE32 PUBLIC 'CODE'
_TEXT	ENDS
;	COMDAT ?OnTimer@CWnd@@IAEXI@Z
_TEXT	SEGMENT PARA USE32 PUBLIC 'CODE'
_TEXT	ENDS
;	COMDAT ?DoDataExchange@CWnd@@MAEXPAVCDataExchange@@@Z
_TEXT	SEGMENT PARA USE32 PUBLIC 'CODE'
_TEXT	ENDS
;	COMDAT ?BeginModalState@CWnd@@UAEXXZ
_TEXT	SEGMENT PARA USE32 PUBLIC 'CODE'
_TEXT	ENDS
;	COMDAT ?EndModalState@CWnd@@UAEXXZ
_TEXT	SEGMENT PARA USE32 PUBLIC 'CODE'
_TEXT	ENDS
;	COMDAT ??_GCStatic@@UAEPAXI@Z
_TEXT	SEGMENT PARA USE32 PUBLIC 'CODE'
_TEXT	ENDS
;	COMDAT ??0CButton@@QAE@XZ
_TEXT	SEGMENT PARA USE32 PUBLIC 'CODE'
_TEXT	ENDS
;	COMDAT ??_GCButton@@UAEPAXI@Z
_TEXT	SEGMENT PARA USE32 PUBLIC 'CODE'
_TEXT	ENDS
;	COMDAT ??0CListBox@@QAE@XZ
_TEXT	SEGMENT PARA USE32 PUBLIC 'CODE'
_TEXT	ENDS
;	COMDAT ??_GCListBox@@UAEPAXI@Z
_TEXT	SEGMENT PARA USE32 PUBLIC 'CODE'
_TEXT	ENDS
;	COMDAT ?GetCount@CListBox@@QBEHXZ
_TEXT	SEGMENT PARA USE32 PUBLIC 'CODE'
_TEXT	ENDS
;	COMDAT ?GetCurSel@CListBox@@QBEHXZ
_TEXT	SEGMENT PARA USE32 PUBLIC 'CODE'
_TEXT	ENDS
;	COMDAT ?SetCurSel@CListBox@@QAEHH@Z
_TEXT	SEGMENT PARA USE32 PUBLIC 'CODE'
_TEXT	ENDS
;	COMDAT ?SetTopIndex@CListBox@@QAEHH@Z
_TEXT	SEGMENT PARA USE32 PUBLIC 'CODE'
_TEXT	ENDS
;	COMDAT ?GetItemData@CListBox@@QBEKH@Z
_TEXT	SEGMENT PARA USE32 PUBLIC 'CODE'
_TEXT	ENDS
;	COMDAT ?SetItemData@CListBox@@QAEHHK@Z
_TEXT	SEGMENT PARA USE32 PUBLIC 'CODE'
_TEXT	ENDS
;	COMDAT ?FindStringExact@CListBox@@QBEHHPBD@Z
_TEXT	SEGMENT PARA USE32 PUBLIC 'CODE'
_TEXT	ENDS
;	COMDAT ?AddString@CListBox@@QAEHPBD@Z
_TEXT	SEGMENT PARA USE32 PUBLIC 'CODE'
_TEXT	ENDS
;	COMDAT ?DeleteString@CListBox@@QAEHI@Z
_TEXT	SEGMENT PARA USE32 PUBLIC 'CODE'
_TEXT	ENDS
;	COMDAT ?InsertString@CListBox@@QAEHHPBD@Z
_TEXT	SEGMENT PARA USE32 PUBLIC 'CODE'
_TEXT	ENDS
;	COMDAT ?ResetContent@CListBox@@QAEXXZ
_TEXT	SEGMENT PARA USE32 PUBLIC 'CODE'
_TEXT	ENDS
;	COMDAT ?FindString@CListBox@@QBEHHPBD@Z
_TEXT	SEGMENT PARA USE32 PUBLIC 'CODE'
_TEXT	ENDS
;	COMDAT ??_GCCheckListBox@@UAEPAXI@Z
_TEXT	SEGMENT PARA USE32 PUBLIC 'CODE'
_TEXT	ENDS
;	COMDAT ??1CCheckListBox@@UAE@XZ
_TEXT	SEGMENT PARA USE32 PUBLIC 'CODE'
_TEXT	ENDS
;	COMDAT ??0CComboBox@@QAE@XZ
_TEXT	SEGMENT PARA USE32 PUBLIC 'CODE'
_TEXT	ENDS
;	COMDAT ??_GCComboBox@@UAEPAXI@Z
_TEXT	SEGMENT PARA USE32 PUBLIC 'CODE'
_TEXT	ENDS
;	COMDAT ?GetItemData@CComboBox@@QBEKH@Z
_TEXT	SEGMENT PARA USE32 PUBLIC 'CODE'
_TEXT	ENDS
;	COMDAT ?SetItemData@CComboBox@@QAEHHK@Z
_TEXT	SEGMENT PARA USE32 PUBLIC 'CODE'
_TEXT	ENDS
;	COMDAT ??_GCEdit@@UAEPAXI@Z
_TEXT	SEGMENT PARA USE32 PUBLIC 'CODE'
_TEXT	ENDS
;	COMDAT ?SetSel@CEdit@@QAEXHHH@Z
_TEXT	SEGMENT PARA USE32 PUBLIC 'CODE'
_TEXT	ENDS
;	COMDAT ??_GCScrollBar@@UAEPAXI@Z
_TEXT	SEGMENT PARA USE32 PUBLIC 'CODE'
_TEXT	ENDS
;	COMDAT ??_GCCommonDialog@@UAEPAXI@Z
_TEXT	SEGMENT PARA USE32 PUBLIC 'CODE'
_TEXT	ENDS
;	COMDAT ??1CCommonDialog@@UAE@XZ
_TEXT	SEGMENT PARA USE32 PUBLIC 'CODE'
_TEXT	ENDS
;	COMDAT ?PrintSelection@CPrintDialog@@QBEHXZ
_TEXT	SEGMENT PARA USE32 PUBLIC 'CODE'
_TEXT	ENDS
;	COMDAT ?PrintRange@CPrintDialog@@QBEHXZ
_TEXT	SEGMENT PARA USE32 PUBLIC 'CODE'
_TEXT	ENDS
;	COMDAT ?SetBorders@CStatusBar@@QAEXHHHH@Z
_TEXT	SEGMENT PARA USE32 PUBLIC 'CODE'
_TEXT	ENDS
;	COMDAT ??_GCRectTracker@@UAEPAXI@Z
_TEXT	SEGMENT PARA USE32 PUBLIC 'CODE'
_TEXT	ENDS
;	COMDAT ??_GCBitmapButton@@UAEPAXI@Z
_TEXT	SEGMENT PARA USE32 PUBLIC 'CODE'
_TEXT	ENDS
;	COMDAT ??1CBitmapButton@@UAE@XZ
_TEXT	SEGMENT PARA USE32 PUBLIC 'CODE'
_TEXT	ENDS
;	COMDAT ??_GCOleException@@UAEPAXI@Z
_TEXT	SEGMENT PARA USE32 PUBLIC 'CODE'
_TEXT	ENDS
;	COMDAT ??1COleException@@UAE@XZ
_TEXT	SEGMENT PARA USE32 PUBLIC 'CODE'
_TEXT	ENDS
;	COMDAT ?InternalAddRef@CCmdTarget@@QAEKXZ
_TEXT	SEGMENT PARA USE32 PUBLIC 'CODE'
_TEXT	ENDS
;	COMDAT ??0COleVariant@@QAE@XZ
_TEXT	SEGMENT PARA USE32 PUBLIC 'CODE'
_TEXT	ENDS
;	COMDAT ??1COleVariant@@QAE@XZ
_TEXT	SEGMENT PARA USE32 PUBLIC 'CODE'
_TEXT	ENDS
;	COMDAT ??0COleVariant@@QAE@N@Z
_TEXT	SEGMENT PARA USE32 PUBLIC 'CODE'
_TEXT	ENDS
;	COMDAT ??BCOleVariant@@QAEPAUtagVARIANT@@XZ
_TEXT	SEGMENT PARA USE32 PUBLIC 'CODE'
_TEXT	ENDS
;	COMDAT ?SetStatus@COleCurrency@@QAEXW4CurrencyStatus@1@@Z
_TEXT	SEGMENT PARA USE32 PUBLIC 'CODE'
_TEXT	ENDS
;	COMDAT ??0COleDateTime@@QAE@XZ
_TEXT	SEGMENT PARA USE32 PUBLIC 'CODE'
_TEXT	ENDS
;	COMDAT ??0COleDateTime@@QAE@ABV0@@Z
_TEXT	SEGMENT PARA USE32 PUBLIC 'CODE'
_TEXT	ENDS
;	COMDAT ??0COleDateTime@@QAE@N@Z
_TEXT	SEGMENT PARA USE32 PUBLIC 'CODE'
_TEXT	ENDS
;	COMDAT ??0COleDateTime@@QAE@ABU_SYSTEMTIME@@@Z
_TEXT	SEGMENT PARA USE32 PUBLIC 'CODE'
_TEXT	ENDS
;	COMDAT ??0COleDateTime@@QAE@HHHHHH@Z
_TEXT	SEGMENT PARA USE32 PUBLIC 'CODE'
_TEXT	ENDS
;	COMDAT ??4COleDateTime@@QAEABV0@ABV0@@Z
_TEXT	SEGMENT PARA USE32 PUBLIC 'CODE'
_TEXT	ENDS
;	COMDAT ?GetStatus@COleDateTime@@QBE?AW4DateTimeStatus@1@XZ
_TEXT	SEGMENT PARA USE32 PUBLIC 'CODE'
_TEXT	ENDS
;	COMDAT ?SetStatus@COleDateTime@@QAEXW4DateTimeStatus@1@@Z
_TEXT	SEGMENT PARA USE32 PUBLIC 'CODE'
_TEXT	ENDS
;	COMDAT ??ZCOleDateTime@@QAEABV0@VCOleDateTimeSpan@@@Z
_TEXT	SEGMENT PARA USE32 PUBLIC 'CODE'
_TEXT	ENDS
;	COMDAT ??BCOleDateTime@@QBENXZ
_TEXT	SEGMENT PARA USE32 PUBLIC 'CODE'
_TEXT	ENDS
;	COMDAT ?SetDate@COleDateTime@@QAEHHHH@Z
_TEXT	SEGMENT PARA USE32 PUBLIC 'CODE'
_TEXT	ENDS
;	COMDAT ??0COleDateTimeSpan@@QAE@XZ
_TEXT	SEGMENT PARA USE32 PUBLIC 'CODE'
_TEXT	ENDS
;	COMDAT ??0COleDateTimeSpan@@QAE@N@Z
_TEXT	SEGMENT PARA USE32 PUBLIC 'CODE'
_TEXT	ENDS
;	COMDAT ??0COleDateTimeSpan@@QAE@ABV0@@Z
_TEXT	SEGMENT PARA USE32 PUBLIC 'CODE'
_TEXT	ENDS
;	COMDAT ??0COleDateTimeSpan@@QAE@JHHH@Z
_TEXT	SEGMENT PARA USE32 PUBLIC 'CODE'
_TEXT	ENDS
;	COMDAT ?SetStatus@COleDateTimeSpan@@QAEXW4DateTimeSpanStatus@1@@Z
_TEXT	SEGMENT PARA USE32 PUBLIC 'CODE'
_TEXT	ENDS
;	COMDAT ?GetTotalDays@COleDateTimeSpan@@QBENXZ
_TEXT	SEGMENT PARA USE32 PUBLIC 'CODE'
_TEXT	ENDS
;	COMDAT ?GetTotalHours@COleDateTimeSpan@@QBENXZ
_TEXT	SEGMENT PARA USE32 PUBLIC 'CODE'
_TEXT	ENDS
;	COMDAT ??BCOleDateTimeSpan@@QBENXZ
_TEXT	SEGMENT PARA USE32 PUBLIC 'CODE'
_TEXT	ENDS
;	COMDAT ?Clear@COleSafeArray@@QAEXXZ
_TEXT	SEGMENT PARA USE32 PUBLIC 'CODE'
_TEXT	ENDS
;	COMDAT ??_GCDateTimeCtrl@@UAEPAXI@Z
_TEXT	SEGMENT PARA USE32 PUBLIC 'CODE'
_TEXT	ENDS
;	COMDAT ??_GCMonthCalCtrl@@UAEPAXI@Z
_TEXT	SEGMENT PARA USE32 PUBLIC 'CODE'
_TEXT	ENDS
;	COMDAT ??_GCDragListBox@@UAEPAXI@Z
_TEXT	SEGMENT PARA USE32 PUBLIC 'CODE'
_TEXT	ENDS
;	COMDAT ??_GCToolBarCtrl@@UAEPAXI@Z
_TEXT	SEGMENT PARA USE32 PUBLIC 'CODE'
_TEXT	ENDS
;	COMDAT ??_GCStatusBarCtrl@@UAEPAXI@Z
_TEXT	SEGMENT PARA USE32 PUBLIC 'CODE'
_TEXT	ENDS
;	COMDAT ??0CListCtrl@@QAE@XZ
_TEXT	SEGMENT PARA USE32 PUBLIC 'CODE'
_TEXT	ENDS
;	COMDAT ??_GCListCtrl@@UAEPAXI@Z
_TEXT	SEGMENT PARA USE32 PUBLIC 'CODE'
_TEXT	ENDS
;	COMDAT ?SetItemData@CListCtrl@@QAEHHK@Z
_TEXT	SEGMENT PARA USE32 PUBLIC 'CODE'
_TEXT	ENDS
;	COMDAT ?InsertItem@CListCtrl@@QAEHHPBD@Z
_TEXT	SEGMENT PARA USE32 PUBLIC 'CODE'
_TEXT	ENDS
;	COMDAT ?InsertItem@CListCtrl@@QAEHHPBDH@Z
_TEXT	SEGMENT PARA USE32 PUBLIC 'CODE'
_TEXT	ENDS
;	COMDAT ?DeleteAllItems@CListCtrl@@QAEHXZ
_TEXT	SEGMENT PARA USE32 PUBLIC 'CODE'
_TEXT	ENDS
;	COMDAT ?GetNextItem@CListCtrl@@QBEHHH@Z
_TEXT	SEGMENT PARA USE32 PUBLIC 'CODE'
_TEXT	ENDS
;	COMDAT ?GetFirstSelectedItemPosition@CListCtrl@@QBEPAU__POSITION@@XZ
_TEXT	SEGMENT PARA USE32 PUBLIC 'CODE'
_TEXT	ENDS
;	COMDAT ?GetNextSelectedItem@CListCtrl@@QBEHAAPAU__POSITION@@@Z
_TEXT	SEGMENT PARA USE32 PUBLIC 'CODE'
_TEXT	ENDS
;	COMDAT ?SetColumn@CListCtrl@@QAEHHPBUtagLVCOLUMNA@@@Z
_TEXT	SEGMENT PARA USE32 PUBLIC 'CODE'
_TEXT	ENDS
;	COMDAT ?DeleteColumn@CListCtrl@@QAEHH@Z
_TEXT	SEGMENT PARA USE32 PUBLIC 'CODE'
_TEXT	ENDS
;	COMDAT ?GetSelectedCount@CListCtrl@@QBEIXZ
_TEXT	SEGMENT PARA USE32 PUBLIC 'CODE'
_TEXT	ENDS
;	COMDAT ??0CTreeCtrl@@QAE@XZ
_TEXT	SEGMENT PARA USE32 PUBLIC 'CODE'
_TEXT	ENDS
;	COMDAT ??_GCTreeCtrl@@UAEPAXI@Z
_TEXT	SEGMENT PARA USE32 PUBLIC 'CODE'
_TEXT	ENDS
;	COMDAT ?GetNextItem@CTreeCtrl@@QBEPAU_TREEITEM@@PAU2@I@Z
_TEXT	SEGMENT PARA USE32 PUBLIC 'CODE'
_TEXT	ENDS
;	COMDAT ?GetSelectedItem@CTreeCtrl@@QBEPAU_TREEITEM@@XZ
_TEXT	SEGMENT PARA USE32 PUBLIC 'CODE'
_TEXT	ENDS
;	COMDAT ??_GCHotKeyCtrl@@UAEPAXI@Z
_TEXT	SEGMENT PARA USE32 PUBLIC 'CODE'
_TEXT	ENDS
;	COMDAT ??_GCSpinButtonCtrl@@UAEPAXI@Z
_TEXT	SEGMENT PARA USE32 PUBLIC 'CODE'
_TEXT	ENDS
;	COMDAT ??_GCSliderCtrl@@UAEPAXI@Z
_TEXT	SEGMENT PARA USE32 PUBLIC 'CODE'
_TEXT	ENDS
;	COMDAT ??_GCProgressCtrl@@UAEPAXI@Z
_TEXT	SEGMENT PARA USE32 PUBLIC 'CODE'
_TEXT	ENDS
;	COMDAT ??_GCHeaderCtrl@@UAEPAXI@Z
_TEXT	SEGMENT PARA USE32 PUBLIC 'CODE'
_TEXT	ENDS
;	COMDAT ?GetItemCount@CHeaderCtrl@@QBEHXZ
_TEXT	SEGMENT PARA USE32 PUBLIC 'CODE'
_TEXT	ENDS
;	COMDAT ??BCImageList@@QBEPAU_IMAGELIST@@XZ
_TEXT	SEGMENT PARA USE32 PUBLIC 'CODE'
_TEXT	ENDS
;	COMDAT ?GetSafeHandle@CImageList@@QBEPAU_IMAGELIST@@XZ
_TEXT	SEGMENT PARA USE32 PUBLIC 'CODE'
_TEXT	ENDS
;	COMDAT ??_GCTabCtrl@@UAEPAXI@Z
_TEXT	SEGMENT PARA USE32 PUBLIC 'CODE'
_TEXT	ENDS
;	COMDAT ?SetImageList@CTabCtrl@@QAEPAVCImageList@@PAV2@@Z
_TEXT	SEGMENT PARA USE32 PUBLIC 'CODE'
_TEXT	ENDS
;	COMDAT ?InsertItem@CTabCtrl@@QAEHHPBD@Z
_TEXT	SEGMENT PARA USE32 PUBLIC 'CODE'
_TEXT	ENDS
;	COMDAT ?GetCurSel@CTabCtrl@@QBEHXZ
_TEXT	SEGMENT PARA USE32 PUBLIC 'CODE'
_TEXT	ENDS
;	COMDAT ??_GCAnimateCtrl@@UAEPAXI@Z
_TEXT	SEGMENT PARA USE32 PUBLIC 'CODE'
_TEXT	ENDS
;	COMDAT ??_GCRichEditCtrl@@UAEPAXI@Z
_TEXT	SEGMENT PARA USE32 PUBLIC 'CODE'
_TEXT	ENDS
;	COMDAT ?GetSelectionMark@CListCtrl@@QAEHXZ
_TEXT	SEGMENT PARA USE32 PUBLIC 'CODE'
_TEXT	ENDS
;	COMDAT ??_GCReBarCtrl@@UAEPAXI@Z
_TEXT	SEGMENT PARA USE32 PUBLIC 'CODE'
_TEXT	ENDS
;	COMDAT ??1CReBarCtrl@@UAE@XZ
_TEXT	SEGMENT PARA USE32 PUBLIC 'CODE'
_TEXT	ENDS
;	COMDAT ??_GCComboBoxEx@@UAEPAXI@Z
_TEXT	SEGMENT PARA USE32 PUBLIC 'CODE'
_TEXT	ENDS
;	COMDAT ??_GCIPAddressCtrl@@UAEPAXI@Z
_TEXT	SEGMENT PARA USE32 PUBLIC 'CODE'
_TEXT	ENDS
;	COMDAT ?data@CPlex@@QAEPAXXZ
text$AFX_COL1	SEGMENT PARA USE32 PUBLIC ''
text$AFX_COL1	ENDS
;	COMDAT ??2@YAPAXIPAX@Z
_TEXT	SEGMENT PARA USE32 PUBLIC 'CODE'
_TEXT	ENDS
;	COMDAT ??3@YAXPAX0@Z
_TEXT	SEGMENT PARA USE32 PUBLIC 'CODE'
_TEXT	ENDS
;	COMDAT ??_G?$CTypedPtrList@VCObList@@PAV1@@@UAEPAXI@Z
_TEXT	SEGMENT PARA USE32 PUBLIC 'CODE'
_TEXT	ENDS
;	COMDAT ??1?$_CTypedPtrList@VCObList@@PAV1@@@UAE@XZ
_TEXT	SEGMENT PARA USE32 PUBLIC 'CODE'
_TEXT	ENDS
;	COMDAT ??1?$CTypedPtrList@VCObList@@PAV1@@@UAE@XZ
_TEXT	SEGMENT PARA USE32 PUBLIC 'CODE'
_TEXT	ENDS
;	COMDAT ??_G?$CTypedPtrList@VCPtrList@@PAV1@@@UAEPAXI@Z
_TEXT	SEGMENT PARA USE32 PUBLIC 'CODE'
_TEXT	ENDS
;	COMDAT ??1?$_CTypedPtrList@VCPtrList@@PAV1@@@UAE@XZ
_TEXT	SEGMENT PARA USE32 PUBLIC 'CODE'
_TEXT	ENDS
;	COMDAT ??1?$CTypedPtrList@VCPtrList@@PAV1@@@UAE@XZ
_TEXT	SEGMENT PARA USE32 PUBLIC 'CODE'
_TEXT	ENDS
;	COMDAT ??0CLock@@QAE@AAU_RTL_CRITICAL_SECTION@@ABVCString@@@Z
_TEXT	SEGMENT PARA USE32 PUBLIC 'CODE'
_TEXT	ENDS
;	COMDAT ??1CLock@@QAE@XZ
_TEXT	SEGMENT PARA USE32 PUBLIC 'CODE'
_TEXT	ENDS
;	COMDAT ?Unlock@CLock@@QAEXXZ
_TEXT	SEGMENT PARA USE32 PUBLIC 'CODE'
_TEXT	ENDS
;	COMDAT ?Lock@CLock@@QAEXXZ
_TEXT	SEGMENT PARA USE32 PUBLIC 'CODE'
_TEXT	ENDS
;	COMDAT ??_GCMonikerFile@@UAEPAXI@Z
_TEXT	SEGMENT PARA USE32 PUBLIC 'CODE'
_TEXT	ENDS
;	COMDAT ?GetDocument@COleServerItem@@QBEPAVCOleServerDoc@@XZ
_TEXT	SEGMENT PARA USE32 PUBLIC 'CODE'
_TEXT	ENDS
;	COMDAT ?AtlA2WHelper@@YGPAGPAGPBDHI@Z
_TEXT	SEGMENT PARA USE32 PUBLIC 'CODE'
_TEXT	ENDS
;	COMDAT ?AtlW2AHelper@@YGPADPADPBGHI@Z
_TEXT	SEGMENT PARA USE32 PUBLIC 'CODE'
_TEXT	ENDS
;	COMDAT ?ocslen@@YAIPBG@Z
_TEXT	SEGMENT PARA USE32 PUBLIC 'CODE'
_TEXT	ENDS
;	COMDAT ?ocscpy@@YAPAGPAGPBG@Z
_TEXT	SEGMENT PARA USE32 PUBLIC 'CODE'
_TEXT	ENDS
;	COMDAT ?A2WBSTR@@YAPAGPBDH@Z
_TEXT	SEGMENT PARA USE32 PUBLIC 'CODE'
_TEXT	ENDS
;	COMDAT ??0CListView@@QAE@XZ
_TEXT	SEGMENT PARA USE32 PUBLIC 'CODE'
_TEXT	ENDS
;	COMDAT ??_GCListView@@UAEPAXI@Z
_TEXT	SEGMENT PARA USE32 PUBLIC 'CODE'
_TEXT	ENDS
;	COMDAT ??1CCtrlView@@UAE@XZ
_TEXT	SEGMENT PARA USE32 PUBLIC 'CODE'
_TEXT	ENDS
;	COMDAT ??1CListView@@UAE@XZ
_TEXT	SEGMENT PARA USE32 PUBLIC 'CODE'
_TEXT	ENDS
;	COMDAT ??0CTreeView@@QAE@XZ
_TEXT	SEGMENT PARA USE32 PUBLIC 'CODE'
_TEXT	ENDS
;	COMDAT ??_GCTreeView@@UAEPAXI@Z
_TEXT	SEGMENT PARA USE32 PUBLIC 'CODE'
_TEXT	ENDS
;	COMDAT ??1CTreeView@@UAE@XZ
_TEXT	SEGMENT PARA USE32 PUBLIC 'CODE'
_TEXT	ENDS
;	COMDAT ?MEMCPY_S@@YAXPAXPBXI@Z
_TEXT	SEGMENT PARA USE32 PUBLIC 'CODE'
_TEXT	ENDS
;	COMDAT ?STRCPY_S@@YAXPADIPBD@Z
_TEXT	SEGMENT PARA USE32 PUBLIC 'CODE'
_TEXT	ENDS
;	COMDAT ?SetCustomValue@CXTPPaintManagerColor@@QAEXK@Z
_TEXT	SEGMENT PARA USE32 PUBLIC 'CODE'
_TEXT	ENDS
;	COMDAT ?SetStandardValue@CXTPPaintManagerColor@@QAEXK@Z
_TEXT	SEGMENT PARA USE32 PUBLIC 'CODE'
_TEXT	ENDS
;	COMDAT ??BCXTPPaintManagerColor@@QBEKXZ
_TEXT	SEGMENT PARA USE32 PUBLIC 'CODE'
_TEXT	ENDS
;	COMDAT ??4CXTPPaintManagerColor@@QAEABV0@K@Z
_TEXT	SEGMENT PARA USE32 PUBLIC 'CODE'
_TEXT	ENDS
;	COMDAT ??4CXTPPaintManagerColor@@QAEABV0@ABV0@@Z
_TEXT	SEGMENT PARA USE32 PUBLIC 'CODE'
_TEXT	ENDS
;	COMDAT ?XTPColorManager@@YAPAVCXTPColorManager@@XZ
_TEXT	SEGMENT PARA USE32 PUBLIC 'CODE'
_TEXT	ENDS
;	COMDAT ?GetXtremeColor@@YAKI@Z
_TEXT	SEGMENT PARA USE32 PUBLIC 'CODE'
_TEXT	ENDS
;	COMDAT ??1CXTPPrintingDialog@@UAE@XZ
_TEXT	SEGMENT PARA USE32 PUBLIC 'CODE'
_TEXT	ENDS
;	COMDAT ??_GCXTPPrintingDialog@@UAEPAXI@Z
_TEXT	SEGMENT PARA USE32 PUBLIC 'CODE'
_TEXT	ENDS
;	COMDAT ??1CBitmapDC@CXTPImageManagerResource@@UAE@XZ
_TEXT	SEGMENT PARA USE32 PUBLIC 'CODE'
_TEXT	ENDS
;	COMDAT ??_GCBitmapDC@CXTPImageManagerResource@@UAEPAXI@Z
_TEXT	SEGMENT PARA USE32 PUBLIC 'CODE'
_TEXT	ENDS
;	COMDAT ??_GCXTPImageManagerIcon@@UAEPAXI@Z
_TEXT	SEGMENT PARA USE32 PUBLIC 'CODE'
_TEXT	ENDS
;	COMDAT ??_GCXTPImageManagerIconSet@@UAEPAXI@Z
_TEXT	SEGMENT PARA USE32 PUBLIC 'CODE'
_TEXT	ENDS
;	COMDAT ?CheckError@_com_util@@YAXJ@Z
_TEXT	SEGMENT PARA USE32 PUBLIC 'CODE'
_TEXT	ENDS
;	COMDAT ??0_bstr_t@@QAE@ABV0@@Z
_TEXT	SEGMENT PARA USE32 PUBLIC 'CODE'
_TEXT	ENDS
;	COMDAT ??0_bstr_t@@QAE@PBD@Z
_TEXT	SEGMENT PARA USE32 PUBLIC 'CODE'
_TEXT	ENDS
;	COMDAT ??0_bstr_t@@QAE@PBG@Z
_TEXT	SEGMENT PARA USE32 PUBLIC 'CODE'
_TEXT	ENDS
;	COMDAT ??0_bstr_t@@QAE@PAG_N@Z
_TEXT	SEGMENT PARA USE32 PUBLIC 'CODE'
_TEXT	ENDS
;	COMDAT ??1_bstr_t@@QAE@XZ
_TEXT	SEGMENT PARA USE32 PUBLIC 'CODE'
_TEXT	ENDS
;	COMDAT ??4_bstr_t@@QAEAAV0@PBG@Z
_TEXT	SEGMENT PARA USE32 PUBLIC 'CODE'
_TEXT	ENDS
;	COMDAT ??Y_bstr_t@@QAEAAV0@ABV0@@Z
_TEXT	SEGMENT PARA USE32 PUBLIC 'CODE'
_TEXT	ENDS
;	COMDAT ??B_bstr_t@@QBEPBGXZ
_TEXT	SEGMENT PARA USE32 PUBLIC 'CODE'
_TEXT	ENDS
;	COMDAT ??B_bstr_t@@QBEPAGXZ
_TEXT	SEGMENT PARA USE32 PUBLIC 'CODE'
_TEXT	ENDS
;	COMDAT ??7_bstr_t@@QBE_NXZ
_TEXT	SEGMENT PARA USE32 PUBLIC 'CODE'
_TEXT	ENDS
;	COMDAT ?length@_bstr_t@@QBEIXZ
_TEXT	SEGMENT PARA USE32 PUBLIC 'CODE'
_TEXT	ENDS
;	COMDAT ?_AddRef@_bstr_t@@AAEXXZ
_TEXT	SEGMENT PARA USE32 PUBLIC 'CODE'
_TEXT	ENDS
;	COMDAT ?_Free@_bstr_t@@AAEXXZ
_TEXT	SEGMENT PARA USE32 PUBLIC 'CODE'
_TEXT	ENDS
;	COMDAT ?_Compare@_bstr_t@@ABEHABV1@@Z
_TEXT	SEGMENT PARA USE32 PUBLIC 'CODE'
_TEXT	ENDS
;	COMDAT ??0Data_t@_bstr_t@@QAE@PBD@Z
_TEXT	SEGMENT PARA USE32 PUBLIC 'CODE'
_TEXT	ENDS
;	COMDAT ??0Data_t@_bstr_t@@QAE@PBG@Z
_TEXT	SEGMENT PARA USE32 PUBLIC 'CODE'
_TEXT	ENDS
;	COMDAT ??0Data_t@_bstr_t@@QAE@PAG_N@Z
_TEXT	SEGMENT PARA USE32 PUBLIC 'CODE'
_TEXT	ENDS
;	COMDAT ??0Data_t@_bstr_t@@QAE@ABV1@0@Z
_TEXT	SEGMENT PARA USE32 PUBLIC 'CODE'
_TEXT	ENDS
;	COMDAT ?AddRef@Data_t@_bstr_t@@QAEKXZ
_TEXT	SEGMENT PARA USE32 PUBLIC 'CODE'
_TEXT	ENDS
;	COMDAT ?Release@Data_t@_bstr_t@@QAEKXZ
_TEXT	SEGMENT PARA USE32 PUBLIC 'CODE'
_TEXT	ENDS
;	COMDAT ??_GData_t@_bstr_t@@AAEPAXI@Z
_TEXT	SEGMENT PARA USE32 PUBLIC 'CODE'
_TEXT	ENDS
;	COMDAT ?GetWString@Data_t@_bstr_t@@QBEPBGXZ
_TEXT	SEGMENT PARA USE32 PUBLIC 'CODE'
_TEXT	ENDS
;	COMDAT ?GetString@Data_t@_bstr_t@@QBEPBDXZ
_TEXT	SEGMENT PARA USE32 PUBLIC 'CODE'
_TEXT	ENDS
;	COMDAT ?Copy@Data_t@_bstr_t@@QBEPAGXZ
_TEXT	SEGMENT PARA USE32 PUBLIC 'CODE'
_TEXT	ENDS
;	COMDAT ?Assign@Data_t@_bstr_t@@QAEXPAG@Z
_TEXT	SEGMENT PARA USE32 PUBLIC 'CODE'
_TEXT	ENDS
;	COMDAT ?Length@Data_t@_bstr_t@@QBEIXZ
_TEXT	SEGMENT PARA USE32 PUBLIC 'CODE'
_TEXT	ENDS
;	COMDAT ?Compare@Data_t@_bstr_t@@QBEHABV12@@Z
_TEXT	SEGMENT PARA USE32 PUBLIC 'CODE'
_TEXT	ENDS
;	COMDAT ??1Data_t@_bstr_t@@AAE@XZ
_TEXT	SEGMENT PARA USE32 PUBLIC 'CODE'
_TEXT	ENDS
;	COMDAT ?_Free@Data_t@_bstr_t@@AAEXXZ
_TEXT	SEGMENT PARA USE32 PUBLIC 'CODE'
_TEXT	ENDS
;	COMDAT ??0_variant_t@@QAE@XZ
_TEXT	SEGMENT PARA USE32 PUBLIC 'CODE'
_TEXT	ENDS
;	COMDAT ??0_variant_t@@QAE@AAUtagVARIANT@@_N@Z
_TEXT	SEGMENT PARA USE32 PUBLIC 'CODE'
_TEXT	ENDS
;	COMDAT ??8_variant_t@@QBE_NPBUtagVARIANT@@@Z
_TEXT	SEGMENT PARA USE32 PUBLIC 'CODE'
_TEXT	ENDS
;	COMDAT ?Clear@_variant_t@@QAEXXZ
_TEXT	SEGMENT PARA USE32 PUBLIC 'CODE'
_TEXT	ENDS
;	COMDAT ?ChangeType@_variant_t@@QAEXGPBV1@@Z
_TEXT	SEGMENT PARA USE32 PUBLIC 'CODE'
_TEXT	ENDS
;	COMDAT ??1_variant_t@@QAE@XZ
_TEXT	SEGMENT PARA USE32 PUBLIC 'CODE'
_TEXT	ENDS
;	COMDAT ??_G_com_error@@UAEPAXI@Z
_TEXT	SEGMENT PARA USE32 PUBLIC 'CODE'
_TEXT	ENDS
;	COMDAT ??0_com_error@@QAE@ABV0@@Z
_TEXT	SEGMENT PARA USE32 PUBLIC 'CODE'
_TEXT	ENDS
;	COMDAT ??1_com_error@@UAE@XZ
_TEXT	SEGMENT PARA USE32 PUBLIC 'CODE'
_TEXT	ENDS
;	COMDAT ?WCode@_com_error@@QBEGXZ
_TEXT	SEGMENT PARA USE32 PUBLIC 'CODE'
_TEXT	ENDS
;	COMDAT ?HRESULTToWCode@_com_error@@SAGJ@Z
_TEXT	SEGMENT PARA USE32 PUBLIC 'CODE'
_TEXT	ENDS
;	COMDAT ??0CXTPPropExchangeSection@@QAE@PAVCXTPPropExchange@@@Z
_TEXT	SEGMENT PARA USE32 PUBLIC 'CODE'
_TEXT	ENDS
;	COMDAT ??1CXTPPropExchangeSection@@QAE@XZ
_TEXT	SEGMENT PARA USE32 PUBLIC 'CODE'
_TEXT	ENDS
;	COMDAT ??CCXTPPropExchangeSection@@QBEPAVCXTPPropExchange@@XZ
_TEXT	SEGMENT PARA USE32 PUBLIC 'CODE'
_TEXT	ENDS
;	COMDAT ??ICXTPPropExchangeSection@@QBEPAVCXTPPropExchange@@XZ
_TEXT	SEGMENT PARA USE32 PUBLIC 'CODE'
_TEXT	ENDS
;	COMDAT ?IsStoring@CXTPPropExchange@@QBEHXZ
_TEXT	SEGMENT PARA USE32 PUBLIC 'CODE'
_TEXT	ENDS
;	COMDAT ?Reset@TOOLITEM@CXTPToolTipContextToolTip@@QAEXXZ
_TEXT	SEGMENT PARA USE32 PUBLIC 'CODE'
_TEXT	ENDS
;	COMDAT ??4TOOLITEM@CXTPToolTipContextToolTip@@QAEAAU01@ABU01@@Z
_TEXT	SEGMENT PARA USE32 PUBLIC 'CODE'
_TEXT	ENDS
;	COMDAT ??1CBitmapDC@CXTPResourceImages@@UAE@XZ
_TEXT	SEGMENT PARA USE32 PUBLIC 'CODE'
_TEXT	ENDS
;	COMDAT ??_GCBitmapDC@CXTPResourceImages@@UAEPAXI@Z
_TEXT	SEGMENT PARA USE32 PUBLIC 'CODE'
_TEXT	ENDS
;	COMDAT ?Unlock@CSyncObject@@UAEHJPAJ@Z
_TEXT	SEGMENT PARA USE32 PUBLIC 'CODE'
_TEXT	ENDS
;	COMDAT ??_GCCriticalSection@@UAEPAXI@Z
_TEXT	SEGMENT PARA USE32 PUBLIC 'CODE'
_TEXT	ENDS
;	COMDAT ??1CCriticalSection@@UAE@XZ
_TEXT	SEGMENT PARA USE32 PUBLIC 'CODE'
_TEXT	ENDS
;	COMDAT ?Lock@CCriticalSection@@QAEHXZ
_TEXT	SEGMENT PARA USE32 PUBLIC 'CODE'
_TEXT	ENDS
;	COMDAT ?Lock@CCriticalSection@@UAEHK@Z
_TEXT	SEGMENT PARA USE32 PUBLIC 'CODE'
_TEXT	ENDS
;	COMDAT ?Unlock@CCriticalSection@@UAEHXZ
_TEXT	SEGMENT PARA USE32 PUBLIC 'CODE'
_TEXT	ENDS
;	COMDAT ?GetSupportedColorSets@CAppearanceSet@CXTPTabPaintManager@@UAEHXZ
_TEXT	SEGMENT PARA USE32 PUBLIC 'CODE'
_TEXT	ENDS
;	COMDAT ?GetSupportedColorSets@CAppearanceSetPropertyPage@CXTPTabPaintManager@@UAEHXZ
_TEXT	SEGMENT PARA USE32 PUBLIC 'CODE'
_TEXT	ENDS
;	COMDAT ?GetDefaultColorSet@CAppearanceSetPropertyPage@CXTPTabPaintManager@@UAE?AW4XTPTabColorStyle@@XZ
_TEXT	SEGMENT PARA USE32 PUBLIC 'CODE'
_TEXT	ENDS
;	COMDAT ??0CAppearanceSetPropertyPage2003@CXTPTabPaintManager@@QAE@XZ
_TEXT	SEGMENT PARA USE32 PUBLIC 'CODE'
_TEXT	ENDS
;	COMDAT ?GetHeaderMargin@CAppearanceSetPropertyPage2003@CXTPTabPaintManager@@UAE?AVCRect@@XZ
_TEXT	SEGMENT PARA USE32 PUBLIC 'CODE'
_TEXT	ENDS
;	COMDAT ?GetSupportedColorSets@CAppearanceSetPropertyPage2003@CXTPTabPaintManager@@UAEHXZ
_TEXT	SEGMENT PARA USE32 PUBLIC 'CODE'
_TEXT	ENDS
;	COMDAT ?GetDefaultColorSet@CAppearanceSetPropertyPage2003@CXTPTabPaintManager@@UAE?AW4XTPTabColorStyle@@XZ
_TEXT	SEGMENT PARA USE32 PUBLIC 'CODE'
_TEXT	ENDS
;	COMDAT ??0CAppearanceSetPropertyPage2007@CXTPTabPaintManager@@QAE@XZ
_TEXT	SEGMENT PARA USE32 PUBLIC 'CODE'
_TEXT	ENDS
;	COMDAT ?GetSupportedColorSets@CAppearanceSetPropertyPage2007@CXTPTabPaintManager@@MAEHXZ
_TEXT	SEGMENT PARA USE32 PUBLIC 'CODE'
_TEXT	ENDS
;	COMDAT ?GetDefaultColorSet@CAppearanceSetPropertyPage2007@CXTPTabPaintManager@@MAE?AW4XTPTabColorStyle@@XZ
_TEXT	SEGMENT PARA USE32 PUBLIC 'CODE'
_TEXT	ENDS
;	COMDAT ?GetSupportedColorSets@CAppearanceSetPropertyPageAccess2007@CXTPTabPaintManager@@MAEHXZ
_TEXT	SEGMENT PARA USE32 PUBLIC 'CODE'
_TEXT	ENDS
;	COMDAT ?GetDefaultColorSet@CAppearanceSetPropertyPageAccess2007@CXTPTabPaintManager@@MAE?AW4XTPTabColorStyle@@XZ
_TEXT	SEGMENT PARA USE32 PUBLIC 'CODE'
_TEXT	ENDS
;	COMDAT ?GetHeaderMargin@CAppearanceSetPropertyPageAccess2007@CXTPTabPaintManager@@MAE?AVCRect@@XZ
_TEXT	SEGMENT PARA USE32 PUBLIC 'CODE'
_TEXT	ENDS
;	COMDAT ?GetDefaultColorSet@CAppearanceSetStateButtons@CXTPTabPaintManager@@UAE?AW4XTPTabColorStyle@@XZ
_TEXT	SEGMENT PARA USE32 PUBLIC 'CODE'
_TEXT	ENDS
;	COMDAT ?GetSupportedColorSets@CAppearanceSetVisualStudio@CXTPTabPaintManager@@UAEHXZ
_TEXT	SEGMENT PARA USE32 PUBLIC 'CODE'
_TEXT	ENDS
;	COMDAT ?GetDefaultColorSet@CAppearanceSetVisualStudio@CXTPTabPaintManager@@UAE?AW4XTPTabColorStyle@@XZ
_TEXT	SEGMENT PARA USE32 PUBLIC 'CODE'
_TEXT	ENDS
;	COMDAT ?GetHeaderMargin@CAppearanceSetVisualStudio2005@CXTPTabPaintManager@@UAE?AVCRect@@XZ
_TEXT	SEGMENT PARA USE32 PUBLIC 'CODE'
_TEXT	ENDS
;	COMDAT ??0CAppearanceSetFlat@CXTPTabPaintManager@@QAE@XZ
_TEXT	SEGMENT PARA USE32 PUBLIC 'CODE'
_TEXT	ENDS
;	COMDAT ?GetSupportedColorSets@CAppearanceSetFlat@CXTPTabPaintManager@@UAEHXZ
_TEXT	SEGMENT PARA USE32 PUBLIC 'CODE'
_TEXT	ENDS
;	COMDAT ?GetDefaultColorSet@CAppearanceSetFlat@CXTPTabPaintManager@@UAE?AW4XTPTabColorStyle@@XZ
_TEXT	SEGMENT PARA USE32 PUBLIC 'CODE'
_TEXT	ENDS
;	COMDAT ?GetDefaultColorSet@CAppearanceSetPropertyPageFlat@CXTPTabPaintManager@@UAE?AW4XTPTabColorStyle@@XZ
_TEXT	SEGMENT PARA USE32 PUBLIC 'CODE'
_TEXT	ENDS
;	COMDAT ?GetHeaderMargin@CAppearanceSetExcel@CXTPTabPaintManager@@UAE?AVCRect@@XZ
_TEXT	SEGMENT PARA USE32 PUBLIC 'CODE'
_TEXT	ENDS
;	COMDAT ??_GCAppearanceSetPropertyPage@CXTPTabPaintManager@@UAEPAXI@Z
_TEXT	SEGMENT PARA USE32 PUBLIC 'CODE'
_TEXT	ENDS
;	COMDAT ??_GCAppearanceSetPropertyPage2003@CXTPTabPaintManager@@UAEPAXI@Z
_TEXT	SEGMENT PARA USE32 PUBLIC 'CODE'
_TEXT	ENDS
;	COMDAT ??_GCAppearanceSetPropertyPage2007@CXTPTabPaintManager@@UAEPAXI@Z
_TEXT	SEGMENT PARA USE32 PUBLIC 'CODE'
_TEXT	ENDS
;	COMDAT ??_GCAppearanceSetPropertyPageAccess2007@CXTPTabPaintManager@@UAEPAXI@Z
_TEXT	SEGMENT PARA USE32 PUBLIC 'CODE'
_TEXT	ENDS
;	COMDAT ??1CAppearanceSetPropertyPage2007@CXTPTabPaintManager@@UAE@XZ
_TEXT	SEGMENT PARA USE32 PUBLIC 'CODE'
_TEXT	ENDS
;	COMDAT ??_GCAppearanceSetStateButtons@CXTPTabPaintManager@@UAEPAXI@Z
_TEXT	SEGMENT PARA USE32 PUBLIC 'CODE'
_TEXT	ENDS
;	COMDAT ??_GCAppearanceSetVisualStudio@CXTPTabPaintManager@@UAEPAXI@Z
_TEXT	SEGMENT PARA USE32 PUBLIC 'CODE'
_TEXT	ENDS
;	COMDAT ??_GCAppearanceSetVisualStudio2005@CXTPTabPaintManager@@UAEPAXI@Z
_TEXT	SEGMENT PARA USE32 PUBLIC 'CODE'
_TEXT	ENDS
;	COMDAT ??1CAppearanceSetPropertyPage2003@CXTPTabPaintManager@@UAE@XZ
_TEXT	SEGMENT PARA USE32 PUBLIC 'CODE'
_TEXT	ENDS
;	COMDAT ??_GCAppearanceSetFlat@CXTPTabPaintManager@@UAEPAXI@Z
_TEXT	SEGMENT PARA USE32 PUBLIC 'CODE'
_TEXT	ENDS
;	COMDAT ??_GCAppearanceSetPropertyPageFlat@CXTPTabPaintManager@@UAEPAXI@Z
_TEXT	SEGMENT PARA USE32 PUBLIC 'CODE'
_TEXT	ENDS
;	COMDAT ??1CAppearanceSetFlat@CXTPTabPaintManager@@UAE@XZ
_TEXT	SEGMENT PARA USE32 PUBLIC 'CODE'
_TEXT	ENDS
;	COMDAT ??_GCAppearanceSetExcel@CXTPTabPaintManager@@UAEPAXI@Z
_TEXT	SEGMENT PARA USE32 PUBLIC 'CODE'
_TEXT	ENDS
;	COMDAT ??1CAppearanceSetPropertyPage@CXTPTabPaintManager@@UAE@XZ
_TEXT	SEGMENT PARA USE32 PUBLIC 'CODE'
_TEXT	ENDS
;	COMDAT ??1CAppearanceSetPropertyPageAccess2007@CXTPTabPaintManager@@UAE@XZ
_TEXT	SEGMENT PARA USE32 PUBLIC 'CODE'
_TEXT	ENDS
;	COMDAT ??1CAppearanceSetStateButtons@CXTPTabPaintManager@@UAE@XZ
_TEXT	SEGMENT PARA USE32 PUBLIC 'CODE'
_TEXT	ENDS
;	COMDAT ??1CAppearanceSetVisualStudio@CXTPTabPaintManager@@UAE@XZ
_TEXT	SEGMENT PARA USE32 PUBLIC 'CODE'
_TEXT	ENDS
;	COMDAT ??1CAppearanceSetVisualStudio2005@CXTPTabPaintManager@@UAE@XZ
_TEXT	SEGMENT PARA USE32 PUBLIC 'CODE'
_TEXT	ENDS
;	COMDAT ??1CAppearanceSetPropertyPageFlat@CXTPTabPaintManager@@UAE@XZ
_TEXT	SEGMENT PARA USE32 PUBLIC 'CODE'
_TEXT	ENDS
;	COMDAT ??1CAppearanceSetExcel@CXTPTabPaintManager@@UAE@XZ
_TEXT	SEGMENT PARA USE32 PUBLIC 'CODE'
_TEXT	ENDS
;	COMDAT ?GetHeaderMargin@CAppearanceSet@CXTPTabPaintManager@@UAE?AVCRect@@XZ
_TEXT	SEGMENT PARA USE32 PUBLIC 'CODE'
_TEXT	ENDS
;	COMDAT ?DrawTabControl@CAppearanceSet@CXTPTabPaintManager@@UAEXPAVCXTPTabManager@@PAVCDC@@VCRect@@@Z
_TEXT	SEGMENT PARA USE32 PUBLIC 'CODE'
_TEXT	ENDS
;	COMDAT ?RepositionTabControl@CAppearanceSet@CXTPTabPaintManager@@UAEXPAVCXTPTabManager@@PAVCDC@@VCRect@@@Z
_TEXT	SEGMENT PARA USE32 PUBLIC 'CODE'
_TEXT	ENDS
;	COMDAT ?GetAppearanceSet@CXTPTabPaintManager@@QBEPAVCAppearanceSet@1@XZ
_TEXT	SEGMENT PARA USE32 PUBLIC 'CODE'
_TEXT	ENDS
;	COMDAT ?GetColorSet@CXTPTabPaintManager@@QBEPAVCColorSet@1@XZ
_TEXT	SEGMENT PARA USE32 PUBLIC 'CODE'
_TEXT	ENDS
;	COMDAT ?OnPropertyChanged@CXTPTabManagerAtom@@UAEXXZ
_TEXT	SEGMENT PARA USE32 PUBLIC 'CODE'
_TEXT	ENDS
;	COMDAT ??1CXTPTabManagerAtom@@MAE@XZ
_TEXT	SEGMENT PARA USE32 PUBLIC 'CODE'
_TEXT	ENDS
;	COMDAT ??_GCXTPTabManagerAtom@@MAEPAXI@Z
_TEXT	SEGMENT PARA USE32 PUBLIC 'CODE'
_TEXT	ENDS
;	COMDAT ?IsSelected@CXTPTabManagerItem@@QBEHXZ
_TEXT	SEGMENT PARA USE32 PUBLIC 'CODE'
_TEXT	ENDS
;	COMDAT ?GetID@CXTPTabManagerNavigateButton@@QBEIXZ
_TEXT	SEGMENT PARA USE32 PUBLIC 'CODE'
_TEXT	ENDS
;	COMDAT ?GetItemCount@CXTPTabManager@@QBEHXZ
_TEXT	SEGMENT PARA USE32 PUBLIC 'CODE'
_TEXT	ENDS
;	COMDAT ?GetNavigateButtonCount@CXTPTabManager@@QBEHXZ
_TEXT	SEGMENT PARA USE32 PUBLIC 'CODE'
_TEXT	ENDS
;	COMDAT ?IsHorizontalPosition@CXTPTabManager@@QBEHXZ
_TEXT	SEGMENT PARA USE32 PUBLIC 'CODE'
_TEXT	ENDS
;	COMDAT ?GetSize@CXTPTabManagerNavigateButtons@@QBEHXZ
_TEXT	SEGMENT PARA USE32 PUBLIC 'CODE'
_TEXT	ENDS
;	COMDAT ??ACXTPTabManagerNavigateButtons@@QBEPAVCXTPTabManagerNavigateButton@@H@Z
_TEXT	SEGMENT PARA USE32 PUBLIC 'CODE'
_TEXT	ENDS
;	COMDAT ?RedrawButton@CXTPButton@@QAEXH@Z
_TEXT	SEGMENT PARA USE32 PUBLIC 'CODE'
_TEXT	ENDS
;	COMDAT ?EnableEdit@CXTPEditListBoxToolBar@@QAEX_N@Z
_TEXT	SEGMENT PARA USE32 PUBLIC 'CODE'
_TEXT	ENDS
;	COMDAT ??_GCXTPCtrlView@@UAEPAXI@Z
_TEXT	SEGMENT PARA USE32 PUBLIC 'CODE'
_TEXT	ENDS
;	COMDAT ??1CXTPCtrlView@@UAE@XZ
_TEXT	SEGMENT PARA USE32 PUBLIC 'CODE'
_TEXT	ENDS
;	COMDAT ?SetBorderGap@CXTPMDIClientWnd@@QAEXH@Z
_TEXT	SEGMENT PARA USE32 PUBLIC 'CODE'
_TEXT	ENDS
;	COMDAT ??8CXTPResizeRect@@QAE_NABUXTP_RESIZERECT@@@Z
_TEXT	SEGMENT PARA USE32 PUBLIC 'CODE'
_TEXT	ENDS
;	COMDAT ?SetResize@CXTPResize@@QAEXIABUXTP_RESIZERECT@@@Z
_TEXT	SEGMENT PARA USE32 PUBLIC 'CODE'
_TEXT	ENDS
;	COMDAT ?IsLinkButtonsUsed@CXTPTaskDialogClient@@QBEHXZ
_TEXT	SEGMENT PARA USE32 PUBLIC 'CODE'
_TEXT	ENDS
;	COMDAT ?GetPage@CXTPPropertySheet@@QBEPAVCXTPPropertyPage@@H@Z
_TEXT	SEGMENT PARA USE32 PUBLIC 'CODE'
_TEXT	ENDS
;	COMDAT ?GetNextItem@CXTPTreeBase@@UBEPAU_TREEITEM@@PAU2@I@Z
_TEXT	SEGMENT PARA USE32 PUBLIC 'CODE'
_TEXT	ENDS
;	COMDAT ??0CLRFONT@CXTPTreeBase@@QAE@XZ
_TEXT	SEGMENT PARA USE32 PUBLIC 'CODE'
_TEXT	ENDS
;	COMDAT ?GetItemState@CXTPTreeViewBase@@UBEIPAU_TREEITEM@@I@Z
_TEXT	SEGMENT PARA USE32 PUBLIC 'CODE'
_TEXT	ENDS
;	COMDAT ?SelectItem@CXTPTreeViewBase@@UAEHPAU_TREEITEM@@@Z
_TEXT	SEGMENT PARA USE32 PUBLIC 'CODE'
_TEXT	ENDS
;	COMDAT ?SetItemState@CXTPTreeViewBase@@UAEHPAU_TREEITEM@@II@Z
_TEXT	SEGMENT PARA USE32 PUBLIC 'CODE'
_TEXT	ENDS
;	COMDAT ?GetNextItem@CXTPTreeViewBase@@UBEPAU_TREEITEM@@PAU2@I@Z
_TEXT	SEGMENT PARA USE32 PUBLIC 'CODE'
_TEXT	ENDS
;	COMDAT ?GetNextItem@CXTPTreeViewBase@@UBEPAU_TREEITEM@@PAU2@@Z
_TEXT	SEGMENT PARA USE32 PUBLIC 'CODE'
_TEXT	ENDS
;	COMDAT ?OnNotify@CXTPTreeViewBase@@MAEHIJPAJ@Z
_TEXT	SEGMENT PARA USE32 PUBLIC 'CODE'
_TEXT	ENDS
;	COMDAT ?PreTranslateMessage@CXTPTreeViewBase@@MAEHPAUtagMSG@@@Z
_TEXT	SEGMENT PARA USE32 PUBLIC 'CODE'
_TEXT	ENDS
;	COMDAT ?Init@CXTPTreeViewBase@@MAE_NXZ
_TEXT	SEGMENT PARA USE32 PUBLIC 'CODE'
_TEXT	ENDS
;	COMDAT ?PreSubclassWindow@CXTPTreeViewBase@@MAEXXZ
_TEXT	SEGMENT PARA USE32 PUBLIC 'CODE'
_TEXT	ENDS
;	COMDAT ?PreCreateWindow@CXTPTreeViewBase@@MAEHAAUtagCREATESTRUCTA@@@Z
_TEXT	SEGMENT PARA USE32 PUBLIC 'CODE'
_TEXT	ENDS
;	COMDAT ??_GCXTPTreeViewBase@@UAEPAXI@Z
_TEXT	SEGMENT PARA USE32 PUBLIC 'CODE'
_TEXT	ENDS
;	COMDAT ??1CXTPTreeViewBase@@UAE@XZ
_TEXT	SEGMENT PARA USE32 PUBLIC 'CODE'
_TEXT	ENDS
;	COMDAT ?GetItemState@CXTPTreeCtrlBase@@UBEIPAU_TREEITEM@@I@Z
_TEXT	SEGMENT PARA USE32 PUBLIC 'CODE'
_TEXT	ENDS
;	COMDAT ?SelectItem@CXTPTreeCtrlBase@@UAEHPAU_TREEITEM@@@Z
_TEXT	SEGMENT PARA USE32 PUBLIC 'CODE'
_TEXT	ENDS
;	COMDAT ?SetItemState@CXTPTreeCtrlBase@@UAEHPAU_TREEITEM@@II@Z
_TEXT	SEGMENT PARA USE32 PUBLIC 'CODE'
_TEXT	ENDS
;	COMDAT ?GetNextItem@CXTPTreeCtrlBase@@UBEPAU_TREEITEM@@PAU2@I@Z
_TEXT	SEGMENT PARA USE32 PUBLIC 'CODE'
_TEXT	ENDS
;	COMDAT ?GetNextItem@CXTPTreeCtrlBase@@UBEPAU_TREEITEM@@PAU2@@Z
_TEXT	SEGMENT PARA USE32 PUBLIC 'CODE'
_TEXT	ENDS
;	COMDAT ?OnNotify@CXTPTreeCtrlBase@@MAEHIJPAJ@Z
_TEXT	SEGMENT PARA USE32 PUBLIC 'CODE'
_TEXT	ENDS
;	COMDAT ?PreTranslateMessage@CXTPTreeCtrlBase@@MAEHPAUtagMSG@@@Z
_TEXT	SEGMENT PARA USE32 PUBLIC 'CODE'
_TEXT	ENDS
;	COMDAT ?Init@CXTPTreeCtrlBase@@MAE_NXZ
_TEXT	SEGMENT PARA USE32 PUBLIC 'CODE'
_TEXT	ENDS
;	COMDAT ?PreSubclassWindow@CXTPTreeCtrlBase@@MAEXXZ
_TEXT	SEGMENT PARA USE32 PUBLIC 'CODE'
_TEXT	ENDS
;	COMDAT ?PreCreateWindow@CXTPTreeCtrlBase@@MAEHAAUtagCREATESTRUCTA@@@Z
_TEXT	SEGMENT PARA USE32 PUBLIC 'CODE'
_TEXT	ENDS
;	COMDAT ??_GCXTPTreeCtrlBase@@UAEPAXI@Z
_TEXT	SEGMENT PARA USE32 PUBLIC 'CODE'
_TEXT	ENDS
;	COMDAT ??1CXTPTreeCtrlBase@@UAE@XZ
_TEXT	SEGMENT PARA USE32 PUBLIC 'CODE'
_TEXT	ENDS
;	COMDAT ?GetExtendedStyle@CXTPListBase@@UAEKXZ
_TEXT	SEGMENT PARA USE32 PUBLIC 'CODE'
_TEXT	ENDS
;	COMDAT ?SetExtendedStyle@CXTPListBase@@UAEXK@Z
_TEXT	SEGMENT PARA USE32 PUBLIC 'CODE'
_TEXT	ENDS
;	COMDAT ?DisableColumnSizing@CXTPListBase@@UAEX_N@Z
_TEXT	SEGMENT PARA USE32 PUBLIC 'CODE'
_TEXT	ENDS
;	COMDAT ?SetListBackColor@CXTPListBase@@QAEXK@Z
_TEXT	SEGMENT PARA USE32 PUBLIC 'CODE'
_TEXT	ENDS
;	COMDAT ?SetListTextColor@CXTPListBase@@QAEXK@Z
_TEXT	SEGMENT PARA USE32 PUBLIC 'CODE'
_TEXT	ENDS
;	COMDAT ?EnableUserListColor@CXTPListBase@@QAEX_N@Z
_TEXT	SEGMENT PARA USE32 PUBLIC 'CODE'
_TEXT	ENDS
;	COMDAT ?GetListBackColor@CXTPListBase@@QBEKXZ
_TEXT	SEGMENT PARA USE32 PUBLIC 'CODE'
_TEXT	ENDS
;	COMDAT ?GetListTextColor@CXTPListBase@@QBEKXZ
_TEXT	SEGMENT PARA USE32 PUBLIC 'CODE'
_TEXT	ENDS
;	COMDAT ?GetExtendedStyle@CXTPListViewBase@@UAEKXZ
_TEXT	SEGMENT PARA USE32 PUBLIC 'CODE'
_TEXT	ENDS
;	COMDAT ?SetExtendedStyle@CXTPListViewBase@@UAEXK@Z
_TEXT	SEGMENT PARA USE32 PUBLIC 'CODE'
_TEXT	ENDS
;	COMDAT ?OnNotify@CXTPListViewBase@@MAEHIJPAJ@Z
_TEXT	SEGMENT PARA USE32 PUBLIC 'CODE'
_TEXT	ENDS
;	COMDAT ?Init@CXTPListViewBase@@MAE_NXZ
_TEXT	SEGMENT PARA USE32 PUBLIC 'CODE'
_TEXT	ENDS
;	COMDAT ?PreSubclassWindow@CXTPListViewBase@@MAEXXZ
_TEXT	SEGMENT PARA USE32 PUBLIC 'CODE'
_TEXT	ENDS
;	COMDAT ?PreCreateWindow@CXTPListViewBase@@MAEHAAUtagCREATESTRUCTA@@@Z
_TEXT	SEGMENT PARA USE32 PUBLIC 'CODE'
_TEXT	ENDS
;	COMDAT ??_GCXTPListViewBase@@UAEPAXI@Z
_TEXT	SEGMENT PARA USE32 PUBLIC 'CODE'
_TEXT	ENDS
;	COMDAT ??1CXTPListViewBase@@UAE@XZ
_TEXT	SEGMENT PARA USE32 PUBLIC 'CODE'
_TEXT	ENDS
;	COMDAT ?GetExtendedStyle@CXTPListCtrlBase@@UAEKXZ
_TEXT	SEGMENT PARA USE32 PUBLIC 'CODE'
_TEXT	ENDS
;	COMDAT ?SetExtendedStyle@CXTPListCtrlBase@@UAEXK@Z
_TEXT	SEGMENT PARA USE32 PUBLIC 'CODE'
_TEXT	ENDS
;	COMDAT ?OnNotify@CXTPListCtrlBase@@MAEHIJPAJ@Z
_TEXT	SEGMENT PARA USE32 PUBLIC 'CODE'
_TEXT	ENDS
;	COMDAT ?Init@CXTPListCtrlBase@@MAE_NXZ
_TEXT	SEGMENT PARA USE32 PUBLIC 'CODE'
_TEXT	ENDS
;	COMDAT ?PreSubclassWindow@CXTPListCtrlBase@@MAEXXZ
_TEXT	SEGMENT PARA USE32 PUBLIC 'CODE'
_TEXT	ENDS
;	COMDAT ?PreCreateWindow@CXTPListCtrlBase@@MAEHAAUtagCREATESTRUCTA@@@Z
_TEXT	SEGMENT PARA USE32 PUBLIC 'CODE'
_TEXT	ENDS
;	COMDAT ??_GCXTPListCtrlBase@@UAEPAXI@Z
_TEXT	SEGMENT PARA USE32 PUBLIC 'CODE'
_TEXT	ENDS
;	COMDAT ??1CXTPListCtrlBase@@UAE@XZ
_TEXT	SEGMENT PARA USE32 PUBLIC 'CODE'
_TEXT	ENDS
;	COMDAT ??1CShellMalloc@CXTPShellPidl@@UAE@XZ
_TEXT	SEGMENT PARA USE32 PUBLIC 'CODE'
_TEXT	ENDS
;	COMDAT ??1CShellSpecialFolder@CXTPShellPidl@@UAE@XZ
_TEXT	SEGMENT PARA USE32 PUBLIC 'CODE'
_TEXT	ENDS
;	COMDAT ??_GCShellMalloc@CXTPShellPidl@@UAEPAXI@Z
_TEXT	SEGMENT PARA USE32 PUBLIC 'CODE'
_TEXT	ENDS
;	COMDAT ??_GCShellSpecialFolder@CXTPShellPidl@@UAEPAXI@Z
_TEXT	SEGMENT PARA USE32 PUBLIC 'CODE'
_TEXT	ENDS
;	COMDAT ?GetItemState@CXTPShellTreeBaseCTreeView@@UBEIPAU_TREEITEM@@I@Z
_TEXT	SEGMENT PARA USE32 PUBLIC 'CODE'
_TEXT	ENDS
;	COMDAT ?SelectItem@CXTPShellTreeBaseCTreeView@@UAEHPAU_TREEITEM@@@Z
_TEXT	SEGMENT PARA USE32 PUBLIC 'CODE'
_TEXT	ENDS
;	COMDAT ?SetItemState@CXTPShellTreeBaseCTreeView@@UAEHPAU_TREEITEM@@II@Z
_TEXT	SEGMENT PARA USE32 PUBLIC 'CODE'
_TEXT	ENDS
;	COMDAT ?GetNextItem@CXTPShellTreeBaseCTreeView@@UBEPAU_TREEITEM@@PAU2@I@Z
_TEXT	SEGMENT PARA USE32 PUBLIC 'CODE'
_TEXT	ENDS
;	COMDAT ?GetNextItem@CXTPShellTreeBaseCTreeView@@UBEPAU_TREEITEM@@PAU2@@Z
_TEXT	SEGMENT PARA USE32 PUBLIC 'CODE'
_TEXT	ENDS
;	COMDAT ?OnNotify@CXTPShellTreeBaseCTreeView@@MAEHIJPAJ@Z
_TEXT	SEGMENT PARA USE32 PUBLIC 'CODE'
_TEXT	ENDS
;	COMDAT ?PreTranslateMessage@CXTPShellTreeBaseCTreeView@@MAEHPAUtagMSG@@@Z
_TEXT	SEGMENT PARA USE32 PUBLIC 'CODE'
_TEXT	ENDS
;	COMDAT ?Init@CXTPShellTreeBaseCTreeView@@MAE_NXZ
_TEXT	SEGMENT PARA USE32 PUBLIC 'CODE'
_TEXT	ENDS
;	COMDAT ?PreSubclassWindow@CXTPShellTreeBaseCTreeView@@MAEXXZ
_TEXT	SEGMENT PARA USE32 PUBLIC 'CODE'
_TEXT	ENDS
;	COMDAT ?PreCreateWindow@CXTPShellTreeBaseCTreeView@@MAEHAAUtagCREATESTRUCTA@@@Z
_TEXT	SEGMENT PARA USE32 PUBLIC 'CODE'
_TEXT	ENDS
;	COMDAT ??_GCXTPShellTreeBaseCTreeView@@UAEPAXI@Z
_TEXT	SEGMENT PARA USE32 PUBLIC 'CODE'
_TEXT	ENDS
;	COMDAT ??1CXTPShellTreeBaseCTreeView@@UAE@XZ
_TEXT	SEGMENT PARA USE32 PUBLIC 'CODE'
_TEXT	ENDS
;	COMDAT ?GetItemState@CXTPShellTreeBaseCTreeCtrl@@UBEIPAU_TREEITEM@@I@Z
_TEXT	SEGMENT PARA USE32 PUBLIC 'CODE'
_TEXT	ENDS
;	COMDAT ?SelectItem@CXTPShellTreeBaseCTreeCtrl@@UAEHPAU_TREEITEM@@@Z
_TEXT	SEGMENT PARA USE32 PUBLIC 'CODE'
_TEXT	ENDS
;	COMDAT ?SetItemState@CXTPShellTreeBaseCTreeCtrl@@UAEHPAU_TREEITEM@@II@Z
_TEXT	SEGMENT PARA USE32 PUBLIC 'CODE'
_TEXT	ENDS
;	COMDAT ?GetNextItem@CXTPShellTreeBaseCTreeCtrl@@UBEPAU_TREEITEM@@PAU2@I@Z
_TEXT	SEGMENT PARA USE32 PUBLIC 'CODE'
_TEXT	ENDS
;	COMDAT ?GetNextItem@CXTPShellTreeBaseCTreeCtrl@@UBEPAU_TREEITEM@@PAU2@@Z
_TEXT	SEGMENT PARA USE32 PUBLIC 'CODE'
_TEXT	ENDS
;	COMDAT ?OnNotify@CXTPShellTreeBaseCTreeCtrl@@MAEHIJPAJ@Z
_TEXT	SEGMENT PARA USE32 PUBLIC 'CODE'
_TEXT	ENDS
;	COMDAT ?PreTranslateMessage@CXTPShellTreeBaseCTreeCtrl@@MAEHPAUtagMSG@@@Z
_TEXT	SEGMENT PARA USE32 PUBLIC 'CODE'
_TEXT	ENDS
;	COMDAT ?Init@CXTPShellTreeBaseCTreeCtrl@@MAE_NXZ
_TEXT	SEGMENT PARA USE32 PUBLIC 'CODE'
_TEXT	ENDS
;	COMDAT ?PreSubclassWindow@CXTPShellTreeBaseCTreeCtrl@@MAEXXZ
_TEXT	SEGMENT PARA USE32 PUBLIC 'CODE'
_TEXT	ENDS
;	COMDAT ?PreCreateWindow@CXTPShellTreeBaseCTreeCtrl@@MAEHAAUtagCREATESTRUCTA@@@Z
_TEXT	SEGMENT PARA USE32 PUBLIC 'CODE'
_TEXT	ENDS
;	COMDAT ??_GCXTPShellTreeBaseCTreeCtrl@@UAEPAXI@Z
_TEXT	SEGMENT PARA USE32 PUBLIC 'CODE'
_TEXT	ENDS
;	COMDAT ??1CXTPShellTreeBaseCTreeCtrl@@UAE@XZ
_TEXT	SEGMENT PARA USE32 PUBLIC 'CODE'
_TEXT	ENDS
;	COMDAT ?SetEnumFlags@CXTPShellListBase@@UAEXI@Z
_TEXT	SEGMENT PARA USE32 PUBLIC 'CODE'
_TEXT	ENDS
;	COMDAT ?EnableContextMenu@CXTPShellListBase@@UAEXH@Z
_TEXT	SEGMENT PARA USE32 PUBLIC 'CODE'
_TEXT	ENDS
;	COMDAT ?SetIncludeExtensions@CXTPShellListBase@@UAEXPBD@Z
_TEXT	SEGMENT PARA USE32 PUBLIC 'CODE'
_TEXT	ENDS
;	COMDAT ?GetExtendedStyle@CXTPShellListBaseCListView@@UAEKXZ
_TEXT	SEGMENT PARA USE32 PUBLIC 'CODE'
_TEXT	ENDS
;	COMDAT ?SetExtendedStyle@CXTPShellListBaseCListView@@UAEXK@Z
_TEXT	SEGMENT PARA USE32 PUBLIC 'CODE'
_TEXT	ENDS
;	COMDAT ?OnNotify@CXTPShellListBaseCListView@@MAEHIJPAJ@Z
_TEXT	SEGMENT PARA USE32 PUBLIC 'CODE'
_TEXT	ENDS
;	COMDAT ?Init@CXTPShellListBaseCListView@@MAE_NXZ
_TEXT	SEGMENT PARA USE32 PUBLIC 'CODE'
_TEXT	ENDS
;	COMDAT ?PreSubclassWindow@CXTPShellListBaseCListView@@MAEXXZ
_TEXT	SEGMENT PARA USE32 PUBLIC 'CODE'
_TEXT	ENDS
;	COMDAT ?PreCreateWindow@CXTPShellListBaseCListView@@MAEHAAUtagCREATESTRUCTA@@@Z
_TEXT	SEGMENT PARA USE32 PUBLIC 'CODE'
_TEXT	ENDS
;	COMDAT ??_GCXTPShellListBaseCListView@@UAEPAXI@Z
_TEXT	SEGMENT PARA USE32 PUBLIC 'CODE'
_TEXT	ENDS
;	COMDAT ??1CXTPShellListBaseCListView@@UAE@XZ
_TEXT	SEGMENT PARA USE32 PUBLIC 'CODE'
_TEXT	ENDS
;	COMDAT ?GetExtendedStyle@CXTPShellListBaseCListCtrl@@UAEKXZ
_TEXT	SEGMENT PARA USE32 PUBLIC 'CODE'
_TEXT	ENDS
;	COMDAT ?SetExtendedStyle@CXTPShellListBaseCListCtrl@@UAEXK@Z
_TEXT	SEGMENT PARA USE32 PUBLIC 'CODE'
_TEXT	ENDS
;	COMDAT ?OnNotify@CXTPShellListBaseCListCtrl@@MAEHIJPAJ@Z
_TEXT	SEGMENT PARA USE32 PUBLIC 'CODE'
_TEXT	ENDS
;	COMDAT ?Init@CXTPShellListBaseCListCtrl@@MAE_NXZ
_TEXT	SEGMENT PARA USE32 PUBLIC 'CODE'
_TEXT	ENDS
;	COMDAT ?PreSubclassWindow@CXTPShellListBaseCListCtrl@@MAEXXZ
_TEXT	SEGMENT PARA USE32 PUBLIC 'CODE'
_TEXT	ENDS
;	COMDAT ?PreCreateWindow@CXTPShellListBaseCListCtrl@@MAEHAAUtagCREATESTRUCTA@@@Z
_TEXT	SEGMENT PARA USE32 PUBLIC 'CODE'
_TEXT	ENDS
;	COMDAT ??_GCXTPShellListBaseCListCtrl@@UAEPAXI@Z
_TEXT	SEGMENT PARA USE32 PUBLIC 'CODE'
_TEXT	ENDS
;	COMDAT ??1CXTPShellListBaseCListCtrl@@UAE@XZ
_TEXT	SEGMENT PARA USE32 PUBLIC 'CODE'
_TEXT	ENDS
;	COMDAT ?GetMinSize@CXTPSearchOptionsCtrl@@QAEHXZ
_TEXT	SEGMENT PARA USE32 PUBLIC 'CODE'
_TEXT	ENDS
;	COMDAT ?GetMaxSize@CXTPSearchOptionsCtrl@@QAEHXZ
_TEXT	SEGMENT PARA USE32 PUBLIC 'CODE'
_TEXT	ENDS
;	COMDAT ??4CXTColorRef@@QAEAAV0@K@Z
_TEXT	SEGMENT PARA USE32 PUBLIC 'CODE'
_TEXT	ENDS
;	COMDAT ?fixColorValue@CXTColorRef@@SAHH@Z
_TEXT	SEGMENT PARA USE32 PUBLIC 'CODE'
_TEXT	ENDS
;	COMDAT ?getRValue@CXTColorRef@@QBEHXZ
_TEXT	SEGMENT PARA USE32 PUBLIC 'CODE'
_TEXT	ENDS
;	COMDAT ?getGValue@CXTColorRef@@QBEHXZ
_TEXT	SEGMENT PARA USE32 PUBLIC 'CODE'
_TEXT	ENDS
;	COMDAT ?getBValue@CXTColorRef@@QBEHXZ
_TEXT	SEGMENT PARA USE32 PUBLIC 'CODE'
_TEXT	ENDS
;	COMDAT ??_GCXTComboBoxEx@@UAEPAXI@Z
_TEXT	SEGMENT PARA USE32 PUBLIC 'CODE'
_TEXT	ENDS
;	COMDAT ?Create@CXTComboBoxEx@@EAEHPBD0KABUtagRECT@@PAVCWnd@@IPAUCCreateContext@@@Z
_TEXT	SEGMENT PARA USE32 PUBLIC 'CODE'
_TEXT	ENDS
;	COMDAT ??_GCXTDateTimeCtrl@@UAEPAXI@Z
_TEXT	SEGMENT PARA USE32 PUBLIC 'CODE'
_TEXT	ENDS
;	COMDAT ?Create@CXTDateTimeCtrl@@EAEHPBD0KABUtagRECT@@PAVCWnd@@IPAUCCreateContext@@@Z
_TEXT	SEGMENT PARA USE32 PUBLIC 'CODE'
_TEXT	ENDS
;	COMDAT ??_GCXTMonthCalCtrl@@UAEPAXI@Z
_TEXT	SEGMENT PARA USE32 PUBLIC 'CODE'
_TEXT	ENDS
;	COMDAT ?Create@CXTMonthCalCtrl@@EAEHPBD0KABUtagRECT@@PAVCWnd@@IPAUCCreateContext@@@Z
_TEXT	SEGMENT PARA USE32 PUBLIC 'CODE'
_TEXT	ENDS
;	COMDAT ??_GCXTPCommandBarList@@UAEPAXI@Z
_TEXT	SEGMENT PARA USE32 PUBLIC 'CODE'
_TEXT	ENDS
;	COMDAT ?DelayLayout@CXTPCommandBar@@QAEXXZ
_TEXT	SEGMENT PARA USE32 PUBLIC 'CODE'
_TEXT	ENDS
;	COMDAT ?GetShortcutText@CXTPControlAction@@QBE?AVCString@@XZ
_TEXT	SEGMENT PARA USE32 PUBLIC 'CODE'
_TEXT	ENDS
;	COMDAT ?GetDescription@CXTPControlAction@@QBE?AVCString@@XZ
_TEXT	SEGMENT PARA USE32 PUBLIC 'CODE'
_TEXT	ENDS
;	COMDAT ?GetTooltip@CXTPControlAction@@QBE?AVCString@@XZ
_TEXT	SEGMENT PARA USE32 PUBLIC 'CODE'
_TEXT	ENDS
;	COMDAT ?GetCaption@CXTPControlAction@@QBE?AVCString@@XZ
_TEXT	SEGMENT PARA USE32 PUBLIC 'CODE'
_TEXT	ENDS
;	COMDAT ?GetIconId@CXTPControlAction@@QBEHXZ
_TEXT	SEGMENT PARA USE32 PUBLIC 'CODE'
_TEXT	ENDS
;	COMDAT ?GetHelpId@CXTPControlAction@@QBEHXZ
_TEXT	SEGMENT PARA USE32 PUBLIC 'CODE'
_TEXT	ENDS
;	COMDAT ?GetChecked@CXTPControlAction@@QBEHXZ
_TEXT	SEGMENT PARA USE32 PUBLIC 'CODE'
_TEXT	ENDS
;	COMDAT ?IsVisible@CXTPControlAction@@QBEHXZ
_TEXT	SEGMENT PARA USE32 PUBLIC 'CODE'
_TEXT	ENDS
;	COMDAT ?GetCategory@CXTPControlAction@@QBE?AVCString@@XZ
_TEXT	SEGMENT PARA USE32 PUBLIC 'CODE'
_TEXT	ENDS
;	COMDAT ?GetKeyboardTip@CXTPControlAction@@QBE?AVCString@@XZ
_TEXT	SEGMENT PARA USE32 PUBLIC 'CODE'
_TEXT	ENDS
;	COMDAT ?IsTransparent@CXTPControl@@UBEHXZ
_TEXT	SEGMENT PARA USE32 PUBLIC 'CODE'
_TEXT	ENDS
;	COMDAT ?SetParent@CXTPControl@@MAEXPAVCXTPCommandBar@@@Z
_TEXT	SEGMENT PARA USE32 PUBLIC 'CODE'
_TEXT	ENDS
;	COMDAT ?GetDescription@CXTPControl@@UBE?AVCString@@XZ
_TEXT	SEGMENT PARA USE32 PUBLIC 'CODE'
_TEXT	ENDS
;	COMDAT ?GetTooltip@CXTPControl@@UBE?AVCString@@XZ
_TEXT	SEGMENT PARA USE32 PUBLIC 'CODE'
_TEXT	ENDS
;	COMDAT ?GetCaption@CXTPControl@@UBE?AVCString@@XZ
_TEXT	SEGMENT PARA USE32 PUBLIC 'CODE'
_TEXT	ENDS
;	COMDAT ?SetBeginGroup@CXTPControl@@UAEXH@Z
_TEXT	SEGMENT PARA USE32 PUBLIC 'CODE'
_TEXT	ENDS
;	COMDAT ?OnEnabledChanged@CXTPControl@@UAEXXZ
_TEXT	SEGMENT PARA USE32 PUBLIC 'CODE'
_TEXT	ENDS
;	COMDAT ?SetEnabled@CXTPControl@@UAEXH@Z
_TEXT	SEGMENT PARA USE32 PUBLIC 'CODE'
_TEXT	ENDS
;	COMDAT ?SetChecked@CXTPControl@@UAEXH@Z
_TEXT	SEGMENT PARA USE32 PUBLIC 'CODE'
_TEXT	ENDS
;	COMDAT ?GetPressed@CXTPControl@@UBEHXZ
_TEXT	SEGMENT PARA USE32 PUBLIC 'CODE'
_TEXT	ENDS
;	COMDAT ?SetRect@CXTPControl@@UAEXVCRect@@@Z
_TEXT	SEGMENT PARA USE32 PUBLIC 'CODE'
_TEXT	ENDS
;	COMDAT ?IsVisible@CXTPControl@@UBEHK@Z
_TEXT	SEGMENT PARA USE32 PUBLIC 'CODE'
_TEXT	ENDS
;	COMDAT ?SetHideFlags@CXTPControl@@UAEXK@Z
_TEXT	SEGMENT PARA USE32 PUBLIC 'CODE'
_TEXT	ENDS
;	COMDAT ?SetHideFlag@CXTPControl@@QAEHW4XTPControlHideFlags@@H@Z
_TEXT	SEGMENT PARA USE32 PUBLIC 'CODE'
_TEXT	ENDS
;	COMDAT ?SetStyle@CXTPControl@@QAEXW4XTPButtonStyle@@@Z
_TEXT	SEGMENT PARA USE32 PUBLIC 'CODE'
_TEXT	ENDS
;	COMDAT ?GetCommandBar@CXTPControl@@UBEPAVCXTPCommandBar@@XZ
_TEXT	SEGMENT PARA USE32 PUBLIC 'CODE'
_TEXT	ENDS
;	COMDAT ?GetCustomizeMinWidth@CXTPControl@@MBEHXZ
_TEXT	SEGMENT PARA USE32 PUBLIC 'CODE'
_TEXT	ENDS
;	COMDAT ?GetCustomizeMinHeight@CXTPControl@@MBEHXZ
_TEXT	SEGMENT PARA USE32 PUBLIC 'CODE'
_TEXT	ENDS
;	COMDAT ?SetWidth@CXTPControl@@UAEXH@Z
_TEXT	SEGMENT PARA USE32 PUBLIC 'CODE'
_TEXT	ENDS
;	COMDAT ?SetHeight@CXTPControl@@UAEXH@Z
_TEXT	SEGMENT PARA USE32 PUBLIC 'CODE'
_TEXT	ENDS
;	COMDAT ?OnHookKeyDown@CXTPControl@@MAEHIJ@Z
_TEXT	SEGMENT PARA USE32 PUBLIC 'CODE'
_TEXT	ENDS
;	COMDAT ?OnSetPopup@CXTPControl@@MAEHH@Z
_TEXT	SEGMENT PARA USE32 PUBLIC 'CODE'
_TEXT	ENDS
;	COMDAT ?OnLButtonUp@CXTPControl@@MAEXVCPoint@@@Z
_TEXT	SEGMENT PARA USE32 PUBLIC 'CODE'
_TEXT	ENDS
;	COMDAT ?OnRButtonDown@CXTPControl@@MAEHVCPoint@@@Z
_TEXT	SEGMENT PARA USE32 PUBLIC 'CODE'
_TEXT	ENDS
;	COMDAT ?OnRButtonUp@CXTPControl@@MAEHVCPoint@@@Z
_TEXT	SEGMENT PARA USE32 PUBLIC 'CODE'
_TEXT	ENDS
;	COMDAT ?OnMouseMove@CXTPControl@@MAEXVCPoint@@@Z
_TEXT	SEGMENT PARA USE32 PUBLIC 'CODE'
_TEXT	ENDS
;	COMDAT ?IsFocusable@CXTPControl@@MBEHXZ
_TEXT	SEGMENT PARA USE32 PUBLIC 'CODE'
_TEXT	ENDS
;	COMDAT ?SetFocused@CXTPControl@@UAEXH@Z
_TEXT	SEGMENT PARA USE32 PUBLIC 'CODE'
_TEXT	ENDS
;	COMDAT ?IsFocused@CXTPControl@@UBEHXZ
_TEXT	SEGMENT PARA USE32 PUBLIC 'CODE'
_TEXT	ENDS
;	COMDAT ?OnCalcDynamicSize@CXTPControl@@UAEXK@Z
_TEXT	SEGMENT PARA USE32 PUBLIC 'CODE'
_TEXT	ENDS
;	COMDAT ?OnHookMouseWheel@CXTPControl@@MAEHIFVCPoint@@@Z
_TEXT	SEGMENT PARA USE32 PUBLIC 'CODE'
_TEXT	ENDS
;	COMDAT ?GetPopuped@CXTPControl@@UBEHXZ
_TEXT	SEGMENT PARA USE32 PUBLIC 'CODE'
_TEXT	ENDS
;	COMDAT ?OnIdleUpdate@CXTPControl@@MAEXXZ
_TEXT	SEGMENT PARA USE32 PUBLIC 'CODE'
_TEXT	ENDS
;	COMDAT ?OnThemeChanged@CXTPControl@@UAEXXZ
_TEXT	SEGMENT PARA USE32 PUBLIC 'CODE'
_TEXT	ENDS
;	COMDAT ?OnActionChanging@CXTPControl@@MAEXH@Z
_TEXT	SEGMENT PARA USE32 PUBLIC 'CODE'
_TEXT	ENDS
;	COMDAT ?OnToolHitTest@CXTPControl@@MBEHVCPoint@@PAUtagTOOLINFOA@@@Z
_TEXT	SEGMENT PARA USE32 PUBLIC 'CODE'
_TEXT	ENDS
;	COMDAT ?OnCaptionChanged@CXTPControl@@MAEXXZ
_TEXT	SEGMENT PARA USE32 PUBLIC 'CODE'
_TEXT	ENDS
;	COMDAT ?SetBorders@CXTPStatusBar@@QAEXHHHH@Z
_TEXT	SEGMENT PARA USE32 PUBLIC 'CODE'
_TEXT	ENDS
;	COMDAT ??_GCXTPPaintManagerFont@@UAEPAXI@Z
_TEXT	SEGMENT PARA USE32 PUBLIC 'CODE'
_TEXT	ENDS
;	COMDAT ??1CXTPPaintManagerFont@@UAE@XZ
_TEXT	SEGMENT PARA USE32 PUBLIC 'CODE'
_TEXT	ENDS
;	COMDAT ?Init@BTNSCROLL@SCROLLINFO@CXTPPopupBar@@QAEXPAVCWnd@@I@Z
_TEXT	SEGMENT PARA USE32 PUBLIC 'CODE'
_TEXT	ENDS
;	COMDAT ?KillTimer@BTNSCROLL@SCROLLINFO@CXTPPopupBar@@QAEXXZ
_TEXT	SEGMENT PARA USE32 PUBLIC 'CODE'
_TEXT	ENDS
;	COMDAT ?SetTimer@BTNSCROLL@SCROLLINFO@CXTPPopupBar@@QAEXXZ
_TEXT	SEGMENT PARA USE32 PUBLIC 'CODE'
_TEXT	ENDS
;	COMDAT ?GetListBoxCtrl@CXTPControlComboBox@@QBEPAVCListBox@@XZ
_TEXT	SEGMENT PARA USE32 PUBLIC 'CODE'
_TEXT	ENDS
;	COMDAT ?GetCount@CXTPControlComboBox@@QBEHXZ
_TEXT	SEGMENT PARA USE32 PUBLIC 'CODE'
_TEXT	ENDS
;	COMDAT ?GetOriginalAccelerator@CXTPShortcutManager@@QBEPAVCXTPShortcutManagerAccelTable@@XZ
_TEXT	SEGMENT PARA USE32 PUBLIC 'CODE'
_TEXT	ENDS
;	COMDAT ??_GCFontDesc@CXTPControlFontComboBoxList@@QAEPAXI@Z
_TEXT	SEGMENT PARA USE32 PUBLIC 'CODE'
_TEXT	ENDS
;	COMDAT ??1CFontDesc@CXTPControlFontComboBoxList@@QAE@XZ
_TEXT	SEGMENT PARA USE32 PUBLIC 'CODE'
_TEXT	ENDS
;	COMDAT ?GetSelected@CXTPControlLabel@@UBEHXZ
_TEXT	SEGMENT PARA USE32 PUBLIC 'CODE'
_TEXT	ENDS
;	COMDAT ??_GCXTPControlLabel@@UAEPAXI@Z
_TEXT	SEGMENT PARA USE32 PUBLIC 'CODE'
_TEXT	ENDS
;	COMDAT ??1CXTPControlLabel@@UAE@XZ
_TEXT	SEGMENT PARA USE32 PUBLIC 'CODE'
_TEXT	ENDS
;	COMDAT ?IsResizable@CXTPControlGallery@@QBEHXZ
_TEXT	SEGMENT PARA USE32 PUBLIC 'CODE'
_TEXT	ENDS
;	COMDAT ?Find@CTrustedArray@CXTPMouseManager@@QBEHQAUHWND__@@@Z
_TEXT	SEGMENT PARA USE32 PUBLIC 'CODE'
_TEXT	ENDS
;	COMDAT ??_GCAlphaBitmap@CXTPImageEditorPicture@@UAEPAXI@Z
_TEXT	SEGMENT PARA USE32 PUBLIC 'CODE'
_TEXT	ENDS
;	COMDAT ??1CAlphaBitmap@CXTPImageEditorPicture@@UAE@XZ
_TEXT	SEGMENT PARA USE32 PUBLIC 'CODE'
_TEXT	ENDS
;	COMDAT ??_GCDlgToolBar@CXTPImageEditorDlg@@UAEPAXI@Z
_TEXT	SEGMENT PARA USE32 PUBLIC 'CODE'
_TEXT	ENDS
;	COMDAT ??1CDlgToolBar@CXTPImageEditorDlg@@UAE@XZ
_TEXT	SEGMENT PARA USE32 PUBLIC 'CODE'
_TEXT	ENDS
;	COMDAT ??_GCXTPCustomizeCommandsListBox@@UAEPAXI@Z
_TEXT	SEGMENT PARA USE32 PUBLIC 'CODE'
_TEXT	ENDS
;	COMDAT ??1CXTPCustomizeCommandsListBox@@UAE@XZ
_TEXT	SEGMENT PARA USE32 PUBLIC 'CODE'
_TEXT	ENDS
;	COMDAT ??_GCXTPDialog@@UAEPAXI@Z
_TEXT	SEGMENT PARA USE32 PUBLIC 'CODE'
_TEXT	ENDS
;	COMDAT ??1CXTPDialog@@UAE@XZ
_TEXT	SEGMENT PARA USE32 PUBLIC 'CODE'
_TEXT	ENDS
;	COMDAT ?GetPThis@C_m_Sink_Informator@CXTPOffice2007FrameHook@@SAPAV2@PAE@Z
_TEXT	SEGMENT PARA USE32 PUBLIC 'CODE'
_TEXT	ENDS
;	COMDAT ??0XTP_DOCKINGPANE_INFO@@QAE@PAVCXTPDockingPane@@@Z
_TEXT	SEGMENT PARA USE32 PUBLIC 'CODE'
_TEXT	ENDS
;	COMDAT ?RedrawPanes@CXTPDockingPaneManager@@QAEXXZ
_TEXT	SEGMENT PARA USE32 PUBLIC 'CODE'
_TEXT	ENDS
;	COMDAT ?GetCount@CXTPPropertyGridInplaceButtons@@QBEHXZ
_TEXT	SEGMENT PARA USE32 PUBLIC 'CODE'
_TEXT	ENDS
;	COMDAT ?GetCount@CXTPPropertyGridItems@@QBEJXZ
_TEXT	SEGMENT PARA USE32 PUBLIC 'CODE'
_TEXT	ENDS
;	COMDAT ?IsEmpty@CXTPPropertyGridItems@@QBEHXZ
_TEXT	SEGMENT PARA USE32 PUBLIC 'CODE'
_TEXT	ENDS
;	COMDAT ?GetCount@CXTPPropertyGridItemConstraints@@QBEHXZ
_TEXT	SEGMENT PARA USE32 PUBLIC 'CODE'
_TEXT	ENDS
;	COMDAT ?GetItemMetrics@CXTPPropertyGridPaintManager@@QBEPAVCXTPPropertyGridItemMetrics@@XZ
_TEXT	SEGMENT PARA USE32 PUBLIC 'CODE'
_TEXT	ENDS
;	COMDAT ?IsEmpty@CXTPPropertyGridVerbs@@QBEHXZ
_TEXT	SEGMENT PARA USE32 PUBLIC 'CODE'
_TEXT	ENDS
;	COMDAT ??_GCXTPPropertyGridInplaceMonthCal@@UAEPAXI@Z
_TEXT	SEGMENT PARA USE32 PUBLIC 'CODE'
_TEXT	ENDS
;	COMDAT ??1CXTPPropertyGridInplaceMonthCal@@UAE@XZ
_TEXT	SEGMENT PARA USE32 PUBLIC 'CODE'
_TEXT	ENDS
;	COMDAT ?XTPHeapSetCompatibilityInformation@@YAHPAX0K@Z
_TEXT	SEGMENT PARA USE32 PUBLIC 'CODE'
_TEXT	ENDS
;	COMDAT ??1CXTPHeapString@@UAE@XZ
_TEXT	SEGMENT PARA USE32 PUBLIC 'CODE'
_TEXT	ENDS
;	COMDAT ?IsEmpty@CXTPHeapString@@UBEHXZ
_TEXT	SEGMENT PARA USE32 PUBLIC 'CODE'
_TEXT	ENDS
;	COMDAT ??BCXTPHeapString@@QBEPBDXZ
_TEXT	SEGMENT PARA USE32 PUBLIC 'CODE'
_TEXT	ENDS
;	COMDAT ?AllocSysString@CXTPHeapString@@UBEPAGXZ
_TEXT	SEGMENT PARA USE32 PUBLIC 'CODE'
_TEXT	ENDS
;	COMDAT ?SetString@CXTPHeapString@@UAEXPBD@Z
_TEXT	SEGMENT PARA USE32 PUBLIC 'CODE'
_TEXT	ENDS
;	COMDAT ?_AllocStringData@CXTPHeapString@@MAEXH@Z
_TEXT	SEGMENT PARA USE32 PUBLIC 'CODE'
_TEXT	ENDS
;	COMDAT ?_FreeStringData@CXTPHeapString@@MAEXXZ
_TEXT	SEGMENT PARA USE32 PUBLIC 'CODE'
_TEXT	ENDS
;	COMDAT ??_GCXTPHeapString@@UAEPAXI@Z
_TEXT	SEGMENT PARA USE32 PUBLIC 'CODE'
_TEXT	ENDS
;	COMDAT ?GetCount@CXTPReportColumns@@QBEHXZ
_TEXT	SEGMENT PARA USE32 PUBLIC 'CODE'
_TEXT	ENDS
;	COMDAT ?EnablePreviewMode@CXTPReportPaintManager@@QAEXH@Z
_TEXT	SEGMENT PARA USE32 PUBLIC 'CODE'
_TEXT	ENDS
;	COMDAT ?IsPreviewMode@CXTPReportPaintManager@@QBEHXZ
_TEXT	SEGMENT PARA USE32 PUBLIC 'CODE'
_TEXT	ENDS
;	COMDAT ?SetGridColor@CXTPReportPaintManager@@QAEKK@Z
_TEXT	SEGMENT PARA USE32 PUBLIC 'CODE'
_TEXT	ENDS
;	COMDAT ?GetPaintManager@CXTPReportControl@@QBEPAVCXTPReportPaintManager@@XZ
_TEXT	SEGMENT PARA USE32 PUBLIC 'CODE'
_TEXT	ENDS
;	COMDAT ?GetNavigator@CXTPReportControl@@QBEPAVCXTPReportNavigator@@XZ
_TEXT	SEGMENT PARA USE32 PUBLIC 'CODE'
_TEXT	ENDS
;	COMDAT ?GetItemCount@CXTPReportRecord@@QBEHXZ
_TEXT	SEGMENT PARA USE32 PUBLIC 'CODE'
_TEXT	ENDS
;	COMDAT ??_GXTP_REPORTRECORDITEM_DRAWARGS@@UAEPAXI@Z
_TEXT	SEGMENT PARA USE32 PUBLIC 'CODE'
_TEXT	ENDS
;	COMDAT ??1XTP_REPORTRECORDITEM_DRAWARGS@@UAE@XZ
_TEXT	SEGMENT PARA USE32 PUBLIC 'CODE'
_TEXT	ENDS
;	COMDAT ?Reset@XTP_REPORTRECORDITEM_METRICS@@QAEXXZ
_TEXT	SEGMENT PARA USE32 PUBLIC 'CODE'
_TEXT	ENDS
;	COMDAT ??_GXTP_REPORTRECORDITEM_METRICS@@UAEPAXI@Z
_TEXT	SEGMENT PARA USE32 PUBLIC 'CODE'
_TEXT	ENDS
;	COMDAT ??1XTP_REPORTRECORDITEM_METRICS@@UAE@XZ
_TEXT	SEGMENT PARA USE32 PUBLIC 'CODE'
_TEXT	ENDS
;	COMDAT ?GetPThis@C_m_Sink_Informator@CXTPCalendarController@@SAPAV2@PAE@Z
_TEXT	SEGMENT PARA USE32 PUBLIC 'CODE'
_TEXT	ENDS
;	COMDAT ?_RoundDateTime_dbl@CXTPCalendarUtils@@SANN@Z
_TEXT	SEGMENT PARA USE32 PUBLIC 'CODE'
_TEXT	ENDS
;	COMDAT ?_ResetTime_dbl@CXTPCalendarUtils@@SANN@Z
_TEXT	SEGMENT PARA USE32 PUBLIC 'CODE'
_TEXT	ENDS
;	COMDAT ?_ResetDate_dbl@CXTPCalendarUtils@@SANN@Z
_TEXT	SEGMENT PARA USE32 PUBLIC 'CODE'
_TEXT	ENDS
;	COMDAT ?ResetTime@CXTPCalendarUtils@@SA?BVCOleDateTime@@ABV2@@Z
_TEXT	SEGMENT PARA USE32 PUBLIC 'CODE'
_TEXT	ENDS
;	COMDAT ?SetTime_235959@CXTPCalendarUtils@@SA?BVCOleDateTime@@ABV2@@Z
_TEXT	SEGMENT PARA USE32 PUBLIC 'CODE'
_TEXT	ENDS
;	COMDAT ?GetDayOfWeekMask@CXTPCalendarUtils@@SAHH@Z
_TEXT	SEGMENT PARA USE32 PUBLIC 'CODE'
_TEXT	ENDS
;	COMDAT ?GetMaxMonthDay@CXTPCalendarUtils@@SAHVCOleDateTime@@@Z
_TEXT	SEGMENT PARA USE32 PUBLIC 'CODE'
_TEXT	ENDS
;	COMDAT ?UpdateMonthDay@CXTPCalendarUtils@@SAHAAVCOleDateTime@@H@Z
_TEXT	SEGMENT PARA USE32 PUBLIC 'CODE'
_TEXT	ENDS
;	COMDAT ?ShiftDate_Month@CXTPCalendarUtils@@SAHAAVCOleDateTime@@H@Z
_TEXT	SEGMENT PARA USE32 PUBLIC 'CODE'
_TEXT	ENDS
;	COMDAT ?ShiftDate_Year@CXTPCalendarUtils@@SAHAAVCOleDateTime@@H@Z
_TEXT	SEGMENT PARA USE32 PUBLIC 'CODE'
_TEXT	ENDS
;	COMDAT ?RetriveEventEndDate@CXTPCalendarUtils@@SA?AVCOleDateTime@@ABV2@0@Z
_TEXT	SEGMENT PARA USE32 PUBLIC 'CODE'
_TEXT	ENDS
;	COMDAT ?Minutes2Span@CXTPCalendarUtils@@SA?AVCOleDateTimeSpan@@H@Z
_TEXT	SEGMENT PARA USE32 PUBLIC 'CODE'
_TEXT	ENDS
;	COMDAT ?GetAsSystemTime@CXTPCalendarUtils@@SAHABVCOleDateTime@@AAU_SYSTEMTIME@@@Z
_TEXT	SEGMENT PARA USE32 PUBLIC 'CODE'
_TEXT	ENDS
;	COMDAT ?GetTotalDays@CXTPCalendarUtils@@SAJABVCOleDateTimeSpan@@@Z
_TEXT	SEGMENT PARA USE32 PUBLIC 'CODE'
_TEXT	ENDS
;	COMDAT ?_DoubleToLONG@CXTPCalendarUtils@@SAJN@Z
_TEXT	SEGMENT PARA USE32 PUBLIC 'CODE'
_TEXT	ENDS
;	COMDAT ?GetTotalMinutes@CXTPCalendarUtils@@SAJABVCOleDateTimeSpan@@@Z
_TEXT	SEGMENT PARA USE32 PUBLIC 'CODE'
_TEXT	ENDS
;	COMDAT ??0XTP_CALENDAR_HITTESTINFO@@QAE@XZ
_TEXT	SEGMENT PARA USE32 PUBLIC 'CODE'
_TEXT	ENDS
;	COMDAT ??1XTP_CALENDAR_HITTESTINFO@@UAE@XZ
_TEXT	SEGMENT PARA USE32 PUBLIC 'CODE'
_TEXT	ENDS
;	COMDAT ??8XTP_CALENDAR_HITTESTINFO@@QAEHABU0@@Z
_TEXT	SEGMENT PARA USE32 PUBLIC 'CODE'
_TEXT	ENDS
;	COMDAT ??4XTP_CALENDAR_HITTESTINFO@@QAEABU0@ABU0@@Z
_TEXT	SEGMENT PARA USE32 PUBLIC 'CODE'
_TEXT	ENDS
;	COMDAT ??_GXTP_CALENDAR_HITTESTINFO@@UAEPAXI@Z
_TEXT	SEGMENT PARA USE32 PUBLIC 'CODE'
_TEXT	ENDS
;	COMDAT ??0XTP_CALENDAR_HITTESTINFO_DAY_VIEW@@QAE@XZ
_TEXT	SEGMENT PARA USE32 PUBLIC 'CODE'
_TEXT	ENDS
;	COMDAT ??_GXTP_CALENDAR_HITTESTINFO_DAY_VIEW@@UAEPAXI@Z
_TEXT	SEGMENT PARA USE32 PUBLIC 'CODE'
_TEXT	ENDS
;	COMDAT ??1XTP_CALENDAR_HITTESTINFO_DAY_VIEW@@UAE@XZ
_TEXT	SEGMENT PARA USE32 PUBLIC 'CODE'
_TEXT	ENDS
;	COMDAT ??0XTP_CALENDAR_MONTHVIEW_DAYPOS@@QAE@H@Z
_TEXT	SEGMENT PARA USE32 PUBLIC 'CODE'
_TEXT	ENDS
;	COMDAT ??1XTP_CALENDAR_PATTERN_END@@UAE@XZ
_TEXT	SEGMENT PARA USE32 PUBLIC 'CODE'
_TEXT	ENDS
;	COMDAT ??_GXTP_CALENDAR_PATTERN_END@@UAEPAXI@Z
_TEXT	SEGMENT PARA USE32 PUBLIC 'CODE'
_TEXT	ENDS
;	COMDAT ??1XTP_DAYITEM_METRICS@@UAE@XZ
_TEXT	SEGMENT PARA USE32 PUBLIC 'CODE'
_TEXT	ENDS
;	COMDAT ??_GXTP_DAYITEM_METRICS@@UAEPAXI@Z
_TEXT	SEGMENT PARA USE32 PUBLIC 'CODE'
_TEXT	ENDS
;	COMDAT ??1CXTPDatePickerButton@@UAE@XZ
_TEXT	SEGMENT PARA USE32 PUBLIC 'CODE'
_TEXT	ENDS
;	COMDAT ??_GCXTPDatePickerButton@@UAEPAXI@Z
_TEXT	SEGMENT PARA USE32 PUBLIC 'CODE'
_TEXT	ENDS
;	COMDAT ??0CXTPCalendarViewPartFontValue@@QAE@XZ
_TEXT	SEGMENT PARA USE32 PUBLIC 'CODE'
_TEXT	ENDS
;	COMDAT ?SetStandardValue@CXTPCalendarViewPartFontValue@@QAEXPAUtagLOGFONTA@@@Z
_TEXT	SEGMENT PARA USE32 PUBLIC 'CODE'
_TEXT	ENDS
;	COMDAT ??4CXTPCalendarViewPartFontValue@@QAEABV0@PAUtagLOGFONTA@@@Z
_TEXT	SEGMENT PARA USE32 PUBLIC 'CODE'
_TEXT	ENDS
;	COMDAT ??0CXTPCalendarThemeFontValue@@QAE@XZ
_TEXT	SEGMENT PARA USE32 PUBLIC 'CODE'
_TEXT	ENDS
;	COMDAT ?SetStandardValue@CXTPCalendarThemeFontValue@@UAEXPAUtagLOGFONTA@@@Z
_TEXT	SEGMENT PARA USE32 PUBLIC 'CODE'
_TEXT	ENDS
;	COMDAT ?SetCustomValue@CXTPCalendarThemeFontValue@@UAEXPAUtagLOGFONTA@@@Z
_TEXT	SEGMENT PARA USE32 PUBLIC 'CODE'
_TEXT	ENDS
;	COMDAT ?SetStandardValue@CXTPCalendarThemeFontValue@@UAEXPAVCFont@@@Z
_TEXT	SEGMENT PARA USE32 PUBLIC 'CODE'
_TEXT	ENDS
;	COMDAT ?SetCustomValue@CXTPCalendarThemeFontValue@@UAEXPAVCFont@@@Z
_TEXT	SEGMENT PARA USE32 PUBLIC 'CODE'
_TEXT	ENDS
;	COMDAT ?CopySettings@CXTPCalendarThemeFontValue@@QAEXABV1@@Z
_TEXT	SEGMENT PARA USE32 PUBLIC 'CODE'
_TEXT	ENDS
;	COMDAT ??_GCXTPCalendarThemeFontValue@@UAEPAXI@Z
_TEXT	SEGMENT PARA USE32 PUBLIC 'CODE'
_TEXT	ENDS
;	COMDAT ??1CXTPCalendarThemeFontValue@@UAE@XZ
_TEXT	SEGMENT PARA USE32 PUBLIC 'CODE'
_TEXT	ENDS
;	COMDAT ??0CXTPCalendarThemeStringValue@@QAE@XZ
_TEXT	SEGMENT PARA USE32 PUBLIC 'CODE'
_TEXT	ENDS
;	COMDAT ?DoDestroy@CXTPCalendarThemeStringValue@@MAEXAAVCString@@@Z
_TEXT	SEGMENT PARA USE32 PUBLIC 'CODE'
_TEXT	ENDS
;	COMDAT ?DoPX_Value@CXTPCalendarThemeStringValue@@MAEXPAVCXTPPropExchange@@PBDAAVCString@@H@Z
_TEXT	SEGMENT PARA USE32 PUBLIC 'CODE'
_TEXT	ENDS
;	COMDAT ??_GCXTPCalendarThemeStringValue@@UAEPAXI@Z
_TEXT	SEGMENT PARA USE32 PUBLIC 'CODE'
_TEXT	ENDS
;	COMDAT ??1CXTPCalendarThemeStringValue@@UAE@XZ
_TEXT	SEGMENT PARA USE32 PUBLIC 'CODE'
_TEXT	ENDS
;	COMDAT ??0CXTPCalendarThemeIntValue@@QAE@XZ
_TEXT	SEGMENT PARA USE32 PUBLIC 'CODE'
_TEXT	ENDS
;	COMDAT ?DoPX_Value@CXTPCalendarThemeIntValue@@UAEXPAVCXTPPropExchange@@PBDAAHH@Z
_TEXT	SEGMENT PARA USE32 PUBLIC 'CODE'
_TEXT	ENDS
;	COMDAT ??_GCXTPCalendarThemeIntValue@@UAEPAXI@Z
_TEXT	SEGMENT PARA USE32 PUBLIC 'CODE'
_TEXT	ENDS
;	COMDAT ??1CXTPCalendarThemeIntValue@@UAE@XZ
_TEXT	SEGMENT PARA USE32 PUBLIC 'CODE'
_TEXT	ENDS
;	COMDAT ??0CXTPCalendarThemeBOOLValue@@QAE@XZ
_TEXT	SEGMENT PARA USE32 PUBLIC 'CODE'
_TEXT	ENDS
;	COMDAT ?DoPX_Value@CXTPCalendarThemeBOOLValue@@UAEXPAVCXTPPropExchange@@PBDAAHH@Z
_TEXT	SEGMENT PARA USE32 PUBLIC 'CODE'
_TEXT	ENDS
;	COMDAT ??_GCXTPCalendarThemeBOOLValue@@UAEPAXI@Z
_TEXT	SEGMENT PARA USE32 PUBLIC 'CODE'
_TEXT	ENDS
;	COMDAT ??1CXTPCalendarThemeBOOLValue@@UAE@XZ
_TEXT	SEGMENT PARA USE32 PUBLIC 'CODE'
_TEXT	ENDS
;	COMDAT ??0CXTPCalendarThemeRectValue@@QAE@XZ
_TEXT	SEGMENT PARA USE32 PUBLIC 'CODE'
_TEXT	ENDS
;	COMDAT ?DoPX_Value@CXTPCalendarThemeRectValue@@UAEXPAVCXTPPropExchange@@PBDAAVCRect@@H@Z
_TEXT	SEGMENT PARA USE32 PUBLIC 'CODE'
_TEXT	ENDS
;	COMDAT ??_GCXTPCalendarThemeRectValue@@UAEPAXI@Z
_TEXT	SEGMENT PARA USE32 PUBLIC 'CODE'
_TEXT	ENDS
;	COMDAT ??1CXTPCalendarThemeRectValue@@UAE@XZ
_TEXT	SEGMENT PARA USE32 PUBLIC 'CODE'
_TEXT	ENDS
;	COMDAT ?_Init@CXTPCalendarViewPart@@MAEXXZ
_TEXT	SEGMENT PARA USE32 PUBLIC 'CODE'
_TEXT	ENDS
;	COMDAT ?GetControlBackColor@CXTPDatePickerPaintManager@@UAEKXZ
_TEXT	SEGMENT PARA USE32 PUBLIC 'CODE'
_TEXT	ENDS
;	COMDAT ?GetDayBackColor@CXTPDatePickerPaintManager@@UAEKXZ
_TEXT	SEGMENT PARA USE32 PUBLIC 'CODE'
_TEXT	ENDS
;	COMDAT ?GetDayTextColor@CXTPDatePickerPaintManager@@UAEKXZ
_TEXT	SEGMENT PARA USE32 PUBLIC 'CODE'
_TEXT	ENDS
;	COMDAT ?GetDayTextFont@CXTPDatePickerPaintManager@@UAEPAVCFont@@XZ
_TEXT	SEGMENT PARA USE32 PUBLIC 'CODE'
_TEXT	ENDS
;	COMDAT ?GetDayTextFontBold@CXTPDatePickerPaintManager@@UAEPAVCFont@@XZ
_TEXT	SEGMENT PARA USE32 PUBLIC 'CODE'
_TEXT	ENDS
;	COMDAT ?GetNonMonthDayBackColor@CXTPDatePickerPaintManager@@UAEKXZ
_TEXT	SEGMENT PARA USE32 PUBLIC 'CODE'
_TEXT	ENDS
;	COMDAT ?GetNonMonthDayTextColor@CXTPDatePickerPaintManager@@UAEKXZ
_TEXT	SEGMENT PARA USE32 PUBLIC 'CODE'
_TEXT	ENDS
;	COMDAT ?GetSelectedDayBackColor@CXTPDatePickerPaintManager@@UAEKXZ
_TEXT	SEGMENT PARA USE32 PUBLIC 'CODE'
_TEXT	ENDS
;	COMDAT ?GetSelectedDayTextColor@CXTPDatePickerPaintManager@@UAEKXZ
_TEXT	SEGMENT PARA USE32 PUBLIC 'CODE'
_TEXT	ENDS
;	COMDAT ?GetHeaderBackColor@CXTPDatePickerPaintManager@@UAEKXZ
_TEXT	SEGMENT PARA USE32 PUBLIC 'CODE'
_TEXT	ENDS
;	COMDAT ?GetHeaderTextColor@CXTPDatePickerPaintManager@@UAEKXZ
_TEXT	SEGMENT PARA USE32 PUBLIC 'CODE'
_TEXT	ENDS
;	COMDAT ?GetDaysOfWeekBackColor@CXTPDatePickerPaintManager@@UAEKXZ
_TEXT	SEGMENT PARA USE32 PUBLIC 'CODE'
_TEXT	ENDS
;	COMDAT ?GetDaysOfWeekTextColor@CXTPDatePickerPaintManager@@UAEKXZ
_TEXT	SEGMENT PARA USE32 PUBLIC 'CODE'
_TEXT	ENDS
;	COMDAT ?GetWeekNumbersBackColor@CXTPDatePickerPaintManager@@UAEKXZ
_TEXT	SEGMENT PARA USE32 PUBLIC 'CODE'
_TEXT	ENDS
;	COMDAT ?GetWeekNumbersTextColor@CXTPDatePickerPaintManager@@UAEKXZ
_TEXT	SEGMENT PARA USE32 PUBLIC 'CODE'
_TEXT	ENDS
;	COMDAT ?GetListControlBackColor@CXTPDatePickerPaintManager@@UAEKXZ
_TEXT	SEGMENT PARA USE32 PUBLIC 'CODE'
_TEXT	ENDS
;	COMDAT ?GetListControlTextColor@CXTPDatePickerPaintManager@@UAEKXZ
_TEXT	SEGMENT PARA USE32 PUBLIC 'CODE'
_TEXT	ENDS
;	COMDAT ?GetHighlightTodayColor@CXTPDatePickerPaintManager@@UAEKXZ
_TEXT	SEGMENT PARA USE32 PUBLIC 'CODE'
_TEXT	ENDS
;	COMDAT ?EnableTheme@CXTPDatePickerPaintManager@@UAEXH@Z
_TEXT	SEGMENT PARA USE32 PUBLIC 'CODE'
_TEXT	ENDS
;	COMDAT ?GetCursorBack@CXTPDatePickerPaintManager@@UAEPAUHICON__@@XZ
_TEXT	SEGMENT PARA USE32 PUBLIC 'CODE'
_TEXT	ENDS
;	COMDAT ?GetControl@CXTPDatePickerPaintManager@@MAEPAVCXTPDatePickerControl@@XZ
_TEXT	SEGMENT PARA USE32 PUBLIC 'CODE'
_TEXT	ENDS
;	COMDAT ?RefreshMetrics@CXTPDatePickerThemePart@@UAEXXZ
_TEXT	SEGMENT PARA USE32 PUBLIC 'CODE'
_TEXT	ENDS
;	COMDAT ??_GCXTPDatePickerThemePart@@UAEPAXI@Z
_TEXT	SEGMENT PARA USE32 PUBLIC 'CODE'
_TEXT	ENDS
;	COMDAT ??1CXTPDatePickerThemePart@@UAE@XZ
_TEXT	SEGMENT PARA USE32 PUBLIC 'CODE'
_TEXT	ENDS
;	COMDAT ?SetStandardValue@CThemeFontColorSet@CXTPDatePickerTheme@@QAEXABV12@@Z
_TEXT	SEGMENT PARA USE32 PUBLIC 'CODE'
_TEXT	ENDS
;	COMDAT ?GetPThis@C_m_Sink_Informator@CXTPDatePickerTheme@@SAPAV2@PAE@Z
_TEXT	SEGMENT PARA USE32 PUBLIC 'CODE'
_TEXT	ENDS
;	COMDAT ??_GCXTPDatePickerTheme@@UAEPAXI@Z
_TEXT	SEGMENT PARA USE32 PUBLIC 'CODE'
_TEXT	ENDS
;	COMDAT ??1CXTPDatePickerThemeOffice2007@@UAE@XZ
_TEXT	SEGMENT PARA USE32 PUBLIC 'CODE'
_TEXT	ENDS
;	COMDAT ?GetDayPartX@CXTPDatePickerThemeOffice2007@@UAEPAVCTODay@1@XZ
_TEXT	SEGMENT PARA USE32 PUBLIC 'CODE'
_TEXT	ENDS
;	COMDAT ?GetDayPart@CXTPDatePickerThemeOffice2007@@UAEPAVCTODay@CXTPDatePickerTheme@@XZ
_TEXT	SEGMENT PARA USE32 PUBLIC 'CODE'
_TEXT	ENDS
;	COMDAT ?GetMonthHeaderPartX@CXTPDatePickerThemeOffice2007@@UAEPAVCTOMonthHeader@1@XZ
_TEXT	SEGMENT PARA USE32 PUBLIC 'CODE'
_TEXT	ENDS
;	COMDAT ?GetMonthHeaderPart@CXTPDatePickerThemeOffice2007@@UAEPAVCTOMonthHeader@CXTPDatePickerTheme@@XZ
_TEXT	SEGMENT PARA USE32 PUBLIC 'CODE'
_TEXT	ENDS
;	COMDAT ?GetWeekDayPartX@CXTPDatePickerThemeOffice2007@@UAEPAVCTOWeekDay@1@XZ
_TEXT	SEGMENT PARA USE32 PUBLIC 'CODE'
_TEXT	ENDS
;	COMDAT ?GetWeekDayPart@CXTPDatePickerThemeOffice2007@@UAEPAVCTOWeekDay@CXTPDatePickerTheme@@XZ
_TEXT	SEGMENT PARA USE32 PUBLIC 'CODE'
_TEXT	ENDS
;	COMDAT ?GetWeekNumberPartX@CXTPDatePickerThemeOffice2007@@UAEPAVCTOWeekNumber@1@XZ
_TEXT	SEGMENT PARA USE32 PUBLIC 'CODE'
_TEXT	ENDS
;	COMDAT ?GetWeekNumberPart@CXTPDatePickerThemeOffice2007@@UAEPAVCTOWeekNumber@CXTPDatePickerTheme@@XZ
_TEXT	SEGMENT PARA USE32 PUBLIC 'CODE'
_TEXT	ENDS
;	COMDAT ?GetButtonPartX@CXTPDatePickerThemeOffice2007@@UAEPAVCTOButton@1@XZ
_TEXT	SEGMENT PARA USE32 PUBLIC 'CODE'
_TEXT	ENDS
;	COMDAT ?GetButtonPart@CXTPDatePickerThemeOffice2007@@UAEPAVCTOButton@CXTPDatePickerTheme@@XZ
_TEXT	SEGMENT PARA USE32 PUBLIC 'CODE'
_TEXT	ENDS
;	COMDAT ??_GCXTPDatePickerThemeOffice2007@@UAEPAXI@Z
_TEXT	SEGMENT PARA USE32 PUBLIC 'CODE'
_TEXT	ENDS
;	COMDAT ?GetPThis@C_m_Sink_DP_Informator@CXTPCalendarControl@@SAPAV2@PAE@Z
_TEXT	SEGMENT PARA USE32 PUBLIC 'CODE'
_TEXT	ENDS
;	COMDAT ?GetCount@CXTPCalendarEvents@@QBEHXZ
_TEXT	SEGMENT PARA USE32 PUBLIC 'CODE'
_TEXT	ENDS
;	COMDAT ??1CXTPCalendarEventLabel@@UAE@XZ
_TEXT	SEGMENT PARA USE32 PUBLIC 'CODE'
_TEXT	ENDS
;	COMDAT ??_GCXTPCalendarEventLabel@@UAEPAXI@Z
_TEXT	SEGMENT PARA USE32 PUBLIC 'CODE'
_TEXT	ENDS
;	COMDAT ?ScrollV@CXTPCalendarView@@UAEXHH@Z
_TEXT	SEGMENT PARA USE32 PUBLIC 'CODE'
_TEXT	ENDS
;	COMDAT ?ScrollH@CXTPCalendarView@@UAEXHH@Z
_TEXT	SEGMENT PARA USE32 PUBLIC 'CODE'
_TEXT	ENDS
;	COMDAT ?OnScrollEnd@CXTPCalendarView@@UAEXH@Z
_TEXT	SEGMENT PARA USE32 PUBLIC 'CODE'
_TEXT	ENDS
;	COMDAT ?GetScrollBarInfoV@CXTPCalendarView@@UAEHPAUtagSCROLLINFO@@@Z
_TEXT	SEGMENT PARA USE32 PUBLIC 'CODE'
_TEXT	ENDS
;	COMDAT ?GetScrollBarInfoH@CXTPCalendarView@@UAEHPAUtagSCROLLINFO@@PAH@Z
_TEXT	SEGMENT PARA USE32 PUBLIC 'CODE'
_TEXT	ENDS
;	COMDAT ?Draw@CXTPCalendarView@@UAEXPAVCDC@@@Z
_TEXT	SEGMENT PARA USE32 PUBLIC 'CODE'
_TEXT	ENDS
;	COMDAT ?Draw2@CXTPCalendarView@@UAEXPAVCDC@@@Z
_TEXT	SEGMENT PARA USE32 PUBLIC 'CODE'
_TEXT	ENDS
;	COMDAT ??1CUndoBuffer@CXTPCalendarView@@UAE@XZ
_TEXT	SEGMENT PARA USE32 PUBLIC 'CODE'
_TEXT	ENDS
;	COMDAT ?RemoveAll@CUndoBuffer@CXTPCalendarView@@QAEXXZ
_TEXT	SEGMENT PARA USE32 PUBLIC 'CODE'
_TEXT	ENDS
;	COMDAT ??0SUndoAction@CUndoBuffer@CXTPCalendarView@@QAE@PAVCXTPCalendarEvent@@0@Z
_TEXT	SEGMENT PARA USE32 PUBLIC 'CODE'
_TEXT	ENDS
;	COMDAT ??1SUndoAction@CUndoBuffer@CXTPCalendarView@@UAE@XZ
_TEXT	SEGMENT PARA USE32 PUBLIC 'CODE'
_TEXT	ENDS
;	COMDAT ??4SUndoAction@CUndoBuffer@CXTPCalendarView@@QAEABU012@ABU012@@Z
_TEXT	SEGMENT PARA USE32 PUBLIC 'CODE'
_TEXT	ENDS
;	COMDAT ??_GCUndoBuffer@CXTPCalendarView@@UAEPAXI@Z
_TEXT	SEGMENT PARA USE32 PUBLIC 'CODE'
_TEXT	ENDS
;	COMDAT ??_GSUndoAction@CUndoBuffer@CXTPCalendarView@@UAEPAXI@Z
_TEXT	SEGMENT PARA USE32 PUBLIC 'CODE'
_TEXT	ENDS
;	COMDAT ?GetCalendarControl@CXTPCalendarView@@UBEPAVCXTPCalendarControl@@XZ
_TEXT	SEGMENT PARA USE32 PUBLIC 'CODE'
_TEXT	ENDS
;	COMDAT ?GetDraggingMode@CXTPCalendarView@@UBE?AW4XTPCalendarDraggingMode@@XZ
_TEXT	SEGMENT PARA USE32 PUBLIC 'CODE'
_TEXT	ENDS
;	COMDAT ?GetRowHeight@CXTPCalendarView@@UBEHXZ
_TEXT	SEGMENT PARA USE32 PUBLIC 'CODE'
_TEXT	ENDS
;	COMDAT ?GetStartEditSubjectTimeOut@CXTPCalendarView@@UBEIXZ
_TEXT	SEGMENT PARA USE32 PUBLIC 'CODE'
_TEXT	ENDS
;	COMDAT ?IsEditingSubject@CXTPCalendarView@@UBEHXZ
_TEXT	SEGMENT PARA USE32 PUBLIC 'CODE'
_TEXT	ENDS
;	COMDAT ?EmptyUndoBuffer@CXTPCalendarView@@UAEXXZ
_TEXT	SEGMENT PARA USE32 PUBLIC 'CODE'
_TEXT	ENDS
;	COMDAT ?GetDayHeaderFormat@CXTPCalendarView@@UAE?AVCString@@XZ
_TEXT	SEGMENT PARA USE32 PUBLIC 'CODE'
_TEXT	ENDS
;	COMDAT ?SetDayHeaderFormat@CXTPCalendarView@@UAEXVCString@@@Z
_TEXT	SEGMENT PARA USE32 PUBLIC 'CODE'
_TEXT	ENDS
;	COMDAT ?EnableVScroll@CXTPCalendarView@@UAEXH@Z
_TEXT	SEGMENT PARA USE32 PUBLIC 'CODE'
_TEXT	ENDS
;	COMDAT ?EnableHScroll@CXTPCalendarView@@UAEXH@Z
_TEXT	SEGMENT PARA USE32 PUBLIC 'CODE'
_TEXT	ENDS
;	COMDAT ?IsHScrollEnabled@CXTPCalendarView@@UAEHXZ
_TEXT	SEGMENT PARA USE32 PUBLIC 'CODE'
_TEXT	ENDS
;	COMDAT ?IsVScrollEnabled@CXTPCalendarView@@UAEHXZ
_TEXT	SEGMENT PARA USE32 PUBLIC 'CODE'
_TEXT	ENDS
;	COMDAT ?SetDayHeaderFormatLong@CXTPCalendarView@@UAEXPBD@Z
_TEXT	SEGMENT PARA USE32 PUBLIC 'CODE'
_TEXT	ENDS
;	COMDAT ?SetDayHeaderFormatShortest@CXTPCalendarView@@UAEXPBD@Z
_TEXT	SEGMENT PARA USE32 PUBLIC 'CODE'
_TEXT	ENDS
;	COMDAT ?SetDayHeaderFormatMiddle@CXTPCalendarView@@UAEXPBD@Z
_TEXT	SEGMENT PARA USE32 PUBLIC 'CODE'
_TEXT	ENDS
;	COMDAT ?SetDayHeaderFormatShort@CXTPCalendarView@@UAEXPBD@Z
_TEXT	SEGMENT PARA USE32 PUBLIC 'CODE'
_TEXT	ENDS
;	COMDAT ?GetChildHandlersCount@CXTPCalendarView@@UAEHXZ
_TEXT	SEGMENT PARA USE32 PUBLIC 'CODE'
_TEXT	ENDS
;	COMDAT ?GetLayout_@CXTPCalendarView@@MAEAAUXTP_VIEW_LAYOUT@1@XZ
_TEXT	SEGMENT PARA USE32 PUBLIC 'CODE'
_TEXT	ENDS
;	COMDAT ?IsUseCellAlignedDraggingInTimeArea@CXTPCalendarView@@MAEHXZ
_TEXT	SEGMENT PARA USE32 PUBLIC 'CODE'
_TEXT	ENDS
;	COMDAT ?GetShowToolTipTimeOut@CXTPCalendarView@@UBEIXZ
_TEXT	SEGMENT PARA USE32 PUBLIC 'CODE'
_TEXT	ENDS
;	COMDAT ?SetTextOutOfBorders@CXTPCalendarViewEvent@@UAEXH@Z
_TEXT	SEGMENT PARA USE32 PUBLIC 'CODE'
_TEXT	ENDS
;	COMDAT ?IsTextOutOfBorders@CXTPCalendarViewEvent@@UAEHXZ
_TEXT	SEGMENT PARA USE32 PUBLIC 'CODE'
_TEXT	ENDS
;	COMDAT ?GetEvent@CXTPCalendarViewEvent@@UAEPAVCXTPCalendarEvent@@XZ
_TEXT	SEGMENT PARA USE32 PUBLIC 'CODE'
_TEXT	ENDS
;	COMDAT ?GetMultiDayEventFlags@CXTPCalendarViewEvent@@UBEHXZ
_TEXT	SEGMENT PARA USE32 PUBLIC 'CODE'
_TEXT	ENDS
;	COMDAT ?GetEventPlaceNumber@CXTPCalendarViewEvent@@UBEHXZ
_TEXT	SEGMENT PARA USE32 PUBLIC 'CODE'
_TEXT	ENDS
;	COMDAT ?GetEventTimelinePlaceNumber@CXTPCalendarViewEvent@@UBEHXZ
_TEXT	SEGMENT PARA USE32 PUBLIC 'CODE'
_TEXT	ENDS
;	COMDAT ?IsEditingSubject@CXTPCalendarViewEvent@@UBEHXZ
_TEXT	SEGMENT PARA USE32 PUBLIC 'CODE'
_TEXT	ENDS
;	COMDAT ?GetSubjectEditorRect@CXTPCalendarViewEvent@@UBE?AVCRect@@XZ
_TEXT	SEGMENT PARA USE32 PUBLIC 'CODE'
_TEXT	ENDS
;	COMDAT ?GetSubjectEditor@CXTPCalendarViewEvent@@UAEPAVCWnd@@XZ
_TEXT	SEGMENT PARA USE32 PUBLIC 'CODE'
_TEXT	ENDS
;	COMDAT ?GetShowToolTipTimeOut@CXTPCalendarViewEvent@@MBEIXZ
_TEXT	SEGMENT PARA USE32 PUBLIC 'CODE'
_TEXT	ENDS
;	COMDAT ?GetSubjectEditorStyles@CXTPCalendarViewEvent@@MAEKXZ
_TEXT	SEGMENT PARA USE32 PUBLIC 'CODE'
_TEXT	ENDS
;	COMDAT ?GetSubjectEditorFont@CXTPCalendarViewEvent@@MAEPAVCFont@@XZ
_TEXT	SEGMENT PARA USE32 PUBLIC 'CODE'
_TEXT	ENDS
;	COMDAT ?GetFirstClockRect@CXTPCalendarViewEvent@@UAE?AVCRect@@XZ
_TEXT	SEGMENT PARA USE32 PUBLIC 'CODE'
_TEXT	ENDS
;	COMDAT ?GetLastClockRect@CXTPCalendarViewEvent@@UAE?AVCRect@@XZ
_TEXT	SEGMENT PARA USE32 PUBLIC 'CODE'
_TEXT	ENDS
;	COMDAT ?GetTextRect@CXTPCalendarViewEvent@@UAE?AVCRect@@XZ
_TEXT	SEGMENT PARA USE32 PUBLIC 'CODE'
_TEXT	ENDS
;	COMDAT ?GetStartTimeRect@CXTPCalendarViewEvent@@UAE?AVCRect@@XZ
_TEXT	SEGMENT PARA USE32 PUBLIC 'CODE'
_TEXT	ENDS
;	COMDAT ?GetEndTimeRect@CXTPCalendarViewEvent@@UAE?AVCRect@@XZ
_TEXT	SEGMENT PARA USE32 PUBLIC 'CODE'
_TEXT	ENDS
;	COMDAT ?GetViewEventRect@CXTPCalendarViewEvent@@UAE?AVCRect@@XZ
_TEXT	SEGMENT PARA USE32 PUBLIC 'CODE'
_TEXT	ENDS
;	COMDAT ?GetViewEventRectMax@CXTPCalendarViewEvent@@UAE?AVCRect@@XZ
_TEXT	SEGMENT PARA USE32 PUBLIC 'CODE'
_TEXT	ENDS
;	COMDAT ?GetReminderGlyphRect@CXTPCalendarViewEvent@@UAE?AVCRect@@XZ
_TEXT	SEGMENT PARA USE32 PUBLIC 'CODE'
_TEXT	ENDS
;	COMDAT ?GetRecurrenceGlyphRect@CXTPCalendarViewEvent@@UAE?AVCRect@@XZ
_TEXT	SEGMENT PARA USE32 PUBLIC 'CODE'
_TEXT	ENDS
;	COMDAT ?GetMeetingGlyphRect@CXTPCalendarViewEvent@@UAE?AVCRect@@XZ
_TEXT	SEGMENT PARA USE32 PUBLIC 'CODE'
_TEXT	ENDS
;	COMDAT ?GetPrivateGlyphRect@CXTPCalendarViewEvent@@UAE?AVCRect@@XZ
_TEXT	SEGMENT PARA USE32 PUBLIC 'CODE'
_TEXT	ENDS
;	COMDAT ?IsMultyDayTextAlign@CXTPCalendarViewEvent@@UAEHXZ
_TEXT	SEGMENT PARA USE32 PUBLIC 'CODE'
_TEXT	ENDS
;	COMDAT ?GetItemTextSubject@CXTPCalendarViewEvent@@UAE?AVCString@@XZ
_TEXT	SEGMENT PARA USE32 PUBLIC 'CODE'
_TEXT	ENDS
;	COMDAT ?GetItemTextLocation@CXTPCalendarViewEvent@@UAE?AVCString@@XZ
_TEXT	SEGMENT PARA USE32 PUBLIC 'CODE'
_TEXT	ENDS
;	COMDAT ?GetItemTextBody@CXTPCalendarViewEvent@@UAE?AVCString@@XZ
_TEXT	SEGMENT PARA USE32 PUBLIC 'CODE'
_TEXT	ENDS
;	COMDAT ?GetItemTextStartTime@CXTPCalendarViewEvent@@UAE?AVCString@@XZ
_TEXT	SEGMENT PARA USE32 PUBLIC 'CODE'
_TEXT	ENDS
;	COMDAT ?GetItemTextEndTime@CXTPCalendarViewEvent@@UAE?AVCString@@XZ
_TEXT	SEGMENT PARA USE32 PUBLIC 'CODE'
_TEXT	ENDS
;	COMDAT ?GetHeaderHeight@CXTPCalendarTimeLineViewTimeScalePart@@UAEHXZ
_TEXT	SEGMENT PARA USE32 PUBLIC 'CODE'
_TEXT	ENDS
;	COMDAT ??0CXTPCalendarTimeLineViewPart@@QAE@PAVCXTPCalendarViewPart@@@Z
_TEXT	SEGMENT PARA USE32 PUBLIC 'CODE'
_TEXT	ENDS
;	COMDAT ?Draw@CXTPCalendarTimeLineViewPart@@UAEXPAVCDC@@ABVCRect@@PAVCXTPCalendarTimeLineView@@@Z
_TEXT	SEGMENT PARA USE32 PUBLIC 'CODE'
_TEXT	ENDS
;	COMDAT ?CalcEventSize@CXTPCalendarTimeLineViewPart@@UAE?AVCSize@@PAVCDC@@PAVCXTPCalendarTimeLineViewEvent@@@Z
_TEXT	SEGMENT PARA USE32 PUBLIC 'CODE'
_TEXT	ENDS
;	COMDAT ?DrawEvent@CXTPCalendarTimeLineViewPart@@UAEXPAVCDC@@ABVCRect@@PAVCXTPCalendarTimeLineViewEvent@@@Z
_TEXT	SEGMENT PARA USE32 PUBLIC 'CODE'
_TEXT	ENDS
;	COMDAT ??_GCXTPCalendarTimeLineViewPart@@UAEPAXI@Z
_TEXT	SEGMENT PARA USE32 PUBLIC 'CODE'
_TEXT	ENDS
;	COMDAT ??1CXTPCalendarTimeLineViewPart@@UAE@XZ
_TEXT	SEGMENT PARA USE32 PUBLIC 'CODE'
_TEXT	ENDS
;	COMDAT ?RefreshMetrics@CControlPart@CXTPCalendarPaintManager@@UAEXXZ
_TEXT	SEGMENT PARA USE32 PUBLIC 'CODE'
_TEXT	ENDS
;	COMDAT ??0CDayViewTimeScaleHeaderPart@CXTPCalendarPaintManager@@QAE@PAVCXTPCalendarViewPart@@@Z
_TEXT	SEGMENT PARA USE32 PUBLIC 'CODE'
_TEXT	ENDS
;	COMDAT ??0CDayViewCellPart@CXTPCalendarPaintManager@@QAE@PAVCXTPCalendarViewPart@@@Z
_TEXT	SEGMENT PARA USE32 PUBLIC 'CODE'
_TEXT	ENDS
;	COMDAT ??0CDayMonthViewHeaderPart@CXTPCalendarPaintManager@@QAE@PAVCXTPCalendarViewPart@@@Z
_TEXT	SEGMENT PARA USE32 PUBLIC 'CODE'
_TEXT	ENDS
;	COMDAT ?RefreshMetrics@CDayMonthViewHeaderPart@CXTPCalendarPaintManager@@UAEXXZ
_TEXT	SEGMENT PARA USE32 PUBLIC 'CODE'
_TEXT	ENDS
;	COMDAT ?RefreshMetrics@CDayViewAllDayEventsPart@CXTPCalendarPaintManager@@UAEXXZ
_TEXT	SEGMENT PARA USE32 PUBLIC 'CODE'
_TEXT	ENDS
;	COMDAT ?RefreshMetrics@CDayViewEventPart@CXTPCalendarPaintManager@@UAEXXZ
_TEXT	SEGMENT PARA USE32 PUBLIC 'CODE'
_TEXT	ENDS
;	COMDAT ?RefreshMetrics@CMonthViewEventPart@CXTPCalendarPaintManager@@UAEXXZ
_TEXT	SEGMENT PARA USE32 PUBLIC 'CODE'
_TEXT	ENDS
;	COMDAT ?GetWeekViewPart@CXTPCalendarPaintManager@@QAEPAVCWeekViewPart@1@XZ
_TEXT	SEGMENT PARA USE32 PUBLIC 'CODE'
_TEXT	ENDS
;	COMDAT ?RefreshMetrics@CWeekViewEventPart@CXTPCalendarPaintManager@@UAEXXZ
_TEXT	SEGMENT PARA USE32 PUBLIC 'CODE'
_TEXT	ENDS
;	COMDAT ??_GCControlPart@CXTPCalendarPaintManager@@UAEPAXI@Z
_TEXT	SEGMENT PARA USE32 PUBLIC 'CODE'
_TEXT	ENDS
;	COMDAT ??_GCDayViewTimeScaleHeaderPart@CXTPCalendarPaintManager@@UAEPAXI@Z
_TEXT	SEGMENT PARA USE32 PUBLIC 'CODE'
_TEXT	ENDS
;	COMDAT ??_GCDayViewTimeScaleCellPart@CXTPCalendarPaintManager@@UAEPAXI@Z
_TEXT	SEGMENT PARA USE32 PUBLIC 'CODE'
_TEXT	ENDS
;	COMDAT ??1CDayViewTimeScaleHeaderPart@CXTPCalendarPaintManager@@UAE@XZ
_TEXT	SEGMENT PARA USE32 PUBLIC 'CODE'
_TEXT	ENDS
;	COMDAT ??1CXTPCalendarViewPartFontValue@@QAE@XZ
_TEXT	SEGMENT PARA USE32 PUBLIC 'CODE'
_TEXT	ENDS
;	COMDAT ??_GCDayViewCellPart@CXTPCalendarPaintManager@@UAEPAXI@Z
_TEXT	SEGMENT PARA USE32 PUBLIC 'CODE'
_TEXT	ENDS
;	COMDAT ??_GCDayViewWorkCellPart@CXTPCalendarPaintManager@@UAEPAXI@Z
_TEXT	SEGMENT PARA USE32 PUBLIC 'CODE'
_TEXT	ENDS
;	COMDAT ??1CDayViewCellPart@CXTPCalendarPaintManager@@UAE@XZ
_TEXT	SEGMENT PARA USE32 PUBLIC 'CODE'
_TEXT	ENDS
;	COMDAT ??_GCDayViewNonworkCellPart@CXTPCalendarPaintManager@@UAEPAXI@Z
_TEXT	SEGMENT PARA USE32 PUBLIC 'CODE'
_TEXT	ENDS
;	COMDAT ??_GCDayMonthViewHeaderPart@CXTPCalendarPaintManager@@UAEPAXI@Z
_TEXT	SEGMENT PARA USE32 PUBLIC 'CODE'
_TEXT	ENDS
;	COMDAT ??_GCDayViewHeaderPart@CXTPCalendarPaintManager@@UAEPAXI@Z
_TEXT	SEGMENT PARA USE32 PUBLIC 'CODE'
_TEXT	ENDS
;	COMDAT ??1CDayMonthViewHeaderPart@CXTPCalendarPaintManager@@UAE@XZ
_TEXT	SEGMENT PARA USE32 PUBLIC 'CODE'
_TEXT	ENDS
;	COMDAT ??_GCDayViewGroupHeaderPart@CXTPCalendarPaintManager@@UAEPAXI@Z
_TEXT	SEGMENT PARA USE32 PUBLIC 'CODE'
_TEXT	ENDS
;	COMDAT ??_GCDayViewAllDayEventsPart@CXTPCalendarPaintManager@@UAEPAXI@Z
_TEXT	SEGMENT PARA USE32 PUBLIC 'CODE'
_TEXT	ENDS
;	COMDAT ??_GCDayViewEventPart@CXTPCalendarPaintManager@@UAEPAXI@Z
_TEXT	SEGMENT PARA USE32 PUBLIC 'CODE'
_TEXT	ENDS
;	COMDAT ??_GCMonthViewGridPart@CXTPCalendarPaintManager@@UAEPAXI@Z
_TEXT	SEGMENT PARA USE32 PUBLIC 'CODE'
_TEXT	ENDS
;	COMDAT ??_GCMonthViewHeaderPart@CXTPCalendarPaintManager@@UAEPAXI@Z
_TEXT	SEGMENT PARA USE32 PUBLIC 'CODE'
_TEXT	ENDS
;	COMDAT ??_GCMonthViewEventPart@CXTPCalendarPaintManager@@UAEPAXI@Z
_TEXT	SEGMENT PARA USE32 PUBLIC 'CODE'
_TEXT	ENDS
;	COMDAT ??_GCWeekViewPart@CXTPCalendarPaintManager@@UAEPAXI@Z
_TEXT	SEGMENT PARA USE32 PUBLIC 'CODE'
_TEXT	ENDS
;	COMDAT ??_GCWeekViewEventPart@CXTPCalendarPaintManager@@UAEPAXI@Z
_TEXT	SEGMENT PARA USE32 PUBLIC 'CODE'
_TEXT	ENDS
;	COMDAT ??_GCTimeLineViewTimeScalePart_Day@CXTPCalendarPaintManager@@UAEPAXI@Z
_TEXT	SEGMENT PARA USE32 PUBLIC 'CODE'
_TEXT	ENDS
;	COMDAT ??1CXTPCalendarTimeLineViewTimeScalePart@@UAE@XZ
_TEXT	SEGMENT PARA USE32 PUBLIC 'CODE'
_TEXT	ENDS
;	COMDAT ??_GCTimeLineViewTimeScalePart_Week@CXTPCalendarPaintManager@@UAEPAXI@Z
_TEXT	SEGMENT PARA USE32 PUBLIC 'CODE'
_TEXT	ENDS
;	COMDAT ??_GCTimeLineViewTimeScalePart_Month@CXTPCalendarPaintManager@@UAEPAXI@Z
_TEXT	SEGMENT PARA USE32 PUBLIC 'CODE'
_TEXT	ENDS
;	COMDAT ??_GCTimeLineViewTimeScalePart_WorkWeek@CXTPCalendarPaintManager@@UAEPAXI@Z
_TEXT	SEGMENT PARA USE32 PUBLIC 'CODE'
_TEXT	ENDS
;	COMDAT ??_GCTimeLineViewPart@CXTPCalendarPaintManager@@UAEPAXI@Z
_TEXT	SEGMENT PARA USE32 PUBLIC 'CODE'
_TEXT	ENDS
;	COMDAT ??1CControlPart@CXTPCalendarPaintManager@@UAE@XZ
_TEXT	SEGMENT PARA USE32 PUBLIC 'CODE'
_TEXT	ENDS
;	COMDAT ??1CDayViewTimeScaleCellPart@CXTPCalendarPaintManager@@UAE@XZ
_TEXT	SEGMENT PARA USE32 PUBLIC 'CODE'
_TEXT	ENDS
;	COMDAT ??1CDayViewWorkCellPart@CXTPCalendarPaintManager@@UAE@XZ
_TEXT	SEGMENT PARA USE32 PUBLIC 'CODE'
_TEXT	ENDS
;	COMDAT ??1CDayViewNonworkCellPart@CXTPCalendarPaintManager@@UAE@XZ
_TEXT	SEGMENT PARA USE32 PUBLIC 'CODE'
_TEXT	ENDS
;	COMDAT ??1CDayViewHeaderPart@CXTPCalendarPaintManager@@UAE@XZ
_TEXT	SEGMENT PARA USE32 PUBLIC 'CODE'
_TEXT	ENDS
;	COMDAT ??1CDayViewGroupHeaderPart@CXTPCalendarPaintManager@@UAE@XZ
_TEXT	SEGMENT PARA USE32 PUBLIC 'CODE'
_TEXT	ENDS
;	COMDAT ??1CDayViewAllDayEventsPart@CXTPCalendarPaintManager@@UAE@XZ
_TEXT	SEGMENT PARA USE32 PUBLIC 'CODE'
_TEXT	ENDS
;	COMDAT ??1CDayViewEventPart@CXTPCalendarPaintManager@@UAE@XZ
_TEXT	SEGMENT PARA USE32 PUBLIC 'CODE'
_TEXT	ENDS
;	COMDAT ??1CMonthViewGridPart@CXTPCalendarPaintManager@@UAE@XZ
_TEXT	SEGMENT PARA USE32 PUBLIC 'CODE'
_TEXT	ENDS
;	COMDAT ??1CMonthViewHeaderPart@CXTPCalendarPaintManager@@UAE@XZ
_TEXT	SEGMENT PARA USE32 PUBLIC 'CODE'
_TEXT	ENDS
;	COMDAT ??1CMonthViewEventPart@CXTPCalendarPaintManager@@UAE@XZ
_TEXT	SEGMENT PARA USE32 PUBLIC 'CODE'
_TEXT	ENDS
;	COMDAT ??1CWeekViewPart@CXTPCalendarPaintManager@@UAE@XZ
_TEXT	SEGMENT PARA USE32 PUBLIC 'CODE'
_TEXT	ENDS
;	COMDAT ??1CWeekViewEventPart@CXTPCalendarPaintManager@@UAE@XZ
_TEXT	SEGMENT PARA USE32 PUBLIC 'CODE'
_TEXT	ENDS
;	COMDAT ??1CTimeLineViewTimeScalePart_Day@CXTPCalendarPaintManager@@UAE@XZ
_TEXT	SEGMENT PARA USE32 PUBLIC 'CODE'
_TEXT	ENDS
;	COMDAT ??1CTimeLineViewTimeScalePart_Week@CXTPCalendarPaintManager@@UAE@XZ
_TEXT	SEGMENT PARA USE32 PUBLIC 'CODE'
_TEXT	ENDS
;	COMDAT ??1CTimeLineViewTimeScalePart_Month@CXTPCalendarPaintManager@@UAE@XZ
_TEXT	SEGMENT PARA USE32 PUBLIC 'CODE'
_TEXT	ENDS
;	COMDAT ??1CTimeLineViewTimeScalePart_WorkWeek@CXTPCalendarPaintManager@@UAE@XZ
_TEXT	SEGMENT PARA USE32 PUBLIC 'CODE'
_TEXT	ENDS
;	COMDAT ?GetRect@CXTPCalendarViewGroup@@UAE?AVCRect@@XZ
_TEXT	SEGMENT PARA USE32 PUBLIC 'CODE'
_TEXT	ENDS
;	COMDAT ?GetHeaderRect@CXTPCalendarViewGroup@@UAE?AVCRect@@XZ
_TEXT	SEGMENT PARA USE32 PUBLIC 'CODE'
_TEXT	ENDS
;	COMDAT ?Draw@CXTPCalendarViewDay@@UAEXPAVCDC@@@Z
_TEXT	SEGMENT PARA USE32 PUBLIC 'CODE'
_TEXT	ENDS
;	COMDAT ?GetChildHandlersCount@CXTPCalendarViewDay@@UAEHXZ
_TEXT	SEGMENT PARA USE32 PUBLIC 'CODE'
_TEXT	ENDS
;	COMDAT ?GetChildHandlerAt@CXTPCalendarViewDay@@UAEPAVCXTPCalendarWMHandler@@H@Z
_TEXT	SEGMENT PARA USE32 PUBLIC 'CODE'
_TEXT	ENDS
;	COMDAT ?GetDayDate@CXTPCalendarViewDay@@UBE?AVCOleDateTime@@XZ
_TEXT	SEGMENT PARA USE32 PUBLIC 'CODE'
_TEXT	ENDS
;	COMDAT ?SetDayDate@CXTPCalendarViewDay@@UAE?AVCOleDateTime@@V2@@Z
_TEXT	SEGMENT PARA USE32 PUBLIC 'CODE'
_TEXT	ENDS
;	COMDAT ?GetDayRect@CXTPCalendarViewDay@@UAE?AVCRect@@XZ
_TEXT	SEGMENT PARA USE32 PUBLIC 'CODE'
_TEXT	ENDS
;	COMDAT ?SetDayRect@CXTPCalendarViewDay@@UAEXVCRect@@@Z
_TEXT	SEGMENT PARA USE32 PUBLIC 'CODE'
_TEXT	ENDS
;	COMDAT ?IsExpanded@CXTPCalendarViewDay@@UAEHXZ
_TEXT	SEGMENT PARA USE32 PUBLIC 'CODE'
_TEXT	ENDS
;	COMDAT ?GetExpandSignRect@CXTPCalendarViewDay@@UAE?AVCRect@@XZ
_TEXT	SEGMENT PARA USE32 PUBLIC 'CODE'
_TEXT	ENDS
;	COMDAT ?GetLayout_@CXTPCalendarViewDay@@MAEAAUXTP_VIEW_DAY_LAYOUT@1@XZ
_TEXT	SEGMENT PARA USE32 PUBLIC 'CODE'
_TEXT	ENDS
;	COMDAT ?GetResources@CXTPCalendarViewGroup@@UAEPAVCXTPCalendarResources@@XZ
_TEXT	SEGMENT PARA USE32 PUBLIC 'CODE'
_TEXT	ENDS
;	COMDAT ?GetChildHandlersCount@CXTPCalendarViewGroup@@UAEHXZ
_TEXT	SEGMENT PARA USE32 PUBLIC 'CODE'
_TEXT	ENDS
;	COMDAT ?GetLayout_@CXTPCalendarViewGroup@@MAEAAUXTP_VIEW_GROUP_LAYOUT@1@XZ
_TEXT	SEGMENT PARA USE32 PUBLIC 'CODE'
_TEXT	ENDS
;	COMDAT ?GetCalendarControl@CXTPCalendarViewGroup@@UBEPAVCXTPCalendarControl@@XZ
_TEXT	SEGMENT PARA USE32 PUBLIC 'CODE'
_TEXT	ENDS
;	COMDAT ?GetTopRow@CXTPCalendarDayView@@QBEHXZ
_TEXT	SEGMENT PARA USE32 PUBLIC 'CODE'
_TEXT	ENDS
;	COMDAT ?RefreshMetrics@CXTPCalendarCaptionBarThemePart@@UAEXXZ
_TEXT	SEGMENT PARA USE32 PUBLIC 'CODE'
_TEXT	ENDS
;	COMDAT ?GetPThis@C_m_Sink_Informator@CXTPCalendarCaptionBarTheme@@SAPAV2@PAE@Z
_TEXT	SEGMENT PARA USE32 PUBLIC 'CODE'
_TEXT	ENDS
;	COMDAT ??_GCSwitchViewButtonPart@CXTPCalendarCaptionBarTheme@@UAEPAXI@Z
_TEXT	SEGMENT PARA USE32 PUBLIC 'CODE'
_TEXT	ENDS
;	COMDAT ??_GCRadioButtonPart@CXTPCalendarCaptionBarTheme@@UAEPAXI@Z
_TEXT	SEGMENT PARA USE32 PUBLIC 'CODE'
_TEXT	ENDS
;	COMDAT ??_GCCheckboxButtonPart@CXTPCalendarCaptionBarTheme@@UAEPAXI@Z
_TEXT	SEGMENT PARA USE32 PUBLIC 'CODE'
_TEXT	ENDS
;	COMDAT ??_GCScrollDateButtonPart@CXTPCalendarCaptionBarTheme@@UAEPAXI@Z
_TEXT	SEGMENT PARA USE32 PUBLIC 'CODE'
_TEXT	ENDS
;	COMDAT ??_GCDateLabelPart@CXTPCalendarCaptionBarTheme@@UAEPAXI@Z
_TEXT	SEGMENT PARA USE32 PUBLIC 'CODE'
_TEXT	ENDS
;	COMDAT ??_GCExpandButtonPart@CXTPCalendarCaptionBarTheme@@UAEPAXI@Z
_TEXT	SEGMENT PARA USE32 PUBLIC 'CODE'
_TEXT	ENDS
;	COMDAT ??1CSwitchViewButtonPart@CXTPCalendarCaptionBarTheme@@UAE@XZ
_TEXT	SEGMENT PARA USE32 PUBLIC 'CODE'
_TEXT	ENDS
;	COMDAT ??1CRadioButtonPart@CXTPCalendarCaptionBarTheme@@UAE@XZ
_TEXT	SEGMENT PARA USE32 PUBLIC 'CODE'
_TEXT	ENDS
;	COMDAT ??1CCheckboxButtonPart@CXTPCalendarCaptionBarTheme@@UAE@XZ
_TEXT	SEGMENT PARA USE32 PUBLIC 'CODE'
_TEXT	ENDS
;	COMDAT ??1CScrollDateButtonPart@CXTPCalendarCaptionBarTheme@@UAE@XZ
_TEXT	SEGMENT PARA USE32 PUBLIC 'CODE'
_TEXT	ENDS
;	COMDAT ??1CDateLabelPart@CXTPCalendarCaptionBarTheme@@UAE@XZ
_TEXT	SEGMENT PARA USE32 PUBLIC 'CODE'
_TEXT	ENDS
;	COMDAT ??1CExpandButtonPart@CXTPCalendarCaptionBarTheme@@UAE@XZ
_TEXT	SEGMENT PARA USE32 PUBLIC 'CODE'
_TEXT	ENDS
;	COMDAT ?GetTheme@CXTPCalendarCaptionBarThemePart@@UAEPAVCXTPCalendarCaptionBarTheme@@XZ
_TEXT	SEGMENT PARA USE32 PUBLIC 'CODE'
_TEXT	ENDS
;	COMDAT ?GetPaintTheme@CXTPCalendarCaptionBarThemePart@@UBE?AW4XTPCalendarTheme@@XZ
_TEXT	SEGMENT PARA USE32 PUBLIC 'CODE'
_TEXT	ENDS
;	COMDAT ?GetRect@CXTPCalendarCaptionBarThemePart@@UAE?AVCRect@@XZ
_TEXT	SEGMENT PARA USE32 PUBLIC 'CODE'
_TEXT	ENDS
;	COMDAT ?GetText@CXTPCalendarCaptionBarThemePart@@UAE?AVCString@@XZ
_TEXT	SEGMENT PARA USE32 PUBLIC 'CODE'
_TEXT	ENDS
;	COMDAT ?SetText@CXTPCalendarCaptionBarThemePart@@UAEXPBD@Z
_TEXT	SEGMENT PARA USE32 PUBLIC 'CODE'
_TEXT	ENDS
;	COMDAT ?GetPartID@CXTPCalendarCaptionBarThemePart@@UAEHXZ
_TEXT	SEGMENT PARA USE32 PUBLIC 'CODE'
_TEXT	ENDS
;	COMDAT ?IsVisible@CXTPCalendarCaptionBarThemePart@@UAEHXZ
_TEXT	SEGMENT PARA USE32 PUBLIC 'CODE'
_TEXT	ENDS
;	COMDAT ?SetVisible@CXTPCalendarCaptionBarThemePart@@UAEXH@Z
_TEXT	SEGMENT PARA USE32 PUBLIC 'CODE'
_TEXT	ENDS
;	COMDAT ?GetCheck@CXTPCalendarCaptionBarThemePart@@UAEHXZ
_TEXT	SEGMENT PARA USE32 PUBLIC 'CODE'
_TEXT	ENDS
;	COMDAT ?SetCheck@CXTPCalendarCaptionBarThemePart@@UAEXH@Z
_TEXT	SEGMENT PARA USE32 PUBLIC 'CODE'
_TEXT	ENDS
;	COMDAT ?GetState@CXTPCalendarCaptionBarThemePart@@UAEHXZ
_TEXT	SEGMENT PARA USE32 PUBLIC 'CODE'
_TEXT	ENDS
;	COMDAT ?SetState@CXTPCalendarCaptionBarThemePart@@UAEXH@Z
_TEXT	SEGMENT PARA USE32 PUBLIC 'CODE'
_TEXT	ENDS
;	COMDAT ?Reset@CXTPCalendarPritAdjustContext@CXTPCalendarControlView@@QAEXXZ
_TEXT	SEGMENT PARA USE32 PUBLIC 'CODE'
_TEXT	ENDS
;	COMDAT ?ClearData@CXTPCalendarBeforePrintState@CXTPCalendarControlView@@QAEXXZ
_TEXT	SEGMENT PARA USE32 PUBLIC 'CODE'
_TEXT	ENDS
;	COMDAT ?CalendarDayView_ScrolV@CXTPCalendarControlView@@IAEXH@Z
_TEXT	SEGMENT PARA USE32 PUBLIC 'CODE'
_TEXT	ENDS
;	COMDAT ?GetPThis@C_m_Sink_Informator@CXTPCalendarControlView@@SAPAV2@PAE@Z
_TEXT	SEGMENT PARA USE32 PUBLIC 'CODE'
_TEXT	ENDS
;	COMDAT ?GetPOS@XTP_CALENDAR_MONTHVIEW_DAYPOS@@QAEHXZ
_TEXT	SEGMENT PARA USE32 PUBLIC 'CODE'
_TEXT	ENDS
;	COMDAT ?SetPOS@XTP_CALENDAR_MONTHVIEW_DAYPOS@@QAEXH@Z
_TEXT	SEGMENT PARA USE32 PUBLIC 'CODE'
_TEXT	ENDS
;	COMDAT ?GetWeeksCount@CMonthViewGrid@CXTPCalendarMonthView@@QBEHXZ
_TEXT	SEGMENT PARA USE32 PUBLIC 'CODE'
_TEXT	ENDS
;	COMDAT ??_GXTP_CALENDAR_HITTESTINFO_TIMELINE_VIEW@@UAEPAXI@Z
_TEXT	SEGMENT PARA USE32 PUBLIC 'CODE'
_TEXT	ENDS
;	COMDAT ??1XTP_CALENDAR_HITTESTINFO_TIMELINE_VIEW@@UAE@XZ
_TEXT	SEGMENT PARA USE32 PUBLIC 'CODE'
_TEXT	ENDS
;	COMDAT ?Draw@CXTPCalendarThemePart@@UAEXPAVCCmdTarget@@PAVCDC@@@Z
_TEXT	SEGMENT PARA USE32 PUBLIC 'CODE'
_TEXT	ENDS
;	COMDAT ?OnMouseMove@CXTPCalendarThemePart@@UAEXPAVCCmdTarget@@IVCPoint@@@Z
_TEXT	SEGMENT PARA USE32 PUBLIC 'CODE'
_TEXT	ENDS
;	COMDAT ?OnLButtonDown@CXTPCalendarThemePart@@UAEHPAVCCmdTarget@@IVCPoint@@@Z
_TEXT	SEGMENT PARA USE32 PUBLIC 'CODE'
_TEXT	ENDS
;	COMDAT ?CreateMember0@CXTPCalendarThemePart@@MAEPAV1@XZ
_TEXT	SEGMENT PARA USE32 PUBLIC 'CODE'
_TEXT	ENDS
;	COMDAT ?CreateMember1@CXTPCalendarThemePart@@MAEPAV1@XZ
_TEXT	SEGMENT PARA USE32 PUBLIC 'CODE'
_TEXT	ENDS
;	COMDAT ?CreateMember2@CXTPCalendarThemePart@@MAEPAV1@XZ
_TEXT	SEGMENT PARA USE32 PUBLIC 'CODE'
_TEXT	ENDS
;	COMDAT ?CreateMember3@CXTPCalendarThemePart@@MAEPAV1@XZ
_TEXT	SEGMENT PARA USE32 PUBLIC 'CODE'
_TEXT	ENDS
;	COMDAT ?CreateMember4@CXTPCalendarThemePart@@MAEPAV1@XZ
_TEXT	SEGMENT PARA USE32 PUBLIC 'CODE'
_TEXT	ENDS
;	COMDAT ?CreateMember5@CXTPCalendarThemePart@@MAEPAV1@XZ
_TEXT	SEGMENT PARA USE32 PUBLIC 'CODE'
_TEXT	ENDS
;	COMDAT ?CreateMember6@CXTPCalendarThemePart@@MAEPAV1@XZ
_TEXT	SEGMENT PARA USE32 PUBLIC 'CODE'
_TEXT	ENDS
;	COMDAT ?CreateMember7@CXTPCalendarThemePart@@MAEPAV1@XZ
_TEXT	SEGMENT PARA USE32 PUBLIC 'CODE'
_TEXT	ENDS
;	COMDAT ?CreateMember8@CXTPCalendarThemePart@@MAEPAV1@XZ
_TEXT	SEGMENT PARA USE32 PUBLIC 'CODE'
_TEXT	ENDS
;	COMDAT ?CreateMember9@CXTPCalendarThemePart@@MAEPAV1@XZ
_TEXT	SEGMENT PARA USE32 PUBLIC 'CODE'
_TEXT	ENDS
;	COMDAT ?Font@CThemeFontColorSetValue@CXTPCalendarTheme@@UBEPAVCFont@@XZ
_TEXT	SEGMENT PARA USE32 PUBLIC 'CODE'
_TEXT	ENDS
;	COMDAT ?Color@CThemeFontColorSetValue@CXTPCalendarTheme@@UBEKXZ
_TEXT	SEGMENT PARA USE32 PUBLIC 'CODE'
_TEXT	ENDS
;	COMDAT ?CopySettings@CHeaderBackground@CTOHeader@CXTPCalendarTheme@@UAEXABU123@@Z
_TEXT	SEGMENT PARA USE32 PUBLIC 'CODE'
_TEXT	ENDS
;	COMDAT ?AdjustLayout@CTOHeader@CXTPCalendarTheme@@UAEXPAVCCmdTarget@@PAVCDC@@ABVCRect@@@Z
_TEXT	SEGMENT PARA USE32 PUBLIC 'CODE'
_TEXT	ENDS
;	COMDAT ?GetHeightFormulaPart@CTOHeader@CXTPCalendarTheme@@UAEPAVCTOFormula_MulDivC@2@XZ
_TEXT	SEGMENT PARA USE32 PUBLIC 'CODE'
_TEXT	ENDS
;	COMDAT ?AdjustLayout@CTOEvent@CXTPCalendarTheme@@UAEXPAVCCmdTarget@@PAVCDC@@ABVCRect@@H@Z
_TEXT	SEGMENT PARA USE32 PUBLIC 'CODE'
_TEXT	ENDS
;	COMDAT ?CalcMinEventHeight@CTOEvent@CXTPCalendarTheme@@UAEHPAVCDC@@@Z
_TEXT	SEGMENT PARA USE32 PUBLIC 'CODE'
_TEXT	ENDS
;	COMDAT ?GetHeightFormulaPart@CTOEvent@CXTPCalendarTheme@@UAEPAVCTOFormula_MulDivC@2@XZ
_TEXT	SEGMENT PARA USE32 PUBLIC 'CODE'
_TEXT	ENDS
;	COMDAT ?GetEventIconsToDrawPart@CTOEvent@CXTPCalendarTheme@@UAEPAVCTOEventIconsToDraw@2@XZ
_TEXT	SEGMENT PARA USE32 PUBLIC 'CODE'
_TEXT	ENDS
;	COMDAT ?GetHeightFormulaPart@CTODayViewTimeScale@CXTPCalendarTheme@@UAEPAVCTOFormula_MulDivC@2@XZ
_TEXT	SEGMENT PARA USE32 PUBLIC 'CODE'
_TEXT	ENDS
;	COMDAT ??0CTODayViewTimeScale@CXTPCalendarTheme@@QAE@XZ
_TEXT	SEGMENT PARA USE32 PUBLIC 'CODE'
_TEXT	ENDS
;	COMDAT ?CalcEventYs@CTODayViewEvent_MultiDay@CXTPCalendarTheme@@UAEXAAVCRect@@H@Z
_TEXT	SEGMENT PARA USE32 PUBLIC 'CODE'
_TEXT	ENDS
;	COMDAT ?DrawShadow@CTODayViewEvent_SingleDay@CXTPCalendarTheme@@UAEXPAVCDC@@PAVCXTPCalendarDayViewEvent@@@Z
_TEXT	SEGMENT PARA USE32 PUBLIC 'CODE'
_TEXT	ENDS
;	COMDAT ?SetDynColors@CTODayViewDayGroupAllDayEvents@CXTPCalendarTheme@@UAEXPAVCXTPCalendarDayViewGroup@@@Z
_TEXT	SEGMENT PARA USE32 PUBLIC 'CODE'
_TEXT	ENDS
;	COMDAT ?CalcHeight@CTODayViewDayGroupCell@CXTPCalendarTheme@@UAEHPAVCDC@@H@Z
_TEXT	SEGMENT PARA USE32 PUBLIC 'CODE'
_TEXT	ENDS
;	COMDAT ?IsSelected@CTODayViewDayGroup@CXTPCalendarTheme@@UAEHPAVCXTPCalendarViewGroup@@@Z
_TEXT	SEGMENT PARA USE32 PUBLIC 'CODE'
_TEXT	ENDS
;	COMDAT ?GetHeaderPart@CTODayViewDayGroup@CXTPCalendarTheme@@UAEPAVCTODayViewDayGroupHeader@2@XZ
_TEXT	SEGMENT PARA USE32 PUBLIC 'CODE'
_TEXT	ENDS
;	COMDAT ?GetAllDayEventsPart@CTODayViewDayGroup@CXTPCalendarTheme@@UAEPAVCTODayViewDayGroupAllDayEvents@2@XZ
_TEXT	SEGMENT PARA USE32 PUBLIC 'CODE'
_TEXT	ENDS
;	COMDAT ?GetCellPart@CTODayViewDayGroup@CXTPCalendarTheme@@UAEPAVCTODayViewDayGroupCell@2@XZ
_TEXT	SEGMENT PARA USE32 PUBLIC 'CODE'
_TEXT	ENDS
;	COMDAT ?GetMultiDayEventPart@CTODayViewDayGroup@CXTPCalendarTheme@@UAEPAVCTODayViewEvent_MultiDay@2@XZ
_TEXT	SEGMENT PARA USE32 PUBLIC 'CODE'
_TEXT	ENDS
;	COMDAT ?GetSingleDayEventPart@CTODayViewDayGroup@CXTPCalendarTheme@@UAEPAVCTODayViewEvent_SingleDay@2@XZ
_TEXT	SEGMENT PARA USE32 PUBLIC 'CODE'
_TEXT	ENDS
;	COMDAT ?Draw@CTODayViewDayHeader@CXTPCalendarTheme@@UAEXPAVCCmdTarget@@PAVCDC@@@Z
_TEXT	SEGMENT PARA USE32 PUBLIC 'CODE'
_TEXT	ENDS
;	COMDAT ?ExcludeDayBorder@CTODayViewDay@CXTPCalendarTheme@@UAE?AVCRect@@PAVCXTPCalendarDayViewDay@@ABV3@@Z
_TEXT	SEGMENT PARA USE32 PUBLIC 'CODE'
_TEXT	ENDS
;	COMDAT ?Draw_DayBorder@CTODayViewDay@CXTPCalendarTheme@@UAEXPAVCXTPCalendarDayViewDay@@PAVCDC@@@Z
_TEXT	SEGMENT PARA USE32 PUBLIC 'CODE'
_TEXT	ENDS
;	COMDAT ?GetHeaderPart@CTODayViewDay@CXTPCalendarTheme@@UAEPAVCTODayViewDayHeader@2@XZ
_TEXT	SEGMENT PARA USE32 PUBLIC 'CODE'
_TEXT	ENDS
;	COMDAT ?GetGroupPart@CTODayViewDay@CXTPCalendarTheme@@UAEPAVCTODayViewDayGroup@2@XZ
_TEXT	SEGMENT PARA USE32 PUBLIC 'CODE'
_TEXT	ENDS
;	COMDAT ?GetHeaderPart@CTODayView@CXTPCalendarTheme@@UAEPAVCTOHeader@2@XZ
_TEXT	SEGMENT PARA USE32 PUBLIC 'CODE'
_TEXT	ENDS
;	COMDAT ?GetEventPart@CTODayView@CXTPCalendarTheme@@UAEPAVCTODayViewEvent@2@XZ
_TEXT	SEGMENT PARA USE32 PUBLIC 'CODE'
_TEXT	ENDS
;	COMDAT ?GetTimeScalePart@CTODayView@CXTPCalendarTheme@@UAEPAVCTODayViewTimeScale@2@XZ
_TEXT	SEGMENT PARA USE32 PUBLIC 'CODE'
_TEXT	ENDS
;	COMDAT ?GetDayPart@CTODayView@CXTPCalendarTheme@@UAEPAVCTODayViewDay@2@XZ
_TEXT	SEGMENT PARA USE32 PUBLIC 'CODE'
_TEXT	ENDS
;	COMDAT ?IsUseCellAlignedDraggingInTimeArea@CTODayView@CXTPCalendarTheme@@UAEHXZ
_TEXT	SEGMENT PARA USE32 PUBLIC 'CODE'
_TEXT	ENDS
;	COMDAT ?GetHeaderPart@CTOMonthViewDay@CXTPCalendarTheme@@UAEPAVCTOMonthViewDayHeader@2@XZ
_TEXT	SEGMENT PARA USE32 PUBLIC 'CODE'
_TEXT	ENDS
;	COMDAT ?GetMultiDayEventPart@CTOMonthViewDay@CXTPCalendarTheme@@UAEPAVCTOMonthViewEvent_MultiDay@2@XZ
_TEXT	SEGMENT PARA USE32 PUBLIC 'CODE'
_TEXT	ENDS
;	COMDAT ?GetSingleDayEventPart@CTOMonthViewDay@CXTPCalendarTheme@@UAEPAVCTOMonthViewEvent_SingleDay@2@XZ
_TEXT	SEGMENT PARA USE32 PUBLIC 'CODE'
_TEXT	ENDS
;	COMDAT ?GetHeaderPart@CTOMonthView@CXTPCalendarTheme@@UAEPAVCTOHeader@2@XZ
_TEXT	SEGMENT PARA USE32 PUBLIC 'CODE'
_TEXT	ENDS
;	COMDAT ?GetEventPart@CTOMonthView@CXTPCalendarTheme@@UAEPAVCTOMonthViewEvent@2@XZ
_TEXT	SEGMENT PARA USE32 PUBLIC 'CODE'
_TEXT	ENDS
;	COMDAT ?GetWeekDayHeaderPart@CTOMonthView@CXTPCalendarTheme@@UAEPAVCTOMonthViewWeekDayHeader@2@XZ
_TEXT	SEGMENT PARA USE32 PUBLIC 'CODE'
_TEXT	ENDS
;	COMDAT ?GetDayPart@CTOMonthView@CXTPCalendarTheme@@UAEPAVCTOMonthViewDay@2@XZ
_TEXT	SEGMENT PARA USE32 PUBLIC 'CODE'
_TEXT	ENDS
;	COMDAT ?GetHeaderPart@CTOWeekViewDay@CXTPCalendarTheme@@UAEPAVCTOWeekViewDayHeader@2@XZ
_TEXT	SEGMENT PARA USE32 PUBLIC 'CODE'
_TEXT	ENDS
;	COMDAT ?GetMultiDayEventPart@CTOWeekViewDay@CXTPCalendarTheme@@UAEPAVCTOWeekViewEvent_MultiDay@2@XZ
_TEXT	SEGMENT PARA USE32 PUBLIC 'CODE'
_TEXT	ENDS
;	COMDAT ?GetSingleDayEventPart@CTOWeekViewDay@CXTPCalendarTheme@@UAEPAVCTOWeekViewEvent_SingleDay@2@XZ
_TEXT	SEGMENT PARA USE32 PUBLIC 'CODE'
_TEXT	ENDS
;	COMDAT ?SetDynColors@CTOWeekViewDay@CXTPCalendarTheme@@UAEXPAVCXTPCalendarWeekViewDay@@@Z
_TEXT	SEGMENT PARA USE32 PUBLIC 'CODE'
_TEXT	ENDS
;	COMDAT ?GetEventPart@CTOWeekView@CXTPCalendarTheme@@UAEPAVCTOWeekViewEvent@2@XZ
_TEXT	SEGMENT PARA USE32 PUBLIC 'CODE'
_TEXT	ENDS
;	COMDAT ?GetDayPart@CTOWeekView@CXTPCalendarTheme@@UAEPAVCTOWeekViewDay@2@XZ
_TEXT	SEGMENT PARA USE32 PUBLIC 'CODE'
_TEXT	ENDS
;	COMDAT ??_GCTODayViewTimeScale@CXTPCalendarTheme@@UAEPAXI@Z
_TEXT	SEGMENT PARA USE32 PUBLIC 'CODE'
_TEXT	ENDS
;	COMDAT ??0CThemeFontColorSetValue@CXTPCalendarTheme@@QAE@XZ
_TEXT	SEGMENT PARA USE32 PUBLIC 'CODE'
_TEXT	ENDS
;	COMDAT ??1CThemeFontColorSetValue@CXTPCalendarTheme@@QAE@XZ
_TEXT	SEGMENT PARA USE32 PUBLIC 'CODE'
_TEXT	ENDS
;	COMDAT ??_DCTOFormula_MulDivC@CXTPCalendarTheme@@QAEXXZ
_TEXT	SEGMENT PARA USE32 PUBLIC 'CODE'
_TEXT	ENDS
;	COMDAT ??1XTP_LC_TIMEFORMAT@CTODayViewTimeScale@CXTPCalendarTheme@@QAE@XZ
_TEXT	SEGMENT PARA USE32 PUBLIC 'CODE'
_TEXT	ENDS
;	COMDAT ??_DCTODayViewTimeScale@CXTPCalendarTheme@@QAEXXZ
_TEXT	SEGMENT PARA USE32 PUBLIC 'CODE'
_TEXT	ENDS
;	COMDAT ??0CThemeFontColorSet@CXTPCalendarTheme@@QAE@XZ
_TEXT	SEGMENT PARA USE32 PUBLIC 'CODE'
_TEXT	ENDS
;	COMDAT ??1CTOFormula_MulDivC@CXTPCalendarTheme@@UAE@XZ
_TEXT	SEGMENT PARA USE32 PUBLIC 'CODE'
_TEXT	ENDS
;	COMDAT ??1CTODayViewTimeScale@CXTPCalendarTheme@@UAE@XZ
_TEXT	SEGMENT PARA USE32 PUBLIC 'CODE'
_TEXT	ENDS
;	COMDAT ?IsCreated@CXTPCalendarThemePart@@UAEHXZ
_TEXT	SEGMENT PARA USE32 PUBLIC 'CODE'
_TEXT	ENDS
;	COMDAT ?CreateMember0@CTOHeader@CXTPCalendarThemeOffice2007@@MAEPAVCXTPCalendarThemePart@@XZ
_TEXT	SEGMENT PARA USE32 PUBLIC 'CODE'
_TEXT	ENDS
;	COMDAT ?GetHeightFormulaPart@CTOHeader@CXTPCalendarThemeOffice2007@@UAEPAVCTOFormula_MulDivC@CXTPCalendarTheme@@XZ
_TEXT	SEGMENT PARA USE32 PUBLIC 'CODE'
_TEXT	ENDS
;	COMDAT ?GetHeightFormulaPartX@CTOHeader@CXTPCalendarThemeOffice2007@@UAEPAVCTOFormula_MulDivC@CXTPCalendarTheme@@XZ
_TEXT	SEGMENT PARA USE32 PUBLIC 'CODE'
_TEXT	ENDS
;	COMDAT ?SetHeightFormulaPart@CTOHeader@CXTPCalendarThemeOffice2007@@UAEXPAVCTOFormula_MulDivC@CXTPCalendarTheme@@@Z
_TEXT	SEGMENT PARA USE32 PUBLIC 'CODE'
_TEXT	ENDS
;	COMDAT ?Draw@CTOHeader@CXTPCalendarThemeOffice2007@@UAEXPAVCCmdTarget@@PAVCDC@@@Z
_TEXT	SEGMENT PARA USE32 PUBLIC 'CODE'
_TEXT	ENDS
;	COMDAT ?DoPropExchange@CTOPrevNextEventButton@CXTPCalendarThemeOffice2007@@UAEXPAVCXTPPropExchange@@@Z
_TEXT	SEGMENT PARA USE32 PUBLIC 'CODE'
_TEXT	ENDS
;	COMDAT ?Serialize@CTOPrevNextEventButton@CXTPCalendarThemeOffice2007@@UAEXAAVCArchive@@@Z
_TEXT	SEGMENT PARA USE32 PUBLIC 'CODE'
_TEXT	ENDS
;	COMDAT ??0CTOPrevNextEventButton@CXTPCalendarThemeOffice2007@@QAE@XZ
_TEXT	SEGMENT PARA USE32 PUBLIC 'CODE'
_TEXT	ENDS
;	COMDAT ?GetPThis@C_m_Sink_Informator@CTOPrevNextEventButtons@CXTPCalendarThemeOffice2007@@SAPAV23@PAE@Z
_TEXT	SEGMENT PARA USE32 PUBLIC 'CODE'
_TEXT	ENDS
;	COMDAT ?CreateMember0@CTODayViewEvent@CXTPCalendarThemeOffice2007@@MAEPAVCXTPCalendarThemePart@@XZ
_TEXT	SEGMENT PARA USE32 PUBLIC 'CODE'
_TEXT	ENDS
;	COMDAT ?GetEventIconsToDrawPart@CTODayViewEvent@CXTPCalendarThemeOffice2007@@UAEPAVCTOEventIconsToDraw@CXTPCalendarTheme@@XZ
_TEXT	SEGMENT PARA USE32 PUBLIC 'CODE'
_TEXT	ENDS
;	COMDAT ?GetEventIconsToDrawPartX@CTODayViewEvent@CXTPCalendarThemeOffice2007@@UAEPAVCTOEventIconsToDraw@CXTPCalendarTheme@@XZ
_TEXT	SEGMENT PARA USE32 PUBLIC 'CODE'
_TEXT	ENDS
;	COMDAT ?SetEventIconsToDrawPart@CTODayViewEvent@CXTPCalendarThemeOffice2007@@UAEXPAVCTOEventIconsToDraw@CXTPCalendarTheme@@@Z
_TEXT	SEGMENT PARA USE32 PUBLIC 'CODE'
_TEXT	ENDS
;	COMDAT ?CreateMember1@CTODayViewEvent@CXTPCalendarThemeOffice2007@@MAEPAVCXTPCalendarThemePart@@XZ
_TEXT	SEGMENT PARA USE32 PUBLIC 'CODE'
_TEXT	ENDS
;	COMDAT ?GetHeightFormulaPart@CTODayViewEvent@CXTPCalendarThemeOffice2007@@UAEPAVCTOFormula_MulDivC@CXTPCalendarTheme@@XZ
_TEXT	SEGMENT PARA USE32 PUBLIC 'CODE'
_TEXT	ENDS
;	COMDAT ?GetHeightFormulaPartX@CTODayViewEvent@CXTPCalendarThemeOffice2007@@UAEPAVCTOFormula_MulDivC@CXTPCalendarTheme@@XZ
_TEXT	SEGMENT PARA USE32 PUBLIC 'CODE'
_TEXT	ENDS
;	COMDAT ?SetHeightFormulaPart@CTODayViewEvent@CXTPCalendarThemeOffice2007@@UAEXPAVCTOFormula_MulDivC@CXTPCalendarTheme@@@Z
_TEXT	SEGMENT PARA USE32 PUBLIC 'CODE'
_TEXT	ENDS
;	COMDAT ?CreateMember0@CTODayViewTimeScale@CXTPCalendarThemeOffice2007@@MAEPAVCXTPCalendarThemePart@@XZ
_TEXT	SEGMENT PARA USE32 PUBLIC 'CODE'
_TEXT	ENDS
;	COMDAT ?GetHeightFormulaPart@CTODayViewTimeScale@CXTPCalendarThemeOffice2007@@UAEPAVCTOFormula_MulDivC@CXTPCalendarTheme@@XZ
_TEXT	SEGMENT PARA USE32 PUBLIC 'CODE'
_TEXT	ENDS
;	COMDAT ?GetHeightFormulaPartX@CTODayViewTimeScale@CXTPCalendarThemeOffice2007@@UAEPAVCTOFormula_MulDivC@CXTPCalendarTheme@@XZ
_TEXT	SEGMENT PARA USE32 PUBLIC 'CODE'
_TEXT	ENDS
;	COMDAT ?SetHeightFormulaPart@CTODayViewTimeScale@CXTPCalendarThemeOffice2007@@UAEXPAVCTOFormula_MulDivC@CXTPCalendarTheme@@@Z
_TEXT	SEGMENT PARA USE32 PUBLIC 'CODE'
_TEXT	ENDS
;	COMDAT ?CalcHeight@CTODayViewDayGroupCell@CXTPCalendarThemeOffice2007@@UAEHPAVCDC@@H@Z
_TEXT	SEGMENT PARA USE32 PUBLIC 'CODE'
_TEXT	ENDS
;	COMDAT ?CreateMember0@CTODayViewDayGroup@CXTPCalendarThemeOffice2007@@MAEPAVCXTPCalendarThemePart@@XZ
_TEXT	SEGMENT PARA USE32 PUBLIC 'CODE'
_TEXT	ENDS
;	COMDAT ?GetHeaderPart@CTODayViewDayGroup@CXTPCalendarThemeOffice2007@@UAEPAVCTODayViewDayGroupHeader@CXTPCalendarTheme@@XZ
_TEXT	SEGMENT PARA USE32 PUBLIC 'CODE'
_TEXT	ENDS
;	COMDAT ?GetHeaderPartX@CTODayViewDayGroup@CXTPCalendarThemeOffice2007@@UAEPAVCTODayViewDayGroupHeader@2@XZ
_TEXT	SEGMENT PARA USE32 PUBLIC 'CODE'
_TEXT	ENDS
;	COMDAT ?SetHeaderPart@CTODayViewDayGroup@CXTPCalendarThemeOffice2007@@UAEXPAVCTODayViewDayGroupHeader@2@@Z
_TEXT	SEGMENT PARA USE32 PUBLIC 'CODE'
_TEXT	ENDS
;	COMDAT ?CreateMember1@CTODayViewDayGroup@CXTPCalendarThemeOffice2007@@MAEPAVCXTPCalendarThemePart@@XZ
_TEXT	SEGMENT PARA USE32 PUBLIC 'CODE'
_TEXT	ENDS
;	COMDAT ?GetAllDayEventsPart@CTODayViewDayGroup@CXTPCalendarThemeOffice2007@@UAEPAVCTODayViewDayGroupAllDayEvents@CXTPCalendarTheme@@XZ
_TEXT	SEGMENT PARA USE32 PUBLIC 'CODE'
_TEXT	ENDS
;	COMDAT ?GetAllDayEventsPartX@CTODayViewDayGroup@CXTPCalendarThemeOffice2007@@UAEPAVCTODayViewDayGroupAllDayEvents@2@XZ
_TEXT	SEGMENT PARA USE32 PUBLIC 'CODE'
_TEXT	ENDS
;	COMDAT ?SetAllDayEventsPart@CTODayViewDayGroup@CXTPCalendarThemeOffice2007@@UAEXPAVCTODayViewDayGroupAllDayEvents@2@@Z
_TEXT	SEGMENT PARA USE32 PUBLIC 'CODE'
_TEXT	ENDS
;	COMDAT ?CreateMember2@CTODayViewDayGroup@CXTPCalendarThemeOffice2007@@MAEPAVCXTPCalendarThemePart@@XZ
_TEXT	SEGMENT PARA USE32 PUBLIC 'CODE'
_TEXT	ENDS
;	COMDAT ?GetCellPart@CTODayViewDayGroup@CXTPCalendarThemeOffice2007@@UAEPAVCTODayViewDayGroupCell@CXTPCalendarTheme@@XZ
_TEXT	SEGMENT PARA USE32 PUBLIC 'CODE'
_TEXT	ENDS
;	COMDAT ?GetCellPartX@CTODayViewDayGroup@CXTPCalendarThemeOffice2007@@UAEPAVCTODayViewDayGroupCell@2@XZ
_TEXT	SEGMENT PARA USE32 PUBLIC 'CODE'
_TEXT	ENDS
;	COMDAT ?SetCellPart@CTODayViewDayGroup@CXTPCalendarThemeOffice2007@@UAEXPAVCTODayViewDayGroupCell@2@@Z
_TEXT	SEGMENT PARA USE32 PUBLIC 'CODE'
_TEXT	ENDS
;	COMDAT ?CreateMember3@CTODayViewDayGroup@CXTPCalendarThemeOffice2007@@MAEPAVCXTPCalendarThemePart@@XZ
_TEXT	SEGMENT PARA USE32 PUBLIC 'CODE'
_TEXT	ENDS
;	COMDAT ?GetMultiDayEventPart@CTODayViewDayGroup@CXTPCalendarThemeOffice2007@@UAEPAVCTODayViewEvent_MultiDay@CXTPCalendarTheme@@XZ
_TEXT	SEGMENT PARA USE32 PUBLIC 'CODE'
_TEXT	ENDS
;	COMDAT ?GetMultiDayEventPartX@CTODayViewDayGroup@CXTPCalendarThemeOffice2007@@UAEPAVCTODayViewEvent_MultiDay@2@XZ
_TEXT	SEGMENT PARA USE32 PUBLIC 'CODE'
_TEXT	ENDS
;	COMDAT ?SetMultiDayEventPart@CTODayViewDayGroup@CXTPCalendarThemeOffice2007@@UAEXPAVCTODayViewEvent_MultiDay@2@@Z
_TEXT	SEGMENT PARA USE32 PUBLIC 'CODE'
_TEXT	ENDS
;	COMDAT ?CreateMember4@CTODayViewDayGroup@CXTPCalendarThemeOffice2007@@MAEPAVCXTPCalendarThemePart@@XZ
_TEXT	SEGMENT PARA USE32 PUBLIC 'CODE'
_TEXT	ENDS
;	COMDAT ?GetSingleDayEventPart@CTODayViewDayGroup@CXTPCalendarThemeOffice2007@@UAEPAVCTODayViewEvent_SingleDay@CXTPCalendarTheme@@XZ
_TEXT	SEGMENT PARA USE32 PUBLIC 'CODE'
_TEXT	ENDS
;	COMDAT ?GetSingleDayEventPartX@CTODayViewDayGroup@CXTPCalendarThemeOffice2007@@UAEPAVCTODayViewEvent_SingleDay@2@XZ
_TEXT	SEGMENT PARA USE32 PUBLIC 'CODE'
_TEXT	ENDS
;	COMDAT ?SetSingleDayEventPart@CTODayViewDayGroup@CXTPCalendarThemeOffice2007@@UAEXPAVCTODayViewEvent_SingleDay@2@@Z
_TEXT	SEGMENT PARA USE32 PUBLIC 'CODE'
_TEXT	ENDS
;	COMDAT ??0CTODayViewDayHeader@CXTPCalendarThemeOffice2007@@QAE@XZ
_TEXT	SEGMENT PARA USE32 PUBLIC 'CODE'
_TEXT	ENDS
;	COMDAT ?CreateMember0@CTODayViewDay@CXTPCalendarThemeOffice2007@@MAEPAVCXTPCalendarThemePart@@XZ
_TEXT	SEGMENT PARA USE32 PUBLIC 'CODE'
_TEXT	ENDS
;	COMDAT ?GetHeaderPart@CTODayViewDay@CXTPCalendarThemeOffice2007@@UAEPAVCTODayViewDayHeader@CXTPCalendarTheme@@XZ
_TEXT	SEGMENT PARA USE32 PUBLIC 'CODE'
_TEXT	ENDS
;	COMDAT ?GetHeaderPartX@CTODayViewDay@CXTPCalendarThemeOffice2007@@UAEPAVCTODayViewDayHeader@2@XZ
_TEXT	SEGMENT PARA USE32 PUBLIC 'CODE'
_TEXT	ENDS
;	COMDAT ?SetHeaderPart@CTODayViewDay@CXTPCalendarThemeOffice2007@@UAEXPAVCTODayViewDayHeader@2@@Z
_TEXT	SEGMENT PARA USE32 PUBLIC 'CODE'
_TEXT	ENDS
;	COMDAT ?CreateMember1@CTODayViewDay@CXTPCalendarThemeOffice2007@@MAEPAVCXTPCalendarThemePart@@XZ
_TEXT	SEGMENT PARA USE32 PUBLIC 'CODE'
_TEXT	ENDS
;	COMDAT ?GetGroupPart@CTODayViewDay@CXTPCalendarThemeOffice2007@@UAEPAVCTODayViewDayGroup@CXTPCalendarTheme@@XZ
_TEXT	SEGMENT PARA USE32 PUBLIC 'CODE'
_TEXT	ENDS
;	COMDAT ?GetGroupPartX@CTODayViewDay@CXTPCalendarThemeOffice2007@@UAEPAVCTODayViewDayGroup@2@XZ
_TEXT	SEGMENT PARA USE32 PUBLIC 'CODE'
_TEXT	ENDS
;	COMDAT ?SetGroupPart@CTODayViewDay@CXTPCalendarThemeOffice2007@@UAEXPAVCTODayViewDayGroup@2@@Z
_TEXT	SEGMENT PARA USE32 PUBLIC 'CODE'
_TEXT	ENDS
;	COMDAT ?CreateMember0@CTODayView@CXTPCalendarThemeOffice2007@@MAEPAVCXTPCalendarThemePart@@XZ
_TEXT	SEGMENT PARA USE32 PUBLIC 'CODE'
_TEXT	ENDS
;	COMDAT ?GetHeaderPart@CTODayView@CXTPCalendarThemeOffice2007@@UAEPAVCTOHeader@CXTPCalendarTheme@@XZ
_TEXT	SEGMENT PARA USE32 PUBLIC 'CODE'
_TEXT	ENDS
;	COMDAT ?GetHeaderPartX@CTODayView@CXTPCalendarThemeOffice2007@@UAEPAVCTODayViewHeader@2@XZ
_TEXT	SEGMENT PARA USE32 PUBLIC 'CODE'
_TEXT	ENDS
;	COMDAT ?SetHeaderPart@CTODayView@CXTPCalendarThemeOffice2007@@UAEXPAVCTODayViewHeader@2@@Z
_TEXT	SEGMENT PARA USE32 PUBLIC 'CODE'
_TEXT	ENDS
;	COMDAT ?CreateMember1@CTODayView@CXTPCalendarThemeOffice2007@@MAEPAVCXTPCalendarThemePart@@XZ
_TEXT	SEGMENT PARA USE32 PUBLIC 'CODE'
_TEXT	ENDS
;	COMDAT ?GetEventPart@CTODayView@CXTPCalendarThemeOffice2007@@UAEPAVCTODayViewEvent@CXTPCalendarTheme@@XZ
_TEXT	SEGMENT PARA USE32 PUBLIC 'CODE'
_TEXT	ENDS
;	COMDAT ?GetEventPartX@CTODayView@CXTPCalendarThemeOffice2007@@UAEPAVCTODayViewEvent@2@XZ
_TEXT	SEGMENT PARA USE32 PUBLIC 'CODE'
_TEXT	ENDS
;	COMDAT ?SetEventPart@CTODayView@CXTPCalendarThemeOffice2007@@UAEXPAVCTODayViewEvent@2@@Z
_TEXT	SEGMENT PARA USE32 PUBLIC 'CODE'
_TEXT	ENDS
;	COMDAT ?CreateMember2@CTODayView@CXTPCalendarThemeOffice2007@@MAEPAVCXTPCalendarThemePart@@XZ
_TEXT	SEGMENT PARA USE32 PUBLIC 'CODE'
_TEXT	ENDS
;	COMDAT ?GetTimeScalePart@CTODayView@CXTPCalendarThemeOffice2007@@UAEPAVCTODayViewTimeScale@CXTPCalendarTheme@@XZ
_TEXT	SEGMENT PARA USE32 PUBLIC 'CODE'
_TEXT	ENDS
;	COMDAT ?GetTimeScalePartX@CTODayView@CXTPCalendarThemeOffice2007@@UAEPAVCTODayViewTimeScale@2@XZ
_TEXT	SEGMENT PARA USE32 PUBLIC 'CODE'
_TEXT	ENDS
;	COMDAT ?SetTimeScalePart@CTODayView@CXTPCalendarThemeOffice2007@@UAEXPAVCTODayViewTimeScale@2@@Z
_TEXT	SEGMENT PARA USE32 PUBLIC 'CODE'
_TEXT	ENDS
;	COMDAT ?CreateMember3@CTODayView@CXTPCalendarThemeOffice2007@@MAEPAVCXTPCalendarThemePart@@XZ
_TEXT	SEGMENT PARA USE32 PUBLIC 'CODE'
_TEXT	ENDS
;	COMDAT ?GetDayPart@CTODayView@CXTPCalendarThemeOffice2007@@UAEPAVCTODayViewDay@CXTPCalendarTheme@@XZ
_TEXT	SEGMENT PARA USE32 PUBLIC 'CODE'
_TEXT	ENDS
;	COMDAT ?GetDayPartX@CTODayView@CXTPCalendarThemeOffice2007@@UAEPAVCTODayViewDay@2@XZ
_TEXT	SEGMENT PARA USE32 PUBLIC 'CODE'
_TEXT	ENDS
;	COMDAT ?SetDayPart@CTODayView@CXTPCalendarThemeOffice2007@@UAEXPAVCTODayViewDay@2@@Z
_TEXT	SEGMENT PARA USE32 PUBLIC 'CODE'
_TEXT	ENDS
;	COMDAT ?IsUseCellAlignedDraggingInTimeArea@CTODayView@CXTPCalendarThemeOffice2007@@UAEHXZ
_TEXT	SEGMENT PARA USE32 PUBLIC 'CODE'
_TEXT	ENDS
;	COMDAT ?CreateMember0@CTOMonthViewEvent@CXTPCalendarThemeOffice2007@@MAEPAVCXTPCalendarThemePart@@XZ
_TEXT	SEGMENT PARA USE32 PUBLIC 'CODE'
_TEXT	ENDS
;	COMDAT ?GetEventIconsToDrawPart@CTOMonthViewEvent@CXTPCalendarThemeOffice2007@@UAEPAVCTOEventIconsToDraw@CXTPCalendarTheme@@XZ
_TEXT	SEGMENT PARA USE32 PUBLIC 'CODE'
_TEXT	ENDS
;	COMDAT ?GetEventIconsToDrawPartX@CTOMonthViewEvent@CXTPCalendarThemeOffice2007@@UAEPAVCTOEventIconsToDraw@CXTPCalendarTheme@@XZ
_TEXT	SEGMENT PARA USE32 PUBLIC 'CODE'
_TEXT	ENDS
;	COMDAT ?SetEventIconsToDrawPart@CTOMonthViewEvent@CXTPCalendarThemeOffice2007@@UAEXPAVCTOEventIconsToDraw@CXTPCalendarTheme@@@Z
_TEXT	SEGMENT PARA USE32 PUBLIC 'CODE'
_TEXT	ENDS
;	COMDAT ?CreateMember1@CTOMonthViewEvent@CXTPCalendarThemeOffice2007@@MAEPAVCXTPCalendarThemePart@@XZ
_TEXT	SEGMENT PARA USE32 PUBLIC 'CODE'
_TEXT	ENDS
;	COMDAT ?GetHeightFormulaPart@CTOMonthViewEvent@CXTPCalendarThemeOffice2007@@UAEPAVCTOFormula_MulDivC@CXTPCalendarTheme@@XZ
_TEXT	SEGMENT PARA USE32 PUBLIC 'CODE'
_TEXT	ENDS
;	COMDAT ?GetHeightFormulaPartX@CTOMonthViewEvent@CXTPCalendarThemeOffice2007@@UAEPAVCTOFormula_MulDivC@CXTPCalendarTheme@@XZ
_TEXT	SEGMENT PARA USE32 PUBLIC 'CODE'
_TEXT	ENDS
;	COMDAT ?SetHeightFormulaPart@CTOMonthViewEvent@CXTPCalendarThemeOffice2007@@UAEXPAVCTOFormula_MulDivC@CXTPCalendarTheme@@@Z
_TEXT	SEGMENT PARA USE32 PUBLIC 'CODE'
_TEXT	ENDS
;	COMDAT ?CreateMember0@CTOMonthViewDay@CXTPCalendarThemeOffice2007@@MAEPAVCXTPCalendarThemePart@@XZ
_TEXT	SEGMENT PARA USE32 PUBLIC 'CODE'
_TEXT	ENDS
;	COMDAT ?GetHeaderPart@CTOMonthViewDay@CXTPCalendarThemeOffice2007@@UAEPAVCTOMonthViewDayHeader@CXTPCalendarTheme@@XZ
_TEXT	SEGMENT PARA USE32 PUBLIC 'CODE'
_TEXT	ENDS
;	COMDAT ?GetHeaderPartX@CTOMonthViewDay@CXTPCalendarThemeOffice2007@@UAEPAVCTOMonthViewDayHeader@2@XZ
_TEXT	SEGMENT PARA USE32 PUBLIC 'CODE'
_TEXT	ENDS
;	COMDAT ?SetHeaderPart@CTOMonthViewDay@CXTPCalendarThemeOffice2007@@UAEXPAVCTOMonthViewDayHeader@2@@Z
_TEXT	SEGMENT PARA USE32 PUBLIC 'CODE'
_TEXT	ENDS
;	COMDAT ?CreateMember1@CTOMonthViewDay@CXTPCalendarThemeOffice2007@@MAEPAVCXTPCalendarThemePart@@XZ
_TEXT	SEGMENT PARA USE32 PUBLIC 'CODE'
_TEXT	ENDS
;	COMDAT ?GetMultiDayEventPart@CTOMonthViewDay@CXTPCalendarThemeOffice2007@@UAEPAVCTOMonthViewEvent_MultiDay@CXTPCalendarTheme@@XZ
_TEXT	SEGMENT PARA USE32 PUBLIC 'CODE'
_TEXT	ENDS
;	COMDAT ?GetMultiDayEventPartX@CTOMonthViewDay@CXTPCalendarThemeOffice2007@@UAEPAVCTOMonthViewEvent_MultiDay@2@XZ
_TEXT	SEGMENT PARA USE32 PUBLIC 'CODE'
_TEXT	ENDS
;	COMDAT ?SetMultiDayEventPart@CTOMonthViewDay@CXTPCalendarThemeOffice2007@@UAEXPAVCTOMonthViewEvent_MultiDay@2@@Z
_TEXT	SEGMENT PARA USE32 PUBLIC 'CODE'
_TEXT	ENDS
;	COMDAT ?CreateMember2@CTOMonthViewDay@CXTPCalendarThemeOffice2007@@MAEPAVCXTPCalendarThemePart@@XZ
_TEXT	SEGMENT PARA USE32 PUBLIC 'CODE'
_TEXT	ENDS
;	COMDAT ?GetSingleDayEventPart@CTOMonthViewDay@CXTPCalendarThemeOffice2007@@UAEPAVCTOMonthViewEvent_SingleDay@CXTPCalendarTheme@@XZ
_TEXT	SEGMENT PARA USE32 PUBLIC 'CODE'
_TEXT	ENDS
;	COMDAT ?GetSingleDayEventPartX@CTOMonthViewDay@CXTPCalendarThemeOffice2007@@UAEPAVCTOMonthViewEvent_SingleDay@2@XZ
_TEXT	SEGMENT PARA USE32 PUBLIC 'CODE'
_TEXT	ENDS
;	COMDAT ?SetSingleDayEventPart@CTOMonthViewDay@CXTPCalendarThemeOffice2007@@UAEXPAVCTOMonthViewEvent_SingleDay@2@@Z
_TEXT	SEGMENT PARA USE32 PUBLIC 'CODE'
_TEXT	ENDS
;	COMDAT ??0CTOMonthViewWeekDayHeader@CXTPCalendarThemeOffice2007@@QAE@XZ
_TEXT	SEGMENT PARA USE32 PUBLIC 'CODE'
_TEXT	ENDS
;	COMDAT ??0CTOMonthViewWeekHeader@CXTPCalendarThemeOffice2007@@QAE@XZ
_TEXT	SEGMENT PARA USE32 PUBLIC 'CODE'
_TEXT	ENDS
;	COMDAT ?CreateMember0@CTOMonthView@CXTPCalendarThemeOffice2007@@MAEPAVCXTPCalendarThemePart@@XZ
_TEXT	SEGMENT PARA USE32 PUBLIC 'CODE'
_TEXT	ENDS
;	COMDAT ?GetHeaderPart@CTOMonthView@CXTPCalendarThemeOffice2007@@UAEPAVCTOHeader@CXTPCalendarTheme@@XZ
_TEXT	SEGMENT PARA USE32 PUBLIC 'CODE'
_TEXT	ENDS
;	COMDAT ?GetHeaderPartX@CTOMonthView@CXTPCalendarThemeOffice2007@@UAEPAVCTOHeader@2@XZ
_TEXT	SEGMENT PARA USE32 PUBLIC 'CODE'
_TEXT	ENDS
;	COMDAT ?SetHeaderPart@CTOMonthView@CXTPCalendarThemeOffice2007@@UAEXPAVCTOHeader@2@@Z
_TEXT	SEGMENT PARA USE32 PUBLIC 'CODE'
_TEXT	ENDS
;	COMDAT ?CreateMember1@CTOMonthView@CXTPCalendarThemeOffice2007@@MAEPAVCXTPCalendarThemePart@@XZ
_TEXT	SEGMENT PARA USE32 PUBLIC 'CODE'
_TEXT	ENDS
;	COMDAT ?GetEventPart@CTOMonthView@CXTPCalendarThemeOffice2007@@UAEPAVCTOMonthViewEvent@CXTPCalendarTheme@@XZ
_TEXT	SEGMENT PARA USE32 PUBLIC 'CODE'
_TEXT	ENDS
;	COMDAT ?GetEventPartX@CTOMonthView@CXTPCalendarThemeOffice2007@@UAEPAVCTOMonthViewEvent@2@XZ
_TEXT	SEGMENT PARA USE32 PUBLIC 'CODE'
_TEXT	ENDS
;	COMDAT ?SetEventPart@CTOMonthView@CXTPCalendarThemeOffice2007@@UAEXPAVCTOMonthViewEvent@2@@Z
_TEXT	SEGMENT PARA USE32 PUBLIC 'CODE'
_TEXT	ENDS
;	COMDAT ?CreateMember2@CTOMonthView@CXTPCalendarThemeOffice2007@@MAEPAVCXTPCalendarThemePart@@XZ
_TEXT	SEGMENT PARA USE32 PUBLIC 'CODE'
_TEXT	ENDS
;	COMDAT ?GetWeekDayHeaderPart@CTOMonthView@CXTPCalendarThemeOffice2007@@UAEPAVCTOMonthViewWeekDayHeader@CXTPCalendarTheme@@XZ
_TEXT	SEGMENT PARA USE32 PUBLIC 'CODE'
_TEXT	ENDS
;	COMDAT ?GetWeekDayHeaderPartX@CTOMonthView@CXTPCalendarThemeOffice2007@@UAEPAVCTOMonthViewWeekDayHeader@2@XZ
_TEXT	SEGMENT PARA USE32 PUBLIC 'CODE'
_TEXT	ENDS
;	COMDAT ?SetWeekDayHeaderPart@CTOMonthView@CXTPCalendarThemeOffice2007@@UAEXPAVCTOMonthViewWeekDayHeader@2@@Z
_TEXT	SEGMENT PARA USE32 PUBLIC 'CODE'
_TEXT	ENDS
;	COMDAT ?CreateMember3@CTOMonthView@CXTPCalendarThemeOffice2007@@MAEPAVCXTPCalendarThemePart@@XZ
_TEXT	SEGMENT PARA USE32 PUBLIC 'CODE'
_TEXT	ENDS
;	COMDAT ?GetWeekHeaderPart@CTOMonthView@CXTPCalendarThemeOffice2007@@UAEPAVCTOHeader@2@XZ
_TEXT	SEGMENT PARA USE32 PUBLIC 'CODE'
_TEXT	ENDS
;	COMDAT ?GetWeekHeaderPartX@CTOMonthView@CXTPCalendarThemeOffice2007@@UAEPAVCTOMonthViewWeekHeader@2@XZ
_TEXT	SEGMENT PARA USE32 PUBLIC 'CODE'
_TEXT	ENDS
;	COMDAT ?SetWeekHeaderPart@CTOMonthView@CXTPCalendarThemeOffice2007@@UAEXPAVCTOMonthViewWeekHeader@2@@Z
_TEXT	SEGMENT PARA USE32 PUBLIC 'CODE'
_TEXT	ENDS
;	COMDAT ?CreateMember4@CTOMonthView@CXTPCalendarThemeOffice2007@@MAEPAVCXTPCalendarThemePart@@XZ
_TEXT	SEGMENT PARA USE32 PUBLIC 'CODE'
_TEXT	ENDS
;	COMDAT ?GetDayPart@CTOMonthView@CXTPCalendarThemeOffice2007@@UAEPAVCTOMonthViewDay@CXTPCalendarTheme@@XZ
_TEXT	SEGMENT PARA USE32 PUBLIC 'CODE'
_TEXT	ENDS
;	COMDAT ?GetDayPartX@CTOMonthView@CXTPCalendarThemeOffice2007@@UAEPAVCTOMonthViewDay@2@XZ
_TEXT	SEGMENT PARA USE32 PUBLIC 'CODE'
_TEXT	ENDS
;	COMDAT ?SetDayPart@CTOMonthView@CXTPCalendarThemeOffice2007@@UAEXPAVCTOMonthViewDay@2@@Z
_TEXT	SEGMENT PARA USE32 PUBLIC 'CODE'
_TEXT	ENDS
;	COMDAT ?CreateMember0@CTOWeekViewEvent@CXTPCalendarThemeOffice2007@@MAEPAVCXTPCalendarThemePart@@XZ
_TEXT	SEGMENT PARA USE32 PUBLIC 'CODE'
_TEXT	ENDS
;	COMDAT ?GetEventIconsToDrawPart@CTOWeekViewEvent@CXTPCalendarThemeOffice2007@@UAEPAVCTOEventIconsToDraw@CXTPCalendarTheme@@XZ
_TEXT	SEGMENT PARA USE32 PUBLIC 'CODE'
_TEXT	ENDS
;	COMDAT ?GetEventIconsToDrawPartX@CTOWeekViewEvent@CXTPCalendarThemeOffice2007@@UAEPAVCTOEventIconsToDraw@CXTPCalendarTheme@@XZ
_TEXT	SEGMENT PARA USE32 PUBLIC 'CODE'
_TEXT	ENDS
;	COMDAT ?SetEventIconsToDrawPart@CTOWeekViewEvent@CXTPCalendarThemeOffice2007@@UAEXPAVCTOEventIconsToDraw@CXTPCalendarTheme@@@Z
_TEXT	SEGMENT PARA USE32 PUBLIC 'CODE'
_TEXT	ENDS
;	COMDAT ?CreateMember1@CTOWeekViewEvent@CXTPCalendarThemeOffice2007@@MAEPAVCXTPCalendarThemePart@@XZ
_TEXT	SEGMENT PARA USE32 PUBLIC 'CODE'
_TEXT	ENDS
;	COMDAT ?GetHeightFormulaPart@CTOWeekViewEvent@CXTPCalendarThemeOffice2007@@UAEPAVCTOFormula_MulDivC@CXTPCalendarTheme@@XZ
_TEXT	SEGMENT PARA USE32 PUBLIC 'CODE'
_TEXT	ENDS
;	COMDAT ?GetHeightFormulaPartX@CTOWeekViewEvent@CXTPCalendarThemeOffice2007@@UAEPAVCTOFormula_MulDivC@CXTPCalendarTheme@@XZ
_TEXT	SEGMENT PARA USE32 PUBLIC 'CODE'
_TEXT	ENDS
;	COMDAT ?SetHeightFormulaPart@CTOWeekViewEvent@CXTPCalendarThemeOffice2007@@UAEXPAVCTOFormula_MulDivC@CXTPCalendarTheme@@@Z
_TEXT	SEGMENT PARA USE32 PUBLIC 'CODE'
_TEXT	ENDS
;	COMDAT ?CreateMember0@CTOWeekViewDay@CXTPCalendarThemeOffice2007@@MAEPAVCXTPCalendarThemePart@@XZ
_TEXT	SEGMENT PARA USE32 PUBLIC 'CODE'
_TEXT	ENDS
;	COMDAT ?GetHeaderPart@CTOWeekViewDay@CXTPCalendarThemeOffice2007@@UAEPAVCTOWeekViewDayHeader@CXTPCalendarTheme@@XZ
_TEXT	SEGMENT PARA USE32 PUBLIC 'CODE'
_TEXT	ENDS
;	COMDAT ?GetHeaderPartX@CTOWeekViewDay@CXTPCalendarThemeOffice2007@@UAEPAVCTOWeekViewDayHeader@2@XZ
_TEXT	SEGMENT PARA USE32 PUBLIC 'CODE'
_TEXT	ENDS
;	COMDAT ?SetHeaderPart@CTOWeekViewDay@CXTPCalendarThemeOffice2007@@UAEXPAVCTOWeekViewDayHeader@2@@Z
_TEXT	SEGMENT PARA USE32 PUBLIC 'CODE'
_TEXT	ENDS
;	COMDAT ?CreateMember1@CTOWeekViewDay@CXTPCalendarThemeOffice2007@@MAEPAVCXTPCalendarThemePart@@XZ
_TEXT	SEGMENT PARA USE32 PUBLIC 'CODE'
_TEXT	ENDS
;	COMDAT ?GetMultiDayEventPart@CTOWeekViewDay@CXTPCalendarThemeOffice2007@@UAEPAVCTOWeekViewEvent_MultiDay@CXTPCalendarTheme@@XZ
_TEXT	SEGMENT PARA USE32 PUBLIC 'CODE'
_TEXT	ENDS
;	COMDAT ?GetMultiDayEventPartX@CTOWeekViewDay@CXTPCalendarThemeOffice2007@@UAEPAVCTOWeekViewEvent_MultiDay@2@XZ
_TEXT	SEGMENT PARA USE32 PUBLIC 'CODE'
_TEXT	ENDS
;	COMDAT ?SetMultiDayEventPart@CTOWeekViewDay@CXTPCalendarThemeOffice2007@@UAEXPAVCTOWeekViewEvent_MultiDay@2@@Z
_TEXT	SEGMENT PARA USE32 PUBLIC 'CODE'
_TEXT	ENDS
;	COMDAT ?CreateMember2@CTOWeekViewDay@CXTPCalendarThemeOffice2007@@MAEPAVCXTPCalendarThemePart@@XZ
_TEXT	SEGMENT PARA USE32 PUBLIC 'CODE'
_TEXT	ENDS
;	COMDAT ?GetSingleDayEventPart@CTOWeekViewDay@CXTPCalendarThemeOffice2007@@UAEPAVCTOWeekViewEvent_SingleDay@CXTPCalendarTheme@@XZ
_TEXT	SEGMENT PARA USE32 PUBLIC 'CODE'
_TEXT	ENDS
;	COMDAT ?GetSingleDayEventPartX@CTOWeekViewDay@CXTPCalendarThemeOffice2007@@UAEPAVCTOWeekViewEvent_SingleDay@2@XZ
_TEXT	SEGMENT PARA USE32 PUBLIC 'CODE'
_TEXT	ENDS
;	COMDAT ?SetSingleDayEventPart@CTOWeekViewDay@CXTPCalendarThemeOffice2007@@UAEXPAVCTOWeekViewEvent_SingleDay@2@@Z
_TEXT	SEGMENT PARA USE32 PUBLIC 'CODE'
_TEXT	ENDS
;	COMDAT ?CreateMember0@CTOWeekView@CXTPCalendarThemeOffice2007@@MAEPAVCXTPCalendarThemePart@@XZ
_TEXT	SEGMENT PARA USE32 PUBLIC 'CODE'
_TEXT	ENDS
;	COMDAT ?GetEventPart@CTOWeekView@CXTPCalendarThemeOffice2007@@UAEPAVCTOWeekViewEvent@CXTPCalendarTheme@@XZ
_TEXT	SEGMENT PARA USE32 PUBLIC 'CODE'
_TEXT	ENDS
;	COMDAT ?GetEventPartX@CTOWeekView@CXTPCalendarThemeOffice2007@@UAEPAVCTOWeekViewEvent@2@XZ
_TEXT	SEGMENT PARA USE32 PUBLIC 'CODE'
_TEXT	ENDS
;	COMDAT ?SetEventPart@CTOWeekView@CXTPCalendarThemeOffice2007@@UAEXPAVCTOWeekViewEvent@2@@Z
_TEXT	SEGMENT PARA USE32 PUBLIC 'CODE'
_TEXT	ENDS
;	COMDAT ?CreateMember1@CTOWeekView@CXTPCalendarThemeOffice2007@@MAEPAVCXTPCalendarThemePart@@XZ
_TEXT	SEGMENT PARA USE32 PUBLIC 'CODE'
_TEXT	ENDS
;	COMDAT ?GetDayPart@CTOWeekView@CXTPCalendarThemeOffice2007@@UAEPAVCTOWeekViewDay@CXTPCalendarTheme@@XZ
_TEXT	SEGMENT PARA USE32 PUBLIC 'CODE'
_TEXT	ENDS
;	COMDAT ?GetDayPartX@CTOWeekView@CXTPCalendarThemeOffice2007@@UAEPAVCTOWeekViewDay@2@XZ
_TEXT	SEGMENT PARA USE32 PUBLIC 'CODE'
_TEXT	ENDS
;	COMDAT ?SetDayPart@CTOWeekView@CXTPCalendarThemeOffice2007@@UAEXPAVCTOWeekViewDay@2@@Z
_TEXT	SEGMENT PARA USE32 PUBLIC 'CODE'
_TEXT	ENDS
;	COMDAT ?GetPThis@C_m_Sink_Informator@CXTPCalendarThemeOffice2007@@SAPAV2@PAE@Z
_TEXT	SEGMENT PARA USE32 PUBLIC 'CODE'
_TEXT	ENDS
;	COMDAT ??_GCTOPrevNextEventButton@CXTPCalendarThemeOffice2007@@UAEPAXI@Z
_TEXT	SEGMENT PARA USE32 PUBLIC 'CODE'
_TEXT	ENDS
;	COMDAT ??0CTOPrevNextEventButton_Base@CXTPCalendarThemeOffice2007@@QAE@XZ
_TEXT	SEGMENT PARA USE32 PUBLIC 'CODE'
_TEXT	ENDS
;	COMDAT ??1CTOPrevNextEventButton_Base@CXTPCalendarThemeOffice2007@@UAE@XZ
_TEXT	SEGMENT PARA USE32 PUBLIC 'CODE'
_TEXT	ENDS
;	COMDAT ??0CTODayViewDayGroupHeader@CXTPCalendarThemeOffice2007@@QAE@XZ
_TEXT	SEGMENT PARA USE32 PUBLIC 'CODE'
_TEXT	ENDS
;	COMDAT ??0CTODayViewDayGroupAllDayEvents@CXTPCalendarThemeOffice2007@@QAE@XZ
_TEXT	SEGMENT PARA USE32 PUBLIC 'CODE'
_TEXT	ENDS
;	COMDAT ??0CTODayViewDayGroupCell@CXTPCalendarThemeOffice2007@@QAE@XZ
_TEXT	SEGMENT PARA USE32 PUBLIC 'CODE'
_TEXT	ENDS
;	COMDAT ??0CTODayViewEvent_MultiDay@CXTPCalendarThemeOffice2007@@QAE@XZ
_TEXT	SEGMENT PARA USE32 PUBLIC 'CODE'
_TEXT	ENDS
;	COMDAT ??0CTODayViewEvent_SingleDay@CXTPCalendarThemeOffice2007@@QAE@XZ
_TEXT	SEGMENT PARA USE32 PUBLIC 'CODE'
_TEXT	ENDS
;	COMDAT ??_GCTODayViewDayHeader@CXTPCalendarThemeOffice2007@@UAEPAXI@Z
_TEXT	SEGMENT PARA USE32 PUBLIC 'CODE'
_TEXT	ENDS
;	COMDAT ??0CTOHeader@CXTPCalendarTheme@@QAE@XZ
_TEXT	SEGMENT PARA USE32 PUBLIC 'CODE'
_TEXT	ENDS
;	COMDAT ??1CTOHeader@CXTPCalendarTheme@@UAE@XZ
_TEXT	SEGMENT PARA USE32 PUBLIC 'CODE'
_TEXT	ENDS
;	COMDAT ??0CTOHeader_Base@CXTPCalendarThemeOffice2007@@QAE@XZ
_TEXT	SEGMENT PARA USE32 PUBLIC 'CODE'
_TEXT	ENDS
;	COMDAT ??1CTOHeader_Base@CXTPCalendarThemeOffice2007@@UAE@XZ
_TEXT	SEGMENT PARA USE32 PUBLIC 'CODE'
_TEXT	ENDS
;	COMDAT ??0CTOHeader@CXTPCalendarThemeOffice2007@@QAE@XZ
_TEXT	SEGMENT PARA USE32 PUBLIC 'CODE'
_TEXT	ENDS
;	COMDAT ??1CTOHeader@CXTPCalendarThemeOffice2007@@UAE@XZ
_TEXT	SEGMENT PARA USE32 PUBLIC 'CODE'
_TEXT	ENDS
;	COMDAT ??0CTODayViewDayHeader_Base@CXTPCalendarThemeOffice2007@@QAE@XZ
_TEXT	SEGMENT PARA USE32 PUBLIC 'CODE'
_TEXT	ENDS
;	COMDAT ??1CTODayViewDayHeader_Base@CXTPCalendarThemeOffice2007@@UAE@XZ
_TEXT	SEGMENT PARA USE32 PUBLIC 'CODE'
_TEXT	ENDS
;	COMDAT ??0CTODayViewDayHeader@CXTPCalendarTheme@@QAE@XZ
_TEXT	SEGMENT PARA USE32 PUBLIC 'CODE'
_TEXT	ENDS
;	COMDAT ??1CTODayViewDayHeader@CXTPCalendarTheme@@UAE@XZ
_TEXT	SEGMENT PARA USE32 PUBLIC 'CODE'
_TEXT	ENDS
;	COMDAT ??0CTODayViewDayHeader_Base2@CXTPCalendarThemeOffice2007@@QAE@XZ
_TEXT	SEGMENT PARA USE32 PUBLIC 'CODE'
_TEXT	ENDS
;	COMDAT ??1CTODayViewDayHeader_Base2@CXTPCalendarThemeOffice2007@@UAE@XZ
_TEXT	SEGMENT PARA USE32 PUBLIC 'CODE'
_TEXT	ENDS
;	COMDAT ??0CTODayViewDayGroup@CXTPCalendarThemeOffice2007@@QAE@XZ
_TEXT	SEGMENT PARA USE32 PUBLIC 'CODE'
_TEXT	ENDS
;	COMDAT ??0CTODayViewHeader@CXTPCalendarThemeOffice2007@@QAE@XZ
_TEXT	SEGMENT PARA USE32 PUBLIC 'CODE'
_TEXT	ENDS
;	COMDAT ??0CTODayViewEvent@CXTPCalendarThemeOffice2007@@QAE@XZ
_TEXT	SEGMENT PARA USE32 PUBLIC 'CODE'
_TEXT	ENDS
;	COMDAT ??0CTODayViewTimeScale@CXTPCalendarThemeOffice2007@@QAE@XZ
_TEXT	SEGMENT PARA USE32 PUBLIC 'CODE'
_TEXT	ENDS
;	COMDAT ??0CTODayViewDay@CXTPCalendarThemeOffice2007@@QAE@XZ
_TEXT	SEGMENT PARA USE32 PUBLIC 'CODE'
_TEXT	ENDS
;	COMDAT ??0CTOMonthViewDayHeader@CXTPCalendarThemeOffice2007@@QAE@XZ
_TEXT	SEGMENT PARA USE32 PUBLIC 'CODE'
_TEXT	ENDS
;	COMDAT ??0CTOMonthViewEvent_MultiDay@CXTPCalendarThemeOffice2007@@QAE@XZ
_TEXT	SEGMENT PARA USE32 PUBLIC 'CODE'
_TEXT	ENDS
;	COMDAT ??0CTOMonthViewEvent_SingleDay@CXTPCalendarThemeOffice2007@@QAE@XZ
_TEXT	SEGMENT PARA USE32 PUBLIC 'CODE'
_TEXT	ENDS
;	COMDAT ??_GCTOMonthViewWeekDayHeader@CXTPCalendarThemeOffice2007@@UAEPAXI@Z
_TEXT	SEGMENT PARA USE32 PUBLIC 'CODE'
_TEXT	ENDS
;	COMDAT ??0CTOMonthViewWeekDayHeader_Base@CXTPCalendarThemeOffice2007@@QAE@XZ
_TEXT	SEGMENT PARA USE32 PUBLIC 'CODE'
_TEXT	ENDS
;	COMDAT ??1CTOMonthViewWeekDayHeader_Base@CXTPCalendarThemeOffice2007@@UAE@XZ
_TEXT	SEGMENT PARA USE32 PUBLIC 'CODE'
_TEXT	ENDS
;	COMDAT ??0CTOMonthViewWeekDayHeader@CXTPCalendarTheme@@QAE@XZ
_TEXT	SEGMENT PARA USE32 PUBLIC 'CODE'
_TEXT	ENDS
;	COMDAT ??1CTOMonthViewWeekDayHeader@CXTPCalendarTheme@@UAE@XZ
_TEXT	SEGMENT PARA USE32 PUBLIC 'CODE'
_TEXT	ENDS
;	COMDAT ??0CTOMonthViewWeekDayHeader_Base2@CXTPCalendarThemeOffice2007@@QAE@XZ
_TEXT	SEGMENT PARA USE32 PUBLIC 'CODE'
_TEXT	ENDS
;	COMDAT ??1CTOMonthViewWeekDayHeader_Base2@CXTPCalendarThemeOffice2007@@UAE@XZ
_TEXT	SEGMENT PARA USE32 PUBLIC 'CODE'
_TEXT	ENDS
;	COMDAT ??_GCTOMonthViewWeekHeader@CXTPCalendarThemeOffice2007@@UAEPAXI@Z
_TEXT	SEGMENT PARA USE32 PUBLIC 'CODE'
_TEXT	ENDS
;	COMDAT ??0CTOMonthViewWeekHeader_Base@CXTPCalendarThemeOffice2007@@QAE@XZ
_TEXT	SEGMENT PARA USE32 PUBLIC 'CODE'
_TEXT	ENDS
;	COMDAT ??1CTOMonthViewWeekHeader_Base@CXTPCalendarThemeOffice2007@@UAE@XZ
_TEXT	SEGMENT PARA USE32 PUBLIC 'CODE'
_TEXT	ENDS
;	COMDAT ??0CTOMonthViewEvent@CXTPCalendarThemeOffice2007@@QAE@XZ
_TEXT	SEGMENT PARA USE32 PUBLIC 'CODE'
_TEXT	ENDS
;	COMDAT ??0CTOMonthViewDay@CXTPCalendarThemeOffice2007@@QAE@XZ
_TEXT	SEGMENT PARA USE32 PUBLIC 'CODE'
_TEXT	ENDS
;	COMDAT ??0CTOWeekViewDayHeader@CXTPCalendarThemeOffice2007@@QAE@XZ
_TEXT	SEGMENT PARA USE32 PUBLIC 'CODE'
_TEXT	ENDS
;	COMDAT ??0CTOWeekViewEvent_MultiDay@CXTPCalendarThemeOffice2007@@QAE@XZ
_TEXT	SEGMENT PARA USE32 PUBLIC 'CODE'
_TEXT	ENDS
;	COMDAT ??0CTOWeekViewEvent_SingleDay@CXTPCalendarThemeOffice2007@@QAE@XZ
_TEXT	SEGMENT PARA USE32 PUBLIC 'CODE'
_TEXT	ENDS
;	COMDAT ??0CTOWeekViewEvent@CXTPCalendarThemeOffice2007@@QAE@XZ
_TEXT	SEGMENT PARA USE32 PUBLIC 'CODE'
_TEXT	ENDS
;	COMDAT ??0CTOWeekViewDay@CXTPCalendarThemeOffice2007@@QAE@XZ
_TEXT	SEGMENT PARA USE32 PUBLIC 'CODE'
_TEXT	ENDS
;	COMDAT ??0CTOEvent@CXTPCalendarThemeOffice2007@@QAE@XZ
_TEXT	SEGMENT PARA USE32 PUBLIC 'CODE'
_TEXT	ENDS
;	COMDAT ??0CTODayView@CXTPCalendarThemeOffice2007@@QAE@XZ
_TEXT	SEGMENT PARA USE32 PUBLIC 'CODE'
_TEXT	ENDS
;	COMDAT ??0CTOMonthView@CXTPCalendarThemeOffice2007@@QAE@XZ
_TEXT	SEGMENT PARA USE32 PUBLIC 'CODE'
_TEXT	ENDS
;	COMDAT ??0CTOWeekView@CXTPCalendarThemeOffice2007@@QAE@XZ
_TEXT	SEGMENT PARA USE32 PUBLIC 'CODE'
_TEXT	ENDS
;	COMDAT ??0CTOCellDynBackground@CXTPCalendarThemeOffice2007@@QAE@XZ
_TEXT	SEGMENT PARA USE32 PUBLIC 'CODE'
_TEXT	ENDS
;	COMDAT ??_DCTOPrevNextEventButton@CXTPCalendarThemeOffice2007@@QAEXXZ
_TEXT	SEGMENT PARA USE32 PUBLIC 'CODE'
_TEXT	ENDS
;	COMDAT ??_GCTOPrevNextEventButton_Base@CXTPCalendarThemeOffice2007@@UAEPAXI@Z
_TEXT	SEGMENT PARA USE32 PUBLIC 'CODE'
_TEXT	ENDS
;	COMDAT ??_GCTODayViewDayGroupHeader@CXTPCalendarThemeOffice2007@@UAEPAXI@Z
_TEXT	SEGMENT PARA USE32 PUBLIC 'CODE'
_TEXT	ENDS
;	COMDAT ??0CTODayViewDayGroupHeader_Base@CXTPCalendarThemeOffice2007@@QAE@XZ
_TEXT	SEGMENT PARA USE32 PUBLIC 'CODE'
_TEXT	ENDS
;	COMDAT ??1CTODayViewDayGroupHeader_Base@CXTPCalendarThemeOffice2007@@UAE@XZ
_TEXT	SEGMENT PARA USE32 PUBLIC 'CODE'
_TEXT	ENDS
;	COMDAT ??0CTODayViewDayGroupHeader@CXTPCalendarTheme@@QAE@XZ
_TEXT	SEGMENT PARA USE32 PUBLIC 'CODE'
_TEXT	ENDS
;	COMDAT ??1CTODayViewDayGroupHeader@CXTPCalendarTheme@@UAE@XZ
_TEXT	SEGMENT PARA USE32 PUBLIC 'CODE'
_TEXT	ENDS
;	COMDAT ??0CTODayViewDayGroupHeader_Base2@CXTPCalendarThemeOffice2007@@QAE@XZ
_TEXT	SEGMENT PARA USE32 PUBLIC 'CODE'
_TEXT	ENDS
;	COMDAT ??1CTODayViewDayGroupHeader_Base2@CXTPCalendarThemeOffice2007@@UAE@XZ
_TEXT	SEGMENT PARA USE32 PUBLIC 'CODE'
_TEXT	ENDS
;	COMDAT ??_GCTODayViewDayGroupAllDayEvents@CXTPCalendarThemeOffice2007@@UAEPAXI@Z
_TEXT	SEGMENT PARA USE32 PUBLIC 'CODE'
_TEXT	ENDS
;	COMDAT ??0CTODayViewDayGroupAllDayEvents@CXTPCalendarTheme@@QAE@XZ
_TEXT	SEGMENT PARA USE32 PUBLIC 'CODE'
_TEXT	ENDS
;	COMDAT ??1CTODayViewDayGroupAllDayEvents@CXTPCalendarTheme@@UAE@XZ
_TEXT	SEGMENT PARA USE32 PUBLIC 'CODE'
_TEXT	ENDS
;	COMDAT ??0CTODayViewDayGroupAllDayEvents_Base@CXTPCalendarThemeOffice2007@@QAE@XZ
_TEXT	SEGMENT PARA USE32 PUBLIC 'CODE'
_TEXT	ENDS
;	COMDAT ??1CTODayViewDayGroupAllDayEvents_Base@CXTPCalendarThemeOffice2007@@UAE@XZ
_TEXT	SEGMENT PARA USE32 PUBLIC 'CODE'
_TEXT	ENDS
;	COMDAT ??_GCTODayViewDayGroupCell@CXTPCalendarThemeOffice2007@@UAEPAXI@Z
_TEXT	SEGMENT PARA USE32 PUBLIC 'CODE'
_TEXT	ENDS
;	COMDAT ??0CTODayViewDayGroupCell@CXTPCalendarTheme@@QAE@XZ
_TEXT	SEGMENT PARA USE32 PUBLIC 'CODE'
_TEXT	ENDS
;	COMDAT ??1CTODayViewDayGroupCell@CXTPCalendarTheme@@UAE@XZ
_TEXT	SEGMENT PARA USE32 PUBLIC 'CODE'
_TEXT	ENDS
;	COMDAT ??0CTODayViewDayGroupCell_Base@CXTPCalendarThemeOffice2007@@QAE@XZ
_TEXT	SEGMENT PARA USE32 PUBLIC 'CODE'
_TEXT	ENDS
;	COMDAT ??1CTODayViewDayGroupCell_Base@CXTPCalendarThemeOffice2007@@UAE@XZ
_TEXT	SEGMENT PARA USE32 PUBLIC 'CODE'
_TEXT	ENDS
;	COMDAT ??_GCTODayViewEvent_MultiDay@CXTPCalendarThemeOffice2007@@UAEPAXI@Z
_TEXT	SEGMENT PARA USE32 PUBLIC 'CODE'
_TEXT	ENDS
;	COMDAT ??0CTOEvent@CXTPCalendarTheme@@QAE@XZ
_TEXT	SEGMENT PARA USE32 PUBLIC 'CODE'
_TEXT	ENDS
;	COMDAT ??1CTOEvent@CXTPCalendarTheme@@UAE@XZ
_TEXT	SEGMENT PARA USE32 PUBLIC 'CODE'
_TEXT	ENDS
;	COMDAT ??0CTOEvent_Base@CXTPCalendarThemeOffice2007@@QAE@XZ
_TEXT	SEGMENT PARA USE32 PUBLIC 'CODE'
_TEXT	ENDS
;	COMDAT ??1CTOEvent_Base@CXTPCalendarThemeOffice2007@@UAE@XZ
_TEXT	SEGMENT PARA USE32 PUBLIC 'CODE'
_TEXT	ENDS
;	COMDAT ??1CTOEvent@CXTPCalendarThemeOffice2007@@UAE@XZ
_TEXT	SEGMENT PARA USE32 PUBLIC 'CODE'
_TEXT	ENDS
;	COMDAT ??0CTODayViewEvent_Base@CXTPCalendarThemeOffice2007@@QAE@XZ
_TEXT	SEGMENT PARA USE32 PUBLIC 'CODE'
_TEXT	ENDS
;	COMDAT ??1CTODayViewEvent_Base@CXTPCalendarThemeOffice2007@@UAE@XZ
_TEXT	SEGMENT PARA USE32 PUBLIC 'CODE'
_TEXT	ENDS
;	COMDAT ??0CTODayViewEvent@CXTPCalendarTheme@@QAE@XZ
_TEXT	SEGMENT PARA USE32 PUBLIC 'CODE'
_TEXT	ENDS
;	COMDAT ??1CTODayViewEvent@CXTPCalendarTheme@@UAE@XZ
_TEXT	SEGMENT PARA USE32 PUBLIC 'CODE'
_TEXT	ENDS
;	COMDAT ??0CTODayViewEvent_Base2@CXTPCalendarThemeOffice2007@@QAE@XZ
_TEXT	SEGMENT PARA USE32 PUBLIC 'CODE'
_TEXT	ENDS
;	COMDAT ??1CTODayViewEvent_Base2@CXTPCalendarThemeOffice2007@@UAE@XZ
_TEXT	SEGMENT PARA USE32 PUBLIC 'CODE'
_TEXT	ENDS
;	COMDAT ??1CTODayViewEvent@CXTPCalendarThemeOffice2007@@UAE@XZ
_TEXT	SEGMENT PARA USE32 PUBLIC 'CODE'
_TEXT	ENDS
;	COMDAT ??0CTODayViewEvent_MultiDay_Base@CXTPCalendarThemeOffice2007@@QAE@XZ
_TEXT	SEGMENT PARA USE32 PUBLIC 'CODE'
_TEXT	ENDS
;	COMDAT ??1CTODayViewEvent_MultiDay_Base@CXTPCalendarThemeOffice2007@@UAE@XZ
_TEXT	SEGMENT PARA USE32 PUBLIC 'CODE'
_TEXT	ENDS
;	COMDAT ??0CTODayViewEvent_MultiDay@CXTPCalendarTheme@@QAE@XZ
_TEXT	SEGMENT PARA USE32 PUBLIC 'CODE'
_TEXT	ENDS
;	COMDAT ??1CTODayViewEvent_MultiDay@CXTPCalendarTheme@@UAE@XZ
_TEXT	SEGMENT PARA USE32 PUBLIC 'CODE'
_TEXT	ENDS
;	COMDAT ??0CTODayViewEvent_MultiDay_Base2@CXTPCalendarThemeOffice2007@@QAE@XZ
_TEXT	SEGMENT PARA USE32 PUBLIC 'CODE'
_TEXT	ENDS
;	COMDAT ??1CTODayViewEvent_MultiDay_Base2@CXTPCalendarThemeOffice2007@@UAE@XZ
_TEXT	SEGMENT PARA USE32 PUBLIC 'CODE'
_TEXT	ENDS
;	COMDAT ??_GCTODayViewEvent_SingleDay@CXTPCalendarThemeOffice2007@@UAEPAXI@Z
_TEXT	SEGMENT PARA USE32 PUBLIC 'CODE'
_TEXT	ENDS
;	COMDAT ??0CTODayViewEvent_SingleDay_Base@CXTPCalendarThemeOffice2007@@QAE@XZ
_TEXT	SEGMENT PARA USE32 PUBLIC 'CODE'
_TEXT	ENDS
;	COMDAT ??1CTODayViewEvent_SingleDay_Base@CXTPCalendarThemeOffice2007@@UAE@XZ
_TEXT	SEGMENT PARA USE32 PUBLIC 'CODE'
_TEXT	ENDS
;	COMDAT ??0CTODayViewEvent_SingleDay@CXTPCalendarTheme@@QAE@XZ
_TEXT	SEGMENT PARA USE32 PUBLIC 'CODE'
_TEXT	ENDS
;	COMDAT ??1CTODayViewEvent_SingleDay@CXTPCalendarTheme@@UAE@XZ
_TEXT	SEGMENT PARA USE32 PUBLIC 'CODE'
_TEXT	ENDS
;	COMDAT ??0CTODayViewEvent_SingleDay_Base2@CXTPCalendarThemeOffice2007@@QAE@XZ
_TEXT	SEGMENT PARA USE32 PUBLIC 'CODE'
_TEXT	ENDS
;	COMDAT ??1CTODayViewEvent_SingleDay_Base2@CXTPCalendarThemeOffice2007@@UAE@XZ
_TEXT	SEGMENT PARA USE32 PUBLIC 'CODE'
_TEXT	ENDS
;	COMDAT ??_DCTODayViewDayHeader@CXTPCalendarThemeOffice2007@@QAEXXZ
_TEXT	SEGMENT PARA USE32 PUBLIC 'CODE'
_TEXT	ENDS
;	COMDAT ??_GCTOHeader@CXTPCalendarTheme@@UAEPAXI@Z
_TEXT	SEGMENT PARA USE32 PUBLIC 'CODE'
_TEXT	ENDS
;	COMDAT ??0CHeaderBackground@CTOHeader@CXTPCalendarTheme@@QAE@XZ
_TEXT	SEGMENT PARA USE32 PUBLIC 'CODE'
_TEXT	ENDS
;	COMDAT ??1CHeaderBackground@CTOHeader@CXTPCalendarTheme@@QAE@XZ
_TEXT	SEGMENT PARA USE32 PUBLIC 'CODE'
_TEXT	ENDS
;	COMDAT ??0CHeaderText@CTOHeader@CXTPCalendarTheme@@QAE@XZ
_TEXT	SEGMENT PARA USE32 PUBLIC 'CODE'
_TEXT	ENDS
;	COMDAT ??1CHeaderText@CTOHeader@CXTPCalendarTheme@@QAE@XZ
_TEXT	SEGMENT PARA USE32 PUBLIC 'CODE'
_TEXT	ENDS
;	COMDAT ??_GCTOHeader_Base@CXTPCalendarThemeOffice2007@@UAEPAXI@Z
_TEXT	SEGMENT PARA USE32 PUBLIC 'CODE'
_TEXT	ENDS
;	COMDAT ??_GCTOHeader@CXTPCalendarThemeOffice2007@@UAEPAXI@Z
_TEXT	SEGMENT PARA USE32 PUBLIC 'CODE'
_TEXT	ENDS
;	COMDAT ??_GCTODayViewDayHeader_Base@CXTPCalendarThemeOffice2007@@UAEPAXI@Z
_TEXT	SEGMENT PARA USE32 PUBLIC 'CODE'
_TEXT	ENDS
;	COMDAT ??_GCTODayViewDayHeader@CXTPCalendarTheme@@UAEPAXI@Z
_TEXT	SEGMENT PARA USE32 PUBLIC 'CODE'
_TEXT	ENDS
;	COMDAT ??_GCTODayViewDayHeader_Base2@CXTPCalendarThemeOffice2007@@UAEPAXI@Z
_TEXT	SEGMENT PARA USE32 PUBLIC 'CODE'
_TEXT	ENDS
;	COMDAT ??_GCTODayViewDayGroup@CXTPCalendarThemeOffice2007@@UAEPAXI@Z
_TEXT	SEGMENT PARA USE32 PUBLIC 'CODE'
_TEXT	ENDS
;	COMDAT ??0CTODayViewDayGroup@CXTPCalendarTheme@@QAE@XZ
_TEXT	SEGMENT PARA USE32 PUBLIC 'CODE'
_TEXT	ENDS
;	COMDAT ??1CTODayViewDayGroup@CXTPCalendarTheme@@UAE@XZ
_TEXT	SEGMENT PARA USE32 PUBLIC 'CODE'
_TEXT	ENDS
;	COMDAT ??0CTODayViewDayGroup_Base@CXTPCalendarThemeOffice2007@@QAE@XZ
_TEXT	SEGMENT PARA USE32 PUBLIC 'CODE'
_TEXT	ENDS
;	COMDAT ??1CTODayViewDayGroup_Base@CXTPCalendarThemeOffice2007@@UAE@XZ
_TEXT	SEGMENT PARA USE32 PUBLIC 'CODE'
_TEXT	ENDS
;	COMDAT ??_GCTODayViewHeader@CXTPCalendarThemeOffice2007@@UAEPAXI@Z
_TEXT	SEGMENT PARA USE32 PUBLIC 'CODE'
_TEXT	ENDS
;	COMDAT ??0CTODayViewHeader_Base@CXTPCalendarThemeOffice2007@@QAE@XZ
_TEXT	SEGMENT PARA USE32 PUBLIC 'CODE'
_TEXT	ENDS
;	COMDAT ??1CTODayViewHeader_Base@CXTPCalendarThemeOffice2007@@UAE@XZ
_TEXT	SEGMENT PARA USE32 PUBLIC 'CODE'
_TEXT	ENDS
;	COMDAT ??_GCTODayViewEvent@CXTPCalendarThemeOffice2007@@UAEPAXI@Z
_TEXT	SEGMENT PARA USE32 PUBLIC 'CODE'
_TEXT	ENDS
;	COMDAT ??_GCTODayViewTimeScale@CXTPCalendarThemeOffice2007@@UAEPAXI@Z
_TEXT	SEGMENT PARA USE32 PUBLIC 'CODE'
_TEXT	ENDS
;	COMDAT ??0CTODayViewTimeScale_Base@CXTPCalendarThemeOffice2007@@QAE@XZ
_TEXT	SEGMENT PARA USE32 PUBLIC 'CODE'
_TEXT	ENDS
;	COMDAT ??1CTODayViewTimeScale_Base@CXTPCalendarThemeOffice2007@@UAE@XZ
_TEXT	SEGMENT PARA USE32 PUBLIC 'CODE'
_TEXT	ENDS
;	COMDAT ??_GCTODayViewDay@CXTPCalendarThemeOffice2007@@UAEPAXI@Z
_TEXT	SEGMENT PARA USE32 PUBLIC 'CODE'
_TEXT	ENDS
;	COMDAT ??0CTODayViewDay@CXTPCalendarTheme@@QAE@XZ
_TEXT	SEGMENT PARA USE32 PUBLIC 'CODE'
_TEXT	ENDS
;	COMDAT ??1CTODayViewDay@CXTPCalendarTheme@@UAE@XZ
_TEXT	SEGMENT PARA USE32 PUBLIC 'CODE'
_TEXT	ENDS
;	COMDAT ??0CTODayViewDay_Base@CXTPCalendarThemeOffice2007@@QAE@XZ
_TEXT	SEGMENT PARA USE32 PUBLIC 'CODE'
_TEXT	ENDS
;	COMDAT ??1CTODayViewDay_Base@CXTPCalendarThemeOffice2007@@UAE@XZ
_TEXT	SEGMENT PARA USE32 PUBLIC 'CODE'
_TEXT	ENDS
;	COMDAT ??_GCTOMonthViewDayHeader@CXTPCalendarThemeOffice2007@@UAEPAXI@Z
_TEXT	SEGMENT PARA USE32 PUBLIC 'CODE'
_TEXT	ENDS
;	COMDAT ??0CTOMonthViewDayHeader_Base@CXTPCalendarThemeOffice2007@@QAE@XZ
_TEXT	SEGMENT PARA USE32 PUBLIC 'CODE'
_TEXT	ENDS
;	COMDAT ??1CTOMonthViewDayHeader_Base@CXTPCalendarThemeOffice2007@@UAE@XZ
_TEXT	SEGMENT PARA USE32 PUBLIC 'CODE'
_TEXT	ENDS
;	COMDAT ??0CTOMonthViewDayHeader@CXTPCalendarTheme@@QAE@XZ
_TEXT	SEGMENT PARA USE32 PUBLIC 'CODE'
_TEXT	ENDS
;	COMDAT ??1CTOMonthViewDayHeader@CXTPCalendarTheme@@UAE@XZ
_TEXT	SEGMENT PARA USE32 PUBLIC 'CODE'
_TEXT	ENDS
;	COMDAT ??0CTOMonthViewDayHeader_Base2@CXTPCalendarThemeOffice2007@@QAE@XZ
_TEXT	SEGMENT PARA USE32 PUBLIC 'CODE'
_TEXT	ENDS
;	COMDAT ??1CTOMonthViewDayHeader_Base2@CXTPCalendarThemeOffice2007@@UAE@XZ
_TEXT	SEGMENT PARA USE32 PUBLIC 'CODE'
_TEXT	ENDS
;	COMDAT ??_GCTOMonthViewEvent_MultiDay@CXTPCalendarThemeOffice2007@@UAEPAXI@Z
_TEXT	SEGMENT PARA USE32 PUBLIC 'CODE'
_TEXT	ENDS
;	COMDAT ??0CTOMonthViewEvent_Base@CXTPCalendarThemeOffice2007@@QAE@XZ
_TEXT	SEGMENT PARA USE32 PUBLIC 'CODE'
_TEXT	ENDS
;	COMDAT ??1CTOMonthViewEvent_Base@CXTPCalendarThemeOffice2007@@UAE@XZ
_TEXT	SEGMENT PARA USE32 PUBLIC 'CODE'
_TEXT	ENDS
;	COMDAT ??0CTOMonthViewEvent@CXTPCalendarTheme@@QAE@XZ
_TEXT	SEGMENT PARA USE32 PUBLIC 'CODE'
_TEXT	ENDS
;	COMDAT ??1CTOMonthViewEvent@CXTPCalendarTheme@@UAE@XZ
_TEXT	SEGMENT PARA USE32 PUBLIC 'CODE'
_TEXT	ENDS
;	COMDAT ??0CTOMonthViewEvent_Base2@CXTPCalendarThemeOffice2007@@QAE@XZ
_TEXT	SEGMENT PARA USE32 PUBLIC 'CODE'
_TEXT	ENDS
;	COMDAT ??1CTOMonthViewEvent_Base2@CXTPCalendarThemeOffice2007@@UAE@XZ
_TEXT	SEGMENT PARA USE32 PUBLIC 'CODE'
_TEXT	ENDS
;	COMDAT ??1CTOMonthViewEvent@CXTPCalendarThemeOffice2007@@UAE@XZ
_TEXT	SEGMENT PARA USE32 PUBLIC 'CODE'
_TEXT	ENDS
;	COMDAT ??0CTOMonthViewEvent_MultiDay_Base@CXTPCalendarThemeOffice2007@@QAE@XZ
_TEXT	SEGMENT PARA USE32 PUBLIC 'CODE'
_TEXT	ENDS
;	COMDAT ??1CTOMonthViewEvent_MultiDay_Base@CXTPCalendarThemeOffice2007@@UAE@XZ
_TEXT	SEGMENT PARA USE32 PUBLIC 'CODE'
_TEXT	ENDS
;	COMDAT ??0CTOMonthViewEvent_MultiDay@CXTPCalendarTheme@@QAE@XZ
_TEXT	SEGMENT PARA USE32 PUBLIC 'CODE'
_TEXT	ENDS
;	COMDAT ??1CTOMonthViewEvent_MultiDay@CXTPCalendarTheme@@UAE@XZ
_TEXT	SEGMENT PARA USE32 PUBLIC 'CODE'
_TEXT	ENDS
;	COMDAT ??0CTOMonthViewEvent_MultiDay_Base2@CXTPCalendarThemeOffice2007@@QAE@XZ
_TEXT	SEGMENT PARA USE32 PUBLIC 'CODE'
_TEXT	ENDS
;	COMDAT ??1CTOMonthViewEvent_MultiDay_Base2@CXTPCalendarThemeOffice2007@@UAE@XZ
_TEXT	SEGMENT PARA USE32 PUBLIC 'CODE'
_TEXT	ENDS
;	COMDAT ??_GCTOMonthViewEvent_SingleDay@CXTPCalendarThemeOffice2007@@UAEPAXI@Z
_TEXT	SEGMENT PARA USE32 PUBLIC 'CODE'
_TEXT	ENDS
;	COMDAT ??0CTOMonthViewEvent_SingleDay_Base@CXTPCalendarThemeOffice2007@@QAE@XZ
_TEXT	SEGMENT PARA USE32 PUBLIC 'CODE'
_TEXT	ENDS
;	COMDAT ??1CTOMonthViewEvent_SingleDay_Base@CXTPCalendarThemeOffice2007@@UAE@XZ
_TEXT	SEGMENT PARA USE32 PUBLIC 'CODE'
_TEXT	ENDS
;	COMDAT ??0CTOMonthViewEvent_SingleDay@CXTPCalendarTheme@@QAE@XZ
_TEXT	SEGMENT PARA USE32 PUBLIC 'CODE'
_TEXT	ENDS
;	COMDAT ??1CTOMonthViewEvent_SingleDay@CXTPCalendarTheme@@UAE@XZ
_TEXT	SEGMENT PARA USE32 PUBLIC 'CODE'
_TEXT	ENDS
;	COMDAT ??0CTOMonthViewEvent_SingleDay_Base2@CXTPCalendarThemeOffice2007@@QAE@XZ
_TEXT	SEGMENT PARA USE32 PUBLIC 'CODE'
_TEXT	ENDS
;	COMDAT ??1CTOMonthViewEvent_SingleDay_Base2@CXTPCalendarThemeOffice2007@@UAE@XZ
_TEXT	SEGMENT PARA USE32 PUBLIC 'CODE'
_TEXT	ENDS
;	COMDAT ??_DCTOMonthViewWeekDayHeader@CXTPCalendarThemeOffice2007@@QAEXXZ
_TEXT	SEGMENT PARA USE32 PUBLIC 'CODE'
_TEXT	ENDS
;	COMDAT ??_GCTOMonthViewWeekDayHeader_Base@CXTPCalendarThemeOffice2007@@UAEPAXI@Z
_TEXT	SEGMENT PARA USE32 PUBLIC 'CODE'
_TEXT	ENDS
;	COMDAT ??_GCTOMonthViewWeekDayHeader@CXTPCalendarTheme@@UAEPAXI@Z
_TEXT	SEGMENT PARA USE32 PUBLIC 'CODE'
_TEXT	ENDS
;	COMDAT ??_GCTOMonthViewWeekDayHeader_Base2@CXTPCalendarThemeOffice2007@@UAEPAXI@Z
_TEXT	SEGMENT PARA USE32 PUBLIC 'CODE'
_TEXT	ENDS
;	COMDAT ??_DCTOMonthViewWeekHeader@CXTPCalendarThemeOffice2007@@QAEXXZ
_TEXT	SEGMENT PARA USE32 PUBLIC 'CODE'
_TEXT	ENDS
;	COMDAT ??_GCTOMonthViewWeekHeader_Base@CXTPCalendarThemeOffice2007@@UAEPAXI@Z
_TEXT	SEGMENT PARA USE32 PUBLIC 'CODE'
_TEXT	ENDS
;	COMDAT ??_GCTOMonthViewEvent@CXTPCalendarThemeOffice2007@@UAEPAXI@Z
_TEXT	SEGMENT PARA USE32 PUBLIC 'CODE'
_TEXT	ENDS
;	COMDAT ??_GCTOMonthViewDay@CXTPCalendarThemeOffice2007@@UAEPAXI@Z
_TEXT	SEGMENT PARA USE32 PUBLIC 'CODE'
_TEXT	ENDS
;	COMDAT ??0CTODay@CXTPCalendarTheme@@QAE@XZ
_TEXT	SEGMENT PARA USE32 PUBLIC 'CODE'
_TEXT	ENDS
;	COMDAT ??1CTODay@CXTPCalendarTheme@@UAE@XZ
_TEXT	SEGMENT PARA USE32 PUBLIC 'CODE'
_TEXT	ENDS
;	COMDAT ??0CTODay_Base@CXTPCalendarThemeOffice2007@@QAE@XZ
_TEXT	SEGMENT PARA USE32 PUBLIC 'CODE'
_TEXT	ENDS
;	COMDAT ??1CTODay_Base@CXTPCalendarThemeOffice2007@@UAE@XZ
_TEXT	SEGMENT PARA USE32 PUBLIC 'CODE'
_TEXT	ENDS
;	COMDAT ??0CTODay@CXTPCalendarThemeOffice2007@@QAE@XZ
_TEXT	SEGMENT PARA USE32 PUBLIC 'CODE'
_TEXT	ENDS
;	COMDAT ??1CTODay@CXTPCalendarThemeOffice2007@@UAE@XZ
_TEXT	SEGMENT PARA USE32 PUBLIC 'CODE'
_TEXT	ENDS
;	COMDAT ??0CTOMonthViewDay_Base@CXTPCalendarThemeOffice2007@@QAE@XZ
_TEXT	SEGMENT PARA USE32 PUBLIC 'CODE'
_TEXT	ENDS
;	COMDAT ??1CTOMonthViewDay_Base@CXTPCalendarThemeOffice2007@@UAE@XZ
_TEXT	SEGMENT PARA USE32 PUBLIC 'CODE'
_TEXT	ENDS
;	COMDAT ??0CTOMonthViewDay@CXTPCalendarTheme@@QAE@XZ
_TEXT	SEGMENT PARA USE32 PUBLIC 'CODE'
_TEXT	ENDS
;	COMDAT ??1CTOMonthViewDay@CXTPCalendarTheme@@UAE@XZ
_TEXT	SEGMENT PARA USE32 PUBLIC 'CODE'
_TEXT	ENDS
;	COMDAT ??0CTOMonthViewDay_Base2@CXTPCalendarThemeOffice2007@@QAE@XZ
_TEXT	SEGMENT PARA USE32 PUBLIC 'CODE'
_TEXT	ENDS
;	COMDAT ??1CTOMonthViewDay_Base2@CXTPCalendarThemeOffice2007@@UAE@XZ
_TEXT	SEGMENT PARA USE32 PUBLIC 'CODE'
_TEXT	ENDS
;	COMDAT ??_GCTOWeekViewDayHeader@CXTPCalendarThemeOffice2007@@UAEPAXI@Z
_TEXT	SEGMENT PARA USE32 PUBLIC 'CODE'
_TEXT	ENDS
;	COMDAT ??0CTOWeekViewDayHeader_Base@CXTPCalendarThemeOffice2007@@QAE@XZ
_TEXT	SEGMENT PARA USE32 PUBLIC 'CODE'
_TEXT	ENDS
;	COMDAT ??1CTOWeekViewDayHeader_Base@CXTPCalendarThemeOffice2007@@UAE@XZ
_TEXT	SEGMENT PARA USE32 PUBLIC 'CODE'
_TEXT	ENDS
;	COMDAT ??0CTOWeekViewDayHeader@CXTPCalendarTheme@@QAE@XZ
_TEXT	SEGMENT PARA USE32 PUBLIC 'CODE'
_TEXT	ENDS
;	COMDAT ??1CTOWeekViewDayHeader@CXTPCalendarTheme@@UAE@XZ
_TEXT	SEGMENT PARA USE32 PUBLIC 'CODE'
_TEXT	ENDS
;	COMDAT ??0CTOWeekViewDayHeader_Base2@CXTPCalendarThemeOffice2007@@QAE@XZ
_TEXT	SEGMENT PARA USE32 PUBLIC 'CODE'
_TEXT	ENDS
;	COMDAT ??1CTOWeekViewDayHeader_Base2@CXTPCalendarThemeOffice2007@@UAE@XZ
_TEXT	SEGMENT PARA USE32 PUBLIC 'CODE'
_TEXT	ENDS
;	COMDAT ??_GCTOWeekViewEvent_MultiDay@CXTPCalendarThemeOffice2007@@UAEPAXI@Z
_TEXT	SEGMENT PARA USE32 PUBLIC 'CODE'
_TEXT	ENDS
;	COMDAT ??0CTOWeekViewEvent_Base@CXTPCalendarThemeOffice2007@@QAE@XZ
_TEXT	SEGMENT PARA USE32 PUBLIC 'CODE'
_TEXT	ENDS
;	COMDAT ??1CTOWeekViewEvent_Base@CXTPCalendarThemeOffice2007@@UAE@XZ
_TEXT	SEGMENT PARA USE32 PUBLIC 'CODE'
_TEXT	ENDS
;	COMDAT ??0CTOWeekViewEvent@CXTPCalendarTheme@@QAE@XZ
_TEXT	SEGMENT PARA USE32 PUBLIC 'CODE'
_TEXT	ENDS
;	COMDAT ??1CTOWeekViewEvent@CXTPCalendarTheme@@UAE@XZ
_TEXT	SEGMENT PARA USE32 PUBLIC 'CODE'
_TEXT	ENDS
;	COMDAT ??0CTOWeekViewEvent_Base2@CXTPCalendarThemeOffice2007@@QAE@XZ
_TEXT	SEGMENT PARA USE32 PUBLIC 'CODE'
_TEXT	ENDS
;	COMDAT ??1CTOWeekViewEvent_Base2@CXTPCalendarThemeOffice2007@@UAE@XZ
_TEXT	SEGMENT PARA USE32 PUBLIC 'CODE'
_TEXT	ENDS
;	COMDAT ??1CTOWeekViewEvent@CXTPCalendarThemeOffice2007@@UAE@XZ
_TEXT	SEGMENT PARA USE32 PUBLIC 'CODE'
_TEXT	ENDS
;	COMDAT ??0CTOWeekViewEvent_MultiDay_Base@CXTPCalendarThemeOffice2007@@QAE@XZ
_TEXT	SEGMENT PARA USE32 PUBLIC 'CODE'
_TEXT	ENDS
;	COMDAT ??1CTOWeekViewEvent_MultiDay_Base@CXTPCalendarThemeOffice2007@@UAE@XZ
_TEXT	SEGMENT PARA USE32 PUBLIC 'CODE'
_TEXT	ENDS
;	COMDAT ??0CTOWeekViewEvent_MultiDay@CXTPCalendarTheme@@QAE@XZ
_TEXT	SEGMENT PARA USE32 PUBLIC 'CODE'
_TEXT	ENDS
;	COMDAT ??1CTOWeekViewEvent_MultiDay@CXTPCalendarTheme@@UAE@XZ
_TEXT	SEGMENT PARA USE32 PUBLIC 'CODE'
_TEXT	ENDS
;	COMDAT ??0CTOWeekViewEvent_MultiDay_Base2@CXTPCalendarThemeOffice2007@@QAE@XZ
_TEXT	SEGMENT PARA USE32 PUBLIC 'CODE'
_TEXT	ENDS
;	COMDAT ??1CTOWeekViewEvent_MultiDay_Base2@CXTPCalendarThemeOffice2007@@UAE@XZ
_TEXT	SEGMENT PARA USE32 PUBLIC 'CODE'
_TEXT	ENDS
;	COMDAT ??_GCTOWeekViewEvent_SingleDay@CXTPCalendarThemeOffice2007@@UAEPAXI@Z
_TEXT	SEGMENT PARA USE32 PUBLIC 'CODE'
_TEXT	ENDS
;	COMDAT ??0CTOWeekViewEvent_SingleDay_Base@CXTPCalendarThemeOffice2007@@QAE@XZ
_TEXT	SEGMENT PARA USE32 PUBLIC 'CODE'
_TEXT	ENDS
;	COMDAT ??1CTOWeekViewEvent_SingleDay_Base@CXTPCalendarThemeOffice2007@@UAE@XZ
_TEXT	SEGMENT PARA USE32 PUBLIC 'CODE'
_TEXT	ENDS
;	COMDAT ??0CTOWeekViewEvent_SingleDay@CXTPCalendarTheme@@QAE@XZ
_TEXT	SEGMENT PARA USE32 PUBLIC 'CODE'
_TEXT	ENDS
;	COMDAT ??1CTOWeekViewEvent_SingleDay@CXTPCalendarTheme@@UAE@XZ
_TEXT	SEGMENT PARA USE32 PUBLIC 'CODE'
_TEXT	ENDS
;	COMDAT ??0CTOWeekViewEvent_SingleDay_Base2@CXTPCalendarThemeOffice2007@@QAE@XZ
_TEXT	SEGMENT PARA USE32 PUBLIC 'CODE'
_TEXT	ENDS
;	COMDAT ??1CTOWeekViewEvent_SingleDay_Base2@CXTPCalendarThemeOffice2007@@UAE@XZ
_TEXT	SEGMENT PARA USE32 PUBLIC 'CODE'
_TEXT	ENDS
;	COMDAT ??_GCTOWeekViewEvent@CXTPCalendarThemeOffice2007@@UAEPAXI@Z
_TEXT	SEGMENT PARA USE32 PUBLIC 'CODE'
_TEXT	ENDS
;	COMDAT ??_GCTOWeekViewDay@CXTPCalendarThemeOffice2007@@UAEPAXI@Z
_TEXT	SEGMENT PARA USE32 PUBLIC 'CODE'
_TEXT	ENDS
;	COMDAT ??0CTOWeekViewDay_Base@CXTPCalendarThemeOffice2007@@QAE@XZ
_TEXT	SEGMENT PARA USE32 PUBLIC 'CODE'
_TEXT	ENDS
;	COMDAT ??1CTOWeekViewDay_Base@CXTPCalendarThemeOffice2007@@UAE@XZ
_TEXT	SEGMENT PARA USE32 PUBLIC 'CODE'
_TEXT	ENDS
;	COMDAT ??0CTOWeekViewDay@CXTPCalendarTheme@@QAE@XZ
_TEXT	SEGMENT PARA USE32 PUBLIC 'CODE'
_TEXT	ENDS
;	COMDAT ??1CTOWeekViewDay@CXTPCalendarTheme@@UAE@XZ
_TEXT	SEGMENT PARA USE32 PUBLIC 'CODE'
_TEXT	ENDS
;	COMDAT ??0CTOWeekViewDay_Base2@CXTPCalendarThemeOffice2007@@QAE@XZ
_TEXT	SEGMENT PARA USE32 PUBLIC 'CODE'
_TEXT	ENDS
;	COMDAT ??1CTOWeekViewDay_Base2@CXTPCalendarThemeOffice2007@@UAE@XZ
_TEXT	SEGMENT PARA USE32 PUBLIC 'CODE'
_TEXT	ENDS
;	COMDAT ??_GCTOEvent@CXTPCalendarThemeOffice2007@@UAEPAXI@Z
_TEXT	SEGMENT PARA USE32 PUBLIC 'CODE'
_TEXT	ENDS
;	COMDAT ??0CEventFontsColorsSet@CTOEvent@CXTPCalendarThemeOffice2007@@QAE@XZ
_TEXT	SEGMENT PARA USE32 PUBLIC 'CODE'
_TEXT	ENDS
;	COMDAT ??1CEventFontsColorsSet@CTOEvent@CXTPCalendarThemeOffice2007@@QAE@XZ
_TEXT	SEGMENT PARA USE32 PUBLIC 'CODE'
_TEXT	ENDS
;	COMDAT ??_GCTODayView@CXTPCalendarThemeOffice2007@@UAEPAXI@Z
_TEXT	SEGMENT PARA USE32 PUBLIC 'CODE'
_TEXT	ENDS
;	COMDAT ??0CTODayView@CXTPCalendarTheme@@QAE@XZ
_TEXT	SEGMENT PARA USE32 PUBLIC 'CODE'
_TEXT	ENDS
;	COMDAT ??1CTODayView@CXTPCalendarTheme@@UAE@XZ
_TEXT	SEGMENT PARA USE32 PUBLIC 'CODE'
_TEXT	ENDS
;	COMDAT ??0CTODayView_Base@CXTPCalendarThemeOffice2007@@QAE@XZ
_TEXT	SEGMENT PARA USE32 PUBLIC 'CODE'
_TEXT	ENDS
;	COMDAT ??1CTODayView_Base@CXTPCalendarThemeOffice2007@@UAE@XZ
_TEXT	SEGMENT PARA USE32 PUBLIC 'CODE'
_TEXT	ENDS
;	COMDAT ??_GCTOMonthView@CXTPCalendarThemeOffice2007@@UAEPAXI@Z
_TEXT	SEGMENT PARA USE32 PUBLIC 'CODE'
_TEXT	ENDS
;	COMDAT ??0CTOMonthView@CXTPCalendarTheme@@QAE@XZ
_TEXT	SEGMENT PARA USE32 PUBLIC 'CODE'
_TEXT	ENDS
;	COMDAT ??1CTOMonthView@CXTPCalendarTheme@@UAE@XZ
_TEXT	SEGMENT PARA USE32 PUBLIC 'CODE'
_TEXT	ENDS
;	COMDAT ??0CTOMonthView_Base@CXTPCalendarThemeOffice2007@@QAE@XZ
_TEXT	SEGMENT PARA USE32 PUBLIC 'CODE'
_TEXT	ENDS
;	COMDAT ??1CTOMonthView_Base@CXTPCalendarThemeOffice2007@@UAE@XZ
_TEXT	SEGMENT PARA USE32 PUBLIC 'CODE'
_TEXT	ENDS
;	COMDAT ??_GCTOWeekView@CXTPCalendarThemeOffice2007@@UAEPAXI@Z
_TEXT	SEGMENT PARA USE32 PUBLIC 'CODE'
_TEXT	ENDS
;	COMDAT ??0CTOWeekView@CXTPCalendarTheme@@QAE@XZ
_TEXT	SEGMENT PARA USE32 PUBLIC 'CODE'
_TEXT	ENDS
;	COMDAT ??1CTOWeekView@CXTPCalendarTheme@@UAE@XZ
_TEXT	SEGMENT PARA USE32 PUBLIC 'CODE'
_TEXT	ENDS
;	COMDAT ??0CTOWeekView_Base@CXTPCalendarThemeOffice2007@@QAE@XZ
_TEXT	SEGMENT PARA USE32 PUBLIC 'CODE'
_TEXT	ENDS
;	COMDAT ??1CTOWeekView_Base@CXTPCalendarThemeOffice2007@@UAE@XZ
_TEXT	SEGMENT PARA USE32 PUBLIC 'CODE'
_TEXT	ENDS
;	COMDAT ??_GCTOCellDynBackground@CXTPCalendarThemeOffice2007@@UAEPAXI@Z
_TEXT	SEGMENT PARA USE32 PUBLIC 'CODE'
_TEXT	ENDS
;	COMDAT ??0CTOCellDynBackground_Base@CXTPCalendarThemeOffice2007@@QAE@XZ
_TEXT	SEGMENT PARA USE32 PUBLIC 'CODE'
_TEXT	ENDS
;	COMDAT ??1CTOCellDynBackground_Base@CXTPCalendarThemeOffice2007@@UAE@XZ
_TEXT	SEGMENT PARA USE32 PUBLIC 'CODE'
_TEXT	ENDS
;	COMDAT ??1CTOPrevNextEventButton@CXTPCalendarThemeOffice2007@@UAE@XZ
_TEXT	SEGMENT PARA USE32 PUBLIC 'CODE'
_TEXT	ENDS
;	COMDAT ??_DCTOPrevNextEventButton_Base@CXTPCalendarThemeOffice2007@@QAEXXZ
_TEXT	SEGMENT PARA USE32 PUBLIC 'CODE'
_TEXT	ENDS
;	COMDAT ??_DCTODayViewDayGroupHeader@CXTPCalendarThemeOffice2007@@QAEXXZ
_TEXT	SEGMENT PARA USE32 PUBLIC 'CODE'
_TEXT	ENDS
;	COMDAT ??_GCTODayViewDayGroupHeader_Base@CXTPCalendarThemeOffice2007@@UAEPAXI@Z
_TEXT	SEGMENT PARA USE32 PUBLIC 'CODE'
_TEXT	ENDS
;	COMDAT ??_GCTODayViewDayGroupHeader@CXTPCalendarTheme@@UAEPAXI@Z
_TEXT	SEGMENT PARA USE32 PUBLIC 'CODE'
_TEXT	ENDS
;	COMDAT ??_GCTODayViewDayGroupHeader_Base2@CXTPCalendarThemeOffice2007@@UAEPAXI@Z
_TEXT	SEGMENT PARA USE32 PUBLIC 'CODE'
_TEXT	ENDS
;	COMDAT ??_DCTODayViewDayGroupAllDayEvents@CXTPCalendarThemeOffice2007@@QAEXXZ
_TEXT	SEGMENT PARA USE32 PUBLIC 'CODE'
_TEXT	ENDS
;	COMDAT ??_GCTODayViewDayGroupAllDayEvents@CXTPCalendarTheme@@UAEPAXI@Z
_TEXT	SEGMENT PARA USE32 PUBLIC 'CODE'
_TEXT	ENDS
;	COMDAT ??_GCTODayViewDayGroupAllDayEvents_Base@CXTPCalendarThemeOffice2007@@UAEPAXI@Z
_TEXT	SEGMENT PARA USE32 PUBLIC 'CODE'
_TEXT	ENDS
;	COMDAT ??_DCTODayViewDayGroupCell@CXTPCalendarThemeOffice2007@@QAEXXZ
_TEXT	SEGMENT PARA USE32 PUBLIC 'CODE'
_TEXT	ENDS
;	COMDAT ??_GCTODayViewDayGroupCell@CXTPCalendarTheme@@UAEPAXI@Z
_TEXT	SEGMENT PARA USE32 PUBLIC 'CODE'
_TEXT	ENDS
;	COMDAT ??0XTP_GROUP_CELL_COLOR_SET@CTODayViewDayGroupCell@CXTPCalendarTheme@@QAE@XZ
_TEXT	SEGMENT PARA USE32 PUBLIC 'CODE'
_TEXT	ENDS
;	COMDAT ??_GCTODayViewDayGroupCell_Base@CXTPCalendarThemeOffice2007@@UAEPAXI@Z
_TEXT	SEGMENT PARA USE32 PUBLIC 'CODE'
_TEXT	ENDS
;	COMDAT ??_DCTODayViewEvent_MultiDay@CXTPCalendarThemeOffice2007@@QAEXXZ
_TEXT	SEGMENT PARA USE32 PUBLIC 'CODE'
_TEXT	ENDS
;	COMDAT ??_GCTOEvent@CXTPCalendarTheme@@UAEPAXI@Z
_TEXT	SEGMENT PARA USE32 PUBLIC 'CODE'
_TEXT	ENDS
;	COMDAT ??_GCTOEvent_Base@CXTPCalendarThemeOffice2007@@UAEPAXI@Z
_TEXT	SEGMENT PARA USE32 PUBLIC 'CODE'
_TEXT	ENDS
;	COMDAT ??_GCTODayViewEvent_Base@CXTPCalendarThemeOffice2007@@UAEPAXI@Z
_TEXT	SEGMENT PARA USE32 PUBLIC 'CODE'
_TEXT	ENDS
;	COMDAT ??_GCTODayViewEvent@CXTPCalendarTheme@@UAEPAXI@Z
_TEXT	SEGMENT PARA USE32 PUBLIC 'CODE'
_TEXT	ENDS
;	COMDAT ??_GCTODayViewEvent_Base2@CXTPCalendarThemeOffice2007@@UAEPAXI@Z
_TEXT	SEGMENT PARA USE32 PUBLIC 'CODE'
_TEXT	ENDS
;	COMDAT ??_GCTODayViewEvent_MultiDay_Base@CXTPCalendarThemeOffice2007@@UAEPAXI@Z
_TEXT	SEGMENT PARA USE32 PUBLIC 'CODE'
_TEXT	ENDS
;	COMDAT ??_GCTODayViewEvent_MultiDay@CXTPCalendarTheme@@UAEPAXI@Z
_TEXT	SEGMENT PARA USE32 PUBLIC 'CODE'
_TEXT	ENDS
;	COMDAT ??_GCTODayViewEvent_MultiDay_Base2@CXTPCalendarThemeOffice2007@@UAEPAXI@Z
_TEXT	SEGMENT PARA USE32 PUBLIC 'CODE'
_TEXT	ENDS
;	COMDAT ??_DCTODayViewEvent_SingleDay@CXTPCalendarThemeOffice2007@@QAEXXZ
_TEXT	SEGMENT PARA USE32 PUBLIC 'CODE'
_TEXT	ENDS
;	COMDAT ??_GCTODayViewEvent_SingleDay_Base@CXTPCalendarThemeOffice2007@@UAEPAXI@Z
_TEXT	SEGMENT PARA USE32 PUBLIC 'CODE'
_TEXT	ENDS
;	COMDAT ??_GCTODayViewEvent_SingleDay@CXTPCalendarTheme@@UAEPAXI@Z
_TEXT	SEGMENT PARA USE32 PUBLIC 'CODE'
_TEXT	ENDS
;	COMDAT ??0?$CXTPCalendarTypedPtrAutoDeleteMap@HPAVCXTPCalendarViewPartBrushValue@@@@QAE@XZ
_TEXT	SEGMENT PARA USE32 PUBLIC 'CODE'
_TEXT	ENDS
;	COMDAT ??_GCTODayViewEvent_SingleDay_Base2@CXTPCalendarThemeOffice2007@@UAEPAXI@Z
_TEXT	SEGMENT PARA USE32 PUBLIC 'CODE'
_TEXT	ENDS
;	COMDAT ??1CTODayViewDayHeader@CXTPCalendarThemeOffice2007@@UAE@XZ
_TEXT	SEGMENT PARA USE32 PUBLIC 'CODE'
_TEXT	ENDS
;	COMDAT ??_DCTOHeader@CXTPCalendarTheme@@QAEXXZ
_TEXT	SEGMENT PARA USE32 PUBLIC 'CODE'
_TEXT	ENDS
;	COMDAT ??_DCTOHeader_Base@CXTPCalendarThemeOffice2007@@QAEXXZ
_TEXT	SEGMENT PARA USE32 PUBLIC 'CODE'
_TEXT	ENDS
;	COMDAT ??_DCTOHeader@CXTPCalendarThemeOffice2007@@QAEXXZ
_TEXT	SEGMENT PARA USE32 PUBLIC 'CODE'
_TEXT	ENDS
;	COMDAT ??_DCTODayViewDayHeader_Base@CXTPCalendarThemeOffice2007@@QAEXXZ
_TEXT	SEGMENT PARA USE32 PUBLIC 'CODE'
_TEXT	ENDS
;	COMDAT ??_DCTODayViewDayHeader@CXTPCalendarTheme@@QAEXXZ
_TEXT	SEGMENT PARA USE32 PUBLIC 'CODE'
_TEXT	ENDS
;	COMDAT ??_DCTODayViewDayHeader_Base2@CXTPCalendarThemeOffice2007@@QAEXXZ
_TEXT	SEGMENT PARA USE32 PUBLIC 'CODE'
_TEXT	ENDS
;	COMDAT ??_DCTODayViewDayGroup@CXTPCalendarThemeOffice2007@@QAEXXZ
_TEXT	SEGMENT PARA USE32 PUBLIC 'CODE'
_TEXT	ENDS
;	COMDAT ??_GCTODayViewDayGroup@CXTPCalendarTheme@@UAEPAXI@Z
_TEXT	SEGMENT PARA USE32 PUBLIC 'CODE'
_TEXT	ENDS
;	COMDAT ??_GCTODayViewDayGroup_Base@CXTPCalendarThemeOffice2007@@UAEPAXI@Z
_TEXT	SEGMENT PARA USE32 PUBLIC 'CODE'
_TEXT	ENDS
;	COMDAT ??_DCTODayViewHeader@CXTPCalendarThemeOffice2007@@QAEXXZ
_TEXT	SEGMENT PARA USE32 PUBLIC 'CODE'
_TEXT	ENDS
;	COMDAT ??_GCTODayViewHeader_Base@CXTPCalendarThemeOffice2007@@UAEPAXI@Z
_TEXT	SEGMENT PARA USE32 PUBLIC 'CODE'
_TEXT	ENDS
;	COMDAT ??_DCTODayViewEvent@CXTPCalendarThemeOffice2007@@QAEXXZ
_TEXT	SEGMENT PARA USE32 PUBLIC 'CODE'
_TEXT	ENDS
;	COMDAT ??_DCTODayViewTimeScale@CXTPCalendarThemeOffice2007@@QAEXXZ
_TEXT	SEGMENT PARA USE32 PUBLIC 'CODE'
_TEXT	ENDS
;	COMDAT ??_GCTODayViewTimeScale_Base@CXTPCalendarThemeOffice2007@@UAEPAXI@Z
_TEXT	SEGMENT PARA USE32 PUBLIC 'CODE'
_TEXT	ENDS
;	COMDAT ??_DCTODayViewDay@CXTPCalendarThemeOffice2007@@QAEXXZ
_TEXT	SEGMENT PARA USE32 PUBLIC 'CODE'
_TEXT	ENDS
;	COMDAT ??_GCTODayViewDay@CXTPCalendarTheme@@UAEPAXI@Z
_TEXT	SEGMENT PARA USE32 PUBLIC 'CODE'
_TEXT	ENDS
;	COMDAT ??_GCTODayViewDay_Base@CXTPCalendarThemeOffice2007@@UAEPAXI@Z
_TEXT	SEGMENT PARA USE32 PUBLIC 'CODE'
_TEXT	ENDS
;	COMDAT ??_DCTOMonthViewDayHeader@CXTPCalendarThemeOffice2007@@QAEXXZ
_TEXT	SEGMENT PARA USE32 PUBLIC 'CODE'
_TEXT	ENDS
;	COMDAT ??_GCTOMonthViewDayHeader_Base@CXTPCalendarThemeOffice2007@@UAEPAXI@Z
_TEXT	SEGMENT PARA USE32 PUBLIC 'CODE'
_TEXT	ENDS
;	COMDAT ??_GCTOMonthViewDayHeader@CXTPCalendarTheme@@UAEPAXI@Z
_TEXT	SEGMENT PARA USE32 PUBLIC 'CODE'
_TEXT	ENDS
;	COMDAT ??_GCTOMonthViewDayHeader_Base2@CXTPCalendarThemeOffice2007@@UAEPAXI@Z
_TEXT	SEGMENT PARA USE32 PUBLIC 'CODE'
_TEXT	ENDS
;	COMDAT ??_DCTOMonthViewEvent_MultiDay@CXTPCalendarThemeOffice2007@@QAEXXZ
_TEXT	SEGMENT PARA USE32 PUBLIC 'CODE'
_TEXT	ENDS
;	COMDAT ??_GCTOMonthViewEvent_Base@CXTPCalendarThemeOffice2007@@UAEPAXI@Z
_TEXT	SEGMENT PARA USE32 PUBLIC 'CODE'
_TEXT	ENDS
;	COMDAT ??_GCTOMonthViewEvent@CXTPCalendarTheme@@UAEPAXI@Z
_TEXT	SEGMENT PARA USE32 PUBLIC 'CODE'
_TEXT	ENDS
;	COMDAT ??_GCTOMonthViewEvent_Base2@CXTPCalendarThemeOffice2007@@UAEPAXI@Z
_TEXT	SEGMENT PARA USE32 PUBLIC 'CODE'
_TEXT	ENDS
;	COMDAT ??_GCTOMonthViewEvent_MultiDay_Base@CXTPCalendarThemeOffice2007@@UAEPAXI@Z
_TEXT	SEGMENT PARA USE32 PUBLIC 'CODE'
_TEXT	ENDS
;	COMDAT ??_GCTOMonthViewEvent_MultiDay@CXTPCalendarTheme@@UAEPAXI@Z
_TEXT	SEGMENT PARA USE32 PUBLIC 'CODE'
_TEXT	ENDS
;	COMDAT ??_GCTOMonthViewEvent_MultiDay_Base2@CXTPCalendarThemeOffice2007@@UAEPAXI@Z
_TEXT	SEGMENT PARA USE32 PUBLIC 'CODE'
_TEXT	ENDS
;	COMDAT ??_DCTOMonthViewEvent_SingleDay@CXTPCalendarThemeOffice2007@@QAEXXZ
_TEXT	SEGMENT PARA USE32 PUBLIC 'CODE'
_TEXT	ENDS
;	COMDAT ??_GCTOMonthViewEvent_SingleDay_Base@CXTPCalendarThemeOffice2007@@UAEPAXI@Z
_TEXT	SEGMENT PARA USE32 PUBLIC 'CODE'
_TEXT	ENDS
;	COMDAT ??_GCTOMonthViewEvent_SingleDay@CXTPCalendarTheme@@UAEPAXI@Z
_TEXT	SEGMENT PARA USE32 PUBLIC 'CODE'
_TEXT	ENDS
;	COMDAT ??_GCTOMonthViewEvent_SingleDay_Base2@CXTPCalendarThemeOffice2007@@UAEPAXI@Z
_TEXT	SEGMENT PARA USE32 PUBLIC 'CODE'
_TEXT	ENDS
;	COMDAT ??1CTOMonthViewWeekDayHeader@CXTPCalendarThemeOffice2007@@UAE@XZ
_TEXT	SEGMENT PARA USE32 PUBLIC 'CODE'
_TEXT	ENDS
;	COMDAT ??_DCTOMonthViewWeekDayHeader_Base@CXTPCalendarThemeOffice2007@@QAEXXZ
_TEXT	SEGMENT PARA USE32 PUBLIC 'CODE'
_TEXT	ENDS
;	COMDAT ??_DCTOMonthViewWeekDayHeader@CXTPCalendarTheme@@QAEXXZ
_TEXT	SEGMENT PARA USE32 PUBLIC 'CODE'
_TEXT	ENDS
;	COMDAT ??_DCTOMonthViewWeekDayHeader_Base2@CXTPCalendarThemeOffice2007@@QAEXXZ
_TEXT	SEGMENT PARA USE32 PUBLIC 'CODE'
_TEXT	ENDS
;	COMDAT ??1CTOMonthViewWeekHeader@CXTPCalendarThemeOffice2007@@UAE@XZ
_TEXT	SEGMENT PARA USE32 PUBLIC 'CODE'
_TEXT	ENDS
;	COMDAT ??_DCTOMonthViewWeekHeader_Base@CXTPCalendarThemeOffice2007@@QAEXXZ
_TEXT	SEGMENT PARA USE32 PUBLIC 'CODE'
_TEXT	ENDS
;	COMDAT ??_DCTOMonthViewEvent@CXTPCalendarThemeOffice2007@@QAEXXZ
_TEXT	SEGMENT PARA USE32 PUBLIC 'CODE'
_TEXT	ENDS
;	COMDAT ??_DCTOMonthViewDay@CXTPCalendarThemeOffice2007@@QAEXXZ
_TEXT	SEGMENT PARA USE32 PUBLIC 'CODE'
_TEXT	ENDS
;	COMDAT ??_GCTODay@CXTPCalendarTheme@@UAEPAXI@Z
_TEXT	SEGMENT PARA USE32 PUBLIC 'CODE'
_TEXT	ENDS
;	COMDAT ??_GCTODay_Base@CXTPCalendarThemeOffice2007@@UAEPAXI@Z
_TEXT	SEGMENT PARA USE32 PUBLIC 'CODE'
_TEXT	ENDS
;	COMDAT ??_GCTODay@CXTPCalendarThemeOffice2007@@UAEPAXI@Z
_TEXT	SEGMENT PARA USE32 PUBLIC 'CODE'
_TEXT	ENDS
;	COMDAT ??_GCTOMonthViewDay_Base@CXTPCalendarThemeOffice2007@@UAEPAXI@Z
_TEXT	SEGMENT PARA USE32 PUBLIC 'CODE'
_TEXT	ENDS
;	COMDAT ??_GCTOMonthViewDay@CXTPCalendarTheme@@UAEPAXI@Z
_TEXT	SEGMENT PARA USE32 PUBLIC 'CODE'
_TEXT	ENDS
;	COMDAT ??_GCTOMonthViewDay_Base2@CXTPCalendarThemeOffice2007@@UAEPAXI@Z
_TEXT	SEGMENT PARA USE32 PUBLIC 'CODE'
_TEXT	ENDS
;	COMDAT ??_DCTOWeekViewDayHeader@CXTPCalendarThemeOffice2007@@QAEXXZ
_TEXT	SEGMENT PARA USE32 PUBLIC 'CODE'
_TEXT	ENDS
;	COMDAT ??_GCTOWeekViewDayHeader_Base@CXTPCalendarThemeOffice2007@@UAEPAXI@Z
_TEXT	SEGMENT PARA USE32 PUBLIC 'CODE'
_TEXT	ENDS
;	COMDAT ??_GCTOWeekViewDayHeader@CXTPCalendarTheme@@UAEPAXI@Z
_TEXT	SEGMENT PARA USE32 PUBLIC 'CODE'
_TEXT	ENDS
;	COMDAT ??_GCTOWeekViewDayHeader_Base2@CXTPCalendarThemeOffice2007@@UAEPAXI@Z
_TEXT	SEGMENT PARA USE32 PUBLIC 'CODE'
_TEXT	ENDS
;	COMDAT ??_DCTOWeekViewEvent_MultiDay@CXTPCalendarThemeOffice2007@@QAEXXZ
_TEXT	SEGMENT PARA USE32 PUBLIC 'CODE'
_TEXT	ENDS
;	COMDAT ??_GCTOWeekViewEvent_Base@CXTPCalendarThemeOffice2007@@UAEPAXI@Z
_TEXT	SEGMENT PARA USE32 PUBLIC 'CODE'
_TEXT	ENDS
;	COMDAT ??_GCTOWeekViewEvent@CXTPCalendarTheme@@UAEPAXI@Z
_TEXT	SEGMENT PARA USE32 PUBLIC 'CODE'
_TEXT	ENDS
;	COMDAT ??_GCTOWeekViewEvent_Base2@CXTPCalendarThemeOffice2007@@UAEPAXI@Z
_TEXT	SEGMENT PARA USE32 PUBLIC 'CODE'
_TEXT	ENDS
;	COMDAT ??_GCTOWeekViewEvent_MultiDay_Base@CXTPCalendarThemeOffice2007@@UAEPAXI@Z
_TEXT	SEGMENT PARA USE32 PUBLIC 'CODE'
_TEXT	ENDS
;	COMDAT ??_GCTOWeekViewEvent_MultiDay@CXTPCalendarTheme@@UAEPAXI@Z
_TEXT	SEGMENT PARA USE32 PUBLIC 'CODE'
_TEXT	ENDS
;	COMDAT ??_GCTOWeekViewEvent_MultiDay_Base2@CXTPCalendarThemeOffice2007@@UAEPAXI@Z
_TEXT	SEGMENT PARA USE32 PUBLIC 'CODE'
_TEXT	ENDS
;	COMDAT ??_DCTOWeekViewEvent_SingleDay@CXTPCalendarThemeOffice2007@@QAEXXZ
_TEXT	SEGMENT PARA USE32 PUBLIC 'CODE'
_TEXT	ENDS
;	COMDAT ??_GCTOWeekViewEvent_SingleDay_Base@CXTPCalendarThemeOffice2007@@UAEPAXI@Z
_TEXT	SEGMENT PARA USE32 PUBLIC 'CODE'
_TEXT	ENDS
;	COMDAT ??_GCTOWeekViewEvent_SingleDay@CXTPCalendarTheme@@UAEPAXI@Z
_TEXT	SEGMENT PARA USE32 PUBLIC 'CODE'
_TEXT	ENDS
;	COMDAT ??_GCTOWeekViewEvent_SingleDay_Base2@CXTPCalendarThemeOffice2007@@UAEPAXI@Z
_TEXT	SEGMENT PARA USE32 PUBLIC 'CODE'
_TEXT	ENDS
;	COMDAT ??_DCTOWeekViewEvent@CXTPCalendarThemeOffice2007@@QAEXXZ
_TEXT	SEGMENT PARA USE32 PUBLIC 'CODE'
_TEXT	ENDS
;	COMDAT ??_DCTOWeekViewDay@CXTPCalendarThemeOffice2007@@QAEXXZ
_TEXT	SEGMENT PARA USE32 PUBLIC 'CODE'
_TEXT	ENDS
;	COMDAT ??_GCTOWeekViewDay_Base@CXTPCalendarThemeOffice2007@@UAEPAXI@Z
_TEXT	SEGMENT PARA USE32 PUBLIC 'CODE'
_TEXT	ENDS
;	COMDAT ??_GCTOWeekViewDay@CXTPCalendarTheme@@UAEPAXI@Z
_TEXT	SEGMENT PARA USE32 PUBLIC 'CODE'
_TEXT	ENDS
;	COMDAT ??_GCTOWeekViewDay_Base2@CXTPCalendarThemeOffice2007@@UAEPAXI@Z
_TEXT	SEGMENT PARA USE32 PUBLIC 'CODE'
_TEXT	ENDS
;	COMDAT ??_DCTOEvent@CXTPCalendarThemeOffice2007@@QAEXXZ
_TEXT	SEGMENT PARA USE32 PUBLIC 'CODE'
_TEXT	ENDS
;	COMDAT ??_DCTODayView@CXTPCalendarThemeOffice2007@@QAEXXZ
_TEXT	SEGMENT PARA USE32 PUBLIC 'CODE'
_TEXT	ENDS
;	COMDAT ??_GCTODayView@CXTPCalendarTheme@@UAEPAXI@Z
_TEXT	SEGMENT PARA USE32 PUBLIC 'CODE'
_TEXT	ENDS
;	COMDAT ??_GCTODayView_Base@CXTPCalendarThemeOffice2007@@UAEPAXI@Z
_TEXT	SEGMENT PARA USE32 PUBLIC 'CODE'
_TEXT	ENDS
;	COMDAT ??_DCTOMonthView@CXTPCalendarThemeOffice2007@@QAEXXZ
_TEXT	SEGMENT PARA USE32 PUBLIC 'CODE'
_TEXT	ENDS
;	COMDAT ??_GCTOMonthView@CXTPCalendarTheme@@UAEPAXI@Z
_TEXT	SEGMENT PARA USE32 PUBLIC 'CODE'
_TEXT	ENDS
;	COMDAT ??_GCTOMonthView_Base@CXTPCalendarThemeOffice2007@@UAEPAXI@Z
_TEXT	SEGMENT PARA USE32 PUBLIC 'CODE'
_TEXT	ENDS
;	COMDAT ??_DCTOWeekView@CXTPCalendarThemeOffice2007@@QAEXXZ
_TEXT	SEGMENT PARA USE32 PUBLIC 'CODE'
_TEXT	ENDS
;	COMDAT ??_GCTOWeekView@CXTPCalendarTheme@@UAEPAXI@Z
_TEXT	SEGMENT PARA USE32 PUBLIC 'CODE'
_TEXT	ENDS
;	COMDAT ??_GCTOWeekView_Base@CXTPCalendarThemeOffice2007@@UAEPAXI@Z
_TEXT	SEGMENT PARA USE32 PUBLIC 'CODE'
_TEXT	ENDS
;	COMDAT ??_DCTOCellDynBackground@CXTPCalendarThemeOffice2007@@QAEXXZ
_TEXT	SEGMENT PARA USE32 PUBLIC 'CODE'
_TEXT	ENDS
;	COMDAT ??_GCTOCellDynBackground_Base@CXTPCalendarThemeOffice2007@@UAEPAXI@Z
_TEXT	SEGMENT PARA USE32 PUBLIC 'CODE'
_TEXT	ENDS
;	COMDAT ??1CTODayViewDayGroupHeader@CXTPCalendarThemeOffice2007@@UAE@XZ
_TEXT	SEGMENT PARA USE32 PUBLIC 'CODE'
_TEXT	ENDS
;	COMDAT ??_DCTODayViewDayGroupHeader_Base@CXTPCalendarThemeOffice2007@@QAEXXZ
_TEXT	SEGMENT PARA USE32 PUBLIC 'CODE'
_TEXT	ENDS
;	COMDAT ??_DCTODayViewDayGroupHeader@CXTPCalendarTheme@@QAEXXZ
_TEXT	SEGMENT PARA USE32 PUBLIC 'CODE'
_TEXT	ENDS
;	COMDAT ??_DCTODayViewDayGroupHeader_Base2@CXTPCalendarThemeOffice2007@@QAEXXZ
_TEXT	SEGMENT PARA USE32 PUBLIC 'CODE'
_TEXT	ENDS
;	COMDAT ??1CTODayViewDayGroupAllDayEvents@CXTPCalendarThemeOffice2007@@UAE@XZ
_TEXT	SEGMENT PARA USE32 PUBLIC 'CODE'
_TEXT	ENDS
;	COMDAT ??_DCTODayViewDayGroupAllDayEvents@CXTPCalendarTheme@@QAEXXZ
_TEXT	SEGMENT PARA USE32 PUBLIC 'CODE'
_TEXT	ENDS
;	COMDAT ??_DCTODayViewDayGroupAllDayEvents_Base@CXTPCalendarThemeOffice2007@@QAEXXZ
_TEXT	SEGMENT PARA USE32 PUBLIC 'CODE'
_TEXT	ENDS
;	COMDAT ??1CTODayViewDayGroupCell@CXTPCalendarThemeOffice2007@@UAE@XZ
_TEXT	SEGMENT PARA USE32 PUBLIC 'CODE'
_TEXT	ENDS
;	COMDAT ??_DCTODayViewDayGroupCell@CXTPCalendarTheme@@QAEXXZ
_TEXT	SEGMENT PARA USE32 PUBLIC 'CODE'
_TEXT	ENDS
;	COMDAT ??_DCTODayViewDayGroupCell_Base@CXTPCalendarThemeOffice2007@@QAEXXZ
_TEXT	SEGMENT PARA USE32 PUBLIC 'CODE'
_TEXT	ENDS
;	COMDAT ??1CTODayViewEvent_MultiDay@CXTPCalendarThemeOffice2007@@UAE@XZ
_TEXT	SEGMENT PARA USE32 PUBLIC 'CODE'
_TEXT	ENDS
;	COMDAT ??_DCTOEvent@CXTPCalendarTheme@@QAEXXZ
_TEXT	SEGMENT PARA USE32 PUBLIC 'CODE'
_TEXT	ENDS
;	COMDAT ??_DCTOEvent_Base@CXTPCalendarThemeOffice2007@@QAEXXZ
_TEXT	SEGMENT PARA USE32 PUBLIC 'CODE'
_TEXT	ENDS
;	COMDAT ??_DCTODayViewEvent_Base@CXTPCalendarThemeOffice2007@@QAEXXZ
_TEXT	SEGMENT PARA USE32 PUBLIC 'CODE'
_TEXT	ENDS
;	COMDAT ??_DCTODayViewEvent@CXTPCalendarTheme@@QAEXXZ
_TEXT	SEGMENT PARA USE32 PUBLIC 'CODE'
_TEXT	ENDS
;	COMDAT ??_DCTODayViewEvent_Base2@CXTPCalendarThemeOffice2007@@QAEXXZ
_TEXT	SEGMENT PARA USE32 PUBLIC 'CODE'
_TEXT	ENDS
;	COMDAT ??_DCTODayViewEvent_MultiDay_Base@CXTPCalendarThemeOffice2007@@QAEXXZ
_TEXT	SEGMENT PARA USE32 PUBLIC 'CODE'
_TEXT	ENDS
;	COMDAT ??_DCTODayViewEvent_MultiDay@CXTPCalendarTheme@@QAEXXZ
_TEXT	SEGMENT PARA USE32 PUBLIC 'CODE'
_TEXT	ENDS
;	COMDAT ??_DCTODayViewEvent_MultiDay_Base2@CXTPCalendarThemeOffice2007@@QAEXXZ
_TEXT	SEGMENT PARA USE32 PUBLIC 'CODE'
_TEXT	ENDS
;	COMDAT ??1CTODayViewEvent_SingleDay@CXTPCalendarThemeOffice2007@@UAE@XZ
_TEXT	SEGMENT PARA USE32 PUBLIC 'CODE'
_TEXT	ENDS
;	COMDAT ??_DCTODayViewEvent_SingleDay_Base@CXTPCalendarThemeOffice2007@@QAEXXZ
_TEXT	SEGMENT PARA USE32 PUBLIC 'CODE'
_TEXT	ENDS
;	COMDAT ??_DCTODayViewEvent_SingleDay@CXTPCalendarTheme@@QAEXXZ
_TEXT	SEGMENT PARA USE32 PUBLIC 'CODE'
_TEXT	ENDS
;	COMDAT ??_G?$CXTPCalendarTypedPtrAutoDeleteMap@HPAVCXTPCalendarViewPartBrushValue@@@@UAEPAXI@Z
_TEXT	SEGMENT PARA USE32 PUBLIC 'CODE'
_TEXT	ENDS
;	COMDAT ??_DCTODayViewEvent_SingleDay_Base2@CXTPCalendarThemeOffice2007@@QAEXXZ
_TEXT	SEGMENT PARA USE32 PUBLIC 'CODE'
_TEXT	ENDS
;	COMDAT ??1CTODayViewDayGroup@CXTPCalendarThemeOffice2007@@UAE@XZ
_TEXT	SEGMENT PARA USE32 PUBLIC 'CODE'
_TEXT	ENDS
;	COMDAT ??_DCTODayViewDayGroup@CXTPCalendarTheme@@QAEXXZ
_TEXT	SEGMENT PARA USE32 PUBLIC 'CODE'
_TEXT	ENDS
;	COMDAT ??_DCTODayViewDayGroup_Base@CXTPCalendarThemeOffice2007@@QAEXXZ
_TEXT	SEGMENT PARA USE32 PUBLIC 'CODE'
_TEXT	ENDS
;	COMDAT ??1CTODayViewHeader@CXTPCalendarThemeOffice2007@@UAE@XZ
_TEXT	SEGMENT PARA USE32 PUBLIC 'CODE'
_TEXT	ENDS
;	COMDAT ??_DCTODayViewHeader_Base@CXTPCalendarThemeOffice2007@@QAEXXZ
_TEXT	SEGMENT PARA USE32 PUBLIC 'CODE'
_TEXT	ENDS
;	COMDAT ??1CTODayViewTimeScale@CXTPCalendarThemeOffice2007@@UAE@XZ
_TEXT	SEGMENT PARA USE32 PUBLIC 'CODE'
_TEXT	ENDS
;	COMDAT ??_DCTODayViewTimeScale_Base@CXTPCalendarThemeOffice2007@@QAEXXZ
_TEXT	SEGMENT PARA USE32 PUBLIC 'CODE'
_TEXT	ENDS
;	COMDAT ??1CTODayViewDay@CXTPCalendarThemeOffice2007@@UAE@XZ
_TEXT	SEGMENT PARA USE32 PUBLIC 'CODE'
_TEXT	ENDS
;	COMDAT ??_DCTODayViewDay@CXTPCalendarTheme@@QAEXXZ
_TEXT	SEGMENT PARA USE32 PUBLIC 'CODE'
_TEXT	ENDS
;	COMDAT ??_DCTODayViewDay_Base@CXTPCalendarThemeOffice2007@@QAEXXZ
_TEXT	SEGMENT PARA USE32 PUBLIC 'CODE'
_TEXT	ENDS
;	COMDAT ??1CTOMonthViewDayHeader@CXTPCalendarThemeOffice2007@@UAE@XZ
_TEXT	SEGMENT PARA USE32 PUBLIC 'CODE'
_TEXT	ENDS
;	COMDAT ??_DCTOMonthViewDayHeader_Base@CXTPCalendarThemeOffice2007@@QAEXXZ
_TEXT	SEGMENT PARA USE32 PUBLIC 'CODE'
_TEXT	ENDS
;	COMDAT ??_DCTOMonthViewDayHeader@CXTPCalendarTheme@@QAEXXZ
_TEXT	SEGMENT PARA USE32 PUBLIC 'CODE'
_TEXT	ENDS
;	COMDAT ??_DCTOMonthViewDayHeader_Base2@CXTPCalendarThemeOffice2007@@QAEXXZ
_TEXT	SEGMENT PARA USE32 PUBLIC 'CODE'
_TEXT	ENDS
;	COMDAT ??1CTOMonthViewEvent_MultiDay@CXTPCalendarThemeOffice2007@@UAE@XZ
_TEXT	SEGMENT PARA USE32 PUBLIC 'CODE'
_TEXT	ENDS
;	COMDAT ??_DCTOMonthViewEvent_Base@CXTPCalendarThemeOffice2007@@QAEXXZ
_TEXT	SEGMENT PARA USE32 PUBLIC 'CODE'
_TEXT	ENDS
;	COMDAT ??_DCTOMonthViewEvent@CXTPCalendarTheme@@QAEXXZ
_TEXT	SEGMENT PARA USE32 PUBLIC 'CODE'
_TEXT	ENDS
;	COMDAT ??_DCTOMonthViewEvent_Base2@CXTPCalendarThemeOffice2007@@QAEXXZ
_TEXT	SEGMENT PARA USE32 PUBLIC 'CODE'
_TEXT	ENDS
;	COMDAT ??_DCTOMonthViewEvent_MultiDay_Base@CXTPCalendarThemeOffice2007@@QAEXXZ
_TEXT	SEGMENT PARA USE32 PUBLIC 'CODE'
_TEXT	ENDS
;	COMDAT ??_DCTOMonthViewEvent_MultiDay@CXTPCalendarTheme@@QAEXXZ
_TEXT	SEGMENT PARA USE32 PUBLIC 'CODE'
_TEXT	ENDS
;	COMDAT ??_DCTOMonthViewEvent_MultiDay_Base2@CXTPCalendarThemeOffice2007@@QAEXXZ
_TEXT	SEGMENT PARA USE32 PUBLIC 'CODE'
_TEXT	ENDS
;	COMDAT ??1CTOMonthViewEvent_SingleDay@CXTPCalendarThemeOffice2007@@UAE@XZ
_TEXT	SEGMENT PARA USE32 PUBLIC 'CODE'
_TEXT	ENDS
;	COMDAT ??_DCTOMonthViewEvent_SingleDay_Base@CXTPCalendarThemeOffice2007@@QAEXXZ
_TEXT	SEGMENT PARA USE32 PUBLIC 'CODE'
_TEXT	ENDS
;	COMDAT ??_DCTOMonthViewEvent_SingleDay@CXTPCalendarTheme@@QAEXXZ
_TEXT	SEGMENT PARA USE32 PUBLIC 'CODE'
_TEXT	ENDS
;	COMDAT ??_DCTOMonthViewEvent_SingleDay_Base2@CXTPCalendarThemeOffice2007@@QAEXXZ
_TEXT	SEGMENT PARA USE32 PUBLIC 'CODE'
_TEXT	ENDS
;	COMDAT ??1CTOMonthViewDay@CXTPCalendarThemeOffice2007@@UAE@XZ
_TEXT	SEGMENT PARA USE32 PUBLIC 'CODE'
_TEXT	ENDS
;	COMDAT ??_DCTODay@CXTPCalendarTheme@@QAEXXZ
_TEXT	SEGMENT PARA USE32 PUBLIC 'CODE'
_TEXT	ENDS
;	COMDAT ??_DCTODay_Base@CXTPCalendarThemeOffice2007@@QAEXXZ
_TEXT	SEGMENT PARA USE32 PUBLIC 'CODE'
_TEXT	ENDS
;	COMDAT ??_DCTODay@CXTPCalendarThemeOffice2007@@QAEXXZ
_TEXT	SEGMENT PARA USE32 PUBLIC 'CODE'
_TEXT	ENDS
;	COMDAT ??_DCTOMonthViewDay_Base@CXTPCalendarThemeOffice2007@@QAEXXZ
_TEXT	SEGMENT PARA USE32 PUBLIC 'CODE'
_TEXT	ENDS
;	COMDAT ??_DCTOMonthViewDay@CXTPCalendarTheme@@QAEXXZ
_TEXT	SEGMENT PARA USE32 PUBLIC 'CODE'
_TEXT	ENDS
;	COMDAT ??_DCTOMonthViewDay_Base2@CXTPCalendarThemeOffice2007@@QAEXXZ
_TEXT	SEGMENT PARA USE32 PUBLIC 'CODE'
_TEXT	ENDS
;	COMDAT ??1CTOWeekViewDayHeader@CXTPCalendarThemeOffice2007@@UAE@XZ
_TEXT	SEGMENT PARA USE32 PUBLIC 'CODE'
_TEXT	ENDS
;	COMDAT ??_DCTOWeekViewDayHeader_Base@CXTPCalendarThemeOffice2007@@QAEXXZ
_TEXT	SEGMENT PARA USE32 PUBLIC 'CODE'
_TEXT	ENDS
;	COMDAT ??_DCTOWeekViewDayHeader@CXTPCalendarTheme@@QAEXXZ
_TEXT	SEGMENT PARA USE32 PUBLIC 'CODE'
_TEXT	ENDS
;	COMDAT ??_DCTOWeekViewDayHeader_Base2@CXTPCalendarThemeOffice2007@@QAEXXZ
_TEXT	SEGMENT PARA USE32 PUBLIC 'CODE'
_TEXT	ENDS
;	COMDAT ??1CTOWeekViewEvent_MultiDay@CXTPCalendarThemeOffice2007@@UAE@XZ
_TEXT	SEGMENT PARA USE32 PUBLIC 'CODE'
_TEXT	ENDS
;	COMDAT ??_DCTOWeekViewEvent_Base@CXTPCalendarThemeOffice2007@@QAEXXZ
_TEXT	SEGMENT PARA USE32 PUBLIC 'CODE'
_TEXT	ENDS
;	COMDAT ??_DCTOWeekViewEvent@CXTPCalendarTheme@@QAEXXZ
_TEXT	SEGMENT PARA USE32 PUBLIC 'CODE'
_TEXT	ENDS
;	COMDAT ??_DCTOWeekViewEvent_Base2@CXTPCalendarThemeOffice2007@@QAEXXZ
_TEXT	SEGMENT PARA USE32 PUBLIC 'CODE'
_TEXT	ENDS
;	COMDAT ??_DCTOWeekViewEvent_MultiDay_Base@CXTPCalendarThemeOffice2007@@QAEXXZ
_TEXT	SEGMENT PARA USE32 PUBLIC 'CODE'
_TEXT	ENDS
;	COMDAT ??_DCTOWeekViewEvent_MultiDay@CXTPCalendarTheme@@QAEXXZ
_TEXT	SEGMENT PARA USE32 PUBLIC 'CODE'
_TEXT	ENDS
;	COMDAT ??_DCTOWeekViewEvent_MultiDay_Base2@CXTPCalendarThemeOffice2007@@QAEXXZ
_TEXT	SEGMENT PARA USE32 PUBLIC 'CODE'
_TEXT	ENDS
;	COMDAT ??1CTOWeekViewEvent_SingleDay@CXTPCalendarThemeOffice2007@@UAE@XZ
_TEXT	SEGMENT PARA USE32 PUBLIC 'CODE'
_TEXT	ENDS
;	COMDAT ??_DCTOWeekViewEvent_SingleDay_Base@CXTPCalendarThemeOffice2007@@QAEXXZ
_TEXT	SEGMENT PARA USE32 PUBLIC 'CODE'
_TEXT	ENDS
;	COMDAT ??_DCTOWeekViewEvent_SingleDay@CXTPCalendarTheme@@QAEXXZ
_TEXT	SEGMENT PARA USE32 PUBLIC 'CODE'
_TEXT	ENDS
;	COMDAT ??_DCTOWeekViewEvent_SingleDay_Base2@CXTPCalendarThemeOffice2007@@QAEXXZ
_TEXT	SEGMENT PARA USE32 PUBLIC 'CODE'
_TEXT	ENDS
;	COMDAT ??1CTOWeekViewDay@CXTPCalendarThemeOffice2007@@UAE@XZ
_TEXT	SEGMENT PARA USE32 PUBLIC 'CODE'
_TEXT	ENDS
;	COMDAT ??_DCTOWeekViewDay_Base@CXTPCalendarThemeOffice2007@@QAEXXZ
_TEXT	SEGMENT PARA USE32 PUBLIC 'CODE'
_TEXT	ENDS
;	COMDAT ??_DCTOWeekViewDay@CXTPCalendarTheme@@QAEXXZ
_TEXT	SEGMENT PARA USE32 PUBLIC 'CODE'
_TEXT	ENDS
;	COMDAT ??_DCTOWeekViewDay_Base2@CXTPCalendarThemeOffice2007@@QAEXXZ
_TEXT	SEGMENT PARA USE32 PUBLIC 'CODE'
_TEXT	ENDS
;	COMDAT ??1CTODayView@CXTPCalendarThemeOffice2007@@UAE@XZ
_TEXT	SEGMENT PARA USE32 PUBLIC 'CODE'
_TEXT	ENDS
;	COMDAT ??_DCTODayView@CXTPCalendarTheme@@QAEXXZ
_TEXT	SEGMENT PARA USE32 PUBLIC 'CODE'
_TEXT	ENDS
;	COMDAT ??_DCTODayView_Base@CXTPCalendarThemeOffice2007@@QAEXXZ
_TEXT	SEGMENT PARA USE32 PUBLIC 'CODE'
_TEXT	ENDS
;	COMDAT ??1CTOMonthView@CXTPCalendarThemeOffice2007@@UAE@XZ
_TEXT	SEGMENT PARA USE32 PUBLIC 'CODE'
_TEXT	ENDS
;	COMDAT ??_DCTOMonthView@CXTPCalendarTheme@@QAEXXZ
_TEXT	SEGMENT PARA USE32 PUBLIC 'CODE'
_TEXT	ENDS
;	COMDAT ??_DCTOMonthView_Base@CXTPCalendarThemeOffice2007@@QAEXXZ
_TEXT	SEGMENT PARA USE32 PUBLIC 'CODE'
_TEXT	ENDS
;	COMDAT ??1CTOWeekView@CXTPCalendarThemeOffice2007@@UAE@XZ
_TEXT	SEGMENT PARA USE32 PUBLIC 'CODE'
_TEXT	ENDS
;	COMDAT ??_DCTOWeekView@CXTPCalendarTheme@@QAEXXZ
_TEXT	SEGMENT PARA USE32 PUBLIC 'CODE'
_TEXT	ENDS
;	COMDAT ??_DCTOWeekView_Base@CXTPCalendarThemeOffice2007@@QAEXXZ
_TEXT	SEGMENT PARA USE32 PUBLIC 'CODE'
_TEXT	ENDS
;	COMDAT ??1CTOCellDynBackground@CXTPCalendarThemeOffice2007@@UAE@XZ
_TEXT	SEGMENT PARA USE32 PUBLIC 'CODE'
_TEXT	ENDS
;	COMDAT ??_DCTOCellDynBackground_Base@CXTPCalendarThemeOffice2007@@QAEXXZ
_TEXT	SEGMENT PARA USE32 PUBLIC 'CODE'
_TEXT	ENDS
;	COMDAT ??1CXTPCalendarEventPropertiesDlg@@UAE@XZ
_TEXT	SEGMENT PARA USE32 PUBLIC 'CODE'
_TEXT	ENDS
;	COMDAT ??_GCXTPCalendarEventPropertiesDlg@@UAEPAXI@Z
_TEXT	SEGMENT PARA USE32 PUBLIC 'CODE'
_TEXT	ENDS
;	COMDAT ?LoadStringA@CXTPCalendarEventPropertiesDlg@@MAE?AVCString@@I@Z
_TEXT	SEGMENT PARA USE32 PUBLIC 'CODE'
_TEXT	ENDS
;	COMDAT ?GetPThis@C_m_Sink_Informator@CXTPCalendarRemindersManager@@SAPAV2@PAE@Z
_TEXT	SEGMENT PARA USE32 PUBLIC 'CODE'
_TEXT	ENDS
;	COMDAT ?GetPThis@C_m_Sink_Informator@CXTPCalendarRemindersDialog@@SAPAV2@PAE@Z
_TEXT	SEGMENT PARA USE32 PUBLIC 'CODE'
_TEXT	ENDS
;	COMDAT ?CreateObject@CXTPSkinObjectClassInfoActiveX@@UAEPAVCXTPSkinObject@@PBDPAUtagCREATESTRUCTA@@@Z
_TEXT	SEGMENT PARA USE32 PUBLIC 'CODE'
_TEXT	ENDS
;	COMDAT ??_GCXTPSkinObjectClassInfoActiveX@@UAEPAXI@Z
_TEXT	SEGMENT PARA USE32 PUBLIC 'CODE'
_TEXT	ENDS
;	COMDAT ??1CXTPSkinObjectClassInfo@@UAE@XZ
_TEXT	SEGMENT PARA USE32 PUBLIC 'CODE'
_TEXT	ENDS
;	COMDAT ??1CXTPSkinObjectClassInfoActiveX@@UAE@XZ
_TEXT	SEGMENT PARA USE32 PUBLIC 'CODE'
_TEXT	ENDS
;	COMDAT ?GetCount@CXTPRibbonGroup@@QBEHXZ
_TEXT	SEGMENT PARA USE32 PUBLIC 'CODE'
_TEXT	ENDS
;	COMDAT ??1XTP_EDIT_ROWSBLOCK@@UAE@XZ
_TEXT	SEGMENT PARA USE32 PUBLIC 'CODE'
_TEXT	ENDS
;	COMDAT ??_GXTP_EDIT_ROWSBLOCK@@UAEPAXI@Z
_TEXT	SEGMENT PARA USE32 PUBLIC 'CODE'
_TEXT	ENDS
;	COMDAT ??1XTP_EDIT_COLLAPSEDBLOCK@@UAE@XZ
_TEXT	SEGMENT PARA USE32 PUBLIC 'CODE'
_TEXT	ENDS
;	COMDAT ??_GXTP_EDIT_COLLAPSEDBLOCK@@UAEPAXI@Z
_TEXT	SEGMENT PARA USE32 PUBLIC 'CODE'
_TEXT	ENDS
;	COMDAT ??_GCXTPRowInfo@CXTPSyntaxEditDrawTextProcessor@@UAEPAXI@Z
_TEXT	SEGMENT PARA USE32 PUBLIC 'CODE'
_TEXT	ENDS
;	COMDAT ??1?$CXTPReserveArray@HH@@UAE@XZ
_TEXT	SEGMENT PARA USE32 PUBLIC 'CODE'
_TEXT	ENDS
;	COMDAT ??1?$CXTPReserveArray@EE@@UAE@XZ
_TEXT	SEGMENT PARA USE32 PUBLIC 'CODE'
_TEXT	ENDS
;	COMDAT ??1CXTPRowInfo@CXTPSyntaxEditDrawTextProcessor@@UAE@XZ
_TEXT	SEGMENT PARA USE32 PUBLIC 'CODE'
_TEXT	ENDS
;	COMDAT ?GetPThis@C_m_Sink_Informator@CXTPSyntaxEditCtrl@@SAPAV2@PAE@Z
_TEXT	SEGMENT PARA USE32 PUBLIC 'CODE'
_TEXT	ENDS
;	COMDAT ?GetEditBuffer@CXTPSyntaxEditCtrl@@QAEPAVCXTPSyntaxEditBufferManager@@XZ
_TEXT	SEGMENT PARA USE32 PUBLIC 'CODE'
_TEXT	ENDS
;	COMDAT ?IsEnabledVirtualSpace@CXTPSyntaxEditCtrl@@QBEHXZ
_TEXT	SEGMENT PARA USE32 PUBLIC 'CODE'
_TEXT	ENDS
;	COMDAT ??BCXTPMarkupInt@@QBEHXZ
_TEXT	SEGMENT PARA USE32 PUBLIC 'CODE'
_TEXT	ENDS
;	COMDAT ??BCXTPMarkupEnum@@QBEHXZ
_TEXT	SEGMENT PARA USE32 PUBLIC 'CODE'
_TEXT	ENDS
;	COMDAT ??BCXTPMarkupBool@@QBEHXZ
_TEXT	SEGMENT PARA USE32 PUBLIC 'CODE'
_TEXT	ENDS
;	COMDAT ?GetCount@CXTPMarkupCollection@@QBEHXZ
_TEXT	SEGMENT PARA USE32 PUBLIC 'CODE'
_TEXT	ENDS
;	COMDAT ?GetHashKey@CXTPMarkupObject@@UBEIXZ
_TEXT	SEGMENT PARA USE32 PUBLIC 'CODE'
_TEXT	ENDS
;	COMDAT ?IsEqual@CXTPMarkupObject@@UBEHPBV1@@Z
_TEXT	SEGMENT PARA USE32 PUBLIC 'CODE'
_TEXT	ENDS
;	COMDAT ??0CXTPMarkupDelegate@@QAE@XZ
_TEXT	SEGMENT PARA USE32 PUBLIC 'CODE'
_TEXT	ENDS
;	COMDAT ?Execute@CXTPMarkupDelegate@@UAEXPAVCXTPMarkupObject@@PAVCXTPMarkupRoutedEventArgs@@@Z
_TEXT	SEGMENT PARA USE32 PUBLIC 'CODE'
_TEXT	ENDS
;	COMDAT ??_GCXTPMarkupDelegate@@UAEPAXI@Z
_TEXT	SEGMENT PARA USE32 PUBLIC 'CODE'
_TEXT	ENDS
;	COMDAT ??1CXTPMarkupDelegate@@UAE@XZ
_TEXT	SEGMENT PARA USE32 PUBLIC 'CODE'
_TEXT	ENDS
;	COMDAT ?Execute@CXTPMarkupFunctionDelegate@@UAEXPAVCXTPMarkupObject@@PAVCXTPMarkupRoutedEventArgs@@@Z
_TEXT	SEGMENT PARA USE32 PUBLIC 'CODE'
_TEXT	ENDS
;	COMDAT ??_GCXTPMarkupFunctionDelegate@@UAEPAXI@Z
_TEXT	SEGMENT PARA USE32 PUBLIC 'CODE'
_TEXT	ENDS
;	COMDAT ??1CXTPMarkupFunctionDelegate@@UAE@XZ
_TEXT	SEGMENT PARA USE32 PUBLIC 'CODE'
_TEXT	ENDS
;	COMDAT ?GetVisibility@CXTPMarkupUIElement@@QBE?AW4XTPMarkupVisibility@@XZ
_TEXT	SEGMENT PARA USE32 PUBLIC 'CODE'
_TEXT	ENDS
;	COMDAT ?GetItem@CXTPMarkupUIElementCollection@@QBEPAVCXTPMarkupUIElement@@H@Z
_TEXT	SEGMENT PARA USE32 PUBLIC 'CODE'
_TEXT	ENDS
;	COMDAT ??0CXTPChartSizeF@@QAE@XZ
_TEXT	SEGMENT PARA USE32 PUBLIC 'CODE'
_TEXT	ENDS
;	COMDAT ??0CXTPChartSizeF@@QAE@ABV0@@Z
_TEXT	SEGMENT PARA USE32 PUBLIC 'CODE'
_TEXT	ENDS
;	COMDAT ??0CXTPChartSizeF@@QAE@MM@Z
_TEXT	SEGMENT PARA USE32 PUBLIC 'CODE'
_TEXT	ENDS
;	COMDAT ??0CXTPChartPointF@@QAE@XZ
_TEXT	SEGMENT PARA USE32 PUBLIC 'CODE'
_TEXT	ENDS
;	COMDAT ??0CXTPChartPointF@@QAE@ABV0@@Z
_TEXT	SEGMENT PARA USE32 PUBLIC 'CODE'
_TEXT	ENDS
;	COMDAT ??0CXTPChartPointF@@QAE@NN@Z
_TEXT	SEGMENT PARA USE32 PUBLIC 'CODE'
_TEXT	ENDS
;	COMDAT ??0CXTPChartRectF@@QAE@XZ
_TEXT	SEGMENT PARA USE32 PUBLIC 'CODE'
_TEXT	ENDS
;	COMDAT ?Normalize@CXTPChartRectF@@QAEXXZ
_TEXT	SEGMENT PARA USE32 PUBLIC 'CODE'
_TEXT	ENDS
;	COMDAT ?GetLeft@CXTPChartRectF@@QBEMXZ
_TEXT	SEGMENT PARA USE32 PUBLIC 'CODE'
_TEXT	ENDS
;	COMDAT ?GetTop@CXTPChartRectF@@QBEMXZ
_TEXT	SEGMENT PARA USE32 PUBLIC 'CODE'
_TEXT	ENDS
;	COMDAT ?GetRight@CXTPChartRectF@@QBEMXZ
_TEXT	SEGMENT PARA USE32 PUBLIC 'CODE'
_TEXT	ENDS
;	COMDAT ?GetBottom@CXTPChartRectF@@QBEMXZ
_TEXT	SEGMENT PARA USE32 PUBLIC 'CODE'
_TEXT	ENDS
;	COMDAT ?IsEmptyArea@CXTPChartRectF@@QBEHXZ
_TEXT	SEGMENT PARA USE32 PUBLIC 'CODE'
_TEXT	ENDS
;	COMDAT ?Contains@CXTPChartRectF@@QBEHMM@Z
_TEXT	SEGMENT PARA USE32 PUBLIC 'CODE'
_TEXT	ENDS
;	COMDAT ?Inflate@CXTPChartRectF@@QAEXMM@Z
_TEXT	SEGMENT PARA USE32 PUBLIC 'CODE'
_TEXT	ENDS
;	COMDAT ?Intersect@CXTPChartRectF@@SAHAAV1@ABV1@1@Z
_TEXT	SEGMENT PARA USE32 PUBLIC 'CODE'
_TEXT	ENDS
;	COMDAT ?Offset@CXTPChartRectF@@QAEXMM@Z
_TEXT	SEGMENT PARA USE32 PUBLIC 'CODE'
_TEXT	ENDS
;	COMDAT ??0CXTPChartColor@@QAE@XZ
_TEXT	SEGMENT PARA USE32 PUBLIC 'CODE'
_TEXT	ENDS
;	COMDAT ?GetAlpha@CXTPChartColor@@QBEEXZ
_TEXT	SEGMENT PARA USE32 PUBLIC 'CODE'
_TEXT	ENDS
;	COMDAT ?GetRed@CXTPChartColor@@QBEEXZ
_TEXT	SEGMENT PARA USE32 PUBLIC 'CODE'
_TEXT	ENDS
;	COMDAT ?GetGreen@CXTPChartColor@@QBEEXZ
_TEXT	SEGMENT PARA USE32 PUBLIC 'CODE'
_TEXT	ENDS
;	COMDAT ?GetBlue@CXTPChartColor@@QBEEXZ
_TEXT	SEGMENT PARA USE32 PUBLIC 'CODE'
_TEXT	ENDS
;	COMDAT ?MakeARGB@CXTPChartColor@@SAKEEEE@Z
_TEXT	SEGMENT PARA USE32 PUBLIC 'CODE'
_TEXT	ENDS
;	COMDAT ?GetParentView@CXTPChartElementView@@QBEPAV1@XZ
_TEXT	SEGMENT PARA USE32 PUBLIC 'CODE'
_TEXT	ENDS
;	COMDAT ??0CInputDialog@@QAE@XZ
_TEXT	SEGMENT PARA USE32 PUBLIC 'CODE'
_TEXT	ENDS
;	COMDAT ??1CInputDialog@@UAE@XZ
_TEXT	SEGMENT PARA USE32 PUBLIC 'CODE'
_TEXT	ENDS
;	COMDAT ?DoDataExchange@CInputDialog@@MAEXPAVCDataExchange@@@Z
_TEXT	SEGMENT PARA USE32 PUBLIC 'CODE'
_TEXT	ENDS
;	COMDAT ??_GCInputDialog@@UAEPAXI@Z
_TEXT	SEGMENT PARA USE32 PUBLIC 'CODE'
_TEXT	ENDS
;	COMDAT ??_GCSystemDlg@@UAEPAXI@Z
_TEXT	SEGMENT PARA USE32 PUBLIC 'CODE'
_TEXT	ENDS
;	COMDAT ??1CSystemDlg@@UAE@XZ
_TEXT	SEGMENT PARA USE32 PUBLIC 'CODE'
_TEXT	ENDS
;	COMDAT ??0?$_CTypedPtrList@VCObList@@PAV1@@@QAE@H@Z
_TEXT	SEGMENT PARA USE32 PUBLIC 'CODE'
_TEXT	ENDS
;	COMDAT ??0?$_CTypedPtrList@VCPtrList@@PAV1@@@QAE@H@Z
_TEXT	SEGMENT PARA USE32 PUBLIC 'CODE'
_TEXT	ENDS
;	COMDAT ??0?$_CIP@UIUnknown@@$1?IID_IUnknown@@3U_GUID@@B@@QAE@ABV0@@Z
_TEXT	SEGMENT PARA USE32 PUBLIC 'CODE'
_TEXT	ENDS
;	COMDAT ??0?$_CIP@UIUnknown@@$1?IID_IUnknown@@3U_GUID@@B@@QAE@PAUIUnknown@@@Z
_TEXT	SEGMENT PARA USE32 PUBLIC 'CODE'
_TEXT	ENDS
;	COMDAT ??0?$_CIP@UIUnknown@@$1?IID_IUnknown@@3U_GUID@@B@@QAE@PAUIUnknown@@H@Z
_TEXT	SEGMENT PARA USE32 PUBLIC 'CODE'
_TEXT	ENDS
;	COMDAT ??0?$_CIP@UIUnknown@@$1?IID_IUnknown@@3U_GUID@@B@@QAE@ABU_GUID@@K@Z
_TEXT	SEGMENT PARA USE32 PUBLIC 'CODE'
_TEXT	ENDS
;	COMDAT ??0?$_CIP@UIUnknown@@$1?IID_IUnknown@@3U_GUID@@B@@QAE@PAGK@Z
_TEXT	SEGMENT PARA USE32 PUBLIC 'CODE'
_TEXT	ENDS
;	COMDAT ??4?$_CIP@UIUnknown@@$1?IID_IUnknown@@3U_GUID@@B@@QAEAAV0@PAUIUnknown@@@Z
_TEXT	SEGMENT PARA USE32 PUBLIC 'CODE'
_TEXT	ENDS
;	COMDAT ??4?$_CIP@UIUnknown@@$1?IID_IUnknown@@3U_GUID@@B@@QAEAAV0@ABV0@@Z
_TEXT	SEGMENT PARA USE32 PUBLIC 'CODE'
_TEXT	ENDS
;	COMDAT ??4?$_CIP@UIUnknown@@$1?IID_IUnknown@@3U_GUID@@B@@QAEAAV0@ABU_GUID@@@Z
_TEXT	SEGMENT PARA USE32 PUBLIC 'CODE'
_TEXT	ENDS
;	COMDAT ??4?$_CIP@UIUnknown@@$1?IID_IUnknown@@3U_GUID@@B@@QAEAAV0@PAG@Z
_TEXT	SEGMENT PARA USE32 PUBLIC 'CODE'
_TEXT	ENDS
;	COMDAT ?GetInterfacePtr@?$_CIP@UIUnknown@@$1?IID_IUnknown@@3U_GUID@@B@@QBEPAUIUnknown@@XZ
_TEXT	SEGMENT PARA USE32 PUBLIC 'CODE'
_TEXT	ENDS
;	COMDAT ??0?$CIP@UIMoniker@@$1?IID_IMoniker@@3U_GUID@@B@@QAE@XZ
_TEXT	SEGMENT PARA USE32 PUBLIC 'CODE'
_TEXT	ENDS
;	COMDAT ??B?$_CIP@UIMoniker@@$1?IID_IMoniker@@3U_GUID@@B@@QBEPAUIMoniker@@XZ
_TEXT	SEGMENT PARA USE32 PUBLIC 'CODE'
_TEXT	ENDS
;	COMDAT ??4?$CIP@UIBinding@@$1?IID_IBinding@@3U_GUID@@B@@QAEAAV0@PAUIBinding@@@Z
_TEXT	SEGMENT PARA USE32 PUBLIC 'CODE'
_TEXT	ENDS
;	COMDAT ??B?$_CIP@UIBinding@@$1?IID_IBinding@@3U_GUID@@B@@QBEPAUIBinding@@XZ
_TEXT	SEGMENT PARA USE32 PUBLIC 'CODE'
_TEXT	ENDS
;	COMDAT ??0?$_com_ptr_t@V?$_com_IIID@UIXMLDOMNode@XTPXML@@$1?_GUID_2933bf80_7b36_11d2_b20e_00c04f983e60@@3U__s_GUID@@A@@@@QAE@ABV0@@Z
_TEXT	SEGMENT PARA USE32 PUBLIC 'CODE'
_TEXT	ENDS
;	COMDAT ??1?$_com_ptr_t@V?$_com_IIID@UIXMLDOMNode@XTPXML@@$1?_GUID_2933bf80_7b36_11d2_b20e_00c04f983e60@@3U__s_GUID@@A@@@@QAE@XZ
_TEXT	SEGMENT PARA USE32 PUBLIC 'CODE'
_TEXT	ENDS
;	COMDAT ??0?$_com_ptr_t@V?$_com_IIID@UIXMLDOMDocument@XTPXML@@$1?_GUID_2933bf81_7b36_11d2_b20e_00c04f983e60@@3U__s_GUID@@A@@@@QAE@ABV0@@Z
_TEXT	SEGMENT PARA USE32 PUBLIC 'CODE'
_TEXT	ENDS
;	COMDAT ??1?$_com_ptr_t@V?$_com_IIID@UIXMLDOMDocument@XTPXML@@$1?_GUID_2933bf81_7b36_11d2_b20e_00c04f983e60@@3U__s_GUID@@A@@@@QAE@XZ
_TEXT	SEGMENT PARA USE32 PUBLIC 'CODE'
_TEXT	ENDS
;	COMDAT ??1?$CXTPFrameWndBase@VCMDIFrameWnd@@@@UAE@XZ
_TEXT	SEGMENT PARA USE32 PUBLIC 'CODE'
_TEXT	ENDS
;	COMDAT ?LoadFrame@?$CXTPFrameWndBase@VCMDIFrameWnd@@@@UAEHIKPAVCWnd@@PAUCCreateContext@@@Z
_TEXT	SEGMENT PARA USE32 PUBLIC 'CODE'
_TEXT	ENDS
;	COMDAT ?OnSetPreviewMode@?$CXTPFrameWndBase@VCMDIFrameWnd@@@@UAEXHPAUCPrintPreviewState@@@Z
_TEXT	SEGMENT PARA USE32 PUBLIC 'CODE'
_TEXT	ENDS
;	COMDAT ??1?$CXTPCommandBarsSiteBase@VCMDIFrameWnd@@@@UAE@XZ
_TEXT	SEGMENT PARA USE32 PUBLIC 'CODE'
_TEXT	ENDS
;	COMDAT ?InitCommandBars@?$CXTPCommandBarsSiteBase@VCMDIFrameWnd@@@@UAEHPAUCRuntimeClass@@@Z
_TEXT	SEGMENT PARA USE32 PUBLIC 'CODE'
_TEXT	ENDS
;	COMDAT ?SaveCommandBars@?$CXTPCommandBarsSiteBase@VCMDIFrameWnd@@@@UAEXPBD@Z
_TEXT	SEGMENT PARA USE32 PUBLIC 'CODE'
_TEXT	ENDS
;	COMDAT ?LoadCommandBars@?$CXTPCommandBarsSiteBase@VCMDIFrameWnd@@@@UAEXPBDH@Z
_TEXT	SEGMENT PARA USE32 PUBLIC 'CODE'
_TEXT	ENDS
;	COMDAT ?PreTranslateMessage@?$CXTPCommandBarsSiteBase@VCMDIFrameWnd@@@@MAEHPAUtagMSG@@@Z
_TEXT	SEGMENT PARA USE32 PUBLIC 'CODE'
_TEXT	ENDS
;	COMDAT ?OnWndMsg@?$CXTPCommandBarsSiteBase@VCMDIFrameWnd@@@@MAEHIIJPAJ@Z
_TEXT	SEGMENT PARA USE32 PUBLIC 'CODE'
_TEXT	ENDS
;	COMDAT ??1?$CXTPFrameWndBase@VCFrameWnd@@@@UAE@XZ
_TEXT	SEGMENT PARA USE32 PUBLIC 'CODE'
_TEXT	ENDS
;	COMDAT ?LoadFrame@?$CXTPFrameWndBase@VCFrameWnd@@@@UAEHIKPAVCWnd@@PAUCCreateContext@@@Z
_TEXT	SEGMENT PARA USE32 PUBLIC 'CODE'
_TEXT	ENDS
;	COMDAT ?OnSetPreviewMode@?$CXTPFrameWndBase@VCFrameWnd@@@@UAEXHPAUCPrintPreviewState@@@Z
_TEXT	SEGMENT PARA USE32 PUBLIC 'CODE'
_TEXT	ENDS
;	COMDAT ??1?$CXTPCommandBarsSiteBase@VCFrameWnd@@@@UAE@XZ
_TEXT	SEGMENT PARA USE32 PUBLIC 'CODE'
_TEXT	ENDS
;	COMDAT ?InitCommandBars@?$CXTPCommandBarsSiteBase@VCFrameWnd@@@@UAEHPAUCRuntimeClass@@@Z
_TEXT	SEGMENT PARA USE32 PUBLIC 'CODE'
_TEXT	ENDS
;	COMDAT ?SaveCommandBars@?$CXTPCommandBarsSiteBase@VCFrameWnd@@@@UAEXPBD@Z
_TEXT	SEGMENT PARA USE32 PUBLIC 'CODE'
_TEXT	ENDS
;	COMDAT ?LoadCommandBars@?$CXTPCommandBarsSiteBase@VCFrameWnd@@@@UAEXPBDH@Z
_TEXT	SEGMENT PARA USE32 PUBLIC 'CODE'
_TEXT	ENDS
;	COMDAT ?PreTranslateMessage@?$CXTPCommandBarsSiteBase@VCFrameWnd@@@@MAEHPAUtagMSG@@@Z
_TEXT	SEGMENT PARA USE32 PUBLIC 'CODE'
_TEXT	ENDS
;	COMDAT ?OnWndMsg@?$CXTPCommandBarsSiteBase@VCFrameWnd@@@@MAEHIIJPAJ@Z
_TEXT	SEGMENT PARA USE32 PUBLIC 'CODE'
_TEXT	ENDS
;	COMDAT ?GetData@?$CThreadLocal@VCXTPKeyboardManager@@@@QAEPAVCXTPKeyboardManager@@XZ
_TEXT	SEGMENT PARA USE32 PUBLIC 'CODE'
_TEXT	ENDS
;	COMDAT ?GetData@?$CThreadLocal@VCXTPMouseManager@@@@QAEPAVCXTPMouseManager@@XZ
_TEXT	SEGMENT PARA USE32 PUBLIC 'CODE'
_TEXT	ENDS
;	COMDAT ??0?$CXTPDialogBase@VCDialog@@@@QAE@XZ
_TEXT	SEGMENT PARA USE32 PUBLIC 'CODE'
_TEXT	ENDS
;	COMDAT ??0?$CXTPDialogBase@VCDialog@@@@QAE@IPAVCWnd@@@Z
_TEXT	SEGMENT PARA USE32 PUBLIC 'CODE'
_TEXT	ENDS
;	COMDAT ??0?$CXTPDialogBase@VCDialog@@@@QAE@PBDPAVCWnd@@@Z
_TEXT	SEGMENT PARA USE32 PUBLIC 'CODE'
_TEXT	ENDS
;	COMDAT ??1?$CXTPDialogBase@VCDialog@@@@UAE@XZ
_TEXT	SEGMENT PARA USE32 PUBLIC 'CODE'
_TEXT	ENDS
;	COMDAT ?InitCommandBars@?$CXTPDialogBase@VCDialog@@@@UAEHPAUCRuntimeClass@@@Z
_TEXT	SEGMENT PARA USE32 PUBLIC 'CODE'
_TEXT	ENDS
;	COMDAT ?SaveCommandBars@?$CXTPDialogBase@VCDialog@@@@UAEXPBD@Z
_TEXT	SEGMENT PARA USE32 PUBLIC 'CODE'
_TEXT	ENDS
;	COMDAT ?LoadCommandBars@?$CXTPDialogBase@VCDialog@@@@UAEXPBDH@Z
_TEXT	SEGMENT PARA USE32 PUBLIC 'CODE'
_TEXT	ENDS
;	COMDAT ?PreTranslateMessage@?$CXTPDialogBase@VCDialog@@@@MAEHPAUtagMSG@@@Z
_TEXT	SEGMENT PARA USE32 PUBLIC 'CODE'
_TEXT	ENDS
;	COMDAT ?OnWndMsg@?$CXTPDialogBase@VCDialog@@@@MAEHIIJPAJ@Z
_TEXT	SEGMENT PARA USE32 PUBLIC 'CODE'
_TEXT	ENDS
;	COMDAT ??1?$CXTPNotifySinkImpl@VCXTPOffice2007FrameHook@@VC_m_Sink_Informator@1@@@UAE@XZ
_TEXT	SEGMENT PARA USE32 PUBLIC 'CODE'
_TEXT	ENDS
;	COMDAT ?OnEvent@?$CXTPNotifySinkImpl@VCXTPOffice2007FrameHook@@VC_m_Sink_Informator@1@@@UAEXKIJK@Z
_TEXT	SEGMENT PARA USE32 PUBLIC 'CODE'
_TEXT	ENDS
;	COMDAT ??1?$CXTPHeapAllocatorT@UCXTPReportDataAllocatorData@@@@UAE@XZ
_TEXT	SEGMENT PARA USE32 PUBLIC 'CODE'
_TEXT	ENDS
;	COMDAT ??1?$CXTPHeapAllocatorT@UCXTPReportRowAllocatorData@@@@UAE@XZ
_TEXT	SEGMENT PARA USE32 PUBLIC 'CODE'
_TEXT	ENDS
;	COMDAT ??1?$CXTPHeapAllocatorT@UCXTPReportAllocatorDefaultData@@@@UAE@XZ
_TEXT	SEGMENT PARA USE32 PUBLIC 'CODE'
_TEXT	ENDS
;	COMDAT ??0?$_com_ptr_t@V?$_com_IIID@UIUnknown@@$1?_GUID_00000000_0000_0000_c000_000000000046@@3U__s_GUID@@A@@@@QAE@PAUIUnknown@@_N@Z
_TEXT	SEGMENT PARA USE32 PUBLIC 'CODE'
_TEXT	ENDS
;	COMDAT ??1?$_com_ptr_t@V?$_com_IIID@UIUnknown@@$1?_GUID_00000000_0000_0000_c000_000000000046@@3U__s_GUID@@A@@@@QAE@XZ
_TEXT	SEGMENT PARA USE32 PUBLIC 'CODE'
_TEXT	ENDS
;	COMDAT ??0?$_com_ptr_t@V?$_com_IIID@UProperties@XTPREPORTADODB@@$1?_GUID_00000504_0000_0010_8000_00aa006d2ea4@@3U__s_GUID@@A@@@@QAE@PAUProperties@XTPREPORTADODB@@_N@Z
_TEXT	SEGMENT PARA USE32 PUBLIC 'CODE'
_TEXT	ENDS
;	COMDAT ??1?$_com_ptr_t@V?$_com_IIID@UProperties@XTPREPORTADODB@@$1?_GUID_00000504_0000_0010_8000_00aa006d2ea4@@3U__s_GUID@@A@@@@QAE@XZ
_TEXT	SEGMENT PARA USE32 PUBLIC 'CODE'
_TEXT	ENDS
;	COMDAT ??0?$_com_ptr_t@V?$_com_IIID@UProperty@XTPREPORTADODB@@$1?_GUID_00000503_0000_0010_8000_00aa006d2ea4@@3U__s_GUID@@A@@@@QAE@PAUProperty@XTPREPORTADODB@@_N@Z
_TEXT	SEGMENT PARA USE32 PUBLIC 'CODE'
_TEXT	ENDS
;	COMDAT ??1?$_com_ptr_t@V?$_com_IIID@UProperty@XTPREPORTADODB@@$1?_GUID_00000503_0000_0010_8000_00aa006d2ea4@@3U__s_GUID@@A@@@@QAE@XZ
_TEXT	SEGMENT PARA USE32 PUBLIC 'CODE'
_TEXT	ENDS
;	COMDAT ??0?$_com_ptr_t@V?$_com_IIID@UError@XTPREPORTADODB@@$1?_GUID_00000500_0000_0010_8000_00aa006d2ea4@@3U__s_GUID@@A@@@@QAE@PAUError@XTPREPORTADODB@@_N@Z
_TEXT	SEGMENT PARA USE32 PUBLIC 'CODE'
_TEXT	ENDS
;	COMDAT ??1?$_com_ptr_t@V?$_com_IIID@UError@XTPREPORTADODB@@$1?_GUID_00000500_0000_0010_8000_00aa006d2ea4@@3U__s_GUID@@A@@@@QAE@XZ
_TEXT	SEGMENT PARA USE32 PUBLIC 'CODE'
_TEXT	ENDS
;	COMDAT ??0?$_com_ptr_t@V?$_com_IIID@U_Connection@XTPREPORTADODB@@$1?_GUID_00000550_0000_0010_8000_00aa006d2ea4@@3U__s_GUID@@A@@@@QAE@PAU_Connection@XTPREPORTADODB@@_N@Z
_TEXT	SEGMENT PARA USE32 PUBLIC 'CODE'
_TEXT	ENDS
;	COMDAT ??1?$_com_ptr_t@V?$_com_IIID@U_Connection@XTPREPORTADODB@@$1?_GUID_00000550_0000_0010_8000_00aa006d2ea4@@3U__s_GUID@@A@@@@QAE@XZ
_TEXT	SEGMENT PARA USE32 PUBLIC 'CODE'
_TEXT	ENDS
;	COMDAT ??0?$_com_ptr_t@V?$_com_IIID@U_Recordset@XTPREPORTADODB@@$1?_GUID_00000556_0000_0010_8000_00aa006d2ea4@@3U__s_GUID@@A@@@@QAE@ABV0@@Z
_TEXT	SEGMENT PARA USE32 PUBLIC 'CODE'
_TEXT	ENDS
;	COMDAT ??0?$_com_ptr_t@V?$_com_IIID@U_Recordset@XTPREPORTADODB@@$1?_GUID_00000556_0000_0010_8000_00aa006d2ea4@@3U__s_GUID@@A@@@@QAE@PAU_Recordset@XTPREPORTADODB@@_N@Z
_TEXT	SEGMENT PARA USE32 PUBLIC 'CODE'
_TEXT	ENDS
;	COMDAT ??1?$_com_ptr_t@V?$_com_IIID@U_Recordset@XTPREPORTADODB@@$1?_GUID_00000556_0000_0010_8000_00aa006d2ea4@@3U__s_GUID@@A@@@@QAE@XZ
_TEXT	SEGMENT PARA USE32 PUBLIC 'CODE'
_TEXT	ENDS
;	COMDAT ??0?$_com_ptr_t@V?$_com_IIID@U_Parameter@XTPREPORTADODB@@$1?_GUID_0000050c_0000_0010_8000_00aa006d2ea4@@3U__s_GUID@@A@@@@QAE@PAU_Parameter@XTPREPORTADODB@@_N@Z
_TEXT	SEGMENT PARA USE32 PUBLIC 'CODE'
_TEXT	ENDS
;	COMDAT ??1?$_com_ptr_t@V?$_com_IIID@U_Parameter@XTPREPORTADODB@@$1?_GUID_0000050c_0000_0010_8000_00aa006d2ea4@@3U__s_GUID@@A@@@@QAE@XZ
_TEXT	SEGMENT PARA USE32 PUBLIC 'CODE'
_TEXT	ENDS
;	COMDAT ??0?$_com_ptr_t@V?$_com_IIID@UParameters@XTPREPORTADODB@@$1?_GUID_0000050d_0000_0010_8000_00aa006d2ea4@@3U__s_GUID@@A@@@@QAE@PAUParameters@XTPREPORTADODB@@_N@Z
_TEXT	SEGMENT PARA USE32 PUBLIC 'CODE'
_TEXT	ENDS
;	COMDAT ??1?$_com_ptr_t@V?$_com_IIID@UParameters@XTPREPORTADODB@@$1?_GUID_0000050d_0000_0010_8000_00aa006d2ea4@@3U__s_GUID@@A@@@@QAE@XZ
_TEXT	SEGMENT PARA USE32 PUBLIC 'CODE'
_TEXT	ENDS
;	COMDAT ??0?$_com_ptr_t@V?$_com_IIID@UErrors@XTPREPORTADODB@@$1?_GUID_00000501_0000_0010_8000_00aa006d2ea4@@3U__s_GUID@@A@@@@QAE@PAUErrors@XTPREPORTADODB@@_N@Z
_TEXT	SEGMENT PARA USE32 PUBLIC 'CODE'
_TEXT	ENDS
;	COMDAT ??1?$_com_ptr_t@V?$_com_IIID@UErrors@XTPREPORTADODB@@$1?_GUID_00000501_0000_0010_8000_00aa006d2ea4@@3U__s_GUID@@A@@@@QAE@XZ
_TEXT	SEGMENT PARA USE32 PUBLIC 'CODE'
_TEXT	ENDS
;	COMDAT ??0?$_com_ptr_t@V?$_com_IIID@UFields@XTPREPORTADODB@@$1?_GUID_00000564_0000_0010_8000_00aa006d2ea4@@3U__s_GUID@@A@@@@QAE@PAUFields@XTPREPORTADODB@@_N@Z
_TEXT	SEGMENT PARA USE32 PUBLIC 'CODE'
_TEXT	ENDS
;	COMDAT ??1?$_com_ptr_t@V?$_com_IIID@UFields@XTPREPORTADODB@@$1?_GUID_00000564_0000_0010_8000_00aa006d2ea4@@3U__s_GUID@@A@@@@QAE@XZ
_TEXT	SEGMENT PARA USE32 PUBLIC 'CODE'
_TEXT	ENDS
;	COMDAT ??0?$_com_ptr_t@V?$_com_IIID@UIDispatch@@$1?_GUID_00020400_0000_0000_c000_000000000046@@3U__s_GUID@@A@@@@QAE@PAUIDispatch@@_N@Z
_TEXT	SEGMENT PARA USE32 PUBLIC 'CODE'
_TEXT	ENDS
;	COMDAT ??1?$_com_ptr_t@V?$_com_IIID@UIDispatch@@$1?_GUID_00020400_0000_0000_c000_000000000046@@3U__s_GUID@@A@@@@QAE@XZ
_TEXT	SEGMENT PARA USE32 PUBLIC 'CODE'
_TEXT	ENDS
;	COMDAT ??0?$_com_ptr_t@V?$_com_IIID@UField@XTPREPORTADODB@@$1?_GUID_00000569_0000_0010_8000_00aa006d2ea4@@3U__s_GUID@@A@@@@QAE@PAUField@XTPREPORTADODB@@_N@Z
_TEXT	SEGMENT PARA USE32 PUBLIC 'CODE'
_TEXT	ENDS
;	COMDAT ??1?$_com_ptr_t@V?$_com_IIID@UField@XTPREPORTADODB@@$1?_GUID_00000569_0000_0010_8000_00aa006d2ea4@@3U__s_GUID@@A@@@@QAE@XZ
_TEXT	SEGMENT PARA USE32 PUBLIC 'CODE'
_TEXT	ENDS
;	COMDAT ??0?$_com_ptr_t@V?$_com_IIID@UTables@XTPREPORTADOX@@$1?_GUID_00000611_0000_0010_8000_00aa006d2ea4@@3U__s_GUID@@A@@@@QAE@PAUTables@XTPREPORTADOX@@_N@Z
_TEXT	SEGMENT PARA USE32 PUBLIC 'CODE'
_TEXT	ENDS
;	COMDAT ??1?$_com_ptr_t@V?$_com_IIID@UTables@XTPREPORTADOX@@$1?_GUID_00000611_0000_0010_8000_00aa006d2ea4@@3U__s_GUID@@A@@@@QAE@XZ
_TEXT	SEGMENT PARA USE32 PUBLIC 'CODE'
_TEXT	ENDS
;	COMDAT ??0?$_com_ptr_t@V?$_com_IIID@UProcedures@XTPREPORTADOX@@$1?_GUID_00000626_0000_0010_8000_00aa006d2ea4@@3U__s_GUID@@A@@@@QAE@PAUProcedures@XTPREPORTADOX@@_N@Z
_TEXT	SEGMENT PARA USE32 PUBLIC 'CODE'
_TEXT	ENDS
;	COMDAT ??1?$_com_ptr_t@V?$_com_IIID@UProcedures@XTPREPORTADOX@@$1?_GUID_00000626_0000_0010_8000_00aa006d2ea4@@3U__s_GUID@@A@@@@QAE@XZ
_TEXT	SEGMENT PARA USE32 PUBLIC 'CODE'
_TEXT	ENDS
;	COMDAT ??0?$_com_ptr_t@V?$_com_IIID@UViews@XTPREPORTADOX@@$1?_GUID_00000614_0000_0010_8000_00aa006d2ea4@@3U__s_GUID@@A@@@@QAE@PAUViews@XTPREPORTADOX@@_N@Z
_TEXT	SEGMENT PARA USE32 PUBLIC 'CODE'
_TEXT	ENDS
;	COMDAT ??1?$_com_ptr_t@V?$_com_IIID@UViews@XTPREPORTADOX@@$1?_GUID_00000614_0000_0010_8000_00aa006d2ea4@@3U__s_GUID@@A@@@@QAE@XZ
_TEXT	SEGMENT PARA USE32 PUBLIC 'CODE'
_TEXT	ENDS
;	COMDAT ??0?$_com_ptr_t@V?$_com_IIID@UGroups@XTPREPORTADOX@@$1?_GUID_00000617_0000_0010_8000_00aa006d2ea4@@3U__s_GUID@@A@@@@QAE@PAUGroups@XTPREPORTADOX@@_N@Z
_TEXT	SEGMENT PARA USE32 PUBLIC 'CODE'
_TEXT	ENDS
;	COMDAT ??1?$_com_ptr_t@V?$_com_IIID@UGroups@XTPREPORTADOX@@$1?_GUID_00000617_0000_0010_8000_00aa006d2ea4@@3U__s_GUID@@A@@@@QAE@XZ
_TEXT	SEGMENT PARA USE32 PUBLIC 'CODE'
_TEXT	ENDS
;	COMDAT ??0?$_com_ptr_t@V?$_com_IIID@UUsers@XTPREPORTADOX@@$1?_GUID_0000061a_0000_0010_8000_00aa006d2ea4@@3U__s_GUID@@A@@@@QAE@PAUUsers@XTPREPORTADOX@@_N@Z
_TEXT	SEGMENT PARA USE32 PUBLIC 'CODE'
_TEXT	ENDS
;	COMDAT ??1?$_com_ptr_t@V?$_com_IIID@UUsers@XTPREPORTADOX@@$1?_GUID_0000061a_0000_0010_8000_00aa006d2ea4@@3U__s_GUID@@A@@@@QAE@XZ
_TEXT	SEGMENT PARA USE32 PUBLIC 'CODE'
_TEXT	ENDS
;	COMDAT ??0?$_com_ptr_t@V?$_com_IIID@U_Table@XTPREPORTADOX@@$1?_GUID_00000610_0000_0010_8000_00aa006d2ea4@@3U__s_GUID@@A@@@@QAE@PAU_Table@XTPREPORTADOX@@_N@Z
_TEXT	SEGMENT PARA USE32 PUBLIC 'CODE'
_TEXT	ENDS
;	COMDAT ??1?$_com_ptr_t@V?$_com_IIID@U_Table@XTPREPORTADOX@@$1?_GUID_00000610_0000_0010_8000_00aa006d2ea4@@3U__s_GUID@@A@@@@QAE@XZ
_TEXT	SEGMENT PARA USE32 PUBLIC 'CODE'
_TEXT	ENDS
;	COMDAT ??0?$_com_ptr_t@V?$_com_IIID@UColumns@XTPREPORTADOX@@$1?_GUID_0000061d_0000_0010_8000_00aa006d2ea4@@3U__s_GUID@@A@@@@QAE@PAUColumns@XTPREPORTADOX@@_N@Z
_TEXT	SEGMENT PARA USE32 PUBLIC 'CODE'
_TEXT	ENDS
;	COMDAT ??1?$_com_ptr_t@V?$_com_IIID@UColumns@XTPREPORTADOX@@$1?_GUID_0000061d_0000_0010_8000_00aa006d2ea4@@3U__s_GUID@@A@@@@QAE@XZ
_TEXT	SEGMENT PARA USE32 PUBLIC 'CODE'
_TEXT	ENDS
;	COMDAT ??0?$_com_ptr_t@V?$_com_IIID@UIndexes@XTPREPORTADOX@@$1?_GUID_00000620_0000_0010_8000_00aa006d2ea4@@3U__s_GUID@@A@@@@QAE@PAUIndexes@XTPREPORTADOX@@_N@Z
_TEXT	SEGMENT PARA USE32 PUBLIC 'CODE'
_TEXT	ENDS
;	COMDAT ??1?$_com_ptr_t@V?$_com_IIID@UIndexes@XTPREPORTADOX@@$1?_GUID_00000620_0000_0010_8000_00aa006d2ea4@@3U__s_GUID@@A@@@@QAE@XZ
_TEXT	SEGMENT PARA USE32 PUBLIC 'CODE'
_TEXT	ENDS
;	COMDAT ??0?$_com_ptr_t@V?$_com_IIID@UKeys@XTPREPORTADOX@@$1?_GUID_00000623_0000_0010_8000_00aa006d2ea4@@3U__s_GUID@@A@@@@QAE@PAUKeys@XTPREPORTADOX@@_N@Z
_TEXT	SEGMENT PARA USE32 PUBLIC 'CODE'
_TEXT	ENDS
;	COMDAT ??1?$_com_ptr_t@V?$_com_IIID@UKeys@XTPREPORTADOX@@$1?_GUID_00000623_0000_0010_8000_00aa006d2ea4@@3U__s_GUID@@A@@@@QAE@XZ
_TEXT	SEGMENT PARA USE32 PUBLIC 'CODE'
_TEXT	ENDS
;	COMDAT ??0?$_com_ptr_t@V?$_com_IIID@UProperties@XTPREPORTADOX@@$1?_GUID_00000504_0000_0010_8000_00aa006d2ea4@@3U__s_GUID@@A@@@@QAE@PAUProperties@XTPREPORTADOX@@_N@Z
_TEXT	SEGMENT PARA USE32 PUBLIC 'CODE'
_TEXT	ENDS
;	COMDAT ??1?$_com_ptr_t@V?$_com_IIID@UProperties@XTPREPORTADOX@@$1?_GUID_00000504_0000_0010_8000_00aa006d2ea4@@3U__s_GUID@@A@@@@QAE@XZ
_TEXT	SEGMENT PARA USE32 PUBLIC 'CODE'
_TEXT	ENDS
;	COMDAT ??0?$_com_ptr_t@V?$_com_IIID@U_Catalog@XTPREPORTADOX@@$1?_GUID_00000603_0000_0010_8000_00aa006d2ea4@@3U__s_GUID@@A@@@@QAE@PAU_Catalog@XTPREPORTADOX@@_N@Z
_TEXT	SEGMENT PARA USE32 PUBLIC 'CODE'
_TEXT	ENDS
;	COMDAT ??1?$_com_ptr_t@V?$_com_IIID@U_Catalog@XTPREPORTADOX@@$1?_GUID_00000603_0000_0010_8000_00aa006d2ea4@@3U__s_GUID@@A@@@@QAE@XZ
_TEXT	SEGMENT PARA USE32 PUBLIC 'CODE'
_TEXT	ENDS
;	COMDAT ??0?$_com_ptr_t@V?$_com_IIID@U_Column@XTPREPORTADOX@@$1?_GUID_0000061c_0000_0010_8000_00aa006d2ea4@@3U__s_GUID@@A@@@@QAE@PAU_Column@XTPREPORTADOX@@_N@Z
_TEXT	SEGMENT PARA USE32 PUBLIC 'CODE'
_TEXT	ENDS
;	COMDAT ??1?$_com_ptr_t@V?$_com_IIID@U_Column@XTPREPORTADOX@@$1?_GUID_0000061c_0000_0010_8000_00aa006d2ea4@@3U__s_GUID@@A@@@@QAE@XZ
_TEXT	SEGMENT PARA USE32 PUBLIC 'CODE'
_TEXT	ENDS
;	COMDAT ??0?$_com_ptr_t@V?$_com_IIID@UProperty@XTPREPORTADOX@@$1?_GUID_00000503_0000_0010_8000_00aa006d2ea4@@3U__s_GUID@@A@@@@QAE@PAUProperty@XTPREPORTADOX@@_N@Z
_TEXT	SEGMENT PARA USE32 PUBLIC 'CODE'
_TEXT	ENDS
;	COMDAT ??1?$_com_ptr_t@V?$_com_IIID@UProperty@XTPREPORTADOX@@$1?_GUID_00000503_0000_0010_8000_00aa006d2ea4@@3U__s_GUID@@A@@@@QAE@XZ
_TEXT	SEGMENT PARA USE32 PUBLIC 'CODE'
_TEXT	ENDS
;	COMDAT ??0?$_com_ptr_t@V?$_com_IIID@U_Index@XTPREPORTADOX@@$1?_GUID_0000061f_0000_0010_8000_00aa006d2ea4@@3U__s_GUID@@A@@@@QAE@PAU_Index@XTPREPORTADOX@@_N@Z
_TEXT	SEGMENT PARA USE32 PUBLIC 'CODE'
_TEXT	ENDS
;	COMDAT ??1?$_com_ptr_t@V?$_com_IIID@U_Index@XTPREPORTADOX@@$1?_GUID_0000061f_0000_0010_8000_00aa006d2ea4@@3U__s_GUID@@A@@@@QAE@XZ
_TEXT	SEGMENT PARA USE32 PUBLIC 'CODE'
_TEXT	ENDS
;	COMDAT ??0?$_com_ptr_t@V?$_com_IIID@U_Key@XTPREPORTADOX@@$1?_GUID_00000622_0000_0010_8000_00aa006d2ea4@@3U__s_GUID@@A@@@@QAE@PAU_Key@XTPREPORTADOX@@_N@Z
_TEXT	SEGMENT PARA USE32 PUBLIC 'CODE'
_TEXT	ENDS
;	COMDAT ??1?$_com_ptr_t@V?$_com_IIID@U_Key@XTPREPORTADOX@@$1?_GUID_00000622_0000_0010_8000_00aa006d2ea4@@3U__s_GUID@@A@@@@QAE@XZ
_TEXT	SEGMENT PARA USE32 PUBLIC 'CODE'
_TEXT	ENDS
;	COMDAT ??0?$_com_ptr_t@V?$_com_IIID@UProcedure@XTPREPORTADOX@@$1?_GUID_00000625_0000_0010_8000_00aa006d2ea4@@3U__s_GUID@@A@@@@QAE@PAUProcedure@XTPREPORTADOX@@_N@Z
_TEXT	SEGMENT PARA USE32 PUBLIC 'CODE'
_TEXT	ENDS
;	COMDAT ??1?$_com_ptr_t@V?$_com_IIID@UProcedure@XTPREPORTADOX@@$1?_GUID_00000625_0000_0010_8000_00aa006d2ea4@@3U__s_GUID@@A@@@@QAE@XZ
_TEXT	SEGMENT PARA USE32 PUBLIC 'CODE'
_TEXT	ENDS
;	COMDAT ??0?$_com_ptr_t@V?$_com_IIID@UView@XTPREPORTADOX@@$1?_GUID_00000613_0000_0010_8000_00aa006d2ea4@@3U__s_GUID@@A@@@@QAE@PAUView@XTPREPORTADOX@@_N@Z
_TEXT	SEGMENT PARA USE32 PUBLIC 'CODE'
_TEXT	ENDS
;	COMDAT ??1?$_com_ptr_t@V?$_com_IIID@UView@XTPREPORTADOX@@$1?_GUID_00000613_0000_0010_8000_00aa006d2ea4@@3U__s_GUID@@A@@@@QAE@XZ
_TEXT	SEGMENT PARA USE32 PUBLIC 'CODE'
_TEXT	ENDS
;	COMDAT ??0?$_com_ptr_t@V?$_com_IIID@U_Group@XTPREPORTADOX@@$1?_GUID_00000628_0000_0010_8000_00aa006d2ea4@@3U__s_GUID@@A@@@@QAE@PAU_Group@XTPREPORTADOX@@_N@Z
_TEXT	SEGMENT PARA USE32 PUBLIC 'CODE'
_TEXT	ENDS
;	COMDAT ??1?$_com_ptr_t@V?$_com_IIID@U_Group@XTPREPORTADOX@@$1?_GUID_00000628_0000_0010_8000_00aa006d2ea4@@3U__s_GUID@@A@@@@QAE@XZ
_TEXT	SEGMENT PARA USE32 PUBLIC 'CODE'
_TEXT	ENDS
;	COMDAT ??0?$_com_ptr_t@V?$_com_IIID@U_User@XTPREPORTADOX@@$1?_GUID_00000627_0000_0010_8000_00aa006d2ea4@@3U__s_GUID@@A@@@@QAE@PAU_User@XTPREPORTADOX@@_N@Z
_TEXT	SEGMENT PARA USE32 PUBLIC 'CODE'
_TEXT	ENDS
;	COMDAT ??1?$_com_ptr_t@V?$_com_IIID@U_User@XTPREPORTADOX@@$1?_GUID_00000627_0000_0010_8000_00aa006d2ea4@@3U__s_GUID@@A@@@@QAE@XZ
_TEXT	SEGMENT PARA USE32 PUBLIC 'CODE'
_TEXT	ENDS
;	COMDAT ??1?$CXTPNotifySinkImpl@VCXTPCalendarController@@VC_m_Sink_Informator@1@@@UAE@XZ
_TEXT	SEGMENT PARA USE32 PUBLIC 'CODE'
_TEXT	ENDS
;	COMDAT ?OnEvent@?$CXTPNotifySinkImpl@VCXTPCalendarController@@VC_m_Sink_Informator@1@@@UAEXKIJK@Z
_TEXT	SEGMENT PARA USE32 PUBLIC 'CODE'
_TEXT	ENDS
;	COMDAT ??1?$CXTPCalendarViewPartCustomizableValueT@VCBrush@@@@UAE@XZ
_TEXT	SEGMENT PARA USE32 PUBLIC 'CODE'
_TEXT	ENDS
;	COMDAT ?IsDefaultValue@?$CXTPCalendarViewPartCustomizableValueT@VCBrush@@@@UBEHXZ
_TEXT	SEGMENT PARA USE32 PUBLIC 'CODE'
_TEXT	ENDS
;	COMDAT ?IsStandardValue@?$CXTPCalendarViewPartCustomizableValueT@VCBrush@@@@UBEHXZ
_TEXT	SEGMENT PARA USE32 PUBLIC 'CODE'
_TEXT	ENDS
;	COMDAT ?IsCustomValue@?$CXTPCalendarViewPartCustomizableValueT@VCBrush@@@@UBEHXZ
_TEXT	SEGMENT PARA USE32 PUBLIC 'CODE'
_TEXT	ENDS
;	COMDAT ?SetStandardValue@?$CXTPCalendarViewPartCustomizableValueT@VCBrush@@@@UAEXPAVCBrush@@H@Z
_TEXT	SEGMENT PARA USE32 PUBLIC 'CODE'
_TEXT	ENDS
;	COMDAT ?SetCustomValue@?$CXTPCalendarViewPartCustomizableValueT@VCBrush@@@@UAEXPAVCBrush@@H@Z
_TEXT	SEGMENT PARA USE32 PUBLIC 'CODE'
_TEXT	ENDS
;	COMDAT ?SetDefaultValue@?$CXTPCalendarViewPartCustomizableValueT@VCBrush@@@@UAEXXZ
_TEXT	SEGMENT PARA USE32 PUBLIC 'CODE'
_TEXT	ENDS
;	COMDAT ?GetValue@?$CXTPCalendarViewPartCustomizableValueT@VCBrush@@@@UBEPAVCBrush@@XZ
_TEXT	SEGMENT PARA USE32 PUBLIC 'CODE'
_TEXT	ENDS
;	COMDAT ?GetStandardValue@?$CXTPCalendarViewPartCustomizableValueT@VCBrush@@@@UBEPAVCBrush@@XZ
_TEXT	SEGMENT PARA USE32 PUBLIC 'CODE'
_TEXT	ENDS
;	COMDAT ??0?$CXTPCalendarViewPartCustomizableValueT@VCFont@@@@QAE@XZ
_TEXT	SEGMENT PARA USE32 PUBLIC 'CODE'
_TEXT	ENDS
;	COMDAT ??1?$CXTPCalendarViewPartCustomizableValueT@VCFont@@@@UAE@XZ
_TEXT	SEGMENT PARA USE32 PUBLIC 'CODE'
_TEXT	ENDS
;	COMDAT ?IsDefaultValue@?$CXTPCalendarViewPartCustomizableValueT@VCFont@@@@UBEHXZ
_TEXT	SEGMENT PARA USE32 PUBLIC 'CODE'
_TEXT	ENDS
;	COMDAT ?IsStandardValue@?$CXTPCalendarViewPartCustomizableValueT@VCFont@@@@UBEHXZ
_TEXT	SEGMENT PARA USE32 PUBLIC 'CODE'
_TEXT	ENDS
;	COMDAT ?IsCustomValue@?$CXTPCalendarViewPartCustomizableValueT@VCFont@@@@UBEHXZ
_TEXT	SEGMENT PARA USE32 PUBLIC 'CODE'
_TEXT	ENDS
;	COMDAT ?SetStandardValue@?$CXTPCalendarViewPartCustomizableValueT@VCFont@@@@UAEXPAVCFont@@H@Z
_TEXT	SEGMENT PARA USE32 PUBLIC 'CODE'
_TEXT	ENDS
;	COMDAT ?SetCustomValue@?$CXTPCalendarViewPartCustomizableValueT@VCFont@@@@UAEXPAVCFont@@H@Z
_TEXT	SEGMENT PARA USE32 PUBLIC 'CODE'
_TEXT	ENDS
;	COMDAT ?SetDefaultValue@?$CXTPCalendarViewPartCustomizableValueT@VCFont@@@@UAEXXZ
_TEXT	SEGMENT PARA USE32 PUBLIC 'CODE'
_TEXT	ENDS
;	COMDAT ?GetValue@?$CXTPCalendarViewPartCustomizableValueT@VCFont@@@@UBEPAVCFont@@XZ
_TEXT	SEGMENT PARA USE32 PUBLIC 'CODE'
_TEXT	ENDS
;	COMDAT ?GetStandardValue@?$CXTPCalendarViewPartCustomizableValueT@VCFont@@@@UBEPAVCFont@@XZ
_TEXT	SEGMENT PARA USE32 PUBLIC 'CODE'
_TEXT	ENDS
;	COMDAT ??B?$CXTPCalendarViewPartCustomizableValueT@VCFont@@@@QBEPAVCFont@@XZ
_TEXT	SEGMENT PARA USE32 PUBLIC 'CODE'
_TEXT	ENDS
;	COMDAT ??0?$CXTPCalendarThemeCustomizableXValueT@VCString@@PBD@@QAE@XZ
_TEXT	SEGMENT PARA USE32 PUBLIC 'CODE'
_TEXT	ENDS
;	COMDAT ??1?$CXTPCalendarThemeCustomizableXValueT@VCString@@PBD@@UAE@XZ
_TEXT	SEGMENT PARA USE32 PUBLIC 'CODE'
_TEXT	ENDS
;	COMDAT ?DoDestroy@?$CXTPCalendarThemeCustomizableXValueT@VCString@@PBD@@UAEXAAVCString@@@Z
_TEXT	SEGMENT PARA USE32 PUBLIC 'CODE'
_TEXT	ENDS
;	COMDAT ?IsDefaultValue@?$CXTPCalendarThemeCustomizableXValueT@VCString@@PBD@@UBEHXZ
_TEXT	SEGMENT PARA USE32 PUBLIC 'CODE'
_TEXT	ENDS
;	COMDAT ?IsStandardValue@?$CXTPCalendarThemeCustomizableXValueT@VCString@@PBD@@UBEHXZ
_TEXT	SEGMENT PARA USE32 PUBLIC 'CODE'
_TEXT	ENDS
;	COMDAT ?IsCustomValue@?$CXTPCalendarThemeCustomizableXValueT@VCString@@PBD@@UBEHXZ
_TEXT	SEGMENT PARA USE32 PUBLIC 'CODE'
_TEXT	ENDS
;	COMDAT ?SetStandardValue@?$CXTPCalendarThemeCustomizableXValueT@VCString@@PBD@@UAEXPBDH@Z
_TEXT	SEGMENT PARA USE32 PUBLIC 'CODE'
_TEXT	ENDS
;	COMDAT ?SetStandardValue@?$CXTPCalendarThemeCustomizableXValueT@VCString@@PBD@@UAEXPBD@Z
_TEXT	SEGMENT PARA USE32 PUBLIC 'CODE'
_TEXT	ENDS
;	COMDAT ?SetCustomValue@?$CXTPCalendarThemeCustomizableXValueT@VCString@@PBD@@UAEXPBDH@Z
_TEXT	SEGMENT PARA USE32 PUBLIC 'CODE'
_TEXT	ENDS
;	COMDAT ?SetCustomValue@?$CXTPCalendarThemeCustomizableXValueT@VCString@@PBD@@UAEXPBD@Z
_TEXT	SEGMENT PARA USE32 PUBLIC 'CODE'
_TEXT	ENDS
;	COMDAT ?SetDefaultValue@?$CXTPCalendarThemeCustomizableXValueT@VCString@@PBD@@UAEXXZ
_TEXT	SEGMENT PARA USE32 PUBLIC 'CODE'
_TEXT	ENDS
;	COMDAT ?GetValue@?$CXTPCalendarThemeCustomizableXValueT@VCString@@PBD@@UBEPBDXZ
_TEXT	SEGMENT PARA USE32 PUBLIC 'CODE'
_TEXT	ENDS
;	COMDAT ?GetValueX@?$CXTPCalendarThemeCustomizableXValueT@VCString@@PBD@@UBEABVCString@@XZ
_TEXT	SEGMENT PARA USE32 PUBLIC 'CODE'
_TEXT	ENDS
;	COMDAT ?GetStandardValue@?$CXTPCalendarThemeCustomizableXValueT@VCString@@PBD@@UBEPBDXZ
_TEXT	SEGMENT PARA USE32 PUBLIC 'CODE'
_TEXT	ENDS
;	COMDAT ?Serialize@?$CXTPCalendarThemeCustomizableXValueT@VCString@@PBD@@UAEXAAVCArchive@@@Z
_TEXT	SEGMENT PARA USE32 PUBLIC 'CODE'
_TEXT	ENDS
;	COMDAT ?DoPropExchange@?$CXTPCalendarThemeCustomizableXValueT@VCString@@PBD@@UAEXPAVCXTPPropExchange@@PBD@Z
_TEXT	SEGMENT PARA USE32 PUBLIC 'CODE'
_TEXT	ENDS
;	COMDAT ?DoPX_Value@?$CXTPCalendarThemeCustomizableXValueT@VCString@@PBD@@MAEXPAVCXTPPropExchange@@PBDAAVCString@@H@Z
_TEXT	SEGMENT PARA USE32 PUBLIC 'CODE'
_TEXT	ENDS
;	COMDAT ??0?$CXTPCalendarThemeCustomizableXValueT@HH@@QAE@XZ
_TEXT	SEGMENT PARA USE32 PUBLIC 'CODE'
_TEXT	ENDS
;	COMDAT ??1?$CXTPCalendarThemeCustomizableXValueT@HH@@UAE@XZ
_TEXT	SEGMENT PARA USE32 PUBLIC 'CODE'
_TEXT	ENDS
;	COMDAT ?DoDestroy@?$CXTPCalendarThemeCustomizableXValueT@HH@@UAEXAAH@Z
_TEXT	SEGMENT PARA USE32 PUBLIC 'CODE'
_TEXT	ENDS
;	COMDAT ?IsDefaultValue@?$CXTPCalendarThemeCustomizableXValueT@HH@@UBEHXZ
_TEXT	SEGMENT PARA USE32 PUBLIC 'CODE'
_TEXT	ENDS
;	COMDAT ?IsStandardValue@?$CXTPCalendarThemeCustomizableXValueT@HH@@UBEHXZ
_TEXT	SEGMENT PARA USE32 PUBLIC 'CODE'
_TEXT	ENDS
;	COMDAT ?IsCustomValue@?$CXTPCalendarThemeCustomizableXValueT@HH@@UBEHXZ
_TEXT	SEGMENT PARA USE32 PUBLIC 'CODE'
_TEXT	ENDS
;	COMDAT ?SetStandardValue@?$CXTPCalendarThemeCustomizableXValueT@HH@@UAEXHH@Z
_TEXT	SEGMENT PARA USE32 PUBLIC 'CODE'
_TEXT	ENDS
;	COMDAT ?SetStandardValue@?$CXTPCalendarThemeCustomizableXValueT@HH@@UAEXH@Z
_TEXT	SEGMENT PARA USE32 PUBLIC 'CODE'
_TEXT	ENDS
;	COMDAT ?SetCustomValue@?$CXTPCalendarThemeCustomizableXValueT@HH@@UAEXHH@Z
_TEXT	SEGMENT PARA USE32 PUBLIC 'CODE'
_TEXT	ENDS
;	COMDAT ?SetCustomValue@?$CXTPCalendarThemeCustomizableXValueT@HH@@UAEXH@Z
_TEXT	SEGMENT PARA USE32 PUBLIC 'CODE'
_TEXT	ENDS
;	COMDAT ?SetDefaultValue@?$CXTPCalendarThemeCustomizableXValueT@HH@@UAEXXZ
_TEXT	SEGMENT PARA USE32 PUBLIC 'CODE'
_TEXT	ENDS
;	COMDAT ?GetValue@?$CXTPCalendarThemeCustomizableXValueT@HH@@UBEHXZ
_TEXT	SEGMENT PARA USE32 PUBLIC 'CODE'
_TEXT	ENDS
;	COMDAT ?GetValueX@?$CXTPCalendarThemeCustomizableXValueT@HH@@UBEABHXZ
_TEXT	SEGMENT PARA USE32 PUBLIC 'CODE'
_TEXT	ENDS
;	COMDAT ?GetStandardValue@?$CXTPCalendarThemeCustomizableXValueT@HH@@UBEHXZ
_TEXT	SEGMENT PARA USE32 PUBLIC 'CODE'
_TEXT	ENDS
;	COMDAT ?CopySettings@?$CXTPCalendarThemeCustomizableXValueT@HH@@QAEXABV1@@Z
_TEXT	SEGMENT PARA USE32 PUBLIC 'CODE'
_TEXT	ENDS
;	COMDAT ?Serialize@?$CXTPCalendarThemeCustomizableXValueT@HH@@UAEXAAVCArchive@@@Z
_TEXT	SEGMENT PARA USE32 PUBLIC 'CODE'
_TEXT	ENDS
;	COMDAT ?DoPropExchange@?$CXTPCalendarThemeCustomizableXValueT@HH@@UAEXPAVCXTPPropExchange@@PBD@Z
_TEXT	SEGMENT PARA USE32 PUBLIC 'CODE'
_TEXT	ENDS
;	COMDAT ?DoPX_Value@?$CXTPCalendarThemeCustomizableXValueT@HH@@MAEXPAVCXTPPropExchange@@PBDAAHH@Z
_TEXT	SEGMENT PARA USE32 PUBLIC 'CODE'
_TEXT	ENDS
;	COMDAT ??0?$CXTPCalendarThemeCustomizableXValueT@VCRect@@V1@@@QAE@XZ
_TEXT	SEGMENT PARA USE32 PUBLIC 'CODE'
_TEXT	ENDS
;	COMDAT ??1?$CXTPCalendarThemeCustomizableXValueT@VCRect@@V1@@@UAE@XZ
_TEXT	SEGMENT PARA USE32 PUBLIC 'CODE'
_TEXT	ENDS
;	COMDAT ?DoDestroy@?$CXTPCalendarThemeCustomizableXValueT@VCRect@@V1@@@UAEXAAVCRect@@@Z
_TEXT	SEGMENT PARA USE32 PUBLIC 'CODE'
_TEXT	ENDS
;	COMDAT ?IsDefaultValue@?$CXTPCalendarThemeCustomizableXValueT@VCRect@@V1@@@UBEHXZ
_TEXT	SEGMENT PARA USE32 PUBLIC 'CODE'
_TEXT	ENDS
;	COMDAT ?IsStandardValue@?$CXTPCalendarThemeCustomizableXValueT@VCRect@@V1@@@UBEHXZ
_TEXT	SEGMENT PARA USE32 PUBLIC 'CODE'
_TEXT	ENDS
;	COMDAT ?IsCustomValue@?$CXTPCalendarThemeCustomizableXValueT@VCRect@@V1@@@UBEHXZ
_TEXT	SEGMENT PARA USE32 PUBLIC 'CODE'
_TEXT	ENDS
;	COMDAT ?SetStandardValue@?$CXTPCalendarThemeCustomizableXValueT@VCRect@@V1@@@UAEXVCRect@@H@Z
_TEXT	SEGMENT PARA USE32 PUBLIC 'CODE'
_TEXT	ENDS
;	COMDAT ?SetStandardValue@?$CXTPCalendarThemeCustomizableXValueT@VCRect@@V1@@@UAEXVCRect@@@Z
_TEXT	SEGMENT PARA USE32 PUBLIC 'CODE'
_TEXT	ENDS
;	COMDAT ?SetCustomValue@?$CXTPCalendarThemeCustomizableXValueT@VCRect@@V1@@@UAEXVCRect@@H@Z
_TEXT	SEGMENT PARA USE32 PUBLIC 'CODE'
_TEXT	ENDS
;	COMDAT ?SetCustomValue@?$CXTPCalendarThemeCustomizableXValueT@VCRect@@V1@@@UAEXVCRect@@@Z
_TEXT	SEGMENT PARA USE32 PUBLIC 'CODE'
_TEXT	ENDS
;	COMDAT ?SetDefaultValue@?$CXTPCalendarThemeCustomizableXValueT@VCRect@@V1@@@UAEXXZ
_TEXT	SEGMENT PARA USE32 PUBLIC 'CODE'
_TEXT	ENDS
;	COMDAT ?GetValue@?$CXTPCalendarThemeCustomizableXValueT@VCRect@@V1@@@UBE?AVCRect@@XZ
_TEXT	SEGMENT PARA USE32 PUBLIC 'CODE'
_TEXT	ENDS
;	COMDAT ?GetValueX@?$CXTPCalendarThemeCustomizableXValueT@VCRect@@V1@@@UBEABVCRect@@XZ
_TEXT	SEGMENT PARA USE32 PUBLIC 'CODE'
_TEXT	ENDS
;	COMDAT ?GetStandardValue@?$CXTPCalendarThemeCustomizableXValueT@VCRect@@V1@@@UBE?AVCRect@@XZ
_TEXT	SEGMENT PARA USE32 PUBLIC 'CODE'
_TEXT	ENDS
;	COMDAT ?CopySettings@?$CXTPCalendarThemeCustomizableXValueT@VCRect@@V1@@@QAEXABV1@@Z
_TEXT	SEGMENT PARA USE32 PUBLIC 'CODE'
_TEXT	ENDS
;	COMDAT ?Serialize@?$CXTPCalendarThemeCustomizableXValueT@VCRect@@V1@@@UAEXAAVCArchive@@@Z
_TEXT	SEGMENT PARA USE32 PUBLIC 'CODE'
_TEXT	ENDS
;	COMDAT ?DoPropExchange@?$CXTPCalendarThemeCustomizableXValueT@VCRect@@V1@@@UAEXPAVCXTPPropExchange@@PBD@Z
_TEXT	SEGMENT PARA USE32 PUBLIC 'CODE'
_TEXT	ENDS
;	COMDAT ?DoPX_Value@?$CXTPCalendarThemeCustomizableXValueT@VCRect@@V1@@@MAEXPAVCXTPPropExchange@@PBDAAVCRect@@H@Z
_TEXT	SEGMENT PARA USE32 PUBLIC 'CODE'
_TEXT	ENDS
;	COMDAT ??0?$CXTPNotifySinkImpl@VCXTPDatePickerTheme@@VC_m_Sink_Informator@1@@@QAE@XZ
_TEXT	SEGMENT PARA USE32 PUBLIC 'CODE'
_TEXT	ENDS
;	COMDAT ??1?$CXTPNotifySinkImpl@VCXTPDatePickerTheme@@VC_m_Sink_Informator@1@@@UAE@XZ
_TEXT	SEGMENT PARA USE32 PUBLIC 'CODE'
_TEXT	ENDS
;	COMDAT ?OnEvent@?$CXTPNotifySinkImpl@VCXTPDatePickerTheme@@VC_m_Sink_Informator@1@@@UAEXKIJK@Z
_TEXT	SEGMENT PARA USE32 PUBLIC 'CODE'
_TEXT	ENDS
;	COMDAT ??1?$CXTPNotifySinkImpl@VCXTPCalendarControl@@VC_m_Sink_DP_Informator@1@@@UAE@XZ
_TEXT	SEGMENT PARA USE32 PUBLIC 'CODE'
_TEXT	ENDS
;	COMDAT ?OnEvent@?$CXTPNotifySinkImpl@VCXTPCalendarControl@@VC_m_Sink_DP_Informator@1@@@UAEXKIJK@Z
_TEXT	SEGMENT PARA USE32 PUBLIC 'CODE'
_TEXT	ENDS
;	COMDAT ??1?$CXTPSmartPtrInternalT@VCXTPCalendarRecurrencePattern@@@@UAE@XZ
_TEXT	SEGMENT PARA USE32 PUBLIC 'CODE'
_TEXT	ENDS
;	COMDAT ??0?$CXTPSmartPtrInternalT@VCXTPCalendarEvent@@@@QAE@PAVCXTPCalendarEvent@@H@Z
_TEXT	SEGMENT PARA USE32 PUBLIC 'CODE'
_TEXT	ENDS
;	COMDAT ??0?$CXTPSmartPtrInternalT@VCXTPCalendarEvent@@@@QAE@ABV0@@Z
_TEXT	SEGMENT PARA USE32 PUBLIC 'CODE'
_TEXT	ENDS
;	COMDAT ??1?$CXTPSmartPtrInternalT@VCXTPCalendarEvent@@@@UAE@XZ
_TEXT	SEGMENT PARA USE32 PUBLIC 'CODE'
_TEXT	ENDS
;	COMDAT ??4?$CXTPSmartPtrInternalT@VCXTPCalendarEvent@@@@QAEABV0@ABV0@@Z
_TEXT	SEGMENT PARA USE32 PUBLIC 'CODE'
_TEXT	ENDS
;	COMDAT ??C?$CXTPSmartPtrInternalT@VCXTPCalendarEvent@@@@QBEPAVCXTPCalendarEvent@@XZ
_TEXT	SEGMENT PARA USE32 PUBLIC 'CODE'
_TEXT	ENDS
;	COMDAT ??B?$CXTPSmartPtrInternalT@VCXTPCalendarEvent@@@@QBEPAVCXTPCalendarEvent@@XZ
_TEXT	SEGMENT PARA USE32 PUBLIC 'CODE'
_TEXT	ENDS
;	COMDAT ??1?$CXTPSmartPtrInternalT@VCXTPCalendarViewEvent@@@@UAE@XZ
_TEXT	SEGMENT PARA USE32 PUBLIC 'CODE'
_TEXT	ENDS
;	COMDAT ??B?$CXTPSmartPtrInternalT@VCXTPCalendarViewEvent@@@@QBEPAVCXTPCalendarViewEvent@@XZ
_TEXT	SEGMENT PARA USE32 PUBLIC 'CODE'
_TEXT	ENDS
;	COMDAT ??1?$CXTPCalendarTypedPtrAutoDeleteArray@VCPtrArray@@PAVCXTPCalendarViewPartBrushValue@@@@UAE@XZ
_TEXT	SEGMENT PARA USE32 PUBLIC 'CODE'
_TEXT	ENDS
;	COMDAT ?RemoveAll@?$CXTPCalendarTypedPtrAutoDeleteArray@VCPtrArray@@PAVCXTPCalendarViewPartBrushValue@@@@UAEXXZ
_TEXT	SEGMENT PARA USE32 PUBLIC 'CODE'
_TEXT	ENDS
;	COMDAT ??1?$CXTPCalendarViewEventT@VCXTPCalendarDayViewGroup@@UXTP_CALENDAR_HITTESTINFO_DAY_VIEW@@@@UAE@XZ
_TEXT	SEGMENT PARA USE32 PUBLIC 'CODE'
_TEXT	ENDS
;	COMDAT ?HitTest@?$CXTPCalendarViewEventT@VCXTPCalendarDayViewGroup@@UXTP_CALENDAR_HITTESTINFO_DAY_VIEW@@@@UAEHVCPoint@@PAUXTP_CALENDAR_HITTESTINFO@@@Z
_TEXT	SEGMENT PARA USE32 PUBLIC 'CODE'
_TEXT	ENDS
;	COMDAT ?GetViewGroup_@?$CXTPCalendarViewEventT@VCXTPCalendarDayViewGroup@@UXTP_CALENDAR_HITTESTINFO_DAY_VIEW@@@@UBEPAVCXTPCalendarViewGroup@@XZ
_TEXT	SEGMENT PARA USE32 PUBLIC 'CODE'
_TEXT	ENDS
;	COMDAT ??1?$CXTPCalendarViewGroupT@VCXTPCalendarDayViewDay@@VCXTPCalendarDayViewEvent@@UXTP_CALENDAR_HITTESTINFO_DAY_VIEW@@VCXTPCalendarDayViewGroup@@@@UAE@XZ
_TEXT	SEGMENT PARA USE32 PUBLIC 'CODE'
_TEXT	ENDS
;	COMDAT ?HitTest@?$CXTPCalendarViewGroupT@VCXTPCalendarDayViewDay@@VCXTPCalendarDayViewEvent@@UXTP_CALENDAR_HITTESTINFO_DAY_VIEW@@VCXTPCalendarDayViewGroup@@@@UAEHVCPoint@@PAUXTP_CALENDAR_HITTESTINFO@@@Z
_TEXT	SEGMENT PARA USE32 PUBLIC 'CODE'
_TEXT	ENDS
;	COMDAT ?HitTestEx@?$CXTPCalendarViewGroupT@VCXTPCalendarDayViewDay@@VCXTPCalendarDayViewEvent@@UXTP_CALENDAR_HITTESTINFO_DAY_VIEW@@VCXTPCalendarDayViewGroup@@@@UAEHVCPoint@@PAUXTP_CALENDAR_HITTESTINFO_DAY_VIEW@@@Z
_TEXT	SEGMENT PARA USE32 PUBLIC 'CODE'
_TEXT	ENDS
;	COMDAT ?GetViewDay_@?$CXTPCalendarViewGroupT@VCXTPCalendarDayViewDay@@VCXTPCalendarDayViewEvent@@UXTP_CALENDAR_HITTESTINFO_DAY_VIEW@@VCXTPCalendarDayViewGroup@@@@UBEPAVCXTPCalendarViewDay@@XZ
_TEXT	SEGMENT PARA USE32 PUBLIC 'CODE'
_TEXT	ENDS
;	COMDAT ?GetViewEventsCount@?$CXTPCalendarViewGroupT@VCXTPCalendarDayViewDay@@VCXTPCalendarDayViewEvent@@UXTP_CALENDAR_HITTESTINFO_DAY_VIEW@@VCXTPCalendarDayViewGroup@@@@UAEHXZ
_TEXT	SEGMENT PARA USE32 PUBLIC 'CODE'
_TEXT	ENDS
;	COMDAT ?GetViewEvent@?$CXTPCalendarViewGroupT@VCXTPCalendarDayViewDay@@VCXTPCalendarDayViewEvent@@UXTP_CALENDAR_HITTESTINFO_DAY_VIEW@@VCXTPCalendarDayViewGroup@@@@UAEPAVCXTPCalendarDayViewEvent@@H@Z
_TEXT	SEGMENT PARA USE32 PUBLIC 'CODE'
_TEXT	ENDS
;	COMDAT ?GetViewEvent_@?$CXTPCalendarViewGroupT@VCXTPCalendarDayViewDay@@VCXTPCalendarDayViewEvent@@UXTP_CALENDAR_HITTESTINFO_DAY_VIEW@@VCXTPCalendarDayViewGroup@@@@UAEPAVCXTPCalendarViewEvent@@H@Z
_TEXT	SEGMENT PARA USE32 PUBLIC 'CODE'
_TEXT	ENDS
;	COMDAT ?Populate@?$CXTPCalendarViewGroupT@VCXTPCalendarDayViewDay@@VCXTPCalendarDayViewEvent@@UXTP_CALENDAR_HITTESTINFO_DAY_VIEW@@VCXTPCalendarDayViewGroup@@@@UAEXVCOleDateTime@@@Z
_TEXT	SEGMENT PARA USE32 PUBLIC 'CODE'
_TEXT	ENDS
;	COMDAT ??1?$CXTPCalendarViewDayT@VCXTPCalendarDayView@@VCXTPCalendarDayViewGroup@@UXTP_CALENDAR_HITTESTINFO_DAY_VIEW@@VCXTPCalendarDayViewDay@@@@UAE@XZ
_TEXT	SEGMENT PARA USE32 PUBLIC 'CODE'
_TEXT	ENDS
;	COMDAT ?HitTest@?$CXTPCalendarViewDayT@VCXTPCalendarDayView@@VCXTPCalendarDayViewGroup@@UXTP_CALENDAR_HITTESTINFO_DAY_VIEW@@VCXTPCalendarDayViewDay@@@@UAEHVCPoint@@PAUXTP_CALENDAR_HITTESTINFO@@@Z
_TEXT	SEGMENT PARA USE32 PUBLIC 'CODE'
_TEXT	ENDS
;	COMDAT ?HitTestEx@?$CXTPCalendarViewDayT@VCXTPCalendarDayView@@VCXTPCalendarDayViewGroup@@UXTP_CALENDAR_HITTESTINFO_DAY_VIEW@@VCXTPCalendarDayViewDay@@@@UAEHVCPoint@@PAUXTP_CALENDAR_HITTESTINFO_DAY_VIEW@@@Z
_TEXT	SEGMENT PARA USE32 PUBLIC 'CODE'
_TEXT	ENDS
;	COMDAT ?GetView_@?$CXTPCalendarViewDayT@VCXTPCalendarDayView@@VCXTPCalendarDayViewGroup@@UXTP_CALENDAR_HITTESTINFO_DAY_VIEW@@VCXTPCalendarDayViewDay@@@@UBEPAVCXTPCalendarView@@XZ
_TEXT	SEGMENT PARA USE32 PUBLIC 'CODE'
_TEXT	ENDS
;	COMDAT ?GetViewGroupsCount@?$CXTPCalendarViewDayT@VCXTPCalendarDayView@@VCXTPCalendarDayViewGroup@@UXTP_CALENDAR_HITTESTINFO_DAY_VIEW@@VCXTPCalendarDayViewDay@@@@UAEHXZ
_TEXT	SEGMENT PARA USE32 PUBLIC 'CODE'
_TEXT	ENDS
;	COMDAT ?GetViewGroup@?$CXTPCalendarViewDayT@VCXTPCalendarDayView@@VCXTPCalendarDayViewGroup@@UXTP_CALENDAR_HITTESTINFO_DAY_VIEW@@VCXTPCalendarDayViewDay@@@@UAEPAVCXTPCalendarDayViewGroup@@H@Z
_TEXT	SEGMENT PARA USE32 PUBLIC 'CODE'
_TEXT	ENDS
;	COMDAT ?GetViewGroup_@?$CXTPCalendarViewDayT@VCXTPCalendarDayView@@VCXTPCalendarDayViewGroup@@UXTP_CALENDAR_HITTESTINFO_DAY_VIEW@@VCXTPCalendarDayViewDay@@@@UAEPAVCXTPCalendarViewGroup@@H@Z
_TEXT	SEGMENT PARA USE32 PUBLIC 'CODE'
_TEXT	ENDS
;	COMDAT ?Populate@?$CXTPCalendarViewDayT@VCXTPCalendarDayView@@VCXTPCalendarDayViewGroup@@UXTP_CALENDAR_HITTESTINFO_DAY_VIEW@@VCXTPCalendarDayViewDay@@@@UAEXVCOleDateTime@@@Z
_TEXT	SEGMENT PARA USE32 PUBLIC 'CODE'
_TEXT	ENDS
;	COMDAT ?AdjustLayout@?$CXTPCalendarViewDayT@VCXTPCalendarDayView@@VCXTPCalendarDayViewGroup@@UXTP_CALENDAR_HITTESTINFO_DAY_VIEW@@VCXTPCalendarDayViewDay@@@@UAEXPAVCDC@@ABVCRect@@@Z
_TEXT	SEGMENT PARA USE32 PUBLIC 'CODE'
_TEXT	ENDS
;	COMDAT ?NoAllEventsAreVisible@?$CXTPCalendarViewDayT@VCXTPCalendarDayView@@VCXTPCalendarDayViewGroup@@UXTP_CALENDAR_HITTESTINFO_DAY_VIEW@@VCXTPCalendarDayViewDay@@@@UAEHXZ
_TEXT	SEGMENT PARA USE32 PUBLIC 'CODE'
_TEXT	ENDS
;	COMDAT ??1?$CXTPCalendarViewT@VCXTPCalendarDayViewDay@@UXTP_CALENDAR_HITTESTINFO_DAY_VIEW@@@@UAE@XZ
_TEXT	SEGMENT PARA USE32 PUBLIC 'CODE'
_TEXT	ENDS
;	COMDAT ?GetViewType@?$CXTPCalendarViewT@VCXTPCalendarDayViewDay@@UXTP_CALENDAR_HITTESTINFO_DAY_VIEW@@@@UAE?AW4XTPCalendarViewType@@XZ
_TEXT	SEGMENT PARA USE32 PUBLIC 'CODE'
_TEXT	ENDS
;	COMDAT ?GetViewDayCount@?$CXTPCalendarViewT@VCXTPCalendarDayViewDay@@UXTP_CALENDAR_HITTESTINFO_DAY_VIEW@@@@UAEHXZ
_TEXT	SEGMENT PARA USE32 PUBLIC 'CODE'
_TEXT	ENDS
;	COMDAT ?GetViewDay_@?$CXTPCalendarViewT@VCXTPCalendarDayViewDay@@UXTP_CALENDAR_HITTESTINFO_DAY_VIEW@@@@UAEPAVCXTPCalendarViewDay@@H@Z
_TEXT	SEGMENT PARA USE32 PUBLIC 'CODE'
_TEXT	ENDS
;	COMDAT ?GetViewDay@?$CXTPCalendarViewT@VCXTPCalendarDayViewDay@@UXTP_CALENDAR_HITTESTINFO_DAY_VIEW@@@@UAEPAVCXTPCalendarDayViewDay@@H@Z
_TEXT	SEGMENT PARA USE32 PUBLIC 'CODE'
_TEXT	ENDS
;	COMDAT ?HitTest@?$CXTPCalendarViewT@VCXTPCalendarDayViewDay@@UXTP_CALENDAR_HITTESTINFO_DAY_VIEW@@@@UAEHVCPoint@@PAUXTP_CALENDAR_HITTESTINFO@@@Z
_TEXT	SEGMENT PARA USE32 PUBLIC 'CODE'
_TEXT	ENDS
;	COMDAT ?HitTestEx@?$CXTPCalendarViewT@VCXTPCalendarDayViewDay@@UXTP_CALENDAR_HITTESTINFO_DAY_VIEW@@@@UAEHVCPoint@@PAUXTP_CALENDAR_HITTESTINFO_DAY_VIEW@@@Z
_TEXT	SEGMENT PARA USE32 PUBLIC 'CODE'
_TEXT	ENDS
;	COMDAT ??1?$CXTPNotifySinkImpl@VCXTPCalendarCaptionBarTheme@@VC_m_Sink_Informator@1@@@UAE@XZ
_TEXT	SEGMENT PARA USE32 PUBLIC 'CODE'
_TEXT	ENDS
;	COMDAT ?OnEvent@?$CXTPNotifySinkImpl@VCXTPCalendarCaptionBarTheme@@VC_m_Sink_Informator@1@@@UAEXKIJK@Z
_TEXT	SEGMENT PARA USE32 PUBLIC 'CODE'
_TEXT	ENDS
;	COMDAT ??1?$CXTPNotifySinkImpl@VCXTPCalendarControlView@@VC_m_Sink_Informator@1@@@UAE@XZ
_TEXT	SEGMENT PARA USE32 PUBLIC 'CODE'
_TEXT	ENDS
;	COMDAT ?OnEvent@?$CXTPNotifySinkImpl@VCXTPCalendarControlView@@VC_m_Sink_Informator@1@@@UAEXKIJK@Z
_TEXT	SEGMENT PARA USE32 PUBLIC 'CODE'
_TEXT	ENDS
;	COMDAT ??1?$CXTPSmartPtrInternalT@VCCmdTarget@@@@UAE@XZ
_TEXT	SEGMENT PARA USE32 PUBLIC 'CODE'
_TEXT	ENDS
;	COMDAT ??1?$EventsMapByID_T@VCXTPCalendarEvent@@@CXTPCalendarData@@UAE@XZ
_TEXT	SEGMENT PARA USE32 PUBLIC 'CODE'
_TEXT	ENDS
;	COMDAT ??1?$EventsMapByID_T@VCXTPCalendarRecurrencePattern@@@CXTPCalendarData@@UAE@XZ
_TEXT	SEGMENT PARA USE32 PUBLIC 'CODE'
_TEXT	ENDS
;	COMDAT ??0?$_com_ptr_t@V?$_com_IIID@UProperties@XTPADODB@@$1?_GUID_00000504_0000_0010_8000_00aa006d2ea4@@3U__s_GUID@@A@@@@QAE@PAUProperties@XTPADODB@@_N@Z
_TEXT	SEGMENT PARA USE32 PUBLIC 'CODE'
_TEXT	ENDS
;	COMDAT ??1?$_com_ptr_t@V?$_com_IIID@UProperties@XTPADODB@@$1?_GUID_00000504_0000_0010_8000_00aa006d2ea4@@3U__s_GUID@@A@@@@QAE@XZ
_TEXT	SEGMENT PARA USE32 PUBLIC 'CODE'
_TEXT	ENDS
;	COMDAT ??0?$_com_ptr_t@V?$_com_IIID@UProperty@XTPADODB@@$1?_GUID_00000503_0000_0010_8000_00aa006d2ea4@@3U__s_GUID@@A@@@@QAE@PAUProperty@XTPADODB@@_N@Z
_TEXT	SEGMENT PARA USE32 PUBLIC 'CODE'
_TEXT	ENDS
;	COMDAT ??1?$_com_ptr_t@V?$_com_IIID@UProperty@XTPADODB@@$1?_GUID_00000503_0000_0010_8000_00aa006d2ea4@@3U__s_GUID@@A@@@@QAE@XZ
_TEXT	SEGMENT PARA USE32 PUBLIC 'CODE'
_TEXT	ENDS
;	COMDAT ??0?$_com_ptr_t@V?$_com_IIID@UError@XTPADODB@@$1?_GUID_00000500_0000_0010_8000_00aa006d2ea4@@3U__s_GUID@@A@@@@QAE@PAUError@XTPADODB@@_N@Z
_TEXT	SEGMENT PARA USE32 PUBLIC 'CODE'
_TEXT	ENDS
;	COMDAT ??1?$_com_ptr_t@V?$_com_IIID@UError@XTPADODB@@$1?_GUID_00000500_0000_0010_8000_00aa006d2ea4@@3U__s_GUID@@A@@@@QAE@XZ
_TEXT	SEGMENT PARA USE32 PUBLIC 'CODE'
_TEXT	ENDS
;	COMDAT ??0?$_com_ptr_t@V?$_com_IIID@U_Connection@XTPADODB@@$1?_GUID_00000550_0000_0010_8000_00aa006d2ea4@@3U__s_GUID@@A@@@@QAE@PAU_Connection@XTPADODB@@_N@Z
_TEXT	SEGMENT PARA USE32 PUBLIC 'CODE'
_TEXT	ENDS
;	COMDAT ??1?$_com_ptr_t@V?$_com_IIID@U_Connection@XTPADODB@@$1?_GUID_00000550_0000_0010_8000_00aa006d2ea4@@3U__s_GUID@@A@@@@QAE@XZ
_TEXT	SEGMENT PARA USE32 PUBLIC 'CODE'
_TEXT	ENDS
;	COMDAT ??0?$_com_ptr_t@V?$_com_IIID@U_Recordset@XTPADODB@@$1?_GUID_00000556_0000_0010_8000_00aa006d2ea4@@3U__s_GUID@@A@@@@QAE@PAU_Recordset@XTPADODB@@_N@Z
_TEXT	SEGMENT PARA USE32 PUBLIC 'CODE'
_TEXT	ENDS
;	COMDAT ??1?$_com_ptr_t@V?$_com_IIID@U_Recordset@XTPADODB@@$1?_GUID_00000556_0000_0010_8000_00aa006d2ea4@@3U__s_GUID@@A@@@@QAE@XZ
_TEXT	SEGMENT PARA USE32 PUBLIC 'CODE'
_TEXT	ENDS
;	COMDAT ??0?$_com_ptr_t@V?$_com_IIID@U_Parameter@XTPADODB@@$1?_GUID_0000050c_0000_0010_8000_00aa006d2ea4@@3U__s_GUID@@A@@@@QAE@PAU_Parameter@XTPADODB@@_N@Z
_TEXT	SEGMENT PARA USE32 PUBLIC 'CODE'
_TEXT	ENDS
;	COMDAT ??1?$_com_ptr_t@V?$_com_IIID@U_Parameter@XTPADODB@@$1?_GUID_0000050c_0000_0010_8000_00aa006d2ea4@@3U__s_GUID@@A@@@@QAE@XZ
_TEXT	SEGMENT PARA USE32 PUBLIC 'CODE'
_TEXT	ENDS
;	COMDAT ??0?$_com_ptr_t@V?$_com_IIID@UParameters@XTPADODB@@$1?_GUID_0000050d_0000_0010_8000_00aa006d2ea4@@3U__s_GUID@@A@@@@QAE@PAUParameters@XTPADODB@@_N@Z
_TEXT	SEGMENT PARA USE32 PUBLIC 'CODE'
_TEXT	ENDS
;	COMDAT ??1?$_com_ptr_t@V?$_com_IIID@UParameters@XTPADODB@@$1?_GUID_0000050d_0000_0010_8000_00aa006d2ea4@@3U__s_GUID@@A@@@@QAE@XZ
_TEXT	SEGMENT PARA USE32 PUBLIC 'CODE'
_TEXT	ENDS
;	COMDAT ??0?$_com_ptr_t@V?$_com_IIID@UErrors@XTPADODB@@$1?_GUID_00000501_0000_0010_8000_00aa006d2ea4@@3U__s_GUID@@A@@@@QAE@PAUErrors@XTPADODB@@_N@Z
_TEXT	SEGMENT PARA USE32 PUBLIC 'CODE'
_TEXT	ENDS
;	COMDAT ??1?$_com_ptr_t@V?$_com_IIID@UErrors@XTPADODB@@$1?_GUID_00000501_0000_0010_8000_00aa006d2ea4@@3U__s_GUID@@A@@@@QAE@XZ
_TEXT	SEGMENT PARA USE32 PUBLIC 'CODE'
_TEXT	ENDS
;	COMDAT ??0?$_com_ptr_t@V?$_com_IIID@UFields@XTPADODB@@$1?_GUID_00000564_0000_0010_8000_00aa006d2ea4@@3U__s_GUID@@A@@@@QAE@PAUFields@XTPADODB@@_N@Z
_TEXT	SEGMENT PARA USE32 PUBLIC 'CODE'
_TEXT	ENDS
;	COMDAT ??1?$_com_ptr_t@V?$_com_IIID@UFields@XTPADODB@@$1?_GUID_00000564_0000_0010_8000_00aa006d2ea4@@3U__s_GUID@@A@@@@QAE@XZ
_TEXT	SEGMENT PARA USE32 PUBLIC 'CODE'
_TEXT	ENDS
;	COMDAT ??0?$_com_ptr_t@V?$_com_IIID@UField@XTPADODB@@$1?_GUID_00000569_0000_0010_8000_00aa006d2ea4@@3U__s_GUID@@A@@@@QAE@PAUField@XTPADODB@@_N@Z
_TEXT	SEGMENT PARA USE32 PUBLIC 'CODE'
_TEXT	ENDS
;	COMDAT ??1?$_com_ptr_t@V?$_com_IIID@UField@XTPADODB@@$1?_GUID_00000569_0000_0010_8000_00aa006d2ea4@@3U__s_GUID@@A@@@@QAE@XZ
_TEXT	SEGMENT PARA USE32 PUBLIC 'CODE'
_TEXT	ENDS
;	COMDAT ??0?$_com_ptr_t@V?$_com_IIID@UTables@XTPADOX@@$1?_GUID_00000611_0000_0010_8000_00aa006d2ea4@@3U__s_GUID@@A@@@@QAE@PAUTables@XTPADOX@@_N@Z
_TEXT	SEGMENT PARA USE32 PUBLIC 'CODE'
_TEXT	ENDS
;	COMDAT ??1?$_com_ptr_t@V?$_com_IIID@UTables@XTPADOX@@$1?_GUID_00000611_0000_0010_8000_00aa006d2ea4@@3U__s_GUID@@A@@@@QAE@XZ
_TEXT	SEGMENT PARA USE32 PUBLIC 'CODE'
_TEXT	ENDS
;	COMDAT ??0?$_com_ptr_t@V?$_com_IIID@UProcedures@XTPADOX@@$1?_GUID_00000626_0000_0010_8000_00aa006d2ea4@@3U__s_GUID@@A@@@@QAE@PAUProcedures@XTPADOX@@_N@Z
_TEXT	SEGMENT PARA USE32 PUBLIC 'CODE'
_TEXT	ENDS
;	COMDAT ??1?$_com_ptr_t@V?$_com_IIID@UProcedures@XTPADOX@@$1?_GUID_00000626_0000_0010_8000_00aa006d2ea4@@3U__s_GUID@@A@@@@QAE@XZ
_TEXT	SEGMENT PARA USE32 PUBLIC 'CODE'
_TEXT	ENDS
;	COMDAT ??0?$_com_ptr_t@V?$_com_IIID@UViews@XTPADOX@@$1?_GUID_00000614_0000_0010_8000_00aa006d2ea4@@3U__s_GUID@@A@@@@QAE@PAUViews@XTPADOX@@_N@Z
_TEXT	SEGMENT PARA USE32 PUBLIC 'CODE'
_TEXT	ENDS
;	COMDAT ??1?$_com_ptr_t@V?$_com_IIID@UViews@XTPADOX@@$1?_GUID_00000614_0000_0010_8000_00aa006d2ea4@@3U__s_GUID@@A@@@@QAE@XZ
_TEXT	SEGMENT PARA USE32 PUBLIC 'CODE'
_TEXT	ENDS
;	COMDAT ??0?$_com_ptr_t@V?$_com_IIID@UGroups@XTPADOX@@$1?_GUID_00000617_0000_0010_8000_00aa006d2ea4@@3U__s_GUID@@A@@@@QAE@PAUGroups@XTPADOX@@_N@Z
_TEXT	SEGMENT PARA USE32 PUBLIC 'CODE'
_TEXT	ENDS
;	COMDAT ??1?$_com_ptr_t@V?$_com_IIID@UGroups@XTPADOX@@$1?_GUID_00000617_0000_0010_8000_00aa006d2ea4@@3U__s_GUID@@A@@@@QAE@XZ
_TEXT	SEGMENT PARA USE32 PUBLIC 'CODE'
_TEXT	ENDS
;	COMDAT ??0?$_com_ptr_t@V?$_com_IIID@UUsers@XTPADOX@@$1?_GUID_0000061a_0000_0010_8000_00aa006d2ea4@@3U__s_GUID@@A@@@@QAE@PAUUsers@XTPADOX@@_N@Z
_TEXT	SEGMENT PARA USE32 PUBLIC 'CODE'
_TEXT	ENDS
;	COMDAT ??1?$_com_ptr_t@V?$_com_IIID@UUsers@XTPADOX@@$1?_GUID_0000061a_0000_0010_8000_00aa006d2ea4@@3U__s_GUID@@A@@@@QAE@XZ
_TEXT	SEGMENT PARA USE32 PUBLIC 'CODE'
_TEXT	ENDS
;	COMDAT ??0?$_com_ptr_t@V?$_com_IIID@U_Table@XTPADOX@@$1?_GUID_00000610_0000_0010_8000_00aa006d2ea4@@3U__s_GUID@@A@@@@QAE@PAU_Table@XTPADOX@@_N@Z
_TEXT	SEGMENT PARA USE32 PUBLIC 'CODE'
_TEXT	ENDS
;	COMDAT ??1?$_com_ptr_t@V?$_com_IIID@U_Table@XTPADOX@@$1?_GUID_00000610_0000_0010_8000_00aa006d2ea4@@3U__s_GUID@@A@@@@QAE@XZ
_TEXT	SEGMENT PARA USE32 PUBLIC 'CODE'
_TEXT	ENDS
;	COMDAT ??0?$_com_ptr_t@V?$_com_IIID@UColumns@XTPADOX@@$1?_GUID_0000061d_0000_0010_8000_00aa006d2ea4@@3U__s_GUID@@A@@@@QAE@PAUColumns@XTPADOX@@_N@Z
_TEXT	SEGMENT PARA USE32 PUBLIC 'CODE'
_TEXT	ENDS
;	COMDAT ??1?$_com_ptr_t@V?$_com_IIID@UColumns@XTPADOX@@$1?_GUID_0000061d_0000_0010_8000_00aa006d2ea4@@3U__s_GUID@@A@@@@QAE@XZ
_TEXT	SEGMENT PARA USE32 PUBLIC 'CODE'
_TEXT	ENDS
;	COMDAT ??0?$_com_ptr_t@V?$_com_IIID@UIndexes@XTPADOX@@$1?_GUID_00000620_0000_0010_8000_00aa006d2ea4@@3U__s_GUID@@A@@@@QAE@PAUIndexes@XTPADOX@@_N@Z
_TEXT	SEGMENT PARA USE32 PUBLIC 'CODE'
_TEXT	ENDS
;	COMDAT ??1?$_com_ptr_t@V?$_com_IIID@UIndexes@XTPADOX@@$1?_GUID_00000620_0000_0010_8000_00aa006d2ea4@@3U__s_GUID@@A@@@@QAE@XZ
_TEXT	SEGMENT PARA USE32 PUBLIC 'CODE'
_TEXT	ENDS
;	COMDAT ??0?$_com_ptr_t@V?$_com_IIID@UKeys@XTPADOX@@$1?_GUID_00000623_0000_0010_8000_00aa006d2ea4@@3U__s_GUID@@A@@@@QAE@PAUKeys@XTPADOX@@_N@Z
_TEXT	SEGMENT PARA USE32 PUBLIC 'CODE'
_TEXT	ENDS
;	COMDAT ??1?$_com_ptr_t@V?$_com_IIID@UKeys@XTPADOX@@$1?_GUID_00000623_0000_0010_8000_00aa006d2ea4@@3U__s_GUID@@A@@@@QAE@XZ
_TEXT	SEGMENT PARA USE32 PUBLIC 'CODE'
_TEXT	ENDS
;	COMDAT ??0?$_com_ptr_t@V?$_com_IIID@UProperties@XTPADOX@@$1?_GUID_00000504_0000_0010_8000_00aa006d2ea4@@3U__s_GUID@@A@@@@QAE@PAUProperties@XTPADOX@@_N@Z
_TEXT	SEGMENT PARA USE32 PUBLIC 'CODE'
_TEXT	ENDS
;	COMDAT ??1?$_com_ptr_t@V?$_com_IIID@UProperties@XTPADOX@@$1?_GUID_00000504_0000_0010_8000_00aa006d2ea4@@3U__s_GUID@@A@@@@QAE@XZ
_TEXT	SEGMENT PARA USE32 PUBLIC 'CODE'
_TEXT	ENDS
;	COMDAT ??0?$_com_ptr_t@V?$_com_IIID@U_Catalog@XTPADOX@@$1?_GUID_00000603_0000_0010_8000_00aa006d2ea4@@3U__s_GUID@@A@@@@QAE@PAU_Catalog@XTPADOX@@_N@Z
_TEXT	SEGMENT PARA USE32 PUBLIC 'CODE'
_TEXT	ENDS
;	COMDAT ??1?$_com_ptr_t@V?$_com_IIID@U_Catalog@XTPADOX@@$1?_GUID_00000603_0000_0010_8000_00aa006d2ea4@@3U__s_GUID@@A@@@@QAE@XZ
_TEXT	SEGMENT PARA USE32 PUBLIC 'CODE'
_TEXT	ENDS
;	COMDAT ??0?$_com_ptr_t@V?$_com_IIID@U_Column@XTPADOX@@$1?_GUID_0000061c_0000_0010_8000_00aa006d2ea4@@3U__s_GUID@@A@@@@QAE@PAU_Column@XTPADOX@@_N@Z
_TEXT	SEGMENT PARA USE32 PUBLIC 'CODE'
_TEXT	ENDS
;	COMDAT ??1?$_com_ptr_t@V?$_com_IIID@U_Column@XTPADOX@@$1?_GUID_0000061c_0000_0010_8000_00aa006d2ea4@@3U__s_GUID@@A@@@@QAE@XZ
_TEXT	SEGMENT PARA USE32 PUBLIC 'CODE'
_TEXT	ENDS
;	COMDAT ??0?$_com_ptr_t@V?$_com_IIID@UProperty@XTPADOX@@$1?_GUID_00000503_0000_0010_8000_00aa006d2ea4@@3U__s_GUID@@A@@@@QAE@PAUProperty@XTPADOX@@_N@Z
_TEXT	SEGMENT PARA USE32 PUBLIC 'CODE'
_TEXT	ENDS
;	COMDAT ??1?$_com_ptr_t@V?$_com_IIID@UProperty@XTPADOX@@$1?_GUID_00000503_0000_0010_8000_00aa006d2ea4@@3U__s_GUID@@A@@@@QAE@XZ
_TEXT	SEGMENT PARA USE32 PUBLIC 'CODE'
_TEXT	ENDS
;	COMDAT ??0?$_com_ptr_t@V?$_com_IIID@U_Index@XTPADOX@@$1?_GUID_0000061f_0000_0010_8000_00aa006d2ea4@@3U__s_GUID@@A@@@@QAE@PAU_Index@XTPADOX@@_N@Z
_TEXT	SEGMENT PARA USE32 PUBLIC 'CODE'
_TEXT	ENDS
;	COMDAT ??1?$_com_ptr_t@V?$_com_IIID@U_Index@XTPADOX@@$1?_GUID_0000061f_0000_0010_8000_00aa006d2ea4@@3U__s_GUID@@A@@@@QAE@XZ
_TEXT	SEGMENT PARA USE32 PUBLIC 'CODE'
_TEXT	ENDS
;	COMDAT ??0?$_com_ptr_t@V?$_com_IIID@U_Key@XTPADOX@@$1?_GUID_00000622_0000_0010_8000_00aa006d2ea4@@3U__s_GUID@@A@@@@QAE@PAU_Key@XTPADOX@@_N@Z
_TEXT	SEGMENT PARA USE32 PUBLIC 'CODE'
_TEXT	ENDS
;	COMDAT ??1?$_com_ptr_t@V?$_com_IIID@U_Key@XTPADOX@@$1?_GUID_00000622_0000_0010_8000_00aa006d2ea4@@3U__s_GUID@@A@@@@QAE@XZ
_TEXT	SEGMENT PARA USE32 PUBLIC 'CODE'
_TEXT	ENDS
;	COMDAT ??0?$_com_ptr_t@V?$_com_IIID@UProcedure@XTPADOX@@$1?_GUID_00000625_0000_0010_8000_00aa006d2ea4@@3U__s_GUID@@A@@@@QAE@PAUProcedure@XTPADOX@@_N@Z
_TEXT	SEGMENT PARA USE32 PUBLIC 'CODE'
_TEXT	ENDS
;	COMDAT ??1?$_com_ptr_t@V?$_com_IIID@UProcedure@XTPADOX@@$1?_GUID_00000625_0000_0010_8000_00aa006d2ea4@@3U__s_GUID@@A@@@@QAE@XZ
_TEXT	SEGMENT PARA USE32 PUBLIC 'CODE'
_TEXT	ENDS
;	COMDAT ??0?$_com_ptr_t@V?$_com_IIID@UView@XTPADOX@@$1?_GUID_00000613_0000_0010_8000_00aa006d2ea4@@3U__s_GUID@@A@@@@QAE@PAUView@XTPADOX@@_N@Z
_TEXT	SEGMENT PARA USE32 PUBLIC 'CODE'
_TEXT	ENDS
;	COMDAT ??1?$_com_ptr_t@V?$_com_IIID@UView@XTPADOX@@$1?_GUID_00000613_0000_0010_8000_00aa006d2ea4@@3U__s_GUID@@A@@@@QAE@XZ
_TEXT	SEGMENT PARA USE32 PUBLIC 'CODE'
_TEXT	ENDS
;	COMDAT ??0?$_com_ptr_t@V?$_com_IIID@U_Group@XTPADOX@@$1?_GUID_00000628_0000_0010_8000_00aa006d2ea4@@3U__s_GUID@@A@@@@QAE@PAU_Group@XTPADOX@@_N@Z
_TEXT	SEGMENT PARA USE32 PUBLIC 'CODE'
_TEXT	ENDS
;	COMDAT ??1?$_com_ptr_t@V?$_com_IIID@U_Group@XTPADOX@@$1?_GUID_00000628_0000_0010_8000_00aa006d2ea4@@3U__s_GUID@@A@@@@QAE@XZ
_TEXT	SEGMENT PARA USE32 PUBLIC 'CODE'
_TEXT	ENDS
;	COMDAT ??0?$_com_ptr_t@V?$_com_IIID@U_User@XTPADOX@@$1?_GUID_00000627_0000_0010_8000_00aa006d2ea4@@3U__s_GUID@@A@@@@QAE@PAU_User@XTPADOX@@_N@Z
_TEXT	SEGMENT PARA USE32 PUBLIC 'CODE'
_TEXT	ENDS
;	COMDAT ??1?$_com_ptr_t@V?$_com_IIID@U_User@XTPADOX@@$1?_GUID_00000627_0000_0010_8000_00aa006d2ea4@@3U__s_GUID@@A@@@@QAE@XZ
_TEXT	SEGMENT PARA USE32 PUBLIC 'CODE'
_TEXT	ENDS
;	COMDAT ??1?$CXTPCalendarViewEventT@VCXTPCalendarMonthViewGroup@@UXTP_CALENDAR_HITTESTINFO_MONTH_VIEW@@@@UAE@XZ
_TEXT	SEGMENT PARA USE32 PUBLIC 'CODE'
_TEXT	ENDS
;	COMDAT ?HitTest@?$CXTPCalendarViewEventT@VCXTPCalendarMonthViewGroup@@UXTP_CALENDAR_HITTESTINFO_MONTH_VIEW@@@@UAEHVCPoint@@PAUXTP_CALENDAR_HITTESTINFO@@@Z
_TEXT	SEGMENT PARA USE32 PUBLIC 'CODE'
_TEXT	ENDS
;	COMDAT ?GetViewGroup_@?$CXTPCalendarViewEventT@VCXTPCalendarMonthViewGroup@@UXTP_CALENDAR_HITTESTINFO_MONTH_VIEW@@@@UBEPAVCXTPCalendarViewGroup@@XZ
_TEXT	SEGMENT PARA USE32 PUBLIC 'CODE'
_TEXT	ENDS
;	COMDAT ??1?$CXTPCalendarViewGroupT@VCXTPCalendarMonthViewDay@@VCXTPCalendarMonthViewEvent@@UXTP_CALENDAR_HITTESTINFO_MONTH_VIEW@@VCXTPCalendarMonthViewGroup@@@@UAE@XZ
_TEXT	SEGMENT PARA USE32 PUBLIC 'CODE'
_TEXT	ENDS
;	COMDAT ?HitTest@?$CXTPCalendarViewGroupT@VCXTPCalendarMonthViewDay@@VCXTPCalendarMonthViewEvent@@UXTP_CALENDAR_HITTESTINFO_MONTH_VIEW@@VCXTPCalendarMonthViewGroup@@@@UAEHVCPoint@@PAUXTP_CALENDAR_HITTESTINFO@@@Z
_TEXT	SEGMENT PARA USE32 PUBLIC 'CODE'
_TEXT	ENDS
;	COMDAT ?HitTestEx@?$CXTPCalendarViewGroupT@VCXTPCalendarMonthViewDay@@VCXTPCalendarMonthViewEvent@@UXTP_CALENDAR_HITTESTINFO_MONTH_VIEW@@VCXTPCalendarMonthViewGroup@@@@UAEHVCPoint@@PAUXTP_CALENDAR_HITTESTINFO_MONTH_VIEW@@@Z
_TEXT	SEGMENT PARA USE32 PUBLIC 'CODE'
_TEXT	ENDS
;	COMDAT ?GetViewDay_@?$CXTPCalendarViewGroupT@VCXTPCalendarMonthViewDay@@VCXTPCalendarMonthViewEvent@@UXTP_CALENDAR_HITTESTINFO_MONTH_VIEW@@VCXTPCalendarMonthViewGroup@@@@UBEPAVCXTPCalendarViewDay@@XZ
_TEXT	SEGMENT PARA USE32 PUBLIC 'CODE'
_TEXT	ENDS
;	COMDAT ?GetViewEventsCount@?$CXTPCalendarViewGroupT@VCXTPCalendarMonthViewDay@@VCXTPCalendarMonthViewEvent@@UXTP_CALENDAR_HITTESTINFO_MONTH_VIEW@@VCXTPCalendarMonthViewGroup@@@@UAEHXZ
_TEXT	SEGMENT PARA USE32 PUBLIC 'CODE'
_TEXT	ENDS
;	COMDAT ?GetViewEvent@?$CXTPCalendarViewGroupT@VCXTPCalendarMonthViewDay@@VCXTPCalendarMonthViewEvent@@UXTP_CALENDAR_HITTESTINFO_MONTH_VIEW@@VCXTPCalendarMonthViewGroup@@@@UAEPAVCXTPCalendarMonthViewEvent@@H@Z
_TEXT	SEGMENT PARA USE32 PUBLIC 'CODE'
_TEXT	ENDS
;	COMDAT ?GetViewEvent_@?$CXTPCalendarViewGroupT@VCXTPCalendarMonthViewDay@@VCXTPCalendarMonthViewEvent@@UXTP_CALENDAR_HITTESTINFO_MONTH_VIEW@@VCXTPCalendarMonthViewGroup@@@@UAEPAVCXTPCalendarViewEvent@@H@Z
_TEXT	SEGMENT PARA USE32 PUBLIC 'CODE'
_TEXT	ENDS
;	COMDAT ?Populate@?$CXTPCalendarViewGroupT@VCXTPCalendarMonthViewDay@@VCXTPCalendarMonthViewEvent@@UXTP_CALENDAR_HITTESTINFO_MONTH_VIEW@@VCXTPCalendarMonthViewGroup@@@@UAEXVCOleDateTime@@@Z
_TEXT	SEGMENT PARA USE32 PUBLIC 'CODE'
_TEXT	ENDS
;	COMDAT ??1?$CXTPCalendarViewDayT@VCXTPCalendarMonthView@@VCXTPCalendarMonthViewGroup@@UXTP_CALENDAR_HITTESTINFO_MONTH_VIEW@@VCXTPCalendarMonthViewDay@@@@UAE@XZ
_TEXT	SEGMENT PARA USE32 PUBLIC 'CODE'
_TEXT	ENDS
;	COMDAT ?HitTest@?$CXTPCalendarViewDayT@VCXTPCalendarMonthView@@VCXTPCalendarMonthViewGroup@@UXTP_CALENDAR_HITTESTINFO_MONTH_VIEW@@VCXTPCalendarMonthViewDay@@@@UAEHVCPoint@@PAUXTP_CALENDAR_HITTESTINFO@@@Z
_TEXT	SEGMENT PARA USE32 PUBLIC 'CODE'
_TEXT	ENDS
;	COMDAT ?HitTestEx@?$CXTPCalendarViewDayT@VCXTPCalendarMonthView@@VCXTPCalendarMonthViewGroup@@UXTP_CALENDAR_HITTESTINFO_MONTH_VIEW@@VCXTPCalendarMonthViewDay@@@@UAEHVCPoint@@PAUXTP_CALENDAR_HITTESTINFO_MONTH_VIEW@@@Z
_TEXT	SEGMENT PARA USE32 PUBLIC 'CODE'
_TEXT	ENDS
;	COMDAT ?GetView_@?$CXTPCalendarViewDayT@VCXTPCalendarMonthView@@VCXTPCalendarMonthViewGroup@@UXTP_CALENDAR_HITTESTINFO_MONTH_VIEW@@VCXTPCalendarMonthViewDay@@@@UBEPAVCXTPCalendarView@@XZ
_TEXT	SEGMENT PARA USE32 PUBLIC 'CODE'
_TEXT	ENDS
;	COMDAT ?GetViewGroupsCount@?$CXTPCalendarViewDayT@VCXTPCalendarMonthView@@VCXTPCalendarMonthViewGroup@@UXTP_CALENDAR_HITTESTINFO_MONTH_VIEW@@VCXTPCalendarMonthViewDay@@@@UAEHXZ
_TEXT	SEGMENT PARA USE32 PUBLIC 'CODE'
_TEXT	ENDS
;	COMDAT ?GetViewGroup@?$CXTPCalendarViewDayT@VCXTPCalendarMonthView@@VCXTPCalendarMonthViewGroup@@UXTP_CALENDAR_HITTESTINFO_MONTH_VIEW@@VCXTPCalendarMonthViewDay@@@@UAEPAVCXTPCalendarMonthViewGroup@@H@Z
_TEXT	SEGMENT PARA USE32 PUBLIC 'CODE'
_TEXT	ENDS
;	COMDAT ?GetViewGroup_@?$CXTPCalendarViewDayT@VCXTPCalendarMonthView@@VCXTPCalendarMonthViewGroup@@UXTP_CALENDAR_HITTESTINFO_MONTH_VIEW@@VCXTPCalendarMonthViewDay@@@@UAEPAVCXTPCalendarViewGroup@@H@Z
_TEXT	SEGMENT PARA USE32 PUBLIC 'CODE'
_TEXT	ENDS
;	COMDAT ?Populate@?$CXTPCalendarViewDayT@VCXTPCalendarMonthView@@VCXTPCalendarMonthViewGroup@@UXTP_CALENDAR_HITTESTINFO_MONTH_VIEW@@VCXTPCalendarMonthViewDay@@@@UAEXVCOleDateTime@@@Z
_TEXT	SEGMENT PARA USE32 PUBLIC 'CODE'
_TEXT	ENDS
;	COMDAT ?AdjustLayout@?$CXTPCalendarViewDayT@VCXTPCalendarMonthView@@VCXTPCalendarMonthViewGroup@@UXTP_CALENDAR_HITTESTINFO_MONTH_VIEW@@VCXTPCalendarMonthViewDay@@@@UAEXPAVCDC@@ABVCRect@@@Z
_TEXT	SEGMENT PARA USE32 PUBLIC 'CODE'
_TEXT	ENDS
;	COMDAT ?NoAllEventsAreVisible@?$CXTPCalendarViewDayT@VCXTPCalendarMonthView@@VCXTPCalendarMonthViewGroup@@UXTP_CALENDAR_HITTESTINFO_MONTH_VIEW@@VCXTPCalendarMonthViewDay@@@@UAEHXZ
_TEXT	SEGMENT PARA USE32 PUBLIC 'CODE'
_TEXT	ENDS
;	COMDAT ??1?$CXTPCalendarViewT@VCXTPCalendarMonthViewDay@@UXTP_CALENDAR_HITTESTINFO_MONTH_VIEW@@@@UAE@XZ
_TEXT	SEGMENT PARA USE32 PUBLIC 'CODE'
_TEXT	ENDS
;	COMDAT ?GetViewType@?$CXTPCalendarViewT@VCXTPCalendarMonthViewDay@@UXTP_CALENDAR_HITTESTINFO_MONTH_VIEW@@@@UAE?AW4XTPCalendarViewType@@XZ
_TEXT	SEGMENT PARA USE32 PUBLIC 'CODE'
_TEXT	ENDS
;	COMDAT ?GetViewDayCount@?$CXTPCalendarViewT@VCXTPCalendarMonthViewDay@@UXTP_CALENDAR_HITTESTINFO_MONTH_VIEW@@@@UAEHXZ
_TEXT	SEGMENT PARA USE32 PUBLIC 'CODE'
_TEXT	ENDS
;	COMDAT ?GetViewDay_@?$CXTPCalendarViewT@VCXTPCalendarMonthViewDay@@UXTP_CALENDAR_HITTESTINFO_MONTH_VIEW@@@@UAEPAVCXTPCalendarViewDay@@H@Z
_TEXT	SEGMENT PARA USE32 PUBLIC 'CODE'
_TEXT	ENDS
;	COMDAT ?GetViewDay@?$CXTPCalendarViewT@VCXTPCalendarMonthViewDay@@UXTP_CALENDAR_HITTESTINFO_MONTH_VIEW@@@@UAEPAVCXTPCalendarMonthViewDay@@H@Z
_TEXT	SEGMENT PARA USE32 PUBLIC 'CODE'
_TEXT	ENDS
;	COMDAT ?HitTest@?$CXTPCalendarViewT@VCXTPCalendarMonthViewDay@@UXTP_CALENDAR_HITTESTINFO_MONTH_VIEW@@@@UAEHVCPoint@@PAUXTP_CALENDAR_HITTESTINFO@@@Z
_TEXT	SEGMENT PARA USE32 PUBLIC 'CODE'
_TEXT	ENDS
;	COMDAT ?HitTestEx@?$CXTPCalendarViewT@VCXTPCalendarMonthViewDay@@UXTP_CALENDAR_HITTESTINFO_MONTH_VIEW@@@@UAEHVCPoint@@PAUXTP_CALENDAR_HITTESTINFO_MONTH_VIEW@@@Z
_TEXT	SEGMENT PARA USE32 PUBLIC 'CODE'
_TEXT	ENDS
;	COMDAT ??1?$CXTPCalendarViewEventT@VCXTPCalendarWeekViewGroup@@UXTP_CALENDAR_HITTESTINFO_WEEK_VIEW@@@@UAE@XZ
_TEXT	SEGMENT PARA USE32 PUBLIC 'CODE'
_TEXT	ENDS
;	COMDAT ?HitTest@?$CXTPCalendarViewEventT@VCXTPCalendarWeekViewGroup@@UXTP_CALENDAR_HITTESTINFO_WEEK_VIEW@@@@UAEHVCPoint@@PAUXTP_CALENDAR_HITTESTINFO@@@Z
_TEXT	SEGMENT PARA USE32 PUBLIC 'CODE'
_TEXT	ENDS
;	COMDAT ?GetViewGroup_@?$CXTPCalendarViewEventT@VCXTPCalendarWeekViewGroup@@UXTP_CALENDAR_HITTESTINFO_WEEK_VIEW@@@@UBEPAVCXTPCalendarViewGroup@@XZ
_TEXT	SEGMENT PARA USE32 PUBLIC 'CODE'
_TEXT	ENDS
;	COMDAT ??1?$CXTPCalendarViewGroupT@VCXTPCalendarWeekViewDay@@VCXTPCalendarWeekViewEvent@@UXTP_CALENDAR_HITTESTINFO_WEEK_VIEW@@VCXTPCalendarWeekViewGroup@@@@UAE@XZ
_TEXT	SEGMENT PARA USE32 PUBLIC 'CODE'
_TEXT	ENDS
;	COMDAT ?HitTest@?$CXTPCalendarViewGroupT@VCXTPCalendarWeekViewDay@@VCXTPCalendarWeekViewEvent@@UXTP_CALENDAR_HITTESTINFO_WEEK_VIEW@@VCXTPCalendarWeekViewGroup@@@@UAEHVCPoint@@PAUXTP_CALENDAR_HITTESTINFO@@@Z
_TEXT	SEGMENT PARA USE32 PUBLIC 'CODE'
_TEXT	ENDS
